ARM GAS  C:\Users\kees\AppData\Local\Temp\cctvj9ob.s 			page 1


   1              		.cpu cortex-m0
   2              		.fpu softvfp
   3              		.eabi_attribute 20, 1
   4              		.eabi_attribute 21, 1
   5              		.eabi_attribute 23, 3
   6              		.eabi_attribute 24, 1
   7              		.eabi_attribute 25, 1
   8              		.eabi_attribute 26, 1
   9              		.eabi_attribute 30, 4
  10              		.eabi_attribute 18, 4
  11              		.code	16
  12              		.file	"Cube.c"
  19 0000 C3010000 		.text
  19      02006100 
  19      00000201 
  19      FB0E0D00 
  19      01010101 
  20              	.Ltext0:
  21              		.cfi_sections	.debug_frame
  22              		.section	.text.InitializeCube,"ax",%progbits
  23              		.align	1
  24              		.global	InitializeCube
  25              		.code	16
  26              		.thumb_func
  27              		.type	InitializeCube, %function
  28              	InitializeCube:
  29              	.LFB20:
  30              		.file 1 ".\\Cube.c"
   1:.\Cube.c      **** /* ========================================
   2:.\Cube.c      ****  *
   3:.\Cube.c      ****  * Copyright YOUR COMPANY, THE YEAR
   4:.\Cube.c      ****  * All Rights Reserved
   5:.\Cube.c      ****  * UNPUBLISHED, LICENSED SOFTWARE.
   6:.\Cube.c      ****  *
   7:.\Cube.c      ****  * CONFIDENTIAL AND PROPRIETARY INFORMATION
   8:.\Cube.c      ****  * WHICH IS THE PROPERTY OF your company.
   9:.\Cube.c      ****  *
  10:.\Cube.c      ****  * ========================================
  11:.\Cube.c      **** */
  12:.\Cube.c      **** 
  13:.\Cube.c      **** #include "Cube.h"
  14:.\Cube.c      **** 
  15:.\Cube.c      **** uint32 X_scale_flag = 0;
  16:.\Cube.c      **** uint32 Y_scale_flag = 0;
  17:.\Cube.c      **** uint32 X_offset_flag = 0;
  18:.\Cube.c      **** uint32 Y_offset_flag = 0;
  19:.\Cube.c      **** 
  20:.\Cube.c      **** float a1x, a1y, a1z;
  21:.\Cube.c      **** float a2x, a2y, a2z;
  22:.\Cube.c      **** float a3x, a3y, a3z;
  23:.\Cube.c      **** float a4x, a4y, a4z;
ARM GAS  C:\Users\kees\AppData\Local\Temp\cctvj9ob.s 			page 2


  24:.\Cube.c      **** float a5x, a5y, a5z;
  25:.\Cube.c      **** float a6x, a6y, a6z;
  26:.\Cube.c      **** float a7x, a7y, a7z;
  27:.\Cube.c      **** float a8x, a8y, a8z;
  28:.\Cube.c      **** 
  29:.\Cube.c      **** float b1x, b1y;
  30:.\Cube.c      **** float b2x, b2y;
  31:.\Cube.c      **** float b3x, b3y;
  32:.\Cube.c      **** float b4x, b4y;
  33:.\Cube.c      **** float b5x, b5y;
  34:.\Cube.c      **** float b6x, b6y;
  35:.\Cube.c      **** float b7x, b7y;
  36:.\Cube.c      **** float b8x, b8y;
  37:.\Cube.c      **** 
  38:.\Cube.c      **** float b1x_old, b1y_old;
  39:.\Cube.c      **** float b2x_old, b2y_old;
  40:.\Cube.c      **** float b3x_old, b3y_old;
  41:.\Cube.c      **** float b4x_old, b4y_old;
  42:.\Cube.c      **** float b5x_old, b5y_old;
  43:.\Cube.c      **** float b6x_old, b6y_old;
  44:.\Cube.c      **** float b7x_old, b7y_old;
  45:.\Cube.c      **** float b8x_old, b8y_old;
  46:.\Cube.c      **** 
  47:.\Cube.c      **** void InitializeCube(void)
  48:.\Cube.c      **** {
  31              		.loc 1 48 0
  32              		.cfi_startproc
  49:.\Cube.c      **** 	a1x = 1;
  33              		.loc 1 49 0
  34 0000 194B     		ldr	r3, .L3
  35 0002 1A4A     		ldr	r2, .L3+4
  50:.\Cube.c      **** 	a1y = 1;
  51:.\Cube.c      **** 	a1z = 1;
  52:.\Cube.c      **** 	
  53:.\Cube.c      **** 	a2x = 1;
  54:.\Cube.c      **** 	a2y = 1;
  55:.\Cube.c      **** 	a2z = -1;
  36              		.loc 1 55 0
  37 0004 1A49     		ldr	r1, .L3+8
  38              		.loc 1 49 0
  39 0006 1360     		str	r3, [r2]
  40              		.loc 1 50 0
  41 0008 1A4A     		ldr	r2, .L3+12
  56:.\Cube.c      **** 	
  57:.\Cube.c      **** 	a3x = -1;
  58:.\Cube.c      **** 	a3y = 1;
  59:.\Cube.c      **** 	a3z = -1;
  60:.\Cube.c      **** 	
  61:.\Cube.c      **** 	a4x = -1;
  62:.\Cube.c      **** 	a4y = 1;
  63:.\Cube.c      **** 	a4z = 1;
  64:.\Cube.c      **** 	
  65:.\Cube.c      **** 	a5x = 1;
  66:.\Cube.c      **** 	a5y = -1;
  67:.\Cube.c      **** 	a5z = 1;
  68:.\Cube.c      **** 	
  69:.\Cube.c      **** 	a6x = 1;
ARM GAS  C:\Users\kees\AppData\Local\Temp\cctvj9ob.s 			page 3


  70:.\Cube.c      **** 	a6y = -1;
  71:.\Cube.c      **** 	a6z = -1;
  72:.\Cube.c      **** 	
  73:.\Cube.c      **** 	a7x = -1;
  74:.\Cube.c      **** 	a7y = -1;
  75:.\Cube.c      **** 	a7z = -1;
  76:.\Cube.c      **** 	
  77:.\Cube.c      **** 	a8x = -1;
  78:.\Cube.c      **** 	a8y = -1;
  79:.\Cube.c      **** 	a8z = 1;
  80:.\Cube.c      **** 	
  81:.\Cube.c      **** 	return;
  82:.\Cube.c      **** }
  42              		.loc 1 82 0
  43              		@ sp needed for prologue
  44              		.loc 1 50 0
  45 000a 1360     		str	r3, [r2]
  46              		.loc 1 51 0
  47 000c 1A4A     		ldr	r2, .L3+16
  48 000e 1360     		str	r3, [r2]
  49              		.loc 1 53 0
  50 0010 1A4A     		ldr	r2, .L3+20
  51 0012 1360     		str	r3, [r2]
  52              		.loc 1 54 0
  53 0014 1A4A     		ldr	r2, .L3+24
  54 0016 1360     		str	r3, [r2]
  55              		.loc 1 55 0
  56 0018 1A4A     		ldr	r2, .L3+28
  57 001a 0A60     		str	r2, [r1]
  58              		.loc 1 57 0
  59 001c 1A49     		ldr	r1, .L3+32
  60 001e 0A60     		str	r2, [r1]
  61              		.loc 1 58 0
  62 0020 1A49     		ldr	r1, .L3+36
  63 0022 0B60     		str	r3, [r1]
  64              		.loc 1 59 0
  65 0024 1A49     		ldr	r1, .L3+40
  66 0026 0A60     		str	r2, [r1]
  67              		.loc 1 61 0
  68 0028 1A49     		ldr	r1, .L3+44
  69 002a 0A60     		str	r2, [r1]
  70              		.loc 1 62 0
  71 002c 1A49     		ldr	r1, .L3+48
  72 002e 0B60     		str	r3, [r1]
  73              		.loc 1 63 0
  74 0030 1A49     		ldr	r1, .L3+52
  75 0032 0B60     		str	r3, [r1]
  76              		.loc 1 65 0
  77 0034 1A49     		ldr	r1, .L3+56
  78 0036 0B60     		str	r3, [r1]
  79              		.loc 1 66 0
  80 0038 1A49     		ldr	r1, .L3+60
  81 003a 0A60     		str	r2, [r1]
  82              		.loc 1 67 0
  83 003c 1A49     		ldr	r1, .L3+64
  84 003e 0B60     		str	r3, [r1]
  85              		.loc 1 69 0
ARM GAS  C:\Users\kees\AppData\Local\Temp\cctvj9ob.s 			page 4


  86 0040 1A49     		ldr	r1, .L3+68
  87 0042 0B60     		str	r3, [r1]
  88              		.loc 1 70 0
  89 0044 1A49     		ldr	r1, .L3+72
  90 0046 0A60     		str	r2, [r1]
  91              		.loc 1 71 0
  92 0048 1A49     		ldr	r1, .L3+76
  93 004a 0A60     		str	r2, [r1]
  94              		.loc 1 73 0
  95 004c 1A49     		ldr	r1, .L3+80
  96 004e 0A60     		str	r2, [r1]
  97              		.loc 1 74 0
  98 0050 1A49     		ldr	r1, .L3+84
  99 0052 0A60     		str	r2, [r1]
 100              		.loc 1 75 0
 101 0054 1A49     		ldr	r1, .L3+88
 102 0056 0A60     		str	r2, [r1]
 103              		.loc 1 77 0
 104 0058 1A49     		ldr	r1, .L3+92
 105 005a 0A60     		str	r2, [r1]
 106              		.loc 1 78 0
 107 005c 1A49     		ldr	r1, .L3+96
 108 005e 0A60     		str	r2, [r1]
 109              		.loc 1 79 0
 110 0060 1A4A     		ldr	r2, .L3+100
 111 0062 1360     		str	r3, [r2]
 112              		.loc 1 82 0
 113 0064 7047     		bx	lr
 114              	.L4:
 115 0066 C046     		.align	2
 116              	.L3:
 117 0068 0000803F 		.word	1065353216
 118 006c 00000000 		.word	a1x
 119 0070 00000000 		.word	a2z
 120 0074 00000000 		.word	a1y
 121 0078 00000000 		.word	a1z
 122 007c 00000000 		.word	a2x
 123 0080 00000000 		.word	a2y
 124 0084 000080BF 		.word	-1082130432
 125 0088 00000000 		.word	a3x
 126 008c 00000000 		.word	a3y
 127 0090 00000000 		.word	a3z
 128 0094 00000000 		.word	a4x
 129 0098 00000000 		.word	a4y
 130 009c 00000000 		.word	a4z
 131 00a0 00000000 		.word	a5x
 132 00a4 00000000 		.word	a5y
 133 00a8 00000000 		.word	a5z
 134 00ac 00000000 		.word	a6x
 135 00b0 00000000 		.word	a6y
 136 00b4 00000000 		.word	a6z
 137 00b8 00000000 		.word	a7x
 138 00bc 00000000 		.word	a7y
 139 00c0 00000000 		.word	a7z
 140 00c4 00000000 		.word	a8x
 141 00c8 00000000 		.word	a8y
 142 00cc 00000000 		.word	a8z
ARM GAS  C:\Users\kees\AppData\Local\Temp\cctvj9ob.s 			page 5


 143              		.cfi_endproc
 144              	.LFE20:
 145              		.size	InitializeCube, .-InitializeCube
 146              		.section	.text.SaveOldLinesCube,"ax",%progbits
 147              		.align	1
 148              		.global	SaveOldLinesCube
 149              		.code	16
 150              		.thumb_func
 151              		.type	SaveOldLinesCube, %function
 152              	SaveOldLinesCube:
 153              	.LFB24:
  83:.\Cube.c      **** 
  84:.\Cube.c      **** void RotateCubeX(float angle)
  85:.\Cube.c      **** {
  86:.\Cube.c      **** 	rotatex(&a1x, &a1y, &a1z, angle);
  87:.\Cube.c      **** 	rotatex(&a2x, &a2y, &a2z, angle);
  88:.\Cube.c      **** 	rotatex(&a3x, &a3y, &a3z, angle);
  89:.\Cube.c      **** 	rotatex(&a4x, &a4y, &a4z, angle);
  90:.\Cube.c      **** 	rotatex(&a5x, &a5y, &a5z, angle);
  91:.\Cube.c      **** 	rotatex(&a6x, &a6y, &a6z, angle);
  92:.\Cube.c      **** 	rotatex(&a7x, &a7y, &a7z, angle);
  93:.\Cube.c      **** 	rotatex(&a8x, &a8y, &a8z, angle);
  94:.\Cube.c      **** 	
  95:.\Cube.c      **** 	return;
  96:.\Cube.c      **** }
  97:.\Cube.c      **** 
  98:.\Cube.c      **** void RotateCubeY(float angle)
  99:.\Cube.c      **** {
 100:.\Cube.c      **** 	rotatey(&a1x, &a1y, &a1z, angle);
 101:.\Cube.c      **** 	rotatey(&a2x, &a2y, &a2z, angle);
 102:.\Cube.c      **** 	rotatey(&a3x, &a3y, &a3z, angle);
 103:.\Cube.c      **** 	rotatey(&a4x, &a4y, &a4z, angle);
 104:.\Cube.c      **** 	rotatey(&a5x, &a5y, &a5z, angle);
 105:.\Cube.c      **** 	rotatey(&a6x, &a6y, &a6z, angle);
 106:.\Cube.c      **** 	rotatey(&a7x, &a7y, &a7z, angle);
 107:.\Cube.c      **** 	rotatey(&a8x, &a8y, &a8z, angle);
 108:.\Cube.c      **** 	
 109:.\Cube.c      **** 	return;
 110:.\Cube.c      **** }
 111:.\Cube.c      **** 
 112:.\Cube.c      **** void RotateCubeZ(float angle)
 113:.\Cube.c      **** {
 114:.\Cube.c      **** 	rotatez(&a1x, &a1y, &a1z, angle);
 115:.\Cube.c      **** 	rotatez(&a2x, &a2y, &a2z, angle);
 116:.\Cube.c      **** 	rotatez(&a3x, &a3y, &a3z, angle);
 117:.\Cube.c      **** 	rotatez(&a4x, &a4y, &a4z, angle);
 118:.\Cube.c      **** 	rotatez(&a5x, &a5y, &a5z, angle);
 119:.\Cube.c      **** 	rotatez(&a6x, &a6y, &a6z, angle);
 120:.\Cube.c      **** 	rotatez(&a7x, &a7y, &a7z, angle);
 121:.\Cube.c      **** 	rotatez(&a8x, &a8y, &a8z, angle);
 122:.\Cube.c      **** 	
 123:.\Cube.c      **** 	return;
 124:.\Cube.c      **** }
 125:.\Cube.c      **** 
 126:.\Cube.c      **** void SaveOldLinesCube(void)
 127:.\Cube.c      **** {
 154              		.loc 1 127 0
ARM GAS  C:\Users\kees\AppData\Local\Temp\cctvj9ob.s 			page 6


 155              		.cfi_startproc
 128:.\Cube.c      **** 	b1x_old = b1x;
 156              		.loc 1 128 0
 157 0000 204B     		ldr	r3, .L7
 129:.\Cube.c      **** 	b2x_old = b2x;
 130:.\Cube.c      **** 	b3x_old = b3x;
 131:.\Cube.c      **** 	b4x_old = b4x;
 132:.\Cube.c      **** 	b5x_old = b5x;
 133:.\Cube.c      **** 	b6x_old = b6x;
 134:.\Cube.c      **** 	b7x_old = b7x;
 135:.\Cube.c      **** 	b8x_old = b8x;
 136:.\Cube.c      **** 	
 137:.\Cube.c      **** 	b1y_old = b1y;
 138:.\Cube.c      **** 	b2y_old = b2y;
 139:.\Cube.c      **** 	b3y_old = b3y;
 140:.\Cube.c      **** 	b4y_old = b4y;
 141:.\Cube.c      **** 	b5y_old = b5y;
 142:.\Cube.c      **** 	b6y_old = b6y;
 143:.\Cube.c      **** 	b7y_old = b7y;
 144:.\Cube.c      **** 	b8y_old = b8y;
 145:.\Cube.c      **** 	
 146:.\Cube.c      **** 	return;
 147:.\Cube.c      **** }
 158              		.loc 1 147 0
 159              		@ sp needed for prologue
 160              		.loc 1 128 0
 161 0002 1A68     		ldr	r2, [r3]
 162 0004 204B     		ldr	r3, .L7+4
 163 0006 1A60     		str	r2, [r3]
 164              		.loc 1 129 0
 165 0008 204B     		ldr	r3, .L7+8
 166 000a 1A68     		ldr	r2, [r3]
 167 000c 204B     		ldr	r3, .L7+12
 168 000e 1A60     		str	r2, [r3]
 169              		.loc 1 130 0
 170 0010 204B     		ldr	r3, .L7+16
 171 0012 1A68     		ldr	r2, [r3]
 172 0014 204B     		ldr	r3, .L7+20
 173 0016 1A60     		str	r2, [r3]
 174              		.loc 1 131 0
 175 0018 204B     		ldr	r3, .L7+24
 176 001a 1A68     		ldr	r2, [r3]
 177 001c 204B     		ldr	r3, .L7+28
 178 001e 1A60     		str	r2, [r3]
 179              		.loc 1 132 0
 180 0020 204B     		ldr	r3, .L7+32
 181 0022 1A68     		ldr	r2, [r3]
 182 0024 204B     		ldr	r3, .L7+36
 183 0026 1A60     		str	r2, [r3]
 184              		.loc 1 133 0
 185 0028 204B     		ldr	r3, .L7+40
 186 002a 1A68     		ldr	r2, [r3]
 187 002c 204B     		ldr	r3, .L7+44
 188 002e 1A60     		str	r2, [r3]
 189              		.loc 1 134 0
 190 0030 204B     		ldr	r3, .L7+48
 191 0032 1A68     		ldr	r2, [r3]
ARM GAS  C:\Users\kees\AppData\Local\Temp\cctvj9ob.s 			page 7


 192 0034 204B     		ldr	r3, .L7+52
 193 0036 1A60     		str	r2, [r3]
 194              		.loc 1 135 0
 195 0038 204B     		ldr	r3, .L7+56
 196 003a 1A68     		ldr	r2, [r3]
 197 003c 204B     		ldr	r3, .L7+60
 198 003e 1A60     		str	r2, [r3]
 199              		.loc 1 137 0
 200 0040 204B     		ldr	r3, .L7+64
 201 0042 1A68     		ldr	r2, [r3]
 202 0044 204B     		ldr	r3, .L7+68
 203 0046 1A60     		str	r2, [r3]
 204              		.loc 1 138 0
 205 0048 204B     		ldr	r3, .L7+72
 206 004a 1A68     		ldr	r2, [r3]
 207 004c 204B     		ldr	r3, .L7+76
 208 004e 1A60     		str	r2, [r3]
 209              		.loc 1 139 0
 210 0050 204B     		ldr	r3, .L7+80
 211 0052 1A68     		ldr	r2, [r3]
 212 0054 204B     		ldr	r3, .L7+84
 213 0056 1A60     		str	r2, [r3]
 214              		.loc 1 140 0
 215 0058 204B     		ldr	r3, .L7+88
 216 005a 1A68     		ldr	r2, [r3]
 217 005c 204B     		ldr	r3, .L7+92
 218 005e 1A60     		str	r2, [r3]
 219              		.loc 1 141 0
 220 0060 204B     		ldr	r3, .L7+96
 221 0062 1A68     		ldr	r2, [r3]
 222 0064 204B     		ldr	r3, .L7+100
 223 0066 1A60     		str	r2, [r3]
 224              		.loc 1 142 0
 225 0068 204B     		ldr	r3, .L7+104
 226 006a 1A68     		ldr	r2, [r3]
 227 006c 204B     		ldr	r3, .L7+108
 228 006e 1A60     		str	r2, [r3]
 229              		.loc 1 143 0
 230 0070 204B     		ldr	r3, .L7+112
 231 0072 1A68     		ldr	r2, [r3]
 232 0074 204B     		ldr	r3, .L7+116
 233 0076 1A60     		str	r2, [r3]
 234              		.loc 1 144 0
 235 0078 204B     		ldr	r3, .L7+120
 236 007a 1A68     		ldr	r2, [r3]
 237 007c 204B     		ldr	r3, .L7+124
 238 007e 1A60     		str	r2, [r3]
 239              		.loc 1 147 0
 240 0080 7047     		bx	lr
 241              	.L8:
 242 0082 C046     		.align	2
 243              	.L7:
 244 0084 00000000 		.word	b1x
 245 0088 00000000 		.word	b1x_old
 246 008c 00000000 		.word	b2x
 247 0090 00000000 		.word	b2x_old
 248 0094 00000000 		.word	b3x
ARM GAS  C:\Users\kees\AppData\Local\Temp\cctvj9ob.s 			page 8


 249 0098 00000000 		.word	b3x_old
 250 009c 00000000 		.word	b4x
 251 00a0 00000000 		.word	b4x_old
 252 00a4 00000000 		.word	b5x
 253 00a8 00000000 		.word	b5x_old
 254 00ac 00000000 		.word	b6x
 255 00b0 00000000 		.word	b6x_old
 256 00b4 00000000 		.word	b7x
 257 00b8 00000000 		.word	b7x_old
 258 00bc 00000000 		.word	b8x
 259 00c0 00000000 		.word	b8x_old
 260 00c4 00000000 		.word	b1y
 261 00c8 00000000 		.word	b1y_old
 262 00cc 00000000 		.word	b2y
 263 00d0 00000000 		.word	b2y_old
 264 00d4 00000000 		.word	b3y
 265 00d8 00000000 		.word	b3y_old
 266 00dc 00000000 		.word	b4y
 267 00e0 00000000 		.word	b4y_old
 268 00e4 00000000 		.word	b5y
 269 00e8 00000000 		.word	b5y_old
 270 00ec 00000000 		.word	b6y
 271 00f0 00000000 		.word	b6y_old
 272 00f4 00000000 		.word	b7y
 273 00f8 00000000 		.word	b7y_old
 274 00fc 00000000 		.word	b8y
 275 0100 00000000 		.word	b8y_old
 276              		.cfi_endproc
 277              	.LFE24:
 278              		.size	SaveOldLinesCube, .-SaveOldLinesCube
 279              		.global	__aeabi_fsub
 280              		.global	__aeabi_fadd
 281              		.global	__aeabi_fcmpeq
 282              		.section	.text.ScaleDistort,"ax",%progbits
 283              		.align	1
 284              		.global	ScaleDistort
 285              		.code	16
 286              		.thumb_func
 287              		.type	ScaleDistort, %function
 288              	ScaleDistort:
 289              	.LFB27:
 148:.\Cube.c      **** 
 149:.\Cube.c      **** void ProjectCube(void)
 150:.\Cube.c      **** {
 151:.\Cube.c      **** 	project(a1x, a1y, a1z, &b1x, &b1y);
 152:.\Cube.c      **** 	project(a2x, a2y, a2z, &b2x, &b2y);
 153:.\Cube.c      **** 	project(a3x, a3y, a3z, &b3x, &b3y);
 154:.\Cube.c      **** 	project(a4x, a4y, a4z, &b4x, &b4y);
 155:.\Cube.c      **** 	project(a5x, a5y, a5z, &b5x, &b5y);
 156:.\Cube.c      **** 	project(a6x, a6y, a6z, &b6x, &b6y);
 157:.\Cube.c      **** 	project(a7x, a7y, a7z, &b7x, &b7y);
 158:.\Cube.c      **** 	project(a8x, a8y, a8z, &b8x, &b8y);
 159:.\Cube.c      **** }
 160:.\Cube.c      **** 
 161:.\Cube.c      **** void DrawCube(void)
 162:.\Cube.c      **** {
 163:.\Cube.c      **** 	LCD_DrawLine((uint8) b1x_old,(uint8) b1y_old,(uint8) b2x_old,(uint8) b2y_old, BACKGROUND);
ARM GAS  C:\Users\kees\AppData\Local\Temp\cctvj9ob.s 			page 9


 164:.\Cube.c      **** 	LCD_DrawLine((uint8) b1x,(uint8) b1y,(uint8) b2x,(uint8) b2y, FOREGROUND);
 165:.\Cube.c      **** 	
 166:.\Cube.c      **** 	LCD_DrawLine((uint8) b1x_old,(uint8) b1y_old,(uint8) b4x_old,(uint8) b4y_old, BACKGROUND);
 167:.\Cube.c      **** 	LCD_DrawLine((uint8) b1x,(uint8) b1y,(uint8) b4x,(uint8) b4y, FOREGROUND);
 168:.\Cube.c      **** 	
 169:.\Cube.c      **** 	LCD_DrawLine((uint8) b1x_old,(uint8) b1y_old,(uint8) b5x_old,(uint8) b5y_old, BACKGROUND);
 170:.\Cube.c      **** 	LCD_DrawLine((uint8) b1x,(uint8) b1y,(uint8) b5x,(uint8) b5y, FOREGROUND);
 171:.\Cube.c      **** 	
 172:.\Cube.c      **** 	LCD_DrawLine((uint8) b2x_old,(uint8) b2y_old,(uint8) b3x_old,(uint8) b3y_old, BACKGROUND);
 173:.\Cube.c      **** 	LCD_DrawLine((uint8) b2x,(uint8) b2y,(uint8) b3x,(uint8) b3y, FOREGROUND);
 174:.\Cube.c      **** 	
 175:.\Cube.c      **** 	LCD_DrawLine((uint8) b2x_old,(uint8) b2y_old,(uint8) b6x_old,(uint8) b6y_old, BACKGROUND);
 176:.\Cube.c      **** 	LCD_DrawLine((uint8) b2x,(uint8) b2y,(uint8) b6x,(uint8) b6y, FOREGROUND);
 177:.\Cube.c      **** 	
 178:.\Cube.c      **** 	LCD_DrawLine((uint8) b5x_old,(uint8) b5y_old,(uint8) b6x_old,(uint8) b6y_old, BACKGROUND);
 179:.\Cube.c      **** 	LCD_DrawLine((uint8) b5x,(uint8) b5y,(uint8) b6x,(uint8) b6y, FOREGROUND);
 180:.\Cube.c      **** 	
 181:.\Cube.c      **** 	LCD_DrawLine((uint8) b5x_old,(uint8) b5y_old,(uint8) b8x_old,(uint8) b8y_old, BACKGROUND);
 182:.\Cube.c      **** 	LCD_DrawLine((uint8) b5x,(uint8) b5y,(uint8) b8x,(uint8) b8y, FOREGROUND);
 183:.\Cube.c      **** 	
 184:.\Cube.c      **** 	LCD_DrawLine((uint8) b8x_old,(uint8) b8y_old,(uint8) b7x_old,(uint8) b7y_old, BACKGROUND);
 185:.\Cube.c      **** 	LCD_DrawLine((uint8) b8x,(uint8) b8y,(uint8) b7x,(uint8) b7y, FOREGROUND);
 186:.\Cube.c      **** 	
 187:.\Cube.c      **** 	LCD_DrawLine((uint8) b7x_old,(uint8) b7y_old,(uint8) b6x_old,(uint8) b6y_old, BACKGROUND);
 188:.\Cube.c      **** 	LCD_DrawLine((uint8) b7x,(uint8) b7y,(uint8) b6x,(uint8) b6y, FOREGROUND);
 189:.\Cube.c      **** 	
 190:.\Cube.c      **** 	LCD_DrawLine((uint8) b7x_old,(uint8) b7y_old,(uint8) b3x_old,(uint8) b3y_old, BACKGROUND);
 191:.\Cube.c      **** 	LCD_DrawLine((uint8) b7x,(uint8) b7y,(uint8) b3x,(uint8) b3y, FOREGROUND);
 192:.\Cube.c      **** 	
 193:.\Cube.c      **** 	LCD_DrawLine((uint8) b4x_old,(uint8) b4y_old,(uint8) b3x_old,(uint8) b3y_old, BACKGROUND);
 194:.\Cube.c      **** 	LCD_DrawLine((uint8) b4x,(uint8) b4y,(uint8) b3x,(uint8) b3y, FOREGROUND);
 195:.\Cube.c      **** 	
 196:.\Cube.c      **** 	LCD_DrawLine((uint8) b4x_old,(uint8) b4y_old,(uint8) b8x_old,(uint8) b8y_old, BACKGROUND);
 197:.\Cube.c      **** 	LCD_DrawLine((uint8) b4x,(uint8) b4y,(uint8) b8x,(uint8) b8y, FOREGROUND);
 198:.\Cube.c      **** 	
 199:.\Cube.c      **** 	// X
 200:.\Cube.c      **** 	LCD_DrawLine((uint8) b2x_old,(uint8) b2y_old,(uint8) b4x_old,(uint8) b4y_old, BACKGROUND);
 201:.\Cube.c      **** 	LCD_DrawLine((uint8) b2x,(uint8) b2y,(uint8) b4x,(uint8) b4y, LCD_RED);
 202:.\Cube.c      **** 	
 203:.\Cube.c      **** 	LCD_DrawLine((uint8) b1x_old,(uint8) b1y_old,(uint8) b3x_old,(uint8) b3y_old, BACKGROUND);
 204:.\Cube.c      **** 	LCD_DrawLine((uint8) b1x,(uint8) b1y,(uint8) b3x,(uint8) b3y, LCD_RED);
 205:.\Cube.c      **** 	
 206:.\Cube.c      **** 	return;
 207:.\Cube.c      **** }
 208:.\Cube.c      **** 
 209:.\Cube.c      **** void ScaleDistort(void)
 210:.\Cube.c      **** {
 290              		.loc 1 210 0
 291              		.cfi_startproc
 292 0000 10B5     		push	{r4, lr}
 293              	.LCFI0:
 294              		.cfi_def_cfa_offset 8
 295              		.cfi_offset 4, -8
 296              		.cfi_offset 14, -4
 211:.\Cube.c      **** 		if(X_scale_flag == 0)
 297              		.loc 1 211 0
 298 0002 214B     		ldr	r3, .L30
ARM GAS  C:\Users\kees\AppData\Local\Temp\cctvj9ob.s 			page 10


 299 0004 214C     		ldr	r4, .L30+4
 300 0006 1B68     		ldr	r3, [r3]
 212:.\Cube.c      **** 		{
 213:.\Cube.c      **** 			X_SCALE--;
 301              		.loc 1 213 0
 302 0008 2068     		ldr	r0, [r4]
 303 000a 2149     		ldr	r1, .L30+8
 304              		.loc 1 211 0
 305 000c 002B     		cmp	r3, #0
 306 000e 02D1     		bne	.L10
 307              		.loc 1 213 0
 308 0010 FFF7FEFF 		bl	__aeabi_fsub
 309 0014 01E0     		b	.L27
 310              	.L10:
 214:.\Cube.c      **** 		}
 215:.\Cube.c      **** 		else
 216:.\Cube.c      **** 		{
 217:.\Cube.c      **** 			X_SCALE++;
 311              		.loc 1 217 0
 312 0016 FFF7FEFF 		bl	__aeabi_fadd
 313              	.L27:
 218:.\Cube.c      **** 		}
 219:.\Cube.c      **** 		
 220:.\Cube.c      **** 		if(X_SCALE == 0)
 314              		.loc 1 220 0
 315 001a 1C4B     		ldr	r3, .L30+4
 316              		.loc 1 217 0
 317 001c 2060     		str	r0, [r4]
 318              		.loc 1 220 0
 319 001e 1C68     		ldr	r4, [r3]
 320 0020 1C49     		ldr	r1, .L30+12
 321 0022 201C     		add	r0, r4, #0
 322 0024 FFF7FEFF 		bl	__aeabi_fcmpeq
 323 0028 0028     		cmp	r0, #0
 324 002a 02D0     		beq	.L12
 221:.\Cube.c      **** 		{
 222:.\Cube.c      **** 			X_scale_flag = 1;
 325              		.loc 1 222 0
 326 002c 164B     		ldr	r3, .L30
 327 002e 0122     		mov	r2, #1
 328 0030 1A60     		str	r2, [r3]
 329              	.L12:
 223:.\Cube.c      **** 		}
 224:.\Cube.c      **** 		if(X_SCALE == 40)
 330              		.loc 1 224 0
 331 0032 201C     		add	r0, r4, #0
 332 0034 1849     		ldr	r1, .L30+16
 333 0036 FFF7FEFF 		bl	__aeabi_fcmpeq
 334 003a 0028     		cmp	r0, #0
 335 003c 02D0     		beq	.L14
 225:.\Cube.c      **** 		{
 226:.\Cube.c      **** 			X_scale_flag = 0;
 336              		.loc 1 226 0
 337 003e 124B     		ldr	r3, .L30
 338 0040 0022     		mov	r2, #0
 339 0042 1A60     		str	r2, [r3]
 340              	.L14:
ARM GAS  C:\Users\kees\AppData\Local\Temp\cctvj9ob.s 			page 11


 227:.\Cube.c      **** 		}
 228:.\Cube.c      **** 		
 229:.\Cube.c      **** 		if(Y_scale_flag == 0)
 341              		.loc 1 229 0
 342 0044 104B     		ldr	r3, .L30
 343 0046 154C     		ldr	r4, .L30+20
 344 0048 5B68     		ldr	r3, [r3, #4]
 230:.\Cube.c      **** 		{
 231:.\Cube.c      **** 			Y_SCALE--;
 345              		.loc 1 231 0
 346 004a 2068     		ldr	r0, [r4]
 347 004c 1049     		ldr	r1, .L30+8
 348              		.loc 1 229 0
 349 004e 002B     		cmp	r3, #0
 350 0050 02D1     		bne	.L16
 351              		.loc 1 231 0
 352 0052 FFF7FEFF 		bl	__aeabi_fsub
 353 0056 01E0     		b	.L28
 354              	.L16:
 232:.\Cube.c      **** 		}
 233:.\Cube.c      **** 		else
 234:.\Cube.c      **** 		{
 235:.\Cube.c      **** 			Y_SCALE++;
 355              		.loc 1 235 0
 356 0058 FFF7FEFF 		bl	__aeabi_fadd
 357              	.L28:
 236:.\Cube.c      **** 		}
 237:.\Cube.c      **** 		
 238:.\Cube.c      **** 		if(Y_SCALE == 0)
 358              		.loc 1 238 0
 359 005c 0F4B     		ldr	r3, .L30+20
 360              		.loc 1 235 0
 361 005e 2060     		str	r0, [r4]
 362              		.loc 1 238 0
 363 0060 1C68     		ldr	r4, [r3]
 364 0062 0C49     		ldr	r1, .L30+12
 365 0064 201C     		add	r0, r4, #0
 366 0066 FFF7FEFF 		bl	__aeabi_fcmpeq
 367 006a 0028     		cmp	r0, #0
 368 006c 02D0     		beq	.L18
 239:.\Cube.c      **** 		{
 240:.\Cube.c      **** 			Y_scale_flag = 1;
 369              		.loc 1 240 0
 370 006e 064B     		ldr	r3, .L30
 371 0070 0122     		mov	r2, #1
 372 0072 5A60     		str	r2, [r3, #4]
 373              	.L18:
 241:.\Cube.c      **** 		}
 242:.\Cube.c      **** 		if(Y_SCALE == 37)
 374              		.loc 1 242 0
 375 0074 201C     		add	r0, r4, #0
 376 0076 0A49     		ldr	r1, .L30+24
 377 0078 FFF7FEFF 		bl	__aeabi_fcmpeq
 378 007c 0028     		cmp	r0, #0
 379 007e 02D0     		beq	.L22
 243:.\Cube.c      **** 		{
 244:.\Cube.c      **** 			Y_scale_flag = 0;
ARM GAS  C:\Users\kees\AppData\Local\Temp\cctvj9ob.s 			page 12


 380              		.loc 1 244 0
 381 0080 014B     		ldr	r3, .L30
 382 0082 0022     		mov	r2, #0
 383 0084 5A60     		str	r2, [r3, #4]
 384              	.L22:
 245:.\Cube.c      **** 		}
 246:.\Cube.c      **** 		
 247:.\Cube.c      **** 		return;
 248:.\Cube.c      **** }
 385              		.loc 1 248 0
 386              		@ sp needed for prologue
 387 0086 10BD     		pop	{r4, pc}
 388              	.L31:
 389              		.align	2
 390              	.L30:
 391 0088 00000000 		.word	.LANCHOR0
 392 008c 00000000 		.word	X_SCALE
 393 0090 0000803F 		.word	1065353216
 394 0094 00000000 		.word	0
 395 0098 00002042 		.word	1109393408
 396 009c 00000000 		.word	Y_SCALE
 397 00a0 00001442 		.word	1108606976
 398              		.cfi_endproc
 399              	.LFE27:
 400              		.size	ScaleDistort, .-ScaleDistort
 401              		.section	.text.OffsetBounce,"ax",%progbits
 402              		.align	1
 403              		.global	OffsetBounce
 404              		.code	16
 405              		.thumb_func
 406              		.type	OffsetBounce, %function
 407              	OffsetBounce:
 408              	.LFB28:
 249:.\Cube.c      **** 
 250:.\Cube.c      **** void OffsetBounce(void)
 251:.\Cube.c      **** {
 409              		.loc 1 251 0
 410              		.cfi_startproc
 411 0000 10B5     		push	{r4, lr}
 412              	.LCFI1:
 413              		.cfi_def_cfa_offset 8
 414              		.cfi_offset 4, -8
 415              		.cfi_offset 14, -4
 252:.\Cube.c      **** 		if(X_offset_flag == 0)
 416              		.loc 1 252 0
 417 0002 214B     		ldr	r3, .L52
 418 0004 214C     		ldr	r4, .L52+4
 419 0006 9B68     		ldr	r3, [r3, #8]
 253:.\Cube.c      **** 		{
 254:.\Cube.c      **** 			X_OFFSET--;
 420              		.loc 1 254 0
 421 0008 2068     		ldr	r0, [r4]
 422 000a 2149     		ldr	r1, .L52+8
 423              		.loc 1 252 0
 424 000c 002B     		cmp	r3, #0
 425 000e 02D1     		bne	.L33
 426              		.loc 1 254 0
ARM GAS  C:\Users\kees\AppData\Local\Temp\cctvj9ob.s 			page 13


 427 0010 FFF7FEFF 		bl	__aeabi_fsub
 428 0014 01E0     		b	.L50
 429              	.L33:
 255:.\Cube.c      **** 		}
 256:.\Cube.c      **** 		else
 257:.\Cube.c      **** 		{
 258:.\Cube.c      **** 			X_OFFSET++;
 430              		.loc 1 258 0
 431 0016 FFF7FEFF 		bl	__aeabi_fadd
 432              	.L50:
 259:.\Cube.c      **** 		}
 260:.\Cube.c      **** 		
 261:.\Cube.c      **** 		if(X_OFFSET == 0)
 433              		.loc 1 261 0
 434 001a 1C4B     		ldr	r3, .L52+4
 435              		.loc 1 258 0
 436 001c 2060     		str	r0, [r4]
 437              		.loc 1 261 0
 438 001e 1C68     		ldr	r4, [r3]
 439 0020 1C49     		ldr	r1, .L52+12
 440 0022 201C     		add	r0, r4, #0
 441 0024 FFF7FEFF 		bl	__aeabi_fcmpeq
 442 0028 0028     		cmp	r0, #0
 443 002a 02D0     		beq	.L35
 262:.\Cube.c      **** 		{
 263:.\Cube.c      **** 			X_offset_flag = 1;
 444              		.loc 1 263 0
 445 002c 164B     		ldr	r3, .L52
 446 002e 0122     		mov	r2, #1
 447 0030 9A60     		str	r2, [r3, #8]
 448              	.L35:
 264:.\Cube.c      **** 		}
 265:.\Cube.c      **** 		if(X_OFFSET == 132)
 449              		.loc 1 265 0
 450 0032 201C     		add	r0, r4, #0
 451 0034 1849     		ldr	r1, .L52+16
 452 0036 FFF7FEFF 		bl	__aeabi_fcmpeq
 453 003a 0028     		cmp	r0, #0
 454 003c 02D0     		beq	.L37
 266:.\Cube.c      **** 		{
 267:.\Cube.c      **** 			X_offset_flag = 0;
 455              		.loc 1 267 0
 456 003e 124B     		ldr	r3, .L52
 457 0040 0022     		mov	r2, #0
 458 0042 9A60     		str	r2, [r3, #8]
 459              	.L37:
 268:.\Cube.c      **** 		}
 269:.\Cube.c      **** 		
 270:.\Cube.c      **** 		if(Y_offset_flag == 0)
 460              		.loc 1 270 0
 461 0044 104B     		ldr	r3, .L52
 462 0046 154C     		ldr	r4, .L52+20
 463 0048 DB68     		ldr	r3, [r3, #12]
 271:.\Cube.c      **** 		{
 272:.\Cube.c      **** 			Y_OFFSET--;
 464              		.loc 1 272 0
 465 004a 2068     		ldr	r0, [r4]
ARM GAS  C:\Users\kees\AppData\Local\Temp\cctvj9ob.s 			page 14


 466 004c 1049     		ldr	r1, .L52+8
 467              		.loc 1 270 0
 468 004e 002B     		cmp	r3, #0
 469 0050 02D1     		bne	.L39
 470              		.loc 1 272 0
 471 0052 FFF7FEFF 		bl	__aeabi_fsub
 472 0056 01E0     		b	.L51
 473              	.L39:
 273:.\Cube.c      **** 		}
 274:.\Cube.c      **** 		else
 275:.\Cube.c      **** 		{
 276:.\Cube.c      **** 			Y_OFFSET++;
 474              		.loc 1 276 0
 475 0058 FFF7FEFF 		bl	__aeabi_fadd
 476              	.L51:
 277:.\Cube.c      **** 		}
 278:.\Cube.c      **** 		
 279:.\Cube.c      **** 		if(Y_OFFSET == 0)
 477              		.loc 1 279 0
 478 005c 0F4B     		ldr	r3, .L52+20
 479              		.loc 1 276 0
 480 005e 2060     		str	r0, [r4]
 481              		.loc 1 279 0
 482 0060 1C68     		ldr	r4, [r3]
 483 0062 0C49     		ldr	r1, .L52+12
 484 0064 201C     		add	r0, r4, #0
 485 0066 FFF7FEFF 		bl	__aeabi_fcmpeq
 486 006a 0028     		cmp	r0, #0
 487 006c 02D0     		beq	.L41
 280:.\Cube.c      **** 		{
 281:.\Cube.c      **** 			Y_offset_flag = 1;
 488              		.loc 1 281 0
 489 006e 064B     		ldr	r3, .L52
 490 0070 0122     		mov	r2, #1
 491 0072 DA60     		str	r2, [r3, #12]
 492              	.L41:
 282:.\Cube.c      **** 		}
 283:.\Cube.c      **** 		if(Y_OFFSET == 132)
 493              		.loc 1 283 0
 494 0074 201C     		add	r0, r4, #0
 495 0076 0849     		ldr	r1, .L52+16
 496 0078 FFF7FEFF 		bl	__aeabi_fcmpeq
 497 007c 0028     		cmp	r0, #0
 498 007e 02D0     		beq	.L45
 284:.\Cube.c      **** 		{
 285:.\Cube.c      **** 			Y_offset_flag = 0;
 499              		.loc 1 285 0
 500 0080 014B     		ldr	r3, .L52
 501 0082 0022     		mov	r2, #0
 502 0084 DA60     		str	r2, [r3, #12]
 503              	.L45:
 286:.\Cube.c      **** 		}
 287:.\Cube.c      **** 		
 288:.\Cube.c      **** 		return;
 289:.\Cube.c      **** }
 504              		.loc 1 289 0
 505              		@ sp needed for prologue
ARM GAS  C:\Users\kees\AppData\Local\Temp\cctvj9ob.s 			page 15


 506 0086 10BD     		pop	{r4, pc}
 507              	.L53:
 508              		.align	2
 509              	.L52:
 510 0088 00000000 		.word	.LANCHOR0
 511 008c 00000000 		.word	X_OFFSET
 512 0090 0000803F 		.word	1065353216
 513 0094 00000000 		.word	0
 514 0098 00000443 		.word	1124335616
 515 009c 00000000 		.word	Y_OFFSET
 516              		.cfi_endproc
 517              	.LFE28:
 518              		.size	OffsetBounce, .-OffsetBounce
 519              		.global	__aeabi_f2uiz
 520              		.section	.text.DrawCube,"ax",%progbits
 521              		.align	1
 522              		.global	DrawCube
 523              		.code	16
 524              		.thumb_func
 525              		.type	DrawCube, %function
 526              	DrawCube:
 527              	.LFB26:
 528              		.loc 1 162 0
 529              		.cfi_startproc
 530 0000 F0B5     		push	{r4, r5, r6, r7, lr}
 531              	.LCFI2:
 532              		.cfi_def_cfa_offset 20
 533              		.cfi_offset 4, -20
 534              		.cfi_offset 5, -16
 535              		.cfi_offset 6, -12
 536              		.cfi_offset 7, -8
 537              		.cfi_offset 14, -4
 538              		.loc 1 163 0
 539 0002 FF4A     		ldr	r2, .L56
 540              		.loc 1 162 0
 541 0004 87B0     		sub	sp, sp, #28
 542              	.LCFI3:
 543              		.cfi_def_cfa_offset 48
 544              		.loc 1 163 0
 545 0006 1068     		ldr	r0, [r2]
 546 0008 FFF7FEFF 		bl	__aeabi_f2uiz
 547 000c FD4B     		ldr	r3, .L56+4
 548 000e C4B2     		uxtb	r4, r0
 549 0010 1868     		ldr	r0, [r3]
 550 0012 FFF7FEFF 		bl	__aeabi_f2uiz
 551 0016 FC4A     		ldr	r2, .L56+8
 552 0018 C5B2     		uxtb	r5, r0
 553 001a 1068     		ldr	r0, [r2]
 554 001c FFF7FEFF 		bl	__aeabi_f2uiz
 555 0020 FA4B     		ldr	r3, .L56+12
 556 0022 C6B2     		uxtb	r6, r0
 557 0024 1868     		ldr	r0, [r3]
 558 0026 FFF7FEFF 		bl	__aeabi_f2uiz
 559 002a 0022     		mov	r2, #0
 560 002c 291C     		mov	r1, r5
 561 002e C3B2     		uxtb	r3, r0
 562 0030 0092     		str	r2, [sp]
ARM GAS  C:\Users\kees\AppData\Local\Temp\cctvj9ob.s 			page 16


 563 0032 201C     		mov	r0, r4
 564 0034 321C     		mov	r2, r6
 565 0036 FFF7FEFF 		bl	LCD_DrawLine
 566              		.loc 1 164 0
 567 003a F54B     		ldr	r3, .L56+16
 568 003c 1868     		ldr	r0, [r3]
 569 003e FFF7FEFF 		bl	__aeabi_f2uiz
 570 0042 F44A     		ldr	r2, .L56+20
 571 0044 C4B2     		uxtb	r4, r0
 572 0046 1068     		ldr	r0, [r2]
 573 0048 FFF7FEFF 		bl	__aeabi_f2uiz
 574 004c F24B     		ldr	r3, .L56+24
 575 004e C5B2     		uxtb	r5, r0
 576 0050 1868     		ldr	r0, [r3]
 577 0052 FFF7FEFF 		bl	__aeabi_f2uiz
 578 0056 F14A     		ldr	r2, .L56+28
 579 0058 C6B2     		uxtb	r6, r0
 580 005a 1068     		ldr	r0, [r2]
 581 005c FFF7FEFF 		bl	__aeabi_f2uiz
 582 0060 EF4A     		ldr	r2, .L56+32
 583 0062 291C     		mov	r1, r5
 584 0064 C3B2     		uxtb	r3, r0
 585 0066 0092     		str	r2, [sp]
 586 0068 201C     		mov	r0, r4
 587 006a 321C     		mov	r2, r6
 588 006c FFF7FEFF 		bl	LCD_DrawLine
 589              		.loc 1 166 0
 590 0070 E34B     		ldr	r3, .L56
 591 0072 1868     		ldr	r0, [r3]
 592 0074 FFF7FEFF 		bl	__aeabi_f2uiz
 593 0078 E24A     		ldr	r2, .L56+4
 594 007a C4B2     		uxtb	r4, r0
 595 007c 1068     		ldr	r0, [r2]
 596 007e FFF7FEFF 		bl	__aeabi_f2uiz
 597 0082 E84B     		ldr	r3, .L56+36
 598 0084 C5B2     		uxtb	r5, r0
 599 0086 1868     		ldr	r0, [r3]
 600 0088 FFF7FEFF 		bl	__aeabi_f2uiz
 601 008c E64A     		ldr	r2, .L56+40
 602 008e C6B2     		uxtb	r6, r0
 603 0090 1068     		ldr	r0, [r2]
 604 0092 FFF7FEFF 		bl	__aeabi_f2uiz
 605 0096 0022     		mov	r2, #0
 606 0098 291C     		mov	r1, r5
 607 009a C3B2     		uxtb	r3, r0
 608 009c 0092     		str	r2, [sp]
 609 009e 201C     		mov	r0, r4
 610 00a0 321C     		mov	r2, r6
 611 00a2 FFF7FEFF 		bl	LCD_DrawLine
 612              		.loc 1 167 0
 613 00a6 DA4B     		ldr	r3, .L56+16
 614 00a8 1868     		ldr	r0, [r3]
 615 00aa FFF7FEFF 		bl	__aeabi_f2uiz
 616 00ae D94A     		ldr	r2, .L56+20
 617 00b0 C4B2     		uxtb	r4, r0
 618 00b2 1068     		ldr	r0, [r2]
 619 00b4 FFF7FEFF 		bl	__aeabi_f2uiz
ARM GAS  C:\Users\kees\AppData\Local\Temp\cctvj9ob.s 			page 17


 620 00b8 DC4B     		ldr	r3, .L56+44
 621 00ba C5B2     		uxtb	r5, r0
 622 00bc 1868     		ldr	r0, [r3]
 623 00be FFF7FEFF 		bl	__aeabi_f2uiz
 624 00c2 DB4A     		ldr	r2, .L56+48
 625 00c4 C6B2     		uxtb	r6, r0
 626 00c6 1068     		ldr	r0, [r2]
 627 00c8 FFF7FEFF 		bl	__aeabi_f2uiz
 628 00cc D44A     		ldr	r2, .L56+32
 629 00ce 291C     		mov	r1, r5
 630 00d0 C3B2     		uxtb	r3, r0
 631 00d2 0092     		str	r2, [sp]
 632 00d4 201C     		mov	r0, r4
 633 00d6 321C     		mov	r2, r6
 634 00d8 FFF7FEFF 		bl	LCD_DrawLine
 635              		.loc 1 169 0
 636 00dc C84B     		ldr	r3, .L56
 637 00de 1868     		ldr	r0, [r3]
 638 00e0 FFF7FEFF 		bl	__aeabi_f2uiz
 639 00e4 C74A     		ldr	r2, .L56+4
 640 00e6 C4B2     		uxtb	r4, r0
 641 00e8 1068     		ldr	r0, [r2]
 642 00ea FFF7FEFF 		bl	__aeabi_f2uiz
 643 00ee D14F     		ldr	r7, .L56+52
 644 00f0 C5B2     		uxtb	r5, r0
 645 00f2 3868     		ldr	r0, [r7]
 646 00f4 FFF7FEFF 		bl	__aeabi_f2uiz
 647 00f8 CF4B     		ldr	r3, .L56+56
 648 00fa C6B2     		uxtb	r6, r0
 649 00fc 1868     		ldr	r0, [r3]
 650 00fe FFF7FEFF 		bl	__aeabi_f2uiz
 651 0102 0022     		mov	r2, #0
 652 0104 291C     		mov	r1, r5
 653 0106 C3B2     		uxtb	r3, r0
 654 0108 0092     		str	r2, [sp]
 655 010a 201C     		mov	r0, r4
 656 010c 321C     		mov	r2, r6
 657 010e FFF7FEFF 		bl	LCD_DrawLine
 658              		.loc 1 170 0
 659 0112 BF4B     		ldr	r3, .L56+16
 660 0114 1868     		ldr	r0, [r3]
 661 0116 FFF7FEFF 		bl	__aeabi_f2uiz
 662 011a BE4A     		ldr	r2, .L56+20
 663 011c C4B2     		uxtb	r4, r0
 664 011e 1068     		ldr	r0, [r2]
 665 0120 FFF7FEFF 		bl	__aeabi_f2uiz
 666 0124 C54B     		ldr	r3, .L56+60
 667 0126 C5B2     		uxtb	r5, r0
 668 0128 1868     		ldr	r0, [r3]
 669 012a FFF7FEFF 		bl	__aeabi_f2uiz
 670 012e C44A     		ldr	r2, .L56+64
 671 0130 C6B2     		uxtb	r6, r0
 672 0132 1068     		ldr	r0, [r2]
 673 0134 FFF7FEFF 		bl	__aeabi_f2uiz
 674 0138 B94A     		ldr	r2, .L56+32
 675 013a 291C     		mov	r1, r5
 676 013c C3B2     		uxtb	r3, r0
ARM GAS  C:\Users\kees\AppData\Local\Temp\cctvj9ob.s 			page 18


 677 013e 0092     		str	r2, [sp]
 678 0140 201C     		mov	r0, r4
 679 0142 321C     		mov	r2, r6
 680 0144 FFF7FEFF 		bl	LCD_DrawLine
 681              		.loc 1 172 0
 682 0148 AF4B     		ldr	r3, .L56+8
 683 014a 1868     		ldr	r0, [r3]
 684 014c FFF7FEFF 		bl	__aeabi_f2uiz
 685 0150 AE4A     		ldr	r2, .L56+12
 686 0152 C4B2     		uxtb	r4, r0
 687 0154 1068     		ldr	r0, [r2]
 688 0156 FFF7FEFF 		bl	__aeabi_f2uiz
 689 015a BA4B     		ldr	r3, .L56+68
 690 015c C5B2     		uxtb	r5, r0
 691 015e 1868     		ldr	r0, [r3]
 692 0160 FFF7FEFF 		bl	__aeabi_f2uiz
 693 0164 B84A     		ldr	r2, .L56+72
 694 0166 C6B2     		uxtb	r6, r0
 695 0168 1068     		ldr	r0, [r2]
 696 016a FFF7FEFF 		bl	__aeabi_f2uiz
 697 016e 0022     		mov	r2, #0
 698 0170 291C     		mov	r1, r5
 699 0172 C3B2     		uxtb	r3, r0
 700 0174 0092     		str	r2, [sp]
 701 0176 201C     		mov	r0, r4
 702 0178 321C     		mov	r2, r6
 703 017a FFF7FEFF 		bl	LCD_DrawLine
 704              		.loc 1 173 0
 705 017e A64B     		ldr	r3, .L56+24
 706 0180 1868     		ldr	r0, [r3]
 707 0182 FFF7FEFF 		bl	__aeabi_f2uiz
 708 0186 A54A     		ldr	r2, .L56+28
 709 0188 C4B2     		uxtb	r4, r0
 710 018a 1068     		ldr	r0, [r2]
 711 018c FFF7FEFF 		bl	__aeabi_f2uiz
 712 0190 AE4B     		ldr	r3, .L56+76
 713 0192 C5B2     		uxtb	r5, r0
 714 0194 1868     		ldr	r0, [r3]
 715 0196 FFF7FEFF 		bl	__aeabi_f2uiz
 716 019a AD4A     		ldr	r2, .L56+80
 717 019c C6B2     		uxtb	r6, r0
 718 019e 1068     		ldr	r0, [r2]
 719 01a0 FFF7FEFF 		bl	__aeabi_f2uiz
 720 01a4 9E4A     		ldr	r2, .L56+32
 721 01a6 291C     		mov	r1, r5
 722 01a8 C3B2     		uxtb	r3, r0
 723 01aa 0092     		str	r2, [sp]
 724 01ac 201C     		mov	r0, r4
 725 01ae 321C     		mov	r2, r6
 726 01b0 FFF7FEFF 		bl	LCD_DrawLine
 727              		.loc 1 175 0
 728 01b4 944B     		ldr	r3, .L56+8
 729 01b6 1868     		ldr	r0, [r3]
 730 01b8 FFF7FEFF 		bl	__aeabi_f2uiz
 731 01bc 934A     		ldr	r2, .L56+12
 732 01be C4B2     		uxtb	r4, r0
 733 01c0 1068     		ldr	r0, [r2]
ARM GAS  C:\Users\kees\AppData\Local\Temp\cctvj9ob.s 			page 19


 734 01c2 FFF7FEFF 		bl	__aeabi_f2uiz
 735 01c6 A34B     		ldr	r3, .L56+84
 736 01c8 C5B2     		uxtb	r5, r0
 737 01ca 1868     		ldr	r0, [r3]
 738 01cc FFF7FEFF 		bl	__aeabi_f2uiz
 739 01d0 A14A     		ldr	r2, .L56+88
 740 01d2 C6B2     		uxtb	r6, r0
 741 01d4 1068     		ldr	r0, [r2]
 742 01d6 FFF7FEFF 		bl	__aeabi_f2uiz
 743 01da 0022     		mov	r2, #0
 744 01dc 291C     		mov	r1, r5
 745 01de C3B2     		uxtb	r3, r0
 746 01e0 0092     		str	r2, [sp]
 747 01e2 201C     		mov	r0, r4
 748 01e4 321C     		mov	r2, r6
 749 01e6 FFF7FEFF 		bl	LCD_DrawLine
 750              		.loc 1 176 0
 751 01ea 8B4B     		ldr	r3, .L56+24
 752 01ec 1868     		ldr	r0, [r3]
 753 01ee FFF7FEFF 		bl	__aeabi_f2uiz
 754 01f2 8A4A     		ldr	r2, .L56+28
 755 01f4 C4B2     		uxtb	r4, r0
 756 01f6 1068     		ldr	r0, [r2]
 757 01f8 FFF7FEFF 		bl	__aeabi_f2uiz
 758 01fc 974B     		ldr	r3, .L56+92
 759 01fe C5B2     		uxtb	r5, r0
 760 0200 1868     		ldr	r0, [r3]
 761 0202 FFF7FEFF 		bl	__aeabi_f2uiz
 762 0206 964A     		ldr	r2, .L56+96
 763 0208 C6B2     		uxtb	r6, r0
 764 020a 1068     		ldr	r0, [r2]
 765 020c FFF7FEFF 		bl	__aeabi_f2uiz
 766 0210 834A     		ldr	r2, .L56+32
 767 0212 291C     		mov	r1, r5
 768 0214 C3B2     		uxtb	r3, r0
 769 0216 0092     		str	r2, [sp]
 770 0218 201C     		mov	r0, r4
 771 021a 321C     		mov	r2, r6
 772 021c FFF7FEFF 		bl	LCD_DrawLine
 773              		.loc 1 178 0
 774 0220 3868     		ldr	r0, [r7]
 775 0222 FFF7FEFF 		bl	__aeabi_f2uiz
 776 0226 844B     		ldr	r3, .L56+56
 777 0228 C4B2     		uxtb	r4, r0
 778 022a 1868     		ldr	r0, [r3]
 779 022c FFF7FEFF 		bl	__aeabi_f2uiz
 780 0230 884A     		ldr	r2, .L56+84
 781 0232 C5B2     		uxtb	r5, r0
 782 0234 1068     		ldr	r0, [r2]
 783 0236 FFF7FEFF 		bl	__aeabi_f2uiz
 784 023a 874B     		ldr	r3, .L56+88
 785 023c C6B2     		uxtb	r6, r0
 786 023e 1868     		ldr	r0, [r3]
 787 0240 FFF7FEFF 		bl	__aeabi_f2uiz
 788 0244 0022     		mov	r2, #0
 789 0246 291C     		mov	r1, r5
 790 0248 C3B2     		uxtb	r3, r0
ARM GAS  C:\Users\kees\AppData\Local\Temp\cctvj9ob.s 			page 20


 791 024a 0092     		str	r2, [sp]
 792 024c 201C     		mov	r0, r4
 793 024e 321C     		mov	r2, r6
 794 0250 FFF7FEFF 		bl	LCD_DrawLine
 795              		.loc 1 179 0
 796 0254 794B     		ldr	r3, .L56+60
 797 0256 1868     		ldr	r0, [r3]
 798 0258 FFF7FEFF 		bl	__aeabi_f2uiz
 799 025c 784A     		ldr	r2, .L56+64
 800 025e C4B2     		uxtb	r4, r0
 801 0260 1068     		ldr	r0, [r2]
 802 0262 FFF7FEFF 		bl	__aeabi_f2uiz
 803 0266 7D4B     		ldr	r3, .L56+92
 804 0268 C5B2     		uxtb	r5, r0
 805 026a 1868     		ldr	r0, [r3]
 806 026c FFF7FEFF 		bl	__aeabi_f2uiz
 807 0270 7B4A     		ldr	r2, .L56+96
 808 0272 C6B2     		uxtb	r6, r0
 809 0274 1068     		ldr	r0, [r2]
 810 0276 FFF7FEFF 		bl	__aeabi_f2uiz
 811 027a 694A     		ldr	r2, .L56+32
 812 027c 291C     		mov	r1, r5
 813 027e C3B2     		uxtb	r3, r0
 814 0280 0092     		str	r2, [sp]
 815 0282 201C     		mov	r0, r4
 816 0284 321C     		mov	r2, r6
 817 0286 FFF7FEFF 		bl	LCD_DrawLine
 818              		.loc 1 181 0
 819 028a 3868     		ldr	r0, [r7]
 820 028c FFF7FEFF 		bl	__aeabi_f2uiz
 821 0290 694B     		ldr	r3, .L56+56
 822 0292 C4B2     		uxtb	r4, r0
 823 0294 1868     		ldr	r0, [r3]
 824 0296 FFF7FEFF 		bl	__aeabi_f2uiz
 825 029a 724A     		ldr	r2, .L56+100
 826 029c C5B2     		uxtb	r5, r0
 827 029e 1068     		ldr	r0, [r2]
 828 02a0 FFF7FEFF 		bl	__aeabi_f2uiz
 829 02a4 704B     		ldr	r3, .L56+104
 830 02a6 C6B2     		uxtb	r6, r0
 831 02a8 1868     		ldr	r0, [r3]
 832 02aa FFF7FEFF 		bl	__aeabi_f2uiz
 833 02ae 0022     		mov	r2, #0
 834 02b0 291C     		mov	r1, r5
 835 02b2 C3B2     		uxtb	r3, r0
 836 02b4 0092     		str	r2, [sp]
 837 02b6 201C     		mov	r0, r4
 838 02b8 321C     		mov	r2, r6
 839 02ba FFF7FEFF 		bl	LCD_DrawLine
 840              		.loc 1 182 0
 841 02be 5F4B     		ldr	r3, .L56+60
 842 02c0 1868     		ldr	r0, [r3]
 843 02c2 FFF7FEFF 		bl	__aeabi_f2uiz
 844 02c6 5E4A     		ldr	r2, .L56+64
 845 02c8 C4B2     		uxtb	r4, r0
 846 02ca 1068     		ldr	r0, [r2]
 847 02cc FFF7FEFF 		bl	__aeabi_f2uiz
ARM GAS  C:\Users\kees\AppData\Local\Temp\cctvj9ob.s 			page 21


 848 02d0 664B     		ldr	r3, .L56+108
 849 02d2 C5B2     		uxtb	r5, r0
 850 02d4 1868     		ldr	r0, [r3]
 851 02d6 FFF7FEFF 		bl	__aeabi_f2uiz
 852 02da 654A     		ldr	r2, .L56+112
 853 02dc C6B2     		uxtb	r6, r0
 854 02de 1068     		ldr	r0, [r2]
 855 02e0 FFF7FEFF 		bl	__aeabi_f2uiz
 856 02e4 4E4A     		ldr	r2, .L56+32
 857 02e6 291C     		mov	r1, r5
 858 02e8 C3B2     		uxtb	r3, r0
 859 02ea 0092     		str	r2, [sp]
 860 02ec 201C     		mov	r0, r4
 861 02ee 321C     		mov	r2, r6
 862 02f0 FFF7FEFF 		bl	LCD_DrawLine
 863              		.loc 1 184 0
 864 02f4 5B4B     		ldr	r3, .L56+100
 865 02f6 1868     		ldr	r0, [r3]
 866 02f8 FFF7FEFF 		bl	__aeabi_f2uiz
 867 02fc 5A4A     		ldr	r2, .L56+104
 868 02fe C6B2     		uxtb	r6, r0
 869 0300 1068     		ldr	r0, [r2]
 870 0302 FFF7FEFF 		bl	__aeabi_f2uiz
 871 0306 5B4C     		ldr	r4, .L56+116
 872 0308 C7B2     		uxtb	r7, r0
 873 030a 2068     		ldr	r0, [r4]
 874 030c FFF7FEFF 		bl	__aeabi_f2uiz
 875 0310 594D     		ldr	r5, .L56+120
 876 0312 C0B2     		uxtb	r0, r0
 877 0314 0390     		str	r0, [sp, #12]
 878 0316 2868     		ldr	r0, [r5]
 879 0318 FFF7FEFF 		bl	__aeabi_f2uiz
 880 031c 0022     		mov	r2, #0
 881 031e 391C     		mov	r1, r7
 882 0320 C3B2     		uxtb	r3, r0
 883 0322 0092     		str	r2, [sp]
 884 0324 301C     		mov	r0, r6
 885 0326 039A     		ldr	r2, [sp, #12]
 886 0328 FFF7FEFF 		bl	LCD_DrawLine
 887              		.loc 1 185 0
 888 032c 4F4B     		ldr	r3, .L56+108
 889 032e 1868     		ldr	r0, [r3]
 890 0330 FFF7FEFF 		bl	__aeabi_f2uiz
 891 0334 4E4A     		ldr	r2, .L56+112
 892 0336 C0B2     		uxtb	r0, r0
 893 0338 0390     		str	r0, [sp, #12]
 894 033a 1068     		ldr	r0, [r2]
 895 033c FFF7FEFF 		bl	__aeabi_f2uiz
 896 0340 4E4E     		ldr	r6, .L56+124
 897 0342 C0B2     		uxtb	r0, r0
 898 0344 0490     		str	r0, [sp, #16]
 899 0346 3068     		ldr	r0, [r6]
 900 0348 FFF7FEFF 		bl	__aeabi_f2uiz
 901 034c 4C4F     		ldr	r7, .L56+128
 902 034e C0B2     		uxtb	r0, r0
 903 0350 0590     		str	r0, [sp, #20]
 904 0352 3868     		ldr	r0, [r7]
ARM GAS  C:\Users\kees\AppData\Local\Temp\cctvj9ob.s 			page 22


 905 0354 FFF7FEFF 		bl	__aeabi_f2uiz
 906 0358 314A     		ldr	r2, .L56+32
 907 035a 0499     		ldr	r1, [sp, #16]
 908 035c C3B2     		uxtb	r3, r0
 909 035e 0092     		str	r2, [sp]
 910 0360 0398     		ldr	r0, [sp, #12]
 911 0362 059A     		ldr	r2, [sp, #20]
 912 0364 FFF7FEFF 		bl	LCD_DrawLine
 913              		.loc 1 187 0
 914 0368 2068     		ldr	r0, [r4]
 915 036a FFF7FEFF 		bl	__aeabi_f2uiz
 916 036e C0B2     		uxtb	r0, r0
 917 0370 0390     		str	r0, [sp, #12]
 918 0372 2868     		ldr	r0, [r5]
 919 0374 FFF7FEFF 		bl	__aeabi_f2uiz
 920 0378 364B     		ldr	r3, .L56+84
 921 037a C0B2     		uxtb	r0, r0
 922 037c 0490     		str	r0, [sp, #16]
 923 037e 1868     		ldr	r0, [r3]
 924 0380 FFF7FEFF 		bl	__aeabi_f2uiz
 925 0384 344A     		ldr	r2, .L56+88
 926 0386 C0B2     		uxtb	r0, r0
 927 0388 0590     		str	r0, [sp, #20]
 928 038a 1068     		ldr	r0, [r2]
 929 038c FFF7FEFF 		bl	__aeabi_f2uiz
 930 0390 0022     		mov	r2, #0
 931 0392 0499     		ldr	r1, [sp, #16]
 932 0394 C3B2     		uxtb	r3, r0
 933 0396 0092     		str	r2, [sp]
 934 0398 0398     		ldr	r0, [sp, #12]
 935 039a 059A     		ldr	r2, [sp, #20]
 936 039c FFF7FEFF 		bl	LCD_DrawLine
 937              		.loc 1 188 0
 938 03a0 3068     		ldr	r0, [r6]
 939 03a2 FFF7FEFF 		bl	__aeabi_f2uiz
 940 03a6 C0B2     		uxtb	r0, r0
 941 03a8 0390     		str	r0, [sp, #12]
 942 03aa 3868     		ldr	r0, [r7]
 943 03ac FFF7FEFF 		bl	__aeabi_f2uiz
 944 03b0 2A4B     		ldr	r3, .L56+92
 945 03b2 C0B2     		uxtb	r0, r0
 946 03b4 0490     		str	r0, [sp, #16]
 947 03b6 1868     		ldr	r0, [r3]
 948 03b8 FFF7FEFF 		bl	__aeabi_f2uiz
 949 03bc 284A     		ldr	r2, .L56+96
 950 03be C0B2     		uxtb	r0, r0
 951 03c0 0590     		str	r0, [sp, #20]
 952 03c2 1068     		ldr	r0, [r2]
 953 03c4 FFF7FEFF 		bl	__aeabi_f2uiz
 954 03c8 154A     		ldr	r2, .L56+32
 955 03ca 0499     		ldr	r1, [sp, #16]
 956 03cc C3B2     		uxtb	r3, r0
 957 03ce 0092     		str	r2, [sp]
 958 03d0 0398     		ldr	r0, [sp, #12]
 959 03d2 059A     		ldr	r2, [sp, #20]
 960 03d4 FFF7FEFF 		bl	LCD_DrawLine
 961              		.loc 1 190 0
ARM GAS  C:\Users\kees\AppData\Local\Temp\cctvj9ob.s 			page 23


 962 03d8 2068     		ldr	r0, [r4]
 963 03da FFF7FEFF 		bl	__aeabi_f2uiz
 964 03de C0B2     		uxtb	r0, r0
 965 03e0 0390     		str	r0, [sp, #12]
 966 03e2 2868     		ldr	r0, [r5]
 967 03e4 FFF7FEFF 		bl	__aeabi_f2uiz
 968 03e8 164B     		ldr	r3, .L56+68
 969 03ea C4B2     		uxtb	r4, r0
 970 03ec 1868     		ldr	r0, [r3]
 971 03ee FFF7FEFF 		bl	__aeabi_f2uiz
 972 03f2 154A     		ldr	r2, .L56+72
 973 03f4 C5B2     		uxtb	r5, r0
 974 03f6 1068     		ldr	r0, [r2]
 975 03f8 FFF7FEFF 		bl	__aeabi_f2uiz
 976 03fc 42E0     		b	.L57
 977              	.L58:
 978 03fe C046     		.align	2
 979              	.L56:
 980 0400 00000000 		.word	b1x_old
 981 0404 00000000 		.word	b1y_old
 982 0408 00000000 		.word	b2x_old
 983 040c 00000000 		.word	b2y_old
 984 0410 00000000 		.word	b1x
 985 0414 00000000 		.word	b1y
 986 0418 00000000 		.word	b2x
 987 041c 00000000 		.word	b2y
 988 0420 FF0F0000 		.word	4095
 989 0424 00000000 		.word	b4x_old
 990 0428 00000000 		.word	b4y_old
 991 042c 00000000 		.word	b4x
 992 0430 00000000 		.word	b4y
 993 0434 00000000 		.word	b5x_old
 994 0438 00000000 		.word	b5y_old
 995 043c 00000000 		.word	b5x
 996 0440 00000000 		.word	b5y
 997 0444 00000000 		.word	b3x_old
 998 0448 00000000 		.word	b3y_old
 999 044c 00000000 		.word	b3x
 1000 0450 00000000 		.word	b3y
 1001 0454 00000000 		.word	b6x_old
 1002 0458 00000000 		.word	b6y_old
 1003 045c 00000000 		.word	b6x
 1004 0460 00000000 		.word	b6y
 1005 0464 00000000 		.word	b8x_old
 1006 0468 00000000 		.word	b8y_old
 1007 046c 00000000 		.word	b8x
 1008 0470 00000000 		.word	b8y
 1009 0474 00000000 		.word	b7x_old
 1010 0478 00000000 		.word	b7y_old
 1011 047c 00000000 		.word	b7x
 1012 0480 00000000 		.word	b7y
 1013              	.L57:
 1014 0484 0022     		mov	r2, #0
 1015 0486 211C     		mov	r1, r4
 1016 0488 C3B2     		uxtb	r3, r0
 1017 048a 0092     		str	r2, [sp]
 1018 048c 0398     		ldr	r0, [sp, #12]
ARM GAS  C:\Users\kees\AppData\Local\Temp\cctvj9ob.s 			page 24


 1019 048e 2A1C     		mov	r2, r5
 1020 0490 FFF7FEFF 		bl	LCD_DrawLine
 1021              		.loc 1 191 0
 1022 0494 3068     		ldr	r0, [r6]
 1023 0496 FFF7FEFF 		bl	__aeabi_f2uiz
 1024 049a C6B2     		uxtb	r6, r0
 1025 049c 3868     		ldr	r0, [r7]
 1026 049e FFF7FEFF 		bl	__aeabi_f2uiz
 1027 04a2 764B     		ldr	r3, .L59
 1028 04a4 C4B2     		uxtb	r4, r0
 1029 04a6 1868     		ldr	r0, [r3]
 1030 04a8 FFF7FEFF 		bl	__aeabi_f2uiz
 1031 04ac 744A     		ldr	r2, .L59+4
 1032 04ae C5B2     		uxtb	r5, r0
 1033 04b0 1068     		ldr	r0, [r2]
 1034 04b2 FFF7FEFF 		bl	__aeabi_f2uiz
 1035 04b6 734A     		ldr	r2, .L59+8
 1036 04b8 211C     		mov	r1, r4
 1037 04ba C3B2     		uxtb	r3, r0
 1038 04bc 0092     		str	r2, [sp]
 1039 04be 301C     		mov	r0, r6
 1040 04c0 2A1C     		mov	r2, r5
 1041 04c2 FFF7FEFF 		bl	LCD_DrawLine
 1042              		.loc 1 193 0
 1043 04c6 704B     		ldr	r3, .L59+12
 1044 04c8 1868     		ldr	r0, [r3]
 1045 04ca FFF7FEFF 		bl	__aeabi_f2uiz
 1046 04ce 6F4A     		ldr	r2, .L59+16
 1047 04d0 C4B2     		uxtb	r4, r0
 1048 04d2 1068     		ldr	r0, [r2]
 1049 04d4 FFF7FEFF 		bl	__aeabi_f2uiz
 1050 04d8 6D4B     		ldr	r3, .L59+20
 1051 04da C5B2     		uxtb	r5, r0
 1052 04dc 1868     		ldr	r0, [r3]
 1053 04de FFF7FEFF 		bl	__aeabi_f2uiz
 1054 04e2 6C4A     		ldr	r2, .L59+24
 1055 04e4 C6B2     		uxtb	r6, r0
 1056 04e6 1068     		ldr	r0, [r2]
 1057 04e8 FFF7FEFF 		bl	__aeabi_f2uiz
 1058 04ec 0022     		mov	r2, #0
 1059 04ee 291C     		mov	r1, r5
 1060 04f0 C3B2     		uxtb	r3, r0
 1061 04f2 0092     		str	r2, [sp]
 1062 04f4 201C     		mov	r0, r4
 1063 04f6 321C     		mov	r2, r6
 1064 04f8 FFF7FEFF 		bl	LCD_DrawLine
 1065              		.loc 1 194 0
 1066 04fc 664B     		ldr	r3, .L59+28
 1067 04fe 1868     		ldr	r0, [r3]
 1068 0500 FFF7FEFF 		bl	__aeabi_f2uiz
 1069 0504 654A     		ldr	r2, .L59+32
 1070 0506 C4B2     		uxtb	r4, r0
 1071 0508 1068     		ldr	r0, [r2]
 1072 050a FFF7FEFF 		bl	__aeabi_f2uiz
 1073 050e 5B4B     		ldr	r3, .L59
 1074 0510 C5B2     		uxtb	r5, r0
 1075 0512 1868     		ldr	r0, [r3]
ARM GAS  C:\Users\kees\AppData\Local\Temp\cctvj9ob.s 			page 25


 1076 0514 FFF7FEFF 		bl	__aeabi_f2uiz
 1077 0518 594A     		ldr	r2, .L59+4
 1078 051a C6B2     		uxtb	r6, r0
 1079 051c 1068     		ldr	r0, [r2]
 1080 051e FFF7FEFF 		bl	__aeabi_f2uiz
 1081 0522 584A     		ldr	r2, .L59+8
 1082 0524 291C     		mov	r1, r5
 1083 0526 C3B2     		uxtb	r3, r0
 1084 0528 0092     		str	r2, [sp]
 1085 052a 201C     		mov	r0, r4
 1086 052c 321C     		mov	r2, r6
 1087 052e FFF7FEFF 		bl	LCD_DrawLine
 1088              		.loc 1 196 0
 1089 0532 554B     		ldr	r3, .L59+12
 1090 0534 1868     		ldr	r0, [r3]
 1091 0536 FFF7FEFF 		bl	__aeabi_f2uiz
 1092 053a 544A     		ldr	r2, .L59+16
 1093 053c C4B2     		uxtb	r4, r0
 1094 053e 1068     		ldr	r0, [r2]
 1095 0540 FFF7FEFF 		bl	__aeabi_f2uiz
 1096 0544 564B     		ldr	r3, .L59+36
 1097 0546 C5B2     		uxtb	r5, r0
 1098 0548 1868     		ldr	r0, [r3]
 1099 054a FFF7FEFF 		bl	__aeabi_f2uiz
 1100 054e 554A     		ldr	r2, .L59+40
 1101 0550 C6B2     		uxtb	r6, r0
 1102 0552 1068     		ldr	r0, [r2]
 1103 0554 FFF7FEFF 		bl	__aeabi_f2uiz
 1104 0558 0022     		mov	r2, #0
 1105 055a 291C     		mov	r1, r5
 1106 055c C3B2     		uxtb	r3, r0
 1107 055e 0092     		str	r2, [sp]
 1108 0560 201C     		mov	r0, r4
 1109 0562 321C     		mov	r2, r6
 1110 0564 FFF7FEFF 		bl	LCD_DrawLine
 1111              		.loc 1 197 0
 1112 0568 4B4B     		ldr	r3, .L59+28
 1113 056a 1868     		ldr	r0, [r3]
 1114 056c FFF7FEFF 		bl	__aeabi_f2uiz
 1115 0570 4A4A     		ldr	r2, .L59+32
 1116 0572 C4B2     		uxtb	r4, r0
 1117 0574 1068     		ldr	r0, [r2]
 1118 0576 FFF7FEFF 		bl	__aeabi_f2uiz
 1119 057a 4B4B     		ldr	r3, .L59+44
 1120 057c C5B2     		uxtb	r5, r0
 1121 057e 1868     		ldr	r0, [r3]
 1122 0580 FFF7FEFF 		bl	__aeabi_f2uiz
 1123 0584 494A     		ldr	r2, .L59+48
 1124 0586 C6B2     		uxtb	r6, r0
 1125 0588 1068     		ldr	r0, [r2]
 1126 058a FFF7FEFF 		bl	__aeabi_f2uiz
 1127 058e 3D4A     		ldr	r2, .L59+8
 1128 0590 291C     		mov	r1, r5
 1129 0592 C3B2     		uxtb	r3, r0
 1130 0594 0092     		str	r2, [sp]
 1131 0596 201C     		mov	r0, r4
 1132 0598 321C     		mov	r2, r6
ARM GAS  C:\Users\kees\AppData\Local\Temp\cctvj9ob.s 			page 26


 1133 059a FFF7FEFF 		bl	LCD_DrawLine
 1134              		.loc 1 200 0
 1135 059e 444B     		ldr	r3, .L59+52
 1136 05a0 1868     		ldr	r0, [r3]
 1137 05a2 FFF7FEFF 		bl	__aeabi_f2uiz
 1138 05a6 434A     		ldr	r2, .L59+56
 1139 05a8 C4B2     		uxtb	r4, r0
 1140 05aa 1068     		ldr	r0, [r2]
 1141 05ac FFF7FEFF 		bl	__aeabi_f2uiz
 1142 05b0 354B     		ldr	r3, .L59+12
 1143 05b2 C5B2     		uxtb	r5, r0
 1144 05b4 1868     		ldr	r0, [r3]
 1145 05b6 FFF7FEFF 		bl	__aeabi_f2uiz
 1146 05ba 344A     		ldr	r2, .L59+16
 1147 05bc C6B2     		uxtb	r6, r0
 1148 05be 1068     		ldr	r0, [r2]
 1149 05c0 FFF7FEFF 		bl	__aeabi_f2uiz
 1150 05c4 0022     		mov	r2, #0
 1151 05c6 291C     		mov	r1, r5
 1152 05c8 C3B2     		uxtb	r3, r0
 1153 05ca 0092     		str	r2, [sp]
 1154 05cc 201C     		mov	r0, r4
 1155 05ce 321C     		mov	r2, r6
 1156 05d0 FFF7FEFF 		bl	LCD_DrawLine
 1157              		.loc 1 201 0
 1158 05d4 384B     		ldr	r3, .L59+60
 1159 05d6 F024     		mov	r4, #240
 1160 05d8 1868     		ldr	r0, [r3]
 1161 05da FFF7FEFF 		bl	__aeabi_f2uiz
 1162 05de 374A     		ldr	r2, .L59+64
 1163 05e0 C5B2     		uxtb	r5, r0
 1164 05e2 1068     		ldr	r0, [r2]
 1165 05e4 FFF7FEFF 		bl	__aeabi_f2uiz
 1166 05e8 2B4B     		ldr	r3, .L59+28
 1167 05ea C6B2     		uxtb	r6, r0
 1168 05ec 1868     		ldr	r0, [r3]
 1169 05ee FFF7FEFF 		bl	__aeabi_f2uiz
 1170 05f2 2A4A     		ldr	r2, .L59+32
 1171 05f4 C7B2     		uxtb	r7, r0
 1172 05f6 1068     		ldr	r0, [r2]
 1173 05f8 FFF7FEFF 		bl	__aeabi_f2uiz
 1174 05fc 2401     		lsl	r4, r4, #4
 1175 05fe 311C     		mov	r1, r6
 1176 0600 3A1C     		mov	r2, r7
 1177 0602 C3B2     		uxtb	r3, r0
 1178 0604 281C     		mov	r0, r5
 1179 0606 0094     		str	r4, [sp]
 1180 0608 FFF7FEFF 		bl	LCD_DrawLine
 1181              		.loc 1 203 0
 1182 060c 2C4B     		ldr	r3, .L59+68
 1183 060e 1868     		ldr	r0, [r3]
 1184 0610 FFF7FEFF 		bl	__aeabi_f2uiz
 1185 0614 2B4A     		ldr	r2, .L59+72
 1186 0616 C5B2     		uxtb	r5, r0
 1187 0618 1068     		ldr	r0, [r2]
 1188 061a FFF7FEFF 		bl	__aeabi_f2uiz
 1189 061e 1C4B     		ldr	r3, .L59+20
ARM GAS  C:\Users\kees\AppData\Local\Temp\cctvj9ob.s 			page 27


 1190 0620 C6B2     		uxtb	r6, r0
 1191 0622 1868     		ldr	r0, [r3]
 1192 0624 FFF7FEFF 		bl	__aeabi_f2uiz
 1193 0628 1A4A     		ldr	r2, .L59+24
 1194 062a C7B2     		uxtb	r7, r0
 1195 062c 1068     		ldr	r0, [r2]
 1196 062e FFF7FEFF 		bl	__aeabi_f2uiz
 1197 0632 0022     		mov	r2, #0
 1198 0634 311C     		mov	r1, r6
 1199 0636 C3B2     		uxtb	r3, r0
 1200 0638 0092     		str	r2, [sp]
 1201 063a 281C     		mov	r0, r5
 1202 063c 3A1C     		mov	r2, r7
 1203 063e FFF7FEFF 		bl	LCD_DrawLine
 1204              		.loc 1 204 0
 1205 0642 214B     		ldr	r3, .L59+76
 1206 0644 1868     		ldr	r0, [r3]
 1207 0646 FFF7FEFF 		bl	__aeabi_f2uiz
 1208 064a 204A     		ldr	r2, .L59+80
 1209 064c C5B2     		uxtb	r5, r0
 1210 064e 1068     		ldr	r0, [r2]
 1211 0650 FFF7FEFF 		bl	__aeabi_f2uiz
 1212 0654 094B     		ldr	r3, .L59
 1213 0656 C6B2     		uxtb	r6, r0
 1214 0658 1868     		ldr	r0, [r3]
 1215 065a FFF7FEFF 		bl	__aeabi_f2uiz
 1216 065e 084A     		ldr	r2, .L59+4
 1217 0660 C7B2     		uxtb	r7, r0
 1218 0662 1068     		ldr	r0, [r2]
 1219 0664 FFF7FEFF 		bl	__aeabi_f2uiz
 1220 0668 311C     		mov	r1, r6
 1221 066a C3B2     		uxtb	r3, r0
 1222 066c 3A1C     		mov	r2, r7
 1223 066e 281C     		mov	r0, r5
 1224 0670 0094     		str	r4, [sp]
 1225 0672 FFF7FEFF 		bl	LCD_DrawLine
 1226              		.loc 1 207 0
 1227 0676 07B0     		add	sp, sp, #28
 1228              		@ sp needed for prologue
 1229 0678 F0BD     		pop	{r4, r5, r6, r7, pc}
 1230              	.L60:
 1231 067a C046     		.align	2
 1232              	.L59:
 1233 067c 00000000 		.word	b3x
 1234 0680 00000000 		.word	b3y
 1235 0684 FF0F0000 		.word	4095
 1236 0688 00000000 		.word	b4x_old
 1237 068c 00000000 		.word	b4y_old
 1238 0690 00000000 		.word	b3x_old
 1239 0694 00000000 		.word	b3y_old
 1240 0698 00000000 		.word	b4x
 1241 069c 00000000 		.word	b4y
 1242 06a0 00000000 		.word	b8x_old
 1243 06a4 00000000 		.word	b8y_old
 1244 06a8 00000000 		.word	b8x
 1245 06ac 00000000 		.word	b8y
 1246 06b0 00000000 		.word	b2x_old
ARM GAS  C:\Users\kees\AppData\Local\Temp\cctvj9ob.s 			page 28


 1247 06b4 00000000 		.word	b2y_old
 1248 06b8 00000000 		.word	b2x
 1249 06bc 00000000 		.word	b2y
 1250 06c0 00000000 		.word	b1x_old
 1251 06c4 00000000 		.word	b1y_old
 1252 06c8 00000000 		.word	b1x
 1253 06cc 00000000 		.word	b1y
 1254              		.cfi_endproc
 1255              	.LFE26:
 1256              		.size	DrawCube, .-DrawCube
 1257              		.section	.text.ProjectCube,"ax",%progbits
 1258              		.align	1
 1259              		.global	ProjectCube
 1260              		.code	16
 1261              		.thumb_func
 1262              		.type	ProjectCube, %function
 1263              	ProjectCube:
 1264              	.LFB25:
 1265              		.loc 1 150 0
 1266              		.cfi_startproc
 1267 0000 00B5     		push	{lr}
 1268              	.LCFI4:
 1269              		.cfi_def_cfa_offset 4
 1270              		.cfi_offset 14, -4
 1271              		.loc 1 151 0
 1272 0002 2D4B     		ldr	r3, .L63
 1273              		.loc 1 150 0
 1274 0004 83B0     		sub	sp, sp, #12
 1275              	.LCFI5:
 1276              		.cfi_def_cfa_offset 16
 1277              		.loc 1 151 0
 1278 0006 0093     		str	r3, [sp]
 1279 0008 2C4B     		ldr	r3, .L63+4
 1280 000a 1868     		ldr	r0, [r3]
 1281 000c 2C4B     		ldr	r3, .L63+8
 1282 000e 1968     		ldr	r1, [r3]
 1283 0010 2C4B     		ldr	r3, .L63+12
 1284 0012 1A68     		ldr	r2, [r3]
 1285 0014 2C4B     		ldr	r3, .L63+16
 1286 0016 FFF7FEFF 		bl	project
 1287              		.loc 1 152 0
 1288 001a 2C4B     		ldr	r3, .L63+20
 1289 001c 0093     		str	r3, [sp]
 1290 001e 2C4B     		ldr	r3, .L63+24
 1291 0020 1868     		ldr	r0, [r3]
 1292 0022 2C4B     		ldr	r3, .L63+28
 1293 0024 1968     		ldr	r1, [r3]
 1294 0026 2C4B     		ldr	r3, .L63+32
 1295 0028 1A68     		ldr	r2, [r3]
 1296 002a 2C4B     		ldr	r3, .L63+36
 1297 002c FFF7FEFF 		bl	project
 1298              		.loc 1 153 0
 1299 0030 2B4B     		ldr	r3, .L63+40
 1300 0032 0093     		str	r3, [sp]
 1301 0034 2B4B     		ldr	r3, .L63+44
 1302 0036 1868     		ldr	r0, [r3]
 1303 0038 2B4B     		ldr	r3, .L63+48
ARM GAS  C:\Users\kees\AppData\Local\Temp\cctvj9ob.s 			page 29


 1304 003a 1968     		ldr	r1, [r3]
 1305 003c 2B4B     		ldr	r3, .L63+52
 1306 003e 1A68     		ldr	r2, [r3]
 1307 0040 2B4B     		ldr	r3, .L63+56
 1308 0042 FFF7FEFF 		bl	project
 1309              		.loc 1 154 0
 1310 0046 2B4B     		ldr	r3, .L63+60
 1311 0048 0093     		str	r3, [sp]
 1312 004a 2B4B     		ldr	r3, .L63+64
 1313 004c 1868     		ldr	r0, [r3]
 1314 004e 2B4B     		ldr	r3, .L63+68
 1315 0050 1968     		ldr	r1, [r3]
 1316 0052 2B4B     		ldr	r3, .L63+72
 1317 0054 1A68     		ldr	r2, [r3]
 1318 0056 2B4B     		ldr	r3, .L63+76
 1319 0058 FFF7FEFF 		bl	project
 1320              		.loc 1 155 0
 1321 005c 2A4B     		ldr	r3, .L63+80
 1322 005e 0093     		str	r3, [sp]
 1323 0060 2A4B     		ldr	r3, .L63+84
 1324 0062 1868     		ldr	r0, [r3]
 1325 0064 2A4B     		ldr	r3, .L63+88
 1326 0066 1968     		ldr	r1, [r3]
 1327 0068 2A4B     		ldr	r3, .L63+92
 1328 006a 1A68     		ldr	r2, [r3]
 1329 006c 2A4B     		ldr	r3, .L63+96
 1330 006e FFF7FEFF 		bl	project
 1331              		.loc 1 156 0
 1332 0072 2A4B     		ldr	r3, .L63+100
 1333 0074 0093     		str	r3, [sp]
 1334 0076 2A4B     		ldr	r3, .L63+104
 1335 0078 1868     		ldr	r0, [r3]
 1336 007a 2A4B     		ldr	r3, .L63+108
 1337 007c 1968     		ldr	r1, [r3]
 1338 007e 2A4B     		ldr	r3, .L63+112
 1339 0080 1A68     		ldr	r2, [r3]
 1340 0082 2A4B     		ldr	r3, .L63+116
 1341 0084 FFF7FEFF 		bl	project
 1342              		.loc 1 157 0
 1343 0088 294B     		ldr	r3, .L63+120
 1344 008a 0093     		str	r3, [sp]
 1345 008c 294B     		ldr	r3, .L63+124
 1346 008e 1868     		ldr	r0, [r3]
 1347 0090 294B     		ldr	r3, .L63+128
 1348 0092 1968     		ldr	r1, [r3]
 1349 0094 294B     		ldr	r3, .L63+132
 1350 0096 1A68     		ldr	r2, [r3]
 1351 0098 294B     		ldr	r3, .L63+136
 1352 009a FFF7FEFF 		bl	project
 1353              		.loc 1 158 0
 1354 009e 294B     		ldr	r3, .L63+140
 1355 00a0 0093     		str	r3, [sp]
 1356 00a2 294B     		ldr	r3, .L63+144
 1357 00a4 1868     		ldr	r0, [r3]
 1358 00a6 294B     		ldr	r3, .L63+148
 1359 00a8 1968     		ldr	r1, [r3]
 1360 00aa 294B     		ldr	r3, .L63+152
ARM GAS  C:\Users\kees\AppData\Local\Temp\cctvj9ob.s 			page 30


 1361 00ac 1A68     		ldr	r2, [r3]
 1362 00ae 294B     		ldr	r3, .L63+156
 1363 00b0 FFF7FEFF 		bl	project
 1364              		.loc 1 159 0
 1365 00b4 03B0     		add	sp, sp, #12
 1366              		@ sp needed for prologue
 1367 00b6 00BD     		pop	{pc}
 1368              	.L64:
 1369              		.align	2
 1370              	.L63:
 1371 00b8 00000000 		.word	b1y
 1372 00bc 00000000 		.word	a1x
 1373 00c0 00000000 		.word	a1y
 1374 00c4 00000000 		.word	a1z
 1375 00c8 00000000 		.word	b1x
 1376 00cc 00000000 		.word	b2y
 1377 00d0 00000000 		.word	a2x
 1378 00d4 00000000 		.word	a2y
 1379 00d8 00000000 		.word	a2z
 1380 00dc 00000000 		.word	b2x
 1381 00e0 00000000 		.word	b3y
 1382 00e4 00000000 		.word	a3x
 1383 00e8 00000000 		.word	a3y
 1384 00ec 00000000 		.word	a3z
 1385 00f0 00000000 		.word	b3x
 1386 00f4 00000000 		.word	b4y
 1387 00f8 00000000 		.word	a4x
 1388 00fc 00000000 		.word	a4y
 1389 0100 00000000 		.word	a4z
 1390 0104 00000000 		.word	b4x
 1391 0108 00000000 		.word	b5y
 1392 010c 00000000 		.word	a5x
 1393 0110 00000000 		.word	a5y
 1394 0114 00000000 		.word	a5z
 1395 0118 00000000 		.word	b5x
 1396 011c 00000000 		.word	b6y
 1397 0120 00000000 		.word	a6x
 1398 0124 00000000 		.word	a6y
 1399 0128 00000000 		.word	a6z
 1400 012c 00000000 		.word	b6x
 1401 0130 00000000 		.word	b7y
 1402 0134 00000000 		.word	a7x
 1403 0138 00000000 		.word	a7y
 1404 013c 00000000 		.word	a7z
 1405 0140 00000000 		.word	b7x
 1406 0144 00000000 		.word	b8y
 1407 0148 00000000 		.word	a8x
 1408 014c 00000000 		.word	a8y
 1409 0150 00000000 		.word	a8z
 1410 0154 00000000 		.word	b8x
 1411              		.cfi_endproc
 1412              	.LFE25:
 1413              		.size	ProjectCube, .-ProjectCube
 1414              		.section	.text.RotateCubeZ,"ax",%progbits
 1415              		.align	1
 1416              		.global	RotateCubeZ
 1417              		.code	16
ARM GAS  C:\Users\kees\AppData\Local\Temp\cctvj9ob.s 			page 31


 1418              		.thumb_func
 1419              		.type	RotateCubeZ, %function
 1420              	RotateCubeZ:
 1421              	.LFB23:
 1422              		.loc 1 113 0
 1423              		.cfi_startproc
 1424 0000 10B5     		push	{r4, lr}
 1425              	.LCFI6:
 1426              		.cfi_def_cfa_offset 8
 1427              		.cfi_offset 4, -8
 1428              		.cfi_offset 14, -4
 1429              	.LVL0:
 1430              		.loc 1 113 0
 1431 0002 041C     		add	r4, r0, #0
 1432              		.loc 1 114 0
 1433 0004 231C     		add	r3, r4, #0
 1434 0006 1848     		ldr	r0, .L67
 1435              	.LVL1:
 1436 0008 1849     		ldr	r1, .L67+4
 1437 000a 194A     		ldr	r2, .L67+8
 1438 000c FFF7FEFF 		bl	rotatez
 1439              		.loc 1 115 0
 1440 0010 231C     		add	r3, r4, #0
 1441 0012 1848     		ldr	r0, .L67+12
 1442 0014 1849     		ldr	r1, .L67+16
 1443 0016 194A     		ldr	r2, .L67+20
 1444 0018 FFF7FEFF 		bl	rotatez
 1445              		.loc 1 116 0
 1446 001c 231C     		add	r3, r4, #0
 1447 001e 1848     		ldr	r0, .L67+24
 1448 0020 1849     		ldr	r1, .L67+28
 1449 0022 194A     		ldr	r2, .L67+32
 1450 0024 FFF7FEFF 		bl	rotatez
 1451              		.loc 1 117 0
 1452 0028 231C     		add	r3, r4, #0
 1453 002a 1848     		ldr	r0, .L67+36
 1454 002c 1849     		ldr	r1, .L67+40
 1455 002e 194A     		ldr	r2, .L67+44
 1456 0030 FFF7FEFF 		bl	rotatez
 1457              		.loc 1 118 0
 1458 0034 231C     		add	r3, r4, #0
 1459 0036 1848     		ldr	r0, .L67+48
 1460 0038 1849     		ldr	r1, .L67+52
 1461 003a 194A     		ldr	r2, .L67+56
 1462 003c FFF7FEFF 		bl	rotatez
 1463              		.loc 1 119 0
 1464 0040 231C     		add	r3, r4, #0
 1465 0042 1848     		ldr	r0, .L67+60
 1466 0044 1849     		ldr	r1, .L67+64
 1467 0046 194A     		ldr	r2, .L67+68
 1468 0048 FFF7FEFF 		bl	rotatez
 1469              		.loc 1 120 0
 1470 004c 231C     		add	r3, r4, #0
 1471 004e 1848     		ldr	r0, .L67+72
 1472 0050 1849     		ldr	r1, .L67+76
 1473 0052 194A     		ldr	r2, .L67+80
 1474 0054 FFF7FEFF 		bl	rotatez
ARM GAS  C:\Users\kees\AppData\Local\Temp\cctvj9ob.s 			page 32


 1475              		.loc 1 121 0
 1476 0058 1848     		ldr	r0, .L67+84
 1477 005a 1949     		ldr	r1, .L67+88
 1478 005c 194A     		ldr	r2, .L67+92
 1479 005e 231C     		add	r3, r4, #0
 1480 0060 FFF7FEFF 		bl	rotatez
 1481              		.loc 1 124 0
 1482              		@ sp needed for prologue
 1483              	.LVL2:
 1484 0064 10BD     		pop	{r4, pc}
 1485              	.L68:
 1486 0066 C046     		.align	2
 1487              	.L67:
 1488 0068 00000000 		.word	a1x
 1489 006c 00000000 		.word	a1y
 1490 0070 00000000 		.word	a1z
 1491 0074 00000000 		.word	a2x
 1492 0078 00000000 		.word	a2y
 1493 007c 00000000 		.word	a2z
 1494 0080 00000000 		.word	a3x
 1495 0084 00000000 		.word	a3y
 1496 0088 00000000 		.word	a3z
 1497 008c 00000000 		.word	a4x
 1498 0090 00000000 		.word	a4y
 1499 0094 00000000 		.word	a4z
 1500 0098 00000000 		.word	a5x
 1501 009c 00000000 		.word	a5y
 1502 00a0 00000000 		.word	a5z
 1503 00a4 00000000 		.word	a6x
 1504 00a8 00000000 		.word	a6y
 1505 00ac 00000000 		.word	a6z
 1506 00b0 00000000 		.word	a7x
 1507 00b4 00000000 		.word	a7y
 1508 00b8 00000000 		.word	a7z
 1509 00bc 00000000 		.word	a8x
 1510 00c0 00000000 		.word	a8y
 1511 00c4 00000000 		.word	a8z
 1512              		.cfi_endproc
 1513              	.LFE23:
 1514              		.size	RotateCubeZ, .-RotateCubeZ
 1515              		.section	.text.RotateCubeY,"ax",%progbits
 1516              		.align	1
 1517              		.global	RotateCubeY
 1518              		.code	16
 1519              		.thumb_func
 1520              		.type	RotateCubeY, %function
 1521              	RotateCubeY:
 1522              	.LFB22:
 1523              		.loc 1 99 0
 1524              		.cfi_startproc
 1525 0000 10B5     		push	{r4, lr}
 1526              	.LCFI7:
 1527              		.cfi_def_cfa_offset 8
 1528              		.cfi_offset 4, -8
 1529              		.cfi_offset 14, -4
 1530              	.LVL3:
 1531              		.loc 1 99 0
ARM GAS  C:\Users\kees\AppData\Local\Temp\cctvj9ob.s 			page 33


 1532 0002 041C     		add	r4, r0, #0
 1533              		.loc 1 100 0
 1534 0004 231C     		add	r3, r4, #0
 1535 0006 1848     		ldr	r0, .L71
 1536              	.LVL4:
 1537 0008 1849     		ldr	r1, .L71+4
 1538 000a 194A     		ldr	r2, .L71+8
 1539 000c FFF7FEFF 		bl	rotatey
 1540              		.loc 1 101 0
 1541 0010 231C     		add	r3, r4, #0
 1542 0012 1848     		ldr	r0, .L71+12
 1543 0014 1849     		ldr	r1, .L71+16
 1544 0016 194A     		ldr	r2, .L71+20
 1545 0018 FFF7FEFF 		bl	rotatey
 1546              		.loc 1 102 0
 1547 001c 231C     		add	r3, r4, #0
 1548 001e 1848     		ldr	r0, .L71+24
 1549 0020 1849     		ldr	r1, .L71+28
 1550 0022 194A     		ldr	r2, .L71+32
 1551 0024 FFF7FEFF 		bl	rotatey
 1552              		.loc 1 103 0
 1553 0028 231C     		add	r3, r4, #0
 1554 002a 1848     		ldr	r0, .L71+36
 1555 002c 1849     		ldr	r1, .L71+40
 1556 002e 194A     		ldr	r2, .L71+44
 1557 0030 FFF7FEFF 		bl	rotatey
 1558              		.loc 1 104 0
 1559 0034 231C     		add	r3, r4, #0
 1560 0036 1848     		ldr	r0, .L71+48
 1561 0038 1849     		ldr	r1, .L71+52
 1562 003a 194A     		ldr	r2, .L71+56
 1563 003c FFF7FEFF 		bl	rotatey
 1564              		.loc 1 105 0
 1565 0040 231C     		add	r3, r4, #0
 1566 0042 1848     		ldr	r0, .L71+60
 1567 0044 1849     		ldr	r1, .L71+64
 1568 0046 194A     		ldr	r2, .L71+68
 1569 0048 FFF7FEFF 		bl	rotatey
 1570              		.loc 1 106 0
 1571 004c 231C     		add	r3, r4, #0
 1572 004e 1848     		ldr	r0, .L71+72
 1573 0050 1849     		ldr	r1, .L71+76
 1574 0052 194A     		ldr	r2, .L71+80
 1575 0054 FFF7FEFF 		bl	rotatey
 1576              		.loc 1 107 0
 1577 0058 1848     		ldr	r0, .L71+84
 1578 005a 1949     		ldr	r1, .L71+88
 1579 005c 194A     		ldr	r2, .L71+92
 1580 005e 231C     		add	r3, r4, #0
 1581 0060 FFF7FEFF 		bl	rotatey
 1582              		.loc 1 110 0
 1583              		@ sp needed for prologue
 1584              	.LVL5:
 1585 0064 10BD     		pop	{r4, pc}
 1586              	.L72:
 1587 0066 C046     		.align	2
 1588              	.L71:
ARM GAS  C:\Users\kees\AppData\Local\Temp\cctvj9ob.s 			page 34


 1589 0068 00000000 		.word	a1x
 1590 006c 00000000 		.word	a1y
 1591 0070 00000000 		.word	a1z
 1592 0074 00000000 		.word	a2x
 1593 0078 00000000 		.word	a2y
 1594 007c 00000000 		.word	a2z
 1595 0080 00000000 		.word	a3x
 1596 0084 00000000 		.word	a3y
 1597 0088 00000000 		.word	a3z
 1598 008c 00000000 		.word	a4x
 1599 0090 00000000 		.word	a4y
 1600 0094 00000000 		.word	a4z
 1601 0098 00000000 		.word	a5x
 1602 009c 00000000 		.word	a5y
 1603 00a0 00000000 		.word	a5z
 1604 00a4 00000000 		.word	a6x
 1605 00a8 00000000 		.word	a6y
 1606 00ac 00000000 		.word	a6z
 1607 00b0 00000000 		.word	a7x
 1608 00b4 00000000 		.word	a7y
 1609 00b8 00000000 		.word	a7z
 1610 00bc 00000000 		.word	a8x
 1611 00c0 00000000 		.word	a8y
 1612 00c4 00000000 		.word	a8z
 1613              		.cfi_endproc
 1614              	.LFE22:
 1615              		.size	RotateCubeY, .-RotateCubeY
 1616              		.section	.text.RotateCubeX,"ax",%progbits
 1617              		.align	1
 1618              		.global	RotateCubeX
 1619              		.code	16
 1620              		.thumb_func
 1621              		.type	RotateCubeX, %function
 1622              	RotateCubeX:
 1623              	.LFB21:
 1624              		.loc 1 85 0
 1625              		.cfi_startproc
 1626 0000 10B5     		push	{r4, lr}
 1627              	.LCFI8:
 1628              		.cfi_def_cfa_offset 8
 1629              		.cfi_offset 4, -8
 1630              		.cfi_offset 14, -4
 1631              	.LVL6:
 1632              		.loc 1 85 0
 1633 0002 041C     		add	r4, r0, #0
 1634              		.loc 1 86 0
 1635 0004 231C     		add	r3, r4, #0
 1636 0006 1848     		ldr	r0, .L75
 1637              	.LVL7:
 1638 0008 1849     		ldr	r1, .L75+4
 1639 000a 194A     		ldr	r2, .L75+8
 1640 000c FFF7FEFF 		bl	rotatex
 1641              		.loc 1 87 0
 1642 0010 231C     		add	r3, r4, #0
 1643 0012 1848     		ldr	r0, .L75+12
 1644 0014 1849     		ldr	r1, .L75+16
 1645 0016 194A     		ldr	r2, .L75+20
ARM GAS  C:\Users\kees\AppData\Local\Temp\cctvj9ob.s 			page 35


 1646 0018 FFF7FEFF 		bl	rotatex
 1647              		.loc 1 88 0
 1648 001c 231C     		add	r3, r4, #0
 1649 001e 1848     		ldr	r0, .L75+24
 1650 0020 1849     		ldr	r1, .L75+28
 1651 0022 194A     		ldr	r2, .L75+32
 1652 0024 FFF7FEFF 		bl	rotatex
 1653              		.loc 1 89 0
 1654 0028 231C     		add	r3, r4, #0
 1655 002a 1848     		ldr	r0, .L75+36
 1656 002c 1849     		ldr	r1, .L75+40
 1657 002e 194A     		ldr	r2, .L75+44
 1658 0030 FFF7FEFF 		bl	rotatex
 1659              		.loc 1 90 0
 1660 0034 231C     		add	r3, r4, #0
 1661 0036 1848     		ldr	r0, .L75+48
 1662 0038 1849     		ldr	r1, .L75+52
 1663 003a 194A     		ldr	r2, .L75+56
 1664 003c FFF7FEFF 		bl	rotatex
 1665              		.loc 1 91 0
 1666 0040 231C     		add	r3, r4, #0
 1667 0042 1848     		ldr	r0, .L75+60
 1668 0044 1849     		ldr	r1, .L75+64
 1669 0046 194A     		ldr	r2, .L75+68
 1670 0048 FFF7FEFF 		bl	rotatex
 1671              		.loc 1 92 0
 1672 004c 231C     		add	r3, r4, #0
 1673 004e 1848     		ldr	r0, .L75+72
 1674 0050 1849     		ldr	r1, .L75+76
 1675 0052 194A     		ldr	r2, .L75+80
 1676 0054 FFF7FEFF 		bl	rotatex
 1677              		.loc 1 93 0
 1678 0058 1848     		ldr	r0, .L75+84
 1679 005a 1949     		ldr	r1, .L75+88
 1680 005c 194A     		ldr	r2, .L75+92
 1681 005e 231C     		add	r3, r4, #0
 1682 0060 FFF7FEFF 		bl	rotatex
 1683              		.loc 1 96 0
 1684              		@ sp needed for prologue
 1685              	.LVL8:
 1686 0064 10BD     		pop	{r4, pc}
 1687              	.L76:
 1688 0066 C046     		.align	2
 1689              	.L75:
 1690 0068 00000000 		.word	a1x
 1691 006c 00000000 		.word	a1y
 1692 0070 00000000 		.word	a1z
 1693 0074 00000000 		.word	a2x
 1694 0078 00000000 		.word	a2y
 1695 007c 00000000 		.word	a2z
 1696 0080 00000000 		.word	a3x
 1697 0084 00000000 		.word	a3y
 1698 0088 00000000 		.word	a3z
 1699 008c 00000000 		.word	a4x
 1700 0090 00000000 		.word	a4y
 1701 0094 00000000 		.word	a4z
 1702 0098 00000000 		.word	a5x
ARM GAS  C:\Users\kees\AppData\Local\Temp\cctvj9ob.s 			page 36


 1703 009c 00000000 		.word	a5y
 1704 00a0 00000000 		.word	a5z
 1705 00a4 00000000 		.word	a6x
 1706 00a8 00000000 		.word	a6y
 1707 00ac 00000000 		.word	a6z
 1708 00b0 00000000 		.word	a7x
 1709 00b4 00000000 		.word	a7y
 1710 00b8 00000000 		.word	a7z
 1711 00bc 00000000 		.word	a8x
 1712 00c0 00000000 		.word	a8y
 1713 00c4 00000000 		.word	a8z
 1714              		.cfi_endproc
 1715              	.LFE21:
 1716              		.size	RotateCubeX, .-RotateCubeX
 1717              		.global	X_scale_flag
 1718              		.global	Y_scale_flag
 1719              		.global	X_offset_flag
 1720              		.global	Y_offset_flag
 1721              		.comm	LCD_FONT8x16,1552,4
 1722              		.comm	a1x,4,4
 1723              		.comm	a1y,4,4
 1724              		.comm	a1z,4,4
 1725              		.comm	a2x,4,4
 1726              		.comm	a2y,4,4
 1727              		.comm	a2z,4,4
 1728              		.comm	a3x,4,4
 1729              		.comm	a3y,4,4
 1730              		.comm	a3z,4,4
 1731              		.comm	a4x,4,4
 1732              		.comm	a4y,4,4
 1733              		.comm	a4z,4,4
 1734              		.comm	a5x,4,4
 1735              		.comm	a5y,4,4
 1736              		.comm	a5z,4,4
 1737              		.comm	a6x,4,4
 1738              		.comm	a6y,4,4
 1739              		.comm	a6z,4,4
 1740              		.comm	a7x,4,4
 1741              		.comm	a7y,4,4
 1742              		.comm	a7z,4,4
 1743              		.comm	a8x,4,4
 1744              		.comm	a8y,4,4
 1745              		.comm	a8z,4,4
 1746              		.comm	b1x,4,4
 1747              		.comm	b1y,4,4
 1748              		.comm	b2x,4,4
 1749              		.comm	b2y,4,4
 1750              		.comm	b3x,4,4
 1751              		.comm	b3y,4,4
 1752              		.comm	b4x,4,4
 1753              		.comm	b4y,4,4
 1754              		.comm	b5x,4,4
 1755              		.comm	b5y,4,4
 1756              		.comm	b6x,4,4
 1757              		.comm	b6y,4,4
 1758              		.comm	b7x,4,4
 1759              		.comm	b7y,4,4
ARM GAS  C:\Users\kees\AppData\Local\Temp\cctvj9ob.s 			page 37


 1760              		.comm	b8x,4,4
 1761              		.comm	b8y,4,4
 1762              		.comm	b1x_old,4,4
 1763              		.comm	b1y_old,4,4
 1764              		.comm	b2x_old,4,4
 1765              		.comm	b2y_old,4,4
 1766              		.comm	b3x_old,4,4
 1767              		.comm	b3y_old,4,4
 1768              		.comm	b4x_old,4,4
 1769              		.comm	b4y_old,4,4
 1770              		.comm	b5x_old,4,4
 1771              		.comm	b5y_old,4,4
 1772              		.comm	b6x_old,4,4
 1773              		.comm	b6y_old,4,4
 1774              		.comm	b7x_old,4,4
 1775              		.comm	b7y_old,4,4
 1776              		.comm	b8x_old,4,4
 1777              		.comm	b8y_old,4,4
 1778              		.bss
 1779              		.align	2
 1780              		.set	.LANCHOR0,. + 0
 1781              		.type	X_scale_flag, %object
 1782              		.size	X_scale_flag, 4
 1783              	X_scale_flag:
 1784 0000 00000000 		.space	4
 1785              		.type	Y_scale_flag, %object
 1786              		.size	Y_scale_flag, 4
 1787              	Y_scale_flag:
 1788 0004 00000000 		.space	4
 1789              		.type	X_offset_flag, %object
 1790              		.size	X_offset_flag, 4
 1791              	X_offset_flag:
 1792 0008 00000000 		.space	4
 1793              		.type	Y_offset_flag, %object
 1794              		.size	Y_offset_flag, 4
 1795              	Y_offset_flag:
 1796 000c 00000000 		.space	4
 1797              		.text
 1798              	.Letext0: