ARM GAS  C:\Users\kees\AppData\Local\Temp\ccZ43alk.s 			page 1


   1              		.cpu cortex-m0
   2              		.fpu softvfp
   3              		.eabi_attribute 20, 1
   4              		.eabi_attribute 21, 1
   5              		.eabi_attribute 23, 3
   6              		.eabi_attribute 24, 1
   7              		.eabi_attribute 25, 1
   8              		.eabi_attribute 26, 1
   9              		.eabi_attribute 30, 4
  10              		.eabi_attribute 18, 4
  11              		.code	16
  12              		.file	"cyfitter_cfg.c"
  19 0000 7C010000 		.text
  19      0200F000 
  19      00000201 
  19      FB0E0D00 
  19      01010101 
  20              	.Ltext0:
  21              		.cfi_sections	.debug_frame
  22              		.section	.psocinit,"ax",%progbits
  23              		.align	1
  24              		.global	cyfitter_cfg
  25              		.code	16
  26              		.thumb_func
  27              		.type	cyfitter_cfg, %function
  28              	cyfitter_cfg:
  29              	.LFB7:
  30              		.file 1 ".\\Generated_Source\\PSoC4\\cyfitter_cfg.c"
   1:.\Generated_Source\PSoC4/cyfitter_cfg.c **** /*******************************************************************************
   2:.\Generated_Source\PSoC4/cyfitter_cfg.c **** * FILENAME: cyfitter_cfg.c
   3:.\Generated_Source\PSoC4/cyfitter_cfg.c **** * PSoC Creator 2.2 Service Pack 1
   4:.\Generated_Source\PSoC4/cyfitter_cfg.c **** *
   5:.\Generated_Source\PSoC4/cyfitter_cfg.c **** * Description:
   6:.\Generated_Source\PSoC4/cyfitter_cfg.c **** * This file is automatically generated by PSoC Creator with device 
   7:.\Generated_Source\PSoC4/cyfitter_cfg.c **** * initialization code.  Except for the user defined sections in
   8:.\Generated_Source\PSoC4/cyfitter_cfg.c **** * CyClockStartupError(), this file should not be modified.
   9:.\Generated_Source\PSoC4/cyfitter_cfg.c **** *
  10:.\Generated_Source\PSoC4/cyfitter_cfg.c **** ********************************************************************************
  11:.\Generated_Source\PSoC4/cyfitter_cfg.c **** * Copyright 2013, Cypress Semiconductor Corporation.  All rights reserved.
  12:.\Generated_Source\PSoC4/cyfitter_cfg.c **** * You may use this file only in accordance with the license, terms, conditions, 
  13:.\Generated_Source\PSoC4/cyfitter_cfg.c **** * disclaimers, and limitations in the end user license agreement accompanying 
  14:.\Generated_Source\PSoC4/cyfitter_cfg.c **** * the software package with which this file was provided.
  15:.\Generated_Source\PSoC4/cyfitter_cfg.c **** ********************************************************************************/
  16:.\Generated_Source\PSoC4/cyfitter_cfg.c **** 
  17:.\Generated_Source\PSoC4/cyfitter_cfg.c **** #include <string.h>
  18:.\Generated_Source\PSoC4/cyfitter_cfg.c **** #include <cytypes.h>
  19:.\Generated_Source\PSoC4/cyfitter_cfg.c **** #include <cydevice_trm.h>
  20:.\Generated_Source\PSoC4/cyfitter_cfg.c **** #include <cyfitter.h>
  21:.\Generated_Source\PSoC4/cyfitter_cfg.c **** #include <CyLib.h>
  22:.\Generated_Source\PSoC4/cyfitter_cfg.c **** #include <cyfitter_cfg.h>
  23:.\Generated_Source\PSoC4/cyfitter_cfg.c **** 
ARM GAS  C:\Users\kees\AppData\Local\Temp\ccZ43alk.s 			page 2


  24:.\Generated_Source\PSoC4/cyfitter_cfg.c **** /* Clock startup error codes                                                   */
  25:.\Generated_Source\PSoC4/cyfitter_cfg.c **** #define CYCLOCKSTART_NO_ERROR    0u
  26:.\Generated_Source\PSoC4/cyfitter_cfg.c **** #define CYCLOCKSTART_XTAL_ERROR  1u
  27:.\Generated_Source\PSoC4/cyfitter_cfg.c **** #define CYCLOCKSTART_32KHZ_ERROR 2u
  28:.\Generated_Source\PSoC4/cyfitter_cfg.c **** #define CYCLOCKSTART_PLL_ERROR   3u
  29:.\Generated_Source\PSoC4/cyfitter_cfg.c **** 
  30:.\Generated_Source\PSoC4/cyfitter_cfg.c **** #ifdef CY_NEED_CYCLOCKSTARTUPERROR
  31:.\Generated_Source\PSoC4/cyfitter_cfg.c **** /*******************************************************************************
  32:.\Generated_Source\PSoC4/cyfitter_cfg.c **** * Function Name: CyClockStartupError
  33:.\Generated_Source\PSoC4/cyfitter_cfg.c **** ********************************************************************************
  34:.\Generated_Source\PSoC4/cyfitter_cfg.c **** * Summary:
  35:.\Generated_Source\PSoC4/cyfitter_cfg.c **** *  If an error is encountered during clock configuration (crystal startup error,
  36:.\Generated_Source\PSoC4/cyfitter_cfg.c **** *  PLL lock error, etc.), the system will end up here.  Unless reimplemented by
  37:.\Generated_Source\PSoC4/cyfitter_cfg.c **** *  the customer, this function will stop in an infinite loop.
  38:.\Generated_Source\PSoC4/cyfitter_cfg.c **** *
  39:.\Generated_Source\PSoC4/cyfitter_cfg.c **** * Parameters:
  40:.\Generated_Source\PSoC4/cyfitter_cfg.c **** *   void
  41:.\Generated_Source\PSoC4/cyfitter_cfg.c **** *
  42:.\Generated_Source\PSoC4/cyfitter_cfg.c **** * Return:
  43:.\Generated_Source\PSoC4/cyfitter_cfg.c **** *   void
  44:.\Generated_Source\PSoC4/cyfitter_cfg.c **** *
  45:.\Generated_Source\PSoC4/cyfitter_cfg.c **** *******************************************************************************/
  46:.\Generated_Source\PSoC4/cyfitter_cfg.c **** #if defined(__GNUC__) || defined(__ARMCC_VERSION)
  47:.\Generated_Source\PSoC4/cyfitter_cfg.c **** __attribute__ ((unused))
  48:.\Generated_Source\PSoC4/cyfitter_cfg.c **** #endif
  49:.\Generated_Source\PSoC4/cyfitter_cfg.c **** static void CyClockStartupError(uint8 errorCode);
  50:.\Generated_Source\PSoC4/cyfitter_cfg.c **** #if defined(__GNUC__) || defined(__ARMCC_VERSION)
  51:.\Generated_Source\PSoC4/cyfitter_cfg.c **** __attribute__ ((unused))
  52:.\Generated_Source\PSoC4/cyfitter_cfg.c **** #endif
  53:.\Generated_Source\PSoC4/cyfitter_cfg.c **** static void CyClockStartupError(uint8 errorCode)
  54:.\Generated_Source\PSoC4/cyfitter_cfg.c **** {
  55:.\Generated_Source\PSoC4/cyfitter_cfg.c ****     /* To remove the compiler warning if errorCode not used.                */
  56:.\Generated_Source\PSoC4/cyfitter_cfg.c ****     errorCode = errorCode;
  57:.\Generated_Source\PSoC4/cyfitter_cfg.c **** 
  58:.\Generated_Source\PSoC4/cyfitter_cfg.c ****     /* `#START CyClockStartupError` */
  59:.\Generated_Source\PSoC4/cyfitter_cfg.c **** 
  60:.\Generated_Source\PSoC4/cyfitter_cfg.c ****     /* If we have a clock startup error (bad MHz crystal, PLL lock, etc.),  */
  61:.\Generated_Source\PSoC4/cyfitter_cfg.c ****     /* we will end up here to allow the customer to implement something to  */
  62:.\Generated_Source\PSoC4/cyfitter_cfg.c ****     /* deal with the clock condition.                                       */
  63:.\Generated_Source\PSoC4/cyfitter_cfg.c **** 
  64:.\Generated_Source\PSoC4/cyfitter_cfg.c ****     /* `#END` */
  65:.\Generated_Source\PSoC4/cyfitter_cfg.c **** 
  66:.\Generated_Source\PSoC4/cyfitter_cfg.c ****     /* If nothing else, stop here since the clocks have not started         */
  67:.\Generated_Source\PSoC4/cyfitter_cfg.c ****     /* correctly.                                                           */
  68:.\Generated_Source\PSoC4/cyfitter_cfg.c ****     while(1) {}
  69:.\Generated_Source\PSoC4/cyfitter_cfg.c **** }
  70:.\Generated_Source\PSoC4/cyfitter_cfg.c **** #endif
  71:.\Generated_Source\PSoC4/cyfitter_cfg.c **** 
  72:.\Generated_Source\PSoC4/cyfitter_cfg.c **** 
  73:.\Generated_Source\PSoC4/cyfitter_cfg.c **** #if defined(__GNUC__) || defined(__ARMCC_VERSION)
  74:.\Generated_Source\PSoC4/cyfitter_cfg.c **** 	#define CYPACKED __attribute__ ((packed))
  75:.\Generated_Source\PSoC4/cyfitter_cfg.c **** 	#define CYALIGNED __attribute__ ((aligned))
  76:.\Generated_Source\PSoC4/cyfitter_cfg.c **** 	
  77:.\Generated_Source\PSoC4/cyfitter_cfg.c **** 	#if defined(__ARMCC_VERSION)
  78:.\Generated_Source\PSoC4/cyfitter_cfg.c **** 		#define CY_CFG_MEMORY_BARRIER() __memory_changed()
  79:.\Generated_Source\PSoC4/cyfitter_cfg.c **** 	#else
  80:.\Generated_Source\PSoC4/cyfitter_cfg.c **** 		#define CY_CFG_MEMORY_BARRIER() __sync_synchronize()
ARM GAS  C:\Users\kees\AppData\Local\Temp\ccZ43alk.s 			page 3


  81:.\Generated_Source\PSoC4/cyfitter_cfg.c **** 	#endif
  82:.\Generated_Source\PSoC4/cyfitter_cfg.c **** 	
  83:.\Generated_Source\PSoC4/cyfitter_cfg.c **** 
  84:.\Generated_Source\PSoC4/cyfitter_cfg.c **** 	__attribute__ ((unused))
  85:.\Generated_Source\PSoC4/cyfitter_cfg.c **** 	static void CYMEMZERO(void *s, size_t n);
  86:.\Generated_Source\PSoC4/cyfitter_cfg.c **** 	__attribute__ ((unused))
  87:.\Generated_Source\PSoC4/cyfitter_cfg.c **** 	static void CYMEMZERO(void *s, size_t n)
  88:.\Generated_Source\PSoC4/cyfitter_cfg.c **** 	{
  89:.\Generated_Source\PSoC4/cyfitter_cfg.c **** 		(void)memset(s, 0, n);
  90:.\Generated_Source\PSoC4/cyfitter_cfg.c **** 	}
  91:.\Generated_Source\PSoC4/cyfitter_cfg.c **** 	__attribute__ ((unused))
  92:.\Generated_Source\PSoC4/cyfitter_cfg.c **** 	static void CYCONFIGCPY(void *dest, const void *src, size_t n);
  93:.\Generated_Source\PSoC4/cyfitter_cfg.c **** 	__attribute__ ((unused))
  94:.\Generated_Source\PSoC4/cyfitter_cfg.c **** 	static void CYCONFIGCPY(void *dest, const void *src, size_t n)
  95:.\Generated_Source\PSoC4/cyfitter_cfg.c **** 	{
  96:.\Generated_Source\PSoC4/cyfitter_cfg.c **** 		(void)memcpy(dest, src, n);
  97:.\Generated_Source\PSoC4/cyfitter_cfg.c **** 	}
  98:.\Generated_Source\PSoC4/cyfitter_cfg.c **** 	__attribute__ ((unused))
  99:.\Generated_Source\PSoC4/cyfitter_cfg.c **** 	static void CYCONFIGCPYCODE(void *dest, const void *src, size_t n);
 100:.\Generated_Source\PSoC4/cyfitter_cfg.c **** 	__attribute__ ((unused))
 101:.\Generated_Source\PSoC4/cyfitter_cfg.c **** 	static void CYCONFIGCPYCODE(void *dest, const void *src, size_t n)
 102:.\Generated_Source\PSoC4/cyfitter_cfg.c **** 	{
 103:.\Generated_Source\PSoC4/cyfitter_cfg.c **** 		(void)memcpy(dest, src, n);
 104:.\Generated_Source\PSoC4/cyfitter_cfg.c **** 	}
 105:.\Generated_Source\PSoC4/cyfitter_cfg.c **** #else
 106:.\Generated_Source\PSoC4/cyfitter_cfg.c **** 	#error Unsupported toolchain
 107:.\Generated_Source\PSoC4/cyfitter_cfg.c **** #endif
 108:.\Generated_Source\PSoC4/cyfitter_cfg.c **** 
 109:.\Generated_Source\PSoC4/cyfitter_cfg.c **** #define CY_CFG_BASE_ADDR_COUNT 9u
 110:.\Generated_Source\PSoC4/cyfitter_cfg.c **** typedef struct
 111:.\Generated_Source\PSoC4/cyfitter_cfg.c **** {
 112:.\Generated_Source\PSoC4/cyfitter_cfg.c **** 	uint8 offset;
 113:.\Generated_Source\PSoC4/cyfitter_cfg.c **** 	uint8 value;
 114:.\Generated_Source\PSoC4/cyfitter_cfg.c **** } CYPACKED cy_cfg_addrvalue_t;
 115:.\Generated_Source\PSoC4/cyfitter_cfg.c **** 
 116:.\Generated_Source\PSoC4/cyfitter_cfg.c **** 
 117:.\Generated_Source\PSoC4/cyfitter_cfg.c **** 
 118:.\Generated_Source\PSoC4/cyfitter_cfg.c **** /*******************************************************************************
 119:.\Generated_Source\PSoC4/cyfitter_cfg.c **** * Function Name: cfg_write_bytes32
 120:.\Generated_Source\PSoC4/cyfitter_cfg.c **** ********************************************************************************
 121:.\Generated_Source\PSoC4/cyfitter_cfg.c **** * Summary:
 122:.\Generated_Source\PSoC4/cyfitter_cfg.c **** *  This function is used for setting up the chip configuration areas that
 123:.\Generated_Source\PSoC4/cyfitter_cfg.c **** *  contain relatively sparse data.
 124:.\Generated_Source\PSoC4/cyfitter_cfg.c **** *
 125:.\Generated_Source\PSoC4/cyfitter_cfg.c **** * Parameters:
 126:.\Generated_Source\PSoC4/cyfitter_cfg.c **** *   void
 127:.\Generated_Source\PSoC4/cyfitter_cfg.c **** *
 128:.\Generated_Source\PSoC4/cyfitter_cfg.c **** * Return:
 129:.\Generated_Source\PSoC4/cyfitter_cfg.c **** *   void
 130:.\Generated_Source\PSoC4/cyfitter_cfg.c **** *
 131:.\Generated_Source\PSoC4/cyfitter_cfg.c **** *******************************************************************************/
 132:.\Generated_Source\PSoC4/cyfitter_cfg.c **** static void cfg_write_bytes32(const uint32 addr_table[], const cy_cfg_addrvalue_t data_table[]);
 133:.\Generated_Source\PSoC4/cyfitter_cfg.c **** static void cfg_write_bytes32(const uint32 addr_table[], const cy_cfg_addrvalue_t data_table[])
 134:.\Generated_Source\PSoC4/cyfitter_cfg.c **** {
 135:.\Generated_Source\PSoC4/cyfitter_cfg.c **** 	/* For 32-bit little-endian architectures */
 136:.\Generated_Source\PSoC4/cyfitter_cfg.c **** 	uint32 i, j = 0u;
 137:.\Generated_Source\PSoC4/cyfitter_cfg.c **** 	for (i = 0u; i < CY_CFG_BASE_ADDR_COUNT; i++)
ARM GAS  C:\Users\kees\AppData\Local\Temp\ccZ43alk.s 			page 4


 138:.\Generated_Source\PSoC4/cyfitter_cfg.c **** 	{
 139:.\Generated_Source\PSoC4/cyfitter_cfg.c **** 		uint32 baseAddr = addr_table[i];
 140:.\Generated_Source\PSoC4/cyfitter_cfg.c **** 		uint8 count = (uint8)baseAddr;
 141:.\Generated_Source\PSoC4/cyfitter_cfg.c **** 		baseAddr &= 0xFFFFFF00u;
 142:.\Generated_Source\PSoC4/cyfitter_cfg.c **** 		while (count != 0u)
 143:.\Generated_Source\PSoC4/cyfitter_cfg.c **** 		{
 144:.\Generated_Source\PSoC4/cyfitter_cfg.c **** 			CY_SET_XTND_REG8((void CYFAR *)(baseAddr + data_table[j].offset), data_table[j].value);
 145:.\Generated_Source\PSoC4/cyfitter_cfg.c **** 			j++;
 146:.\Generated_Source\PSoC4/cyfitter_cfg.c **** 			count--;
 147:.\Generated_Source\PSoC4/cyfitter_cfg.c **** 		}
 148:.\Generated_Source\PSoC4/cyfitter_cfg.c **** 	}
 149:.\Generated_Source\PSoC4/cyfitter_cfg.c **** }
 150:.\Generated_Source\PSoC4/cyfitter_cfg.c **** 
 151:.\Generated_Source\PSoC4/cyfitter_cfg.c **** /*******************************************************************************
 152:.\Generated_Source\PSoC4/cyfitter_cfg.c **** * Function Name: SetIMOBGTrims
 153:.\Generated_Source\PSoC4/cyfitter_cfg.c **** ********************************************************************************
 154:.\Generated_Source\PSoC4/cyfitter_cfg.c **** *
 155:.\Generated_Source\PSoC4/cyfitter_cfg.c **** * Summary:
 156:.\Generated_Source\PSoC4/cyfitter_cfg.c **** *   Performs the configuration of the bandgap trim for the IMO based on the given
 157:.\Generated_Source\PSoC4/cyfitter_cfg.c **** *   expected frequency of the IMO. 
 158:.\Generated_Source\PSoC4/cyfitter_cfg.c **** *
 159:.\Generated_Source\PSoC4/cyfitter_cfg.c **** * Parameters:
 160:.\Generated_Source\PSoC4/cyfitter_cfg.c **** *   imoFreq: Frequency for operation of the IMO.
 161:.\Generated_Source\PSoC4/cyfitter_cfg.c **** *
 162:.\Generated_Source\PSoC4/cyfitter_cfg.c **** * Return:
 163:.\Generated_Source\PSoC4/cyfitter_cfg.c **** *   void
 164:.\Generated_Source\PSoC4/cyfitter_cfg.c **** *
 165:.\Generated_Source\PSoC4/cyfitter_cfg.c **** *******************************************************************************/
 166:.\Generated_Source\PSoC4/cyfitter_cfg.c **** static void SetIMOBGTrims(uint8 imoFreq);
 167:.\Generated_Source\PSoC4/cyfitter_cfg.c **** __attribute__ ((section(".psocinit")))
 168:.\Generated_Source\PSoC4/cyfitter_cfg.c **** static void SetIMOBGTrims(uint8 imoFreq)
 169:.\Generated_Source\PSoC4/cyfitter_cfg.c **** {
 170:.\Generated_Source\PSoC4/cyfitter_cfg.c **** 	typedef struct {
 171:.\Generated_Source\PSoC4/cyfitter_cfg.c **** 		uint8 freq;
 172:.\Generated_Source\PSoC4/cyfitter_cfg.c **** 		uint8 absolute;
 173:.\Generated_Source\PSoC4/cyfitter_cfg.c **** 		uint8 tmpco;
 174:.\Generated_Source\PSoC4/cyfitter_cfg.c **** 	} CYPACKED imo_trim_entry_t;
 175:.\Generated_Source\PSoC4/cyfitter_cfg.c **** 
 176:.\Generated_Source\PSoC4/cyfitter_cfg.c **** 	typedef struct {
 177:.\Generated_Source\PSoC4/cyfitter_cfg.c **** 		imo_trim_entry_t entries[4];
 178:.\Generated_Source\PSoC4/cyfitter_cfg.c **** 	} CYPACKED imo_trim_table_t;
 179:.\Generated_Source\PSoC4/cyfitter_cfg.c **** 
 180:.\Generated_Source\PSoC4/cyfitter_cfg.c **** 	static const imo_trim_table_t *imo_trim_table = (const imo_trim_table_t *)CYREG_SFLASH_IMO_MAXF0;
 181:.\Generated_Source\PSoC4/cyfitter_cfg.c **** 	static const uint32 IMO_TRIM_FREQ_TABLE_ENTRIES = sizeof(imo_trim_table->entries)/sizeof(imo_trim_
 182:.\Generated_Source\PSoC4/cyfitter_cfg.c **** 
 183:.\Generated_Source\PSoC4/cyfitter_cfg.c **** 	int32 imoTrimIndex;
 184:.\Generated_Source\PSoC4/cyfitter_cfg.c **** 	uint8 setAbs;
 185:.\Generated_Source\PSoC4/cyfitter_cfg.c **** 	uint8 setTmpCo;
 186:.\Generated_Source\PSoC4/cyfitter_cfg.c **** 
 187:.\Generated_Source\PSoC4/cyfitter_cfg.c **** 	/* Traverse the SFLASH IMO frequency-dependent bandgap trim table to
 188:.\Generated_Source\PSoC4/cyfitter_cfg.c **** 	 * locate the appropriate value to trim the IMO bandgap based on freq. */
 189:.\Generated_Source\PSoC4/cyfitter_cfg.c **** 	setAbs = CY_GET_REG8((const void *)CYREG_SFLASH_IMO_ABS4);
 190:.\Generated_Source\PSoC4/cyfitter_cfg.c **** 	setTmpCo = CY_GET_REG8((const void *)CYREG_SFLASH_IMO_TMPCO4);
 191:.\Generated_Source\PSoC4/cyfitter_cfg.c **** 	for (imoTrimIndex = ((int32)IMO_TRIM_FREQ_TABLE_ENTRIES)-1;
 192:.\Generated_Source\PSoC4/cyfitter_cfg.c **** 	     (imoTrimIndex >= 0) && (imoFreq <= imo_trim_table->entries[imoTrimIndex].freq);
 193:.\Generated_Source\PSoC4/cyfitter_cfg.c **** 	     imoTrimIndex--)
 194:.\Generated_Source\PSoC4/cyfitter_cfg.c **** 	{
ARM GAS  C:\Users\kees\AppData\Local\Temp\ccZ43alk.s 			page 5


 195:.\Generated_Source\PSoC4/cyfitter_cfg.c **** 		setAbs = imo_trim_table->entries[imoTrimIndex].absolute;
 196:.\Generated_Source\PSoC4/cyfitter_cfg.c **** 		setTmpCo = imo_trim_table->entries[imoTrimIndex].tmpco;
 197:.\Generated_Source\PSoC4/cyfitter_cfg.c **** 	}
 198:.\Generated_Source\PSoC4/cyfitter_cfg.c **** 
 199:.\Generated_Source\PSoC4/cyfitter_cfg.c **** 	CY_SET_REG32((void *)CYREG_PWR_BG_TRIM4, setAbs);
 200:.\Generated_Source\PSoC4/cyfitter_cfg.c **** 	CY_SET_REG32((void *)CYREG_PWR_BG_TRIM5, setTmpCo);
 201:.\Generated_Source\PSoC4/cyfitter_cfg.c **** }
 202:.\Generated_Source\PSoC4/cyfitter_cfg.c **** 
 203:.\Generated_Source\PSoC4/cyfitter_cfg.c **** 
 204:.\Generated_Source\PSoC4/cyfitter_cfg.c **** 
 205:.\Generated_Source\PSoC4/cyfitter_cfg.c **** /*******************************************************************************
 206:.\Generated_Source\PSoC4/cyfitter_cfg.c **** * Function Name: ClockSetup
 207:.\Generated_Source\PSoC4/cyfitter_cfg.c **** ********************************************************************************
 208:.\Generated_Source\PSoC4/cyfitter_cfg.c **** *
 209:.\Generated_Source\PSoC4/cyfitter_cfg.c **** * Summary:
 210:.\Generated_Source\PSoC4/cyfitter_cfg.c **** *   Performs the initialization of all of the clocks in the device based on the
 211:.\Generated_Source\PSoC4/cyfitter_cfg.c **** *   settings in the Clock tab of the DWR.  This includes enabling the requested
 212:.\Generated_Source\PSoC4/cyfitter_cfg.c **** *   clocks and setting the necessary dividers to produce the desired frequency. 
 213:.\Generated_Source\PSoC4/cyfitter_cfg.c **** *
 214:.\Generated_Source\PSoC4/cyfitter_cfg.c **** * Parameters:
 215:.\Generated_Source\PSoC4/cyfitter_cfg.c **** *   void
 216:.\Generated_Source\PSoC4/cyfitter_cfg.c **** *
 217:.\Generated_Source\PSoC4/cyfitter_cfg.c **** * Return:
 218:.\Generated_Source\PSoC4/cyfitter_cfg.c **** *   void
 219:.\Generated_Source\PSoC4/cyfitter_cfg.c **** *
 220:.\Generated_Source\PSoC4/cyfitter_cfg.c **** *******************************************************************************/
 221:.\Generated_Source\PSoC4/cyfitter_cfg.c **** static void ClockSetup(void);
 222:.\Generated_Source\PSoC4/cyfitter_cfg.c **** __attribute__ ((section(".psocinit")))
 223:.\Generated_Source\PSoC4/cyfitter_cfg.c **** static void ClockSetup(void)
 224:.\Generated_Source\PSoC4/cyfitter_cfg.c **** {
 225:.\Generated_Source\PSoC4/cyfitter_cfg.c **** 	/* Enable HALF_EN before trimming for the flash accelerator. */
 226:.\Generated_Source\PSoC4/cyfitter_cfg.c **** 	CY_SET_REG32((void CYXDATA *)(CYREG_CLK_SELECT), (CY_GET_REG32((void *)CYREG_CLK_SELECT) | 0x00040
 227:.\Generated_Source\PSoC4/cyfitter_cfg.c **** 
 228:.\Generated_Source\PSoC4/cyfitter_cfg.c **** 	/* Trim IMO BG based on desired frequency. */
 229:.\Generated_Source\PSoC4/cyfitter_cfg.c **** 	SetIMOBGTrims(48u);
 230:.\Generated_Source\PSoC4/cyfitter_cfg.c **** 
 231:.\Generated_Source\PSoC4/cyfitter_cfg.c **** 	/* Going faster than 24MHz, so update trim value then adjust to new clock speed. */
 232:.\Generated_Source\PSoC4/cyfitter_cfg.c **** 	CY_SET_REG32((void CYXDATA *)(CYREG_CLK_IMO_TRIM1), (CY_GET_REG8((void *)CYREG_SFLASH_IMO_TRIM45))
 233:.\Generated_Source\PSoC4/cyfitter_cfg.c **** 	CyDelayUs(5u);
 234:.\Generated_Source\PSoC4/cyfitter_cfg.c **** 	CY_SET_REG32((void CYXDATA *)(CYREG_CLK_IMO_TRIM2), (53u));
 235:.\Generated_Source\PSoC4/cyfitter_cfg.c **** 
 236:.\Generated_Source\PSoC4/cyfitter_cfg.c **** 	/* CYDEV_CLK_SELECT00 Starting address: CYDEV_CLK_SELECT00 */
 237:.\Generated_Source\PSoC4/cyfitter_cfg.c **** 	CY_SET_XTND_REG32((void CYFAR *)(CYREG_CLK_SELECT12), 0x00000010u);
 238:.\Generated_Source\PSoC4/cyfitter_cfg.c **** 
 239:.\Generated_Source\PSoC4/cyfitter_cfg.c **** 	/* CYDEV_CLK_IMO_CONFIG Starting address: CYDEV_CLK_IMO_CONFIG */
 240:.\Generated_Source\PSoC4/cyfitter_cfg.c **** 	CY_SET_XTND_REG32((void CYFAR *)(CYREG_CLK_IMO_CONFIG), 0x80000000u);
 241:.\Generated_Source\PSoC4/cyfitter_cfg.c **** 
 242:.\Generated_Source\PSoC4/cyfitter_cfg.c **** 	/* CYDEV_CLK_ILO_CONFIG Starting address: CYDEV_CLK_ILO_CONFIG */
 243:.\Generated_Source\PSoC4/cyfitter_cfg.c **** 	CY_SET_XTND_REG32((void CYFAR *)(CYREG_CLK_ILO_CONFIG), 0x80000000u);
 244:.\Generated_Source\PSoC4/cyfitter_cfg.c **** 
 245:.\Generated_Source\PSoC4/cyfitter_cfg.c **** 	/* CYDEV_CLK_SELECT Starting address: CYDEV_CLK_SELECT */
 246:.\Generated_Source\PSoC4/cyfitter_cfg.c **** 	CY_SET_XTND_REG32((void CYFAR *)(CYREG_CLK_SELECT), 0x00040000u);
 247:.\Generated_Source\PSoC4/cyfitter_cfg.c **** 
 248:.\Generated_Source\PSoC4/cyfitter_cfg.c **** 	/* CYDEV_CLK_DIVIDER_A00 Starting address: CYDEV_CLK_DIVIDER_A00 */
 249:.\Generated_Source\PSoC4/cyfitter_cfg.c **** 	CY_SET_XTND_REG32((void CYFAR *)(CYREG_CLK_DIVIDER_A00), 0x80000003u);
 250:.\Generated_Source\PSoC4/cyfitter_cfg.c **** 
 251:.\Generated_Source\PSoC4/cyfitter_cfg.c **** }
ARM GAS  C:\Users\kees\AppData\Local\Temp\ccZ43alk.s 			page 6


 252:.\Generated_Source\PSoC4/cyfitter_cfg.c **** 
 253:.\Generated_Source\PSoC4/cyfitter_cfg.c **** 
 254:.\Generated_Source\PSoC4/cyfitter_cfg.c **** /* Analog API Functions */
 255:.\Generated_Source\PSoC4/cyfitter_cfg.c **** 
 256:.\Generated_Source\PSoC4/cyfitter_cfg.c **** 
 257:.\Generated_Source\PSoC4/cyfitter_cfg.c **** /*******************************************************************************
 258:.\Generated_Source\PSoC4/cyfitter_cfg.c **** * Function Name: AnalogSetDefault
 259:.\Generated_Source\PSoC4/cyfitter_cfg.c **** ********************************************************************************
 260:.\Generated_Source\PSoC4/cyfitter_cfg.c **** *
 261:.\Generated_Source\PSoC4/cyfitter_cfg.c **** * Summary:
 262:.\Generated_Source\PSoC4/cyfitter_cfg.c **** *  Sets up the analog portions of the chip to default values based on chip
 263:.\Generated_Source\PSoC4/cyfitter_cfg.c **** *  configuration options from the project.
 264:.\Generated_Source\PSoC4/cyfitter_cfg.c **** *
 265:.\Generated_Source\PSoC4/cyfitter_cfg.c **** * Parameters:
 266:.\Generated_Source\PSoC4/cyfitter_cfg.c **** *  void
 267:.\Generated_Source\PSoC4/cyfitter_cfg.c **** *
 268:.\Generated_Source\PSoC4/cyfitter_cfg.c **** * Return:
 269:.\Generated_Source\PSoC4/cyfitter_cfg.c **** *  void
 270:.\Generated_Source\PSoC4/cyfitter_cfg.c **** *
 271:.\Generated_Source\PSoC4/cyfitter_cfg.c **** *******************************************************************************/
 272:.\Generated_Source\PSoC4/cyfitter_cfg.c **** static void AnalogSetDefault(void);
 273:.\Generated_Source\PSoC4/cyfitter_cfg.c **** static void AnalogSetDefault(void)
 274:.\Generated_Source\PSoC4/cyfitter_cfg.c **** {
 275:.\Generated_Source\PSoC4/cyfitter_cfg.c **** }
 276:.\Generated_Source\PSoC4/cyfitter_cfg.c **** 
 277:.\Generated_Source\PSoC4/cyfitter_cfg.c **** #define CY_AMUX_UNUSED CYREG_SAR_MUX_SWITCH_STATUS
 278:.\Generated_Source\PSoC4/cyfitter_cfg.c **** 
 279:.\Generated_Source\PSoC4/cyfitter_cfg.c **** 
 280:.\Generated_Source\PSoC4/cyfitter_cfg.c **** /*******************************************************************************
 281:.\Generated_Source\PSoC4/cyfitter_cfg.c **** * Function Name: cyfitter_cfg
 282:.\Generated_Source\PSoC4/cyfitter_cfg.c **** ********************************************************************************
 283:.\Generated_Source\PSoC4/cyfitter_cfg.c **** * Summary:
 284:.\Generated_Source\PSoC4/cyfitter_cfg.c **** *  This function is called by the start-up code for the selected device. It
 285:.\Generated_Source\PSoC4/cyfitter_cfg.c **** *  performs all of the necessary device configuration based on the design
 286:.\Generated_Source\PSoC4/cyfitter_cfg.c **** *  settings.  This includes settings from the Design Wide Resources (DWR) such
 287:.\Generated_Source\PSoC4/cyfitter_cfg.c **** *  as Clocks and Pins as well as any component configuration that is necessary.
 288:.\Generated_Source\PSoC4/cyfitter_cfg.c **** *
 289:.\Generated_Source\PSoC4/cyfitter_cfg.c **** * Parameters:  
 290:.\Generated_Source\PSoC4/cyfitter_cfg.c **** *   void
 291:.\Generated_Source\PSoC4/cyfitter_cfg.c **** *
 292:.\Generated_Source\PSoC4/cyfitter_cfg.c **** * Return:
 293:.\Generated_Source\PSoC4/cyfitter_cfg.c **** *   void
 294:.\Generated_Source\PSoC4/cyfitter_cfg.c **** *
 295:.\Generated_Source\PSoC4/cyfitter_cfg.c **** *******************************************************************************/
 296:.\Generated_Source\PSoC4/cyfitter_cfg.c **** __attribute__ ((section(".psocinit")))
 297:.\Generated_Source\PSoC4/cyfitter_cfg.c **** void cyfitter_cfg(void)
 298:.\Generated_Source\PSoC4/cyfitter_cfg.c **** {
  31              		.loc 1 298 0
  32              		.cfi_startproc
  33 0000 F8B5     		push	{r3, r4, r5, r6, r7, lr}
  34              	.LCFI0:
  35              		.cfi_def_cfa_offset 24
  36              		.cfi_offset 3, -24
  37              		.cfi_offset 4, -20
  38              		.cfi_offset 5, -16
  39              		.cfi_offset 6, -12
  40              		.cfi_offset 7, -8
ARM GAS  C:\Users\kees\AppData\Local\Temp\ccZ43alk.s 			page 7


  41              		.cfi_offset 14, -4
 299:.\Generated_Source\PSoC4/cyfitter_cfg.c **** 	/* Disable interrupts by default. Let user enable if/when they want. */
 300:.\Generated_Source\PSoC4/cyfitter_cfg.c **** 	CyGlobalIntDisable;
  42              		.loc 1 300 0
  43              	@ 300 ".\Generated_Source\PSoC4\cyfitter_cfg.c" 1
  44 0002 72B6     		CPSID   i
  45              	@ 0 "" 2
  46              		.code	16
  47 0004 5A4C     		ldr	r4, .L9
  48              		.loc 1 297 0
  49 0006 251C     		mov	r5, r4
  50 0008 1235     		add	r5, r5, #18
  51              	.L2:
  52              	.LBB23:
  53              	.LBB24:
  54              	.LBB25:
  55              	.LBB26:
  56              		.loc 1 89 0
  57 000a 6279     		ldrb	r2, [r4, #5]
  58 000c 2379     		ldrb	r3, [r4, #4]
  59 000e 6078     		ldrb	r0, [r4, #1]
  60 0010 1202     		lsl	r2, r2, #8
  61 0012 1A43     		orr	r2, r2, r3
  62 0014 2378     		ldrb	r3, [r4]
  63 0016 0002     		lsl	r0, r0, #8
  64 0018 1843     		orr	r0, r0, r3
  65 001a A378     		ldrb	r3, [r4, #2]
  66 001c 0021     		mov	r1, #0
  67 001e 1B04     		lsl	r3, r3, #16
  68 0020 1843     		orr	r0, r0, r3
  69 0022 E378     		ldrb	r3, [r4, #3]
  70 0024 0634     		add	r4, r4, #6
  71 0026 1B06     		lsl	r3, r3, #24
  72 0028 1843     		orr	r0, r0, r3
  73 002a FFF7FEFF 		bl	memset
  74              	.LBE26:
  75              	.LBE25:
  76              	.LBE24:
 301:.\Generated_Source\PSoC4/cyfitter_cfg.c **** 
 302:.\Generated_Source\PSoC4/cyfitter_cfg.c **** 	{
 303:.\Generated_Source\PSoC4/cyfitter_cfg.c **** 		static const uint32 CYCODE cy_cfg_addr_table[] = {
 304:.\Generated_Source\PSoC4/cyfitter_cfg.c **** 			0x400F0001u, /* Base address: 0x400F0000 Count: 1 */
 305:.\Generated_Source\PSoC4/cyfitter_cfg.c **** 			0x400F3037u, /* Base address: 0x400F3000 Count: 55 */
 306:.\Generated_Source\PSoC4/cyfitter_cfg.c **** 			0x400F3126u, /* Base address: 0x400F3100 Count: 38 */
 307:.\Generated_Source\PSoC4/cyfitter_cfg.c **** 			0x400F3225u, /* Base address: 0x400F3200 Count: 37 */
 308:.\Generated_Source\PSoC4/cyfitter_cfg.c **** 			0x400F3343u, /* Base address: 0x400F3300 Count: 67 */
 309:.\Generated_Source\PSoC4/cyfitter_cfg.c **** 			0x400F4002u, /* Base address: 0x400F4000 Count: 2 */
 310:.\Generated_Source\PSoC4/cyfitter_cfg.c **** 			0x400F4102u, /* Base address: 0x400F4100 Count: 2 */
 311:.\Generated_Source\PSoC4/cyfitter_cfg.c **** 			0x400F4308u, /* Base address: 0x400F4300 Count: 8 */
 312:.\Generated_Source\PSoC4/cyfitter_cfg.c **** 			0x400F6002u, /* Base address: 0x400F6000 Count: 2 */
 313:.\Generated_Source\PSoC4/cyfitter_cfg.c **** 		};
 314:.\Generated_Source\PSoC4/cyfitter_cfg.c **** 
 315:.\Generated_Source\PSoC4/cyfitter_cfg.c **** 		static const cy_cfg_addrvalue_t CYCODE cy_cfg_data_table[] = {
 316:.\Generated_Source\PSoC4/cyfitter_cfg.c **** 			{0x81u, 0x11u},
 317:.\Generated_Source\PSoC4/cyfitter_cfg.c **** 			{0x00u, 0x02u},
 318:.\Generated_Source\PSoC4/cyfitter_cfg.c **** 			{0x02u, 0x0Du},
 319:.\Generated_Source\PSoC4/cyfitter_cfg.c **** 			{0x04u, 0x09u},
ARM GAS  C:\Users\kees\AppData\Local\Temp\ccZ43alk.s 			page 8


 320:.\Generated_Source\PSoC4/cyfitter_cfg.c **** 			{0x06u, 0x06u},
 321:.\Generated_Source\PSoC4/cyfitter_cfg.c **** 			{0x28u, 0x05u},
 322:.\Generated_Source\PSoC4/cyfitter_cfg.c **** 			{0x2Au, 0x0Au},
 323:.\Generated_Source\PSoC4/cyfitter_cfg.c **** 			{0x2Cu, 0x03u},
 324:.\Generated_Source\PSoC4/cyfitter_cfg.c **** 			{0x2Eu, 0x0Cu},
 325:.\Generated_Source\PSoC4/cyfitter_cfg.c **** 			{0x30u, 0x0Fu},
 326:.\Generated_Source\PSoC4/cyfitter_cfg.c **** 			{0x3Au, 0x02u},
 327:.\Generated_Source\PSoC4/cyfitter_cfg.c **** 			{0x54u, 0x40u},
 328:.\Generated_Source\PSoC4/cyfitter_cfg.c **** 			{0x58u, 0x04u},
 329:.\Generated_Source\PSoC4/cyfitter_cfg.c **** 			{0x5Bu, 0x04u},
 330:.\Generated_Source\PSoC4/cyfitter_cfg.c **** 			{0x5Fu, 0x01u},
 331:.\Generated_Source\PSoC4/cyfitter_cfg.c **** 			{0x80u, 0x44u},
 332:.\Generated_Source\PSoC4/cyfitter_cfg.c **** 			{0x81u, 0x04u},
 333:.\Generated_Source\PSoC4/cyfitter_cfg.c **** 			{0x82u, 0x08u},
 334:.\Generated_Source\PSoC4/cyfitter_cfg.c **** 			{0x85u, 0x07u},
 335:.\Generated_Source\PSoC4/cyfitter_cfg.c **** 			{0x88u, 0x37u},
 336:.\Generated_Source\PSoC4/cyfitter_cfg.c **** 			{0x8Bu, 0x04u},
 337:.\Generated_Source\PSoC4/cyfitter_cfg.c **** 			{0x8Cu, 0x08u},
 338:.\Generated_Source\PSoC4/cyfitter_cfg.c **** 			{0x8Eu, 0x34u},
 339:.\Generated_Source\PSoC4/cyfitter_cfg.c **** 			{0x91u, 0x04u},
 340:.\Generated_Source\PSoC4/cyfitter_cfg.c **** 			{0x92u, 0x01u},
 341:.\Generated_Source\PSoC4/cyfitter_cfg.c **** 			{0x94u, 0x08u},
 342:.\Generated_Source\PSoC4/cyfitter_cfg.c **** 			{0x95u, 0x01u},
 343:.\Generated_Source\PSoC4/cyfitter_cfg.c **** 			{0x96u, 0xE0u},
 344:.\Generated_Source\PSoC4/cyfitter_cfg.c **** 			{0x97u, 0x06u},
 345:.\Generated_Source\PSoC4/cyfitter_cfg.c **** 			{0x99u, 0x01u},
 346:.\Generated_Source\PSoC4/cyfitter_cfg.c **** 			{0x9Au, 0x80u},
 347:.\Generated_Source\PSoC4/cyfitter_cfg.c **** 			{0x9Bu, 0x06u},
 348:.\Generated_Source\PSoC4/cyfitter_cfg.c **** 			{0x9Cu, 0x37u},
 349:.\Generated_Source\PSoC4/cyfitter_cfg.c **** 			{0x9Fu, 0x03u},
 350:.\Generated_Source\PSoC4/cyfitter_cfg.c **** 			{0xA0u, 0x34u},
 351:.\Generated_Source\PSoC4/cyfitter_cfg.c **** 			{0xA1u, 0x04u},
 352:.\Generated_Source\PSoC4/cyfitter_cfg.c **** 			{0xA2u, 0x03u},
 353:.\Generated_Source\PSoC4/cyfitter_cfg.c **** 			{0xA4u, 0x37u},
 354:.\Generated_Source\PSoC4/cyfitter_cfg.c **** 			{0xA5u, 0x04u},
 355:.\Generated_Source\PSoC4/cyfitter_cfg.c **** 			{0xA8u, 0x08u},
 356:.\Generated_Source\PSoC4/cyfitter_cfg.c **** 			{0xAAu, 0xD0u},
 357:.\Generated_Source\PSoC4/cyfitter_cfg.c **** 			{0xACu, 0x37u},
 358:.\Generated_Source\PSoC4/cyfitter_cfg.c **** 			{0xB0u, 0x3Cu},
 359:.\Generated_Source\PSoC4/cyfitter_cfg.c **** 			{0xB2u, 0x01u},
 360:.\Generated_Source\PSoC4/cyfitter_cfg.c **** 			{0xB4u, 0xC0u},
 361:.\Generated_Source\PSoC4/cyfitter_cfg.c **** 			{0xB5u, 0x07u},
 362:.\Generated_Source\PSoC4/cyfitter_cfg.c **** 			{0xB6u, 0x02u},
 363:.\Generated_Source\PSoC4/cyfitter_cfg.c **** 			{0xBAu, 0x02u},
 364:.\Generated_Source\PSoC4/cyfitter_cfg.c **** 			{0xBBu, 0x20u},
 365:.\Generated_Source\PSoC4/cyfitter_cfg.c **** 			{0xBEu, 0x44u},
 366:.\Generated_Source\PSoC4/cyfitter_cfg.c **** 			{0xD6u, 0x02u},
 367:.\Generated_Source\PSoC4/cyfitter_cfg.c **** 			{0xD7u, 0x2Cu},
 368:.\Generated_Source\PSoC4/cyfitter_cfg.c **** 			{0xD8u, 0x04u},
 369:.\Generated_Source\PSoC4/cyfitter_cfg.c **** 			{0xD9u, 0x04u},
 370:.\Generated_Source\PSoC4/cyfitter_cfg.c **** 			{0xDBu, 0x04u},
 371:.\Generated_Source\PSoC4/cyfitter_cfg.c **** 			{0xDFu, 0x01u},
 372:.\Generated_Source\PSoC4/cyfitter_cfg.c **** 			{0x00u, 0x04u},
 373:.\Generated_Source\PSoC4/cyfitter_cfg.c **** 			{0x01u, 0x02u},
 374:.\Generated_Source\PSoC4/cyfitter_cfg.c **** 			{0x04u, 0x40u},
 375:.\Generated_Source\PSoC4/cyfitter_cfg.c **** 			{0x07u, 0x44u},
 376:.\Generated_Source\PSoC4/cyfitter_cfg.c **** 			{0x0Eu, 0x25u},
ARM GAS  C:\Users\kees\AppData\Local\Temp\ccZ43alk.s 			page 9


 377:.\Generated_Source\PSoC4/cyfitter_cfg.c **** 			{0x0Fu, 0x80u},
 378:.\Generated_Source\PSoC4/cyfitter_cfg.c **** 			{0x12u, 0x02u},
 379:.\Generated_Source\PSoC4/cyfitter_cfg.c **** 			{0x13u, 0x20u},
 380:.\Generated_Source\PSoC4/cyfitter_cfg.c **** 			{0x14u, 0x01u},
 381:.\Generated_Source\PSoC4/cyfitter_cfg.c **** 			{0x15u, 0x04u},
 382:.\Generated_Source\PSoC4/cyfitter_cfg.c **** 			{0x16u, 0x22u},
 383:.\Generated_Source\PSoC4/cyfitter_cfg.c **** 			{0x17u, 0x21u},
 384:.\Generated_Source\PSoC4/cyfitter_cfg.c **** 			{0x19u, 0x02u},
 385:.\Generated_Source\PSoC4/cyfitter_cfg.c **** 			{0x1Cu, 0x52u},
 386:.\Generated_Source\PSoC4/cyfitter_cfg.c **** 			{0x1Du, 0x80u},
 387:.\Generated_Source\PSoC4/cyfitter_cfg.c **** 			{0x1Eu, 0x06u},
 388:.\Generated_Source\PSoC4/cyfitter_cfg.c **** 			{0x25u, 0x20u},
 389:.\Generated_Source\PSoC4/cyfitter_cfg.c **** 			{0x27u, 0x08u},
 390:.\Generated_Source\PSoC4/cyfitter_cfg.c **** 			{0x2Du, 0x04u},
 391:.\Generated_Source\PSoC4/cyfitter_cfg.c **** 			{0x2Eu, 0x01u},
 392:.\Generated_Source\PSoC4/cyfitter_cfg.c **** 			{0x37u, 0x69u},
 393:.\Generated_Source\PSoC4/cyfitter_cfg.c **** 			{0x3Cu, 0x04u},
 394:.\Generated_Source\PSoC4/cyfitter_cfg.c **** 			{0x3Eu, 0x12u},
 395:.\Generated_Source\PSoC4/cyfitter_cfg.c **** 			{0x60u, 0x10u},
 396:.\Generated_Source\PSoC4/cyfitter_cfg.c **** 			{0x62u, 0x40u},
 397:.\Generated_Source\PSoC4/cyfitter_cfg.c **** 			{0x63u, 0x08u},
 398:.\Generated_Source\PSoC4/cyfitter_cfg.c **** 			{0x65u, 0x02u},
 399:.\Generated_Source\PSoC4/cyfitter_cfg.c **** 			{0x6Du, 0x04u},
 400:.\Generated_Source\PSoC4/cyfitter_cfg.c **** 			{0x6Eu, 0x11u},
 401:.\Generated_Source\PSoC4/cyfitter_cfg.c **** 			{0x6Fu, 0x15u},
 402:.\Generated_Source\PSoC4/cyfitter_cfg.c **** 			{0x76u, 0x02u},
 403:.\Generated_Source\PSoC4/cyfitter_cfg.c **** 			{0xC0u, 0xDCu},
 404:.\Generated_Source\PSoC4/cyfitter_cfg.c **** 			{0xC2u, 0xF0u},
 405:.\Generated_Source\PSoC4/cyfitter_cfg.c **** 			{0xC4u, 0xF3u},
 406:.\Generated_Source\PSoC4/cyfitter_cfg.c **** 			{0xCAu, 0xC0u},
 407:.\Generated_Source\PSoC4/cyfitter_cfg.c **** 			{0xCCu, 0xF0u},
 408:.\Generated_Source\PSoC4/cyfitter_cfg.c **** 			{0xCEu, 0xE0u},
 409:.\Generated_Source\PSoC4/cyfitter_cfg.c **** 			{0xD8u, 0x8Eu},
 410:.\Generated_Source\PSoC4/cyfitter_cfg.c **** 			{0x84u, 0x04u},
 411:.\Generated_Source\PSoC4/cyfitter_cfg.c **** 			{0x86u, 0x09u},
 412:.\Generated_Source\PSoC4/cyfitter_cfg.c **** 			{0x88u, 0x0Eu},
 413:.\Generated_Source\PSoC4/cyfitter_cfg.c **** 			{0x94u, 0x05u},
 414:.\Generated_Source\PSoC4/cyfitter_cfg.c **** 			{0x96u, 0x0Au},
 415:.\Generated_Source\PSoC4/cyfitter_cfg.c **** 			{0xACu, 0x03u},
 416:.\Generated_Source\PSoC4/cyfitter_cfg.c **** 			{0xAEu, 0x04u},
 417:.\Generated_Source\PSoC4/cyfitter_cfg.c **** 			{0xB2u, 0x0Fu},
 418:.\Generated_Source\PSoC4/cyfitter_cfg.c **** 			{0xB6u, 0x0Fu},
 419:.\Generated_Source\PSoC4/cyfitter_cfg.c **** 			{0xB8u, 0x88u},
 420:.\Generated_Source\PSoC4/cyfitter_cfg.c **** 			{0xC0u, 0x32u},
 421:.\Generated_Source\PSoC4/cyfitter_cfg.c **** 			{0xC1u, 0x01u},
 422:.\Generated_Source\PSoC4/cyfitter_cfg.c **** 			{0xC2u, 0x50u},
 423:.\Generated_Source\PSoC4/cyfitter_cfg.c **** 			{0xC7u, 0xB0u},
 424:.\Generated_Source\PSoC4/cyfitter_cfg.c **** 			{0xC8u, 0x20u},
 425:.\Generated_Source\PSoC4/cyfitter_cfg.c **** 			{0xC9u, 0x01u},
 426:.\Generated_Source\PSoC4/cyfitter_cfg.c **** 			{0xCAu, 0xFFu},
 427:.\Generated_Source\PSoC4/cyfitter_cfg.c **** 			{0xCBu, 0xFFu},
 428:.\Generated_Source\PSoC4/cyfitter_cfg.c **** 			{0xCCu, 0x23u},
 429:.\Generated_Source\PSoC4/cyfitter_cfg.c **** 			{0xCEu, 0x80u},
 430:.\Generated_Source\PSoC4/cyfitter_cfg.c **** 			{0xCFu, 0x08u},
 431:.\Generated_Source\PSoC4/cyfitter_cfg.c **** 			{0xD0u, 0x04u},
 432:.\Generated_Source\PSoC4/cyfitter_cfg.c **** 			{0xD8u, 0x04u},
 433:.\Generated_Source\PSoC4/cyfitter_cfg.c **** 			{0xDAu, 0x04u},
ARM GAS  C:\Users\kees\AppData\Local\Temp\ccZ43alk.s 			page 10


 434:.\Generated_Source\PSoC4/cyfitter_cfg.c **** 			{0xDFu, 0x01u},
 435:.\Generated_Source\PSoC4/cyfitter_cfg.c **** 			{0xE2u, 0xC0u},
 436:.\Generated_Source\PSoC4/cyfitter_cfg.c **** 			{0xE4u, 0x40u},
 437:.\Generated_Source\PSoC4/cyfitter_cfg.c **** 			{0xE5u, 0x01u},
 438:.\Generated_Source\PSoC4/cyfitter_cfg.c **** 			{0xE6u, 0x10u},
 439:.\Generated_Source\PSoC4/cyfitter_cfg.c **** 			{0xE7u, 0x11u},
 440:.\Generated_Source\PSoC4/cyfitter_cfg.c **** 			{0xE8u, 0xC0u},
 441:.\Generated_Source\PSoC4/cyfitter_cfg.c **** 			{0xE9u, 0x01u},
 442:.\Generated_Source\PSoC4/cyfitter_cfg.c **** 			{0xEBu, 0x11u},
 443:.\Generated_Source\PSoC4/cyfitter_cfg.c **** 			{0xECu, 0x40u},
 444:.\Generated_Source\PSoC4/cyfitter_cfg.c **** 			{0xEDu, 0x01u},
 445:.\Generated_Source\PSoC4/cyfitter_cfg.c **** 			{0xEEu, 0x40u},
 446:.\Generated_Source\PSoC4/cyfitter_cfg.c **** 			{0xEFu, 0x01u},
 447:.\Generated_Source\PSoC4/cyfitter_cfg.c **** 			{0x00u, 0x14u},
 448:.\Generated_Source\PSoC4/cyfitter_cfg.c **** 			{0x05u, 0x10u},
 449:.\Generated_Source\PSoC4/cyfitter_cfg.c **** 			{0x07u, 0x61u},
 450:.\Generated_Source\PSoC4/cyfitter_cfg.c **** 			{0x09u, 0x08u},
 451:.\Generated_Source\PSoC4/cyfitter_cfg.c **** 			{0x0Cu, 0x01u},
 452:.\Generated_Source\PSoC4/cyfitter_cfg.c **** 			{0x0Du, 0x20u},
 453:.\Generated_Source\PSoC4/cyfitter_cfg.c **** 			{0x0Eu, 0x29u},
 454:.\Generated_Source\PSoC4/cyfitter_cfg.c **** 			{0x12u, 0x02u},
 455:.\Generated_Source\PSoC4/cyfitter_cfg.c **** 			{0x15u, 0x02u},
 456:.\Generated_Source\PSoC4/cyfitter_cfg.c **** 			{0x17u, 0x14u},
 457:.\Generated_Source\PSoC4/cyfitter_cfg.c **** 			{0x18u, 0x11u},
 458:.\Generated_Source\PSoC4/cyfitter_cfg.c **** 			{0x1Du, 0x10u},
 459:.\Generated_Source\PSoC4/cyfitter_cfg.c **** 			{0x1Fu, 0x41u},
 460:.\Generated_Source\PSoC4/cyfitter_cfg.c **** 			{0x24u, 0x04u},
 461:.\Generated_Source\PSoC4/cyfitter_cfg.c **** 			{0x25u, 0x08u},
 462:.\Generated_Source\PSoC4/cyfitter_cfg.c **** 			{0x26u, 0x12u},
 463:.\Generated_Source\PSoC4/cyfitter_cfg.c **** 			{0x27u, 0x68u},
 464:.\Generated_Source\PSoC4/cyfitter_cfg.c **** 			{0x28u, 0x20u},
 465:.\Generated_Source\PSoC4/cyfitter_cfg.c **** 			{0x2Bu, 0x20u},
 466:.\Generated_Source\PSoC4/cyfitter_cfg.c **** 			{0x2Cu, 0x01u},
 467:.\Generated_Source\PSoC4/cyfitter_cfg.c **** 			{0x2Eu, 0x21u},
 468:.\Generated_Source\PSoC4/cyfitter_cfg.c **** 			{0x2Fu, 0x20u},
 469:.\Generated_Source\PSoC4/cyfitter_cfg.c **** 			{0x36u, 0x04u},
 470:.\Generated_Source\PSoC4/cyfitter_cfg.c **** 			{0x37u, 0x61u},
 471:.\Generated_Source\PSoC4/cyfitter_cfg.c **** 			{0x3Bu, 0xC0u},
 472:.\Generated_Source\PSoC4/cyfitter_cfg.c **** 			{0x3Cu, 0x04u},
 473:.\Generated_Source\PSoC4/cyfitter_cfg.c **** 			{0x3Eu, 0x10u},
 474:.\Generated_Source\PSoC4/cyfitter_cfg.c **** 			{0x40u, 0x04u},
 475:.\Generated_Source\PSoC4/cyfitter_cfg.c **** 			{0x41u, 0x08u},
 476:.\Generated_Source\PSoC4/cyfitter_cfg.c **** 			{0x43u, 0x40u},
 477:.\Generated_Source\PSoC4/cyfitter_cfg.c **** 			{0x45u, 0x80u},
 478:.\Generated_Source\PSoC4/cyfitter_cfg.c **** 			{0x47u, 0x28u},
 479:.\Generated_Source\PSoC4/cyfitter_cfg.c **** 			{0x48u, 0x01u},
 480:.\Generated_Source\PSoC4/cyfitter_cfg.c **** 			{0x4Eu, 0x02u},
 481:.\Generated_Source\PSoC4/cyfitter_cfg.c **** 			{0x4Fu, 0x04u},
 482:.\Generated_Source\PSoC4/cyfitter_cfg.c **** 			{0x51u, 0x01u},
 483:.\Generated_Source\PSoC4/cyfitter_cfg.c **** 			{0x56u, 0x40u},
 484:.\Generated_Source\PSoC4/cyfitter_cfg.c **** 			{0x57u, 0x64u},
 485:.\Generated_Source\PSoC4/cyfitter_cfg.c **** 			{0x5Cu, 0x20u},
 486:.\Generated_Source\PSoC4/cyfitter_cfg.c **** 			{0x5Eu, 0x02u},
 487:.\Generated_Source\PSoC4/cyfitter_cfg.c **** 			{0x5Fu, 0x44u},
 488:.\Generated_Source\PSoC4/cyfitter_cfg.c **** 			{0x67u, 0x02u},
 489:.\Generated_Source\PSoC4/cyfitter_cfg.c **** 			{0x8Cu, 0x01u},
 490:.\Generated_Source\PSoC4/cyfitter_cfg.c **** 			{0x8Du, 0x10u},
ARM GAS  C:\Users\kees\AppData\Local\Temp\ccZ43alk.s 			page 11


 491:.\Generated_Source\PSoC4/cyfitter_cfg.c **** 			{0x92u, 0x11u},
 492:.\Generated_Source\PSoC4/cyfitter_cfg.c **** 			{0x94u, 0x04u},
 493:.\Generated_Source\PSoC4/cyfitter_cfg.c **** 			{0x98u, 0x01u},
 494:.\Generated_Source\PSoC4/cyfitter_cfg.c **** 			{0x9Au, 0x20u},
 495:.\Generated_Source\PSoC4/cyfitter_cfg.c **** 			{0x9Bu, 0x15u},
 496:.\Generated_Source\PSoC4/cyfitter_cfg.c **** 			{0x9Eu, 0x40u},
 497:.\Generated_Source\PSoC4/cyfitter_cfg.c **** 			{0x9Fu, 0x60u},
 498:.\Generated_Source\PSoC4/cyfitter_cfg.c **** 			{0xA0u, 0x01u},
 499:.\Generated_Source\PSoC4/cyfitter_cfg.c **** 			{0xA1u, 0xA0u},
 500:.\Generated_Source\PSoC4/cyfitter_cfg.c **** 			{0xA2u, 0x01u},
 501:.\Generated_Source\PSoC4/cyfitter_cfg.c **** 			{0xA6u, 0x12u},
 502:.\Generated_Source\PSoC4/cyfitter_cfg.c **** 			{0xA7u, 0x44u},
 503:.\Generated_Source\PSoC4/cyfitter_cfg.c **** 			{0xAEu, 0x04u},
 504:.\Generated_Source\PSoC4/cyfitter_cfg.c **** 			{0xC0u, 0xF6u},
 505:.\Generated_Source\PSoC4/cyfitter_cfg.c **** 			{0xC2u, 0xF4u},
 506:.\Generated_Source\PSoC4/cyfitter_cfg.c **** 			{0xC4u, 0x71u},
 507:.\Generated_Source\PSoC4/cyfitter_cfg.c **** 			{0xCAu, 0xF0u},
 508:.\Generated_Source\PSoC4/cyfitter_cfg.c **** 			{0xCCu, 0xF0u},
 509:.\Generated_Source\PSoC4/cyfitter_cfg.c **** 			{0xCEu, 0x60u},
 510:.\Generated_Source\PSoC4/cyfitter_cfg.c **** 			{0xD0u, 0x7Eu},
 511:.\Generated_Source\PSoC4/cyfitter_cfg.c **** 			{0xD2u, 0x18u},
 512:.\Generated_Source\PSoC4/cyfitter_cfg.c **** 			{0xD6u, 0xF0u},
 513:.\Generated_Source\PSoC4/cyfitter_cfg.c **** 			{0xD8u, 0x10u},
 514:.\Generated_Source\PSoC4/cyfitter_cfg.c **** 			{0x62u, 0x02u},
 515:.\Generated_Source\PSoC4/cyfitter_cfg.c **** 			{0xD8u, 0x40u},
 516:.\Generated_Source\PSoC4/cyfitter_cfg.c **** 			{0xAEu, 0x02u},
 517:.\Generated_Source\PSoC4/cyfitter_cfg.c **** 			{0xEAu, 0x40u},
 518:.\Generated_Source\PSoC4/cyfitter_cfg.c **** 			{0x57u, 0x04u},
 519:.\Generated_Source\PSoC4/cyfitter_cfg.c **** 			{0x61u, 0x02u},
 520:.\Generated_Source\PSoC4/cyfitter_cfg.c **** 			{0x8Du, 0x02u},
 521:.\Generated_Source\PSoC4/cyfitter_cfg.c **** 			{0x8Fu, 0x04u},
 522:.\Generated_Source\PSoC4/cyfitter_cfg.c **** 			{0xD4u, 0x02u},
 523:.\Generated_Source\PSoC4/cyfitter_cfg.c **** 			{0xD8u, 0x02u},
 524:.\Generated_Source\PSoC4/cyfitter_cfg.c **** 			{0xE0u, 0x02u},
 525:.\Generated_Source\PSoC4/cyfitter_cfg.c **** 			{0xE4u, 0x08u},
 526:.\Generated_Source\PSoC4/cyfitter_cfg.c **** 			{0x10u, 0x01u},
 527:.\Generated_Source\PSoC4/cyfitter_cfg.c **** 			{0x11u, 0x01u},
 528:.\Generated_Source\PSoC4/cyfitter_cfg.c **** 		};
 529:.\Generated_Source\PSoC4/cyfitter_cfg.c **** 
 530:.\Generated_Source\PSoC4/cyfitter_cfg.c **** 
 531:.\Generated_Source\PSoC4/cyfitter_cfg.c **** 
 532:.\Generated_Source\PSoC4/cyfitter_cfg.c **** 		typedef struct {
 533:.\Generated_Source\PSoC4/cyfitter_cfg.c **** 			void CYFAR *address;
 534:.\Generated_Source\PSoC4/cyfitter_cfg.c **** 			uint16 size;
 535:.\Generated_Source\PSoC4/cyfitter_cfg.c **** 		} CYPACKED cfg_memset_t;
 536:.\Generated_Source\PSoC4/cyfitter_cfg.c **** 
 537:.\Generated_Source\PSoC4/cyfitter_cfg.c **** 
 538:.\Generated_Source\PSoC4/cyfitter_cfg.c **** 		typedef struct {
 539:.\Generated_Source\PSoC4/cyfitter_cfg.c **** 			void CYFAR *dest;
 540:.\Generated_Source\PSoC4/cyfitter_cfg.c **** 			const void CYCODE *src;
 541:.\Generated_Source\PSoC4/cyfitter_cfg.c **** 			uint16 size;
 542:.\Generated_Source\PSoC4/cyfitter_cfg.c **** 		} CYPACKED cfg_memcpy_t;
 543:.\Generated_Source\PSoC4/cyfitter_cfg.c **** 
 544:.\Generated_Source\PSoC4/cyfitter_cfg.c **** 		static const cfg_memset_t CYCODE cfg_memset_list [] = {
 545:.\Generated_Source\PSoC4/cyfitter_cfg.c **** 			/* address, size */
 546:.\Generated_Source\PSoC4/cyfitter_cfg.c **** 			{(void CYFAR *)(CYDEV_UDB_P0_U0_BASE), 512u},
 547:.\Generated_Source\PSoC4/cyfitter_cfg.c **** 			{(void CYFAR *)(CYDEV_UDB_P1_U1_BASE), 384u},
ARM GAS  C:\Users\kees\AppData\Local\Temp\ccZ43alk.s 			page 12


 548:.\Generated_Source\PSoC4/cyfitter_cfg.c **** 			{(void CYFAR *)(CYDEV_UDB_DSI0_BASE), 1024u},
 549:.\Generated_Source\PSoC4/cyfitter_cfg.c **** 		};
 550:.\Generated_Source\PSoC4/cyfitter_cfg.c **** 
 551:.\Generated_Source\PSoC4/cyfitter_cfg.c **** 		/* UDB_0_0_1_CONFIG Address: CYDEV_UDB_P1_U0_BASE Size (bytes): 128 */
 552:.\Generated_Source\PSoC4/cyfitter_cfg.c **** 		static const uint8 CYCODE BS_UDB_0_0_1_CONFIG_VAL[] = {
 553:.\Generated_Source\PSoC4/cyfitter_cfg.c **** 			0x07u, 0x00u, 0x38u, 0x00u, 0x0Au, 0xD4u, 0x10u, 0x28u, 0x01u, 0x20u, 0x00u, 0x90u, 0x04u, 0x00u
 554:.\Generated_Source\PSoC4/cyfitter_cfg.c **** 			0x04u, 0x90u, 0x00u, 0x20u, 0x56u, 0x90u, 0x09u, 0x00u, 0x04u, 0x0Eu, 0x00u, 0x91u, 0x04u, 0x39u
 555:.\Generated_Source\PSoC4/cyfitter_cfg.c **** 			0x60u, 0xB0u, 0x00u, 0x00u, 0x00u, 0x24u, 0x04u, 0x00u, 0x04u, 0x90u, 0x00u, 0x20u, 0x00u, 0xB0u
 556:.\Generated_Source\PSoC4/cyfitter_cfg.c **** 			0x02u, 0x38u, 0x00u, 0xE8u, 0x7Fu, 0x07u, 0x08u, 0x00u, 0x20u, 0x00u, 0x00u, 0x28u, 0x00u, 0x00u
 557:.\Generated_Source\PSoC4/cyfitter_cfg.c **** 			0x23u, 0x05u, 0x10u, 0x00u, 0x00u, 0x0Eu, 0xCDu, 0x0Fu, 0x1Du, 0xFFu, 0xFFu, 0xFFu, 0x02u, 0x00u
 558:.\Generated_Source\PSoC4/cyfitter_cfg.c **** 			0x04u, 0x00u, 0x00u, 0x00u, 0x09u, 0x00u, 0x00u, 0x00u, 0x04u, 0x04u, 0x04u, 0x04u, 0x00u, 0x00u
 559:.\Generated_Source\PSoC4/cyfitter_cfg.c **** 			0x00u, 0x00u, 0xC0u, 0x00u, 0x40u, 0x01u, 0x10u, 0x11u, 0xC0u, 0x01u, 0x00u, 0x11u, 0x40u, 0x01u
 560:.\Generated_Source\PSoC4/cyfitter_cfg.c **** 			0x00u, 0x00u, 0x00u, 0x00u, 0x00u, 0x00u, 0x00u, 0x00u, 0x00u, 0x00u, 0x00u, 0x00u, 0x00u, 0x00u
 561:.\Generated_Source\PSoC4/cyfitter_cfg.c **** 
 562:.\Generated_Source\PSoC4/cyfitter_cfg.c **** 		static const cfg_memcpy_t CYCODE cfg_memcpy_list [] = {
 563:.\Generated_Source\PSoC4/cyfitter_cfg.c **** 			/* dest, src, size */
 564:.\Generated_Source\PSoC4/cyfitter_cfg.c **** 			{(void CYFAR *)(CYDEV_UDB_P1_U0_BASE), BS_UDB_0_0_1_CONFIG_VAL, 128u},
 565:.\Generated_Source\PSoC4/cyfitter_cfg.c **** 		};
 566:.\Generated_Source\PSoC4/cyfitter_cfg.c **** 
 567:.\Generated_Source\PSoC4/cyfitter_cfg.c **** 		uint8 CYDATA i;
 568:.\Generated_Source\PSoC4/cyfitter_cfg.c **** 
 569:.\Generated_Source\PSoC4/cyfitter_cfg.c **** 		/* Zero out critical memory blocks before beginning configuration */
 570:.\Generated_Source\PSoC4/cyfitter_cfg.c **** 		for (i = 0u; i < (sizeof(cfg_memset_list)/sizeof(cfg_memset_list[0])); i++)
  77              		.loc 1 570 0
  78 002e AC42     		cmp	r4, r5
  79 0030 EBD1     		bne	.L2
  80              	.LBB27:
  81              	.LBB28:
  82              	.LBB29:
  83              		.loc 1 103 0
  84 0032 4F49     		ldr	r1, .L9
  85 0034 8022     		mov	r2, #128
  86 0036 1431     		add	r1, r1, #20
  87 0038 4E48     		ldr	r0, .L9+4
  88 003a FFF7FEFF 		bl	memcpy
  89 003e 4E4A     		ldr	r2, .L9+8
  90              		.loc 1 297 0
  91 0040 0021     		mov	r1, #0
  92              	.LVL0:
  93              		.loc 1 103 0
  94 0042 131C     		mov	r3, r2
  95 0044 1433     		add	r3, r3, #20
  96              	.LVL1:
  97              	.L5:
  98              	.LBE29:
  99              	.LBE28:
 100              	.LBE27:
 101              	.LBB30:
 102              	.LBB31:
 103              	.LBB32:
 104              		.loc 1 139 0
 105 0046 1868     		ldr	r0, [r3]
 106              	.LVL2:
 107              		.loc 1 141 0
 108 0048 4B4A     		ldr	r2, .L9+8
 109 004a FF27     		mov	r7, #255
 110              		.loc 1 140 0
ARM GAS  C:\Users\kees\AppData\Local\Temp\ccZ43alk.s 			page 13


 111 004c C4B2     		uxtb	r4, r0
 112              	.LVL3:
 113              		.loc 1 141 0
 114 004e 4E00     		lsl	r6, r1, #1
 115 0050 B843     		bic	r0, r0, r7
 116 0052 3832     		add	r2, r2, #56
 117 0054 071C     		mov	r7, r0
 118 0056 9219     		add	r2, r2, r6
 119 0058 201C     		mov	r0, r4
 120              	.LVL4:
 121 005a 06E0     		b	.L3
 122              	.LVL5:
 123              	.L4:
 124              		.loc 1 144 0
 125 005c 1678     		ldrb	r6, [r2]
 126 005e 5578     		ldrb	r5, [r2, #1]
 127 0060 F619     		add	r6, r6, r7
 128              		.loc 1 146 0
 129 0062 0138     		sub	r0, r0, #1
 130              	.LVL6:
 131              		.loc 1 144 0
 132 0064 3570     		strb	r5, [r6]
 133              		.loc 1 146 0
 134 0066 C0B2     		uxtb	r0, r0
 135              	.LVL7:
 136 0068 0232     		add	r2, r2, #2
 137              	.LVL8:
 138              	.L3:
 139              		.loc 1 142 0
 140 006a 0028     		cmp	r0, #0
 141 006c F6D1     		bne	.L4
 142              	.LBE32:
 143              		.loc 1 137 0
 144 006e 434A     		ldr	r2, .L9+12
 145              	.LBB33:
 146              		.loc 1 142 0
 147 0070 0433     		add	r3, r3, #4
 148 0072 0919     		add	r1, r1, r4
 149              	.LBE33:
 150              		.loc 1 137 0
 151 0074 9342     		cmp	r3, r2
 152 0076 E6D1     		bne	.L5
 153              	.LVL9:
 154              	.LBE31:
 155              	.LBE30:
 571:.\Generated_Source\PSoC4/cyfitter_cfg.c **** 		{
 572:.\Generated_Source\PSoC4/cyfitter_cfg.c **** 			const cfg_memset_t CYCODE * CYDATA ms = &cfg_memset_list[i];
 573:.\Generated_Source\PSoC4/cyfitter_cfg.c **** 			CYMEMZERO(ms->address, (uint32)(ms->size));
 574:.\Generated_Source\PSoC4/cyfitter_cfg.c **** 		}
 575:.\Generated_Source\PSoC4/cyfitter_cfg.c **** 
 576:.\Generated_Source\PSoC4/cyfitter_cfg.c **** 		/* Copy device configuration data into registers */
 577:.\Generated_Source\PSoC4/cyfitter_cfg.c **** 		for (i = 0u; i < (sizeof(cfg_memcpy_list)/sizeof(cfg_memcpy_list[0])); i++)
 578:.\Generated_Source\PSoC4/cyfitter_cfg.c **** 		{
 579:.\Generated_Source\PSoC4/cyfitter_cfg.c **** 			const cfg_memcpy_t CYCODE * CYDATA mc = &cfg_memcpy_list[i];
 580:.\Generated_Source\PSoC4/cyfitter_cfg.c **** 			void * CYDATA destPtr = mc->dest;
 581:.\Generated_Source\PSoC4/cyfitter_cfg.c **** 			const void CYCODE * CYDATA srcPtr = mc->src;
 582:.\Generated_Source\PSoC4/cyfitter_cfg.c **** 			uint16 CYDATA numBytes = mc->size;
ARM GAS  C:\Users\kees\AppData\Local\Temp\ccZ43alk.s 			page 14


 583:.\Generated_Source\PSoC4/cyfitter_cfg.c **** 			CYCONFIGCPYCODE(destPtr, srcPtr, numBytes);
 584:.\Generated_Source\PSoC4/cyfitter_cfg.c **** 		}
 585:.\Generated_Source\PSoC4/cyfitter_cfg.c **** 
 586:.\Generated_Source\PSoC4/cyfitter_cfg.c **** 		cfg_write_bytes32(cy_cfg_addr_table, cy_cfg_data_table);
 587:.\Generated_Source\PSoC4/cyfitter_cfg.c **** 
 588:.\Generated_Source\PSoC4/cyfitter_cfg.c **** 		/* Perform normal device configuration. Order is not critical for these items. */
 589:.\Generated_Source\PSoC4/cyfitter_cfg.c **** 		CY_SET_XTND_REG16((void CYFAR *)(CYREG_UDB_BCTL0_DRV), 0x0100u);
 156              		.loc 1 589 0
 157 0078 414A     		ldr	r2, .L9+16
 158 007a 8023     		mov	r3, #128
 159 007c 5B00     		lsl	r3, r3, #1
 160 007e 1380     		strh	r3, [r2]
 590:.\Generated_Source\PSoC4/cyfitter_cfg.c **** 		CY_SET_XTND_REG8((void CYFAR *)(CYREG_UDB_BCTL0_DRV + 0x2u), 0x01u);
 161              		.loc 1 590 0
 162 0080 404B     		ldr	r3, .L9+20
 163 0082 0122     		mov	r2, #1
 164 0084 1A70     		strb	r2, [r3]
 591:.\Generated_Source\PSoC4/cyfitter_cfg.c **** 
 592:.\Generated_Source\PSoC4/cyfitter_cfg.c **** 		/* HSIOM Starting address: CYDEV_HSIOM_BASE */
 593:.\Generated_Source\PSoC4/cyfitter_cfg.c **** 		CY_SET_XTND_REG32((void CYFAR *)(CYDEV_HSIOM_BASE), 0x03000000u);
 165              		.loc 1 593 0
 166 0086 404A     		ldr	r2, .L9+24
 167 0088 C023     		mov	r3, #192
 168 008a 9B04     		lsl	r3, r3, #18
 169 008c 1360     		str	r3, [r2]
 594:.\Generated_Source\PSoC4/cyfitter_cfg.c **** 		CY_SET_XTND_REG32((void CYFAR *)(CYREG_HSIOM_PORT_SEL3), 0x0300EE03u);
 170              		.loc 1 594 0
 171 008e 3F4A     		ldr	r2, .L9+28
 172 0090 3F4B     		ldr	r3, .L9+32
 595:.\Generated_Source\PSoC4/cyfitter_cfg.c **** 
 596:.\Generated_Source\PSoC4/cyfitter_cfg.c **** 		/* IOPINS0_0 Starting address: CYDEV_PRT0_DR */
 597:.\Generated_Source\PSoC4/cyfitter_cfg.c **** 		CY_SET_XTND_REG32((void CYFAR *)(CYREG_PRT0_DR), 0x000000C1u);
 598:.\Generated_Source\PSoC4/cyfitter_cfg.c **** 		CY_SET_XTND_REG32((void CYFAR *)(CYREG_PRT0_PC), 0x00F80007u);
 599:.\Generated_Source\PSoC4/cyfitter_cfg.c **** 
 600:.\Generated_Source\PSoC4/cyfitter_cfg.c **** 		/* IOPINS0_2 Starting address: CYDEV_PRT2_DR */
 601:.\Generated_Source\PSoC4/cyfitter_cfg.c **** 		CY_SET_XTND_REG32((void CYFAR *)(CYREG_PRT2_PC), 0x00180000u);
 602:.\Generated_Source\PSoC4/cyfitter_cfg.c **** 
 603:.\Generated_Source\PSoC4/cyfitter_cfg.c **** 		/* IOPINS0_3 Starting address: CYDEV_PRT3_DR */
 604:.\Generated_Source\PSoC4/cyfitter_cfg.c **** 		CY_SET_XTND_REG32((void CYFAR *)(CYREG_PRT3_DR), 0x000000F1u);
 605:.\Generated_Source\PSoC4/cyfitter_cfg.c **** 		CY_SET_XTND_REG32((void CYFAR *)(CYREG_PRT3_PC), 0x00FBED86u);
 606:.\Generated_Source\PSoC4/cyfitter_cfg.c **** 
 607:.\Generated_Source\PSoC4/cyfitter_cfg.c **** 		/* UDB_PA_0 Starting address: CYDEV_UDB_PA0_BASE */
 608:.\Generated_Source\PSoC4/cyfitter_cfg.c **** 		CY_SET_XTND_REG32((void CYFAR *)(CYDEV_UDB_PA0_BASE), 0x00990000u);
 609:.\Generated_Source\PSoC4/cyfitter_cfg.c **** 		CY_SET_XTND_REG32((void CYFAR *)(CYREG_UDB_PA0_CFG4), 0x80020000u);
 173              		.loc 1 609 0
 174 0092 4049     		ldr	r1, .L9+36
 175              	.LVL10:
 176              		.loc 1 594 0
 177 0094 1A60     		str	r2, [r3]
 178              		.loc 1 597 0
 179 0096 404B     		ldr	r3, .L9+40
 180 0098 C122     		mov	r2, #193
 181 009a 1A60     		str	r2, [r3]
 182              		.loc 1 598 0
 183 009c 3F4A     		ldr	r2, .L9+44
 184 009e 0833     		add	r3, r3, #8
 185 00a0 1A60     		str	r2, [r3]
ARM GAS  C:\Users\kees\AppData\Local\Temp\ccZ43alk.s 			page 15


 186              		.loc 1 601 0
 187 00a2 3F4A     		ldr	r2, .L9+48
 188 00a4 C023     		mov	r3, #192
 189 00a6 5B03     		lsl	r3, r3, #13
 190 00a8 1360     		str	r3, [r2]
 191              		.loc 1 604 0
 192 00aa 3E4B     		ldr	r3, .L9+52
 193 00ac F122     		mov	r2, #241
 194 00ae 1A60     		str	r2, [r3]
 195              		.loc 1 605 0
 196 00b0 3D4A     		ldr	r2, .L9+56
 197 00b2 0833     		add	r3, r3, #8
 198 00b4 1A60     		str	r2, [r3]
 199              		.loc 1 608 0
 200 00b6 3D4A     		ldr	r2, .L9+60
 201 00b8 9923     		mov	r3, #153
 202 00ba 1B04     		lsl	r3, r3, #16
 203 00bc 1360     		str	r3, [r2]
 204              		.loc 1 609 0
 205 00be 0432     		add	r2, r2, #4
 206 00c0 1160     		str	r1, [r2]
 610:.\Generated_Source\PSoC4/cyfitter_cfg.c **** 		CY_SET_XTND_REG32((void CYFAR *)(CYREG_UDB_PA0_CFG8), 0x20000000u);
 207              		.loc 1 610 0
 208 00c2 3B49     		ldr	r1, .L9+64
 209 00c4 8022     		mov	r2, #128
 210 00c6 9205     		lsl	r2, r2, #22
 211 00c8 0A60     		str	r2, [r1]
 611:.\Generated_Source\PSoC4/cyfitter_cfg.c **** 
 612:.\Generated_Source\PSoC4/cyfitter_cfg.c **** 		/* UDB_PA_2 Starting address: CYDEV_UDB_PA2_BASE */
 613:.\Generated_Source\PSoC4/cyfitter_cfg.c **** 		CY_SET_XTND_REG32((void CYFAR *)(CYDEV_UDB_PA2_BASE), 0x00990000u);
 212              		.loc 1 613 0
 213 00ca 3A4A     		ldr	r2, .L9+68
 214 00cc 1360     		str	r3, [r2]
 614:.\Generated_Source\PSoC4/cyfitter_cfg.c **** 
 615:.\Generated_Source\PSoC4/cyfitter_cfg.c **** 		/* UDB_PA_3 Starting address: CYDEV_UDB_PA3_BASE */
 616:.\Generated_Source\PSoC4/cyfitter_cfg.c **** 		CY_SET_XTND_REG32((void CYFAR *)(CYDEV_UDB_PA3_BASE), 0x00990000u);
 215              		.loc 1 616 0
 216 00ce 1032     		add	r2, r2, #16
 217 00d0 1360     		str	r3, [r2]
 617:.\Generated_Source\PSoC4/cyfitter_cfg.c **** 		CY_SET_XTND_REG32((void CYFAR *)(CYREG_UDB_PA3_CFG4), 0x8A000000u);
 218              		.loc 1 617 0
 219 00d2 8A23     		mov	r3, #138
 220 00d4 1B06     		lsl	r3, r3, #24
 221 00d6 0432     		add	r2, r2, #4
 222 00d8 1360     		str	r3, [r2]
 618:.\Generated_Source\PSoC4/cyfitter_cfg.c **** 		CY_SET_XTND_REG32((void CYFAR *)(CYREG_UDB_PA3_CFG8), 0x20010000u);
 223              		.loc 1 618 0
 224 00da 374A     		ldr	r2, .L9+72
 225 00dc 374B     		ldr	r3, .L9+76
 226 00de 1A60     		str	r2, [r3]
 619:.\Generated_Source\PSoC4/cyfitter_cfg.c **** 
 620:.\Generated_Source\PSoC4/cyfitter_cfg.c **** 		/* Enable digital routing */
 621:.\Generated_Source\PSoC4/cyfitter_cfg.c **** 		CY_SET_XTND_REG8((void *)CYREG_UDB_UDBIF_BANK_CTL, CY_GET_XTND_REG8((void *)CYREG_UDB_UDBIF_BANK_
 227              		.loc 1 621 0
 228 00e0 374B     		ldr	r3, .L9+80
 229 00e2 0222     		mov	r2, #2
 230 00e4 1978     		ldrb	r1, [r3]
ARM GAS  C:\Users\kees\AppData\Local\Temp\ccZ43alk.s 			page 16


 231 00e6 0A43     		orr	r2, r2, r1
 232 00e8 1A70     		strb	r2, [r3]
 622:.\Generated_Source\PSoC4/cyfitter_cfg.c **** 
 623:.\Generated_Source\PSoC4/cyfitter_cfg.c **** 		/* Enable UDB array */
 624:.\Generated_Source\PSoC4/cyfitter_cfg.c **** 		CY_SET_XTND_REG8((void *)CYREG_UDB_UDBIF_BANK_CTL, CY_GET_XTND_REG8((void *)CYREG_UDB_UDBIF_BANK_
 233              		.loc 1 624 0
 234 00ea 1978     		ldrb	r1, [r3]
 235 00ec 0622     		mov	r2, #6
 236 00ee 0A43     		orr	r2, r2, r1
 237 00f0 1A70     		strb	r2, [r3]
 238              	.LBE23:
 239              	.LBB34:
 240              	.LBB35:
 241              		.loc 1 226 0
 242 00f2 344A     		ldr	r2, .L9+84
 243 00f4 8023     		mov	r3, #128
 244 00f6 1168     		ldr	r1, [r2]
 245 00f8 DB02     		lsl	r3, r3, #11
 246 00fa 0B43     		orr	r3, r3, r1
 247 00fc 1360     		str	r3, [r2]
 248              	.LBB37:
 249              	.LBB38:
 250              		.loc 1 189 0
 251 00fe 324B     		ldr	r3, .L9+88
 252 0100 1978     		ldrb	r1, [r3]
 253              		.loc 1 190 0
 254 0102 0133     		add	r3, r3, #1
 255 0104 1A78     		ldrb	r2, [r3]
 256              		.loc 1 192 0
 257 0106 0D3B     		sub	r3, r3, #13
 258 0108 587A     		ldrb	r0, [r3, #9]
 259              		.loc 1 191 0
 260 010a 2F28     		cmp	r0, #47
 261 010c 10D9     		bls	.L6
 262              		.loc 1 192 0
 263 010e 9879     		ldrb	r0, [r3, #6]
 264              		.loc 1 195 0
 265 0110 997A     		ldrb	r1, [r3, #10]
 266              	.LVL11:
 267              		.loc 1 196 0
 268 0112 DA7A     		ldrb	r2, [r3, #11]
 269              	.LVL12:
 270              		.loc 1 191 0
 271 0114 2F28     		cmp	r0, #47
 272 0116 0BD9     		bls	.L6
 273              		.loc 1 192 0
 274 0118 D878     		ldrb	r0, [r3, #3]
 275              		.loc 1 195 0
 276 011a D979     		ldrb	r1, [r3, #7]
 277              	.LVL13:
 278              		.loc 1 196 0
 279 011c 1A7A     		ldrb	r2, [r3, #8]
 280              	.LVL14:
 281              		.loc 1 191 0
 282 011e 2F28     		cmp	r0, #47
 283 0120 06D9     		bls	.L6
 284              		.loc 1 192 0
ARM GAS  C:\Users\kees\AppData\Local\Temp\ccZ43alk.s 			page 17


 285 0122 1878     		ldrb	r0, [r3]
 286              		.loc 1 195 0
 287 0124 1979     		ldrb	r1, [r3, #4]
 288              	.LVL15:
 289              		.loc 1 196 0
 290 0126 5A79     		ldrb	r2, [r3, #5]
 291              	.LVL16:
 292              		.loc 1 191 0
 293 0128 2F28     		cmp	r0, #47
 294 012a 01D9     		bls	.L6
 295              		.loc 1 195 0
 296 012c 5978     		ldrb	r1, [r3, #1]
 297              	.LVL17:
 298              		.loc 1 196 0
 299 012e 9A78     		ldrb	r2, [r3, #2]
 300              	.LVL18:
 301              	.L6:
 302              		.loc 1 199 0
 303 0130 264B     		ldr	r3, .L9+92
 304              	.LBE38:
 305              	.LBE37:
 306              		.loc 1 233 0
 307 0132 0520     		mov	r0, #5
 308              	.LBB36:
 309              	.LBB39:
 310              		.loc 1 199 0
 311 0134 1960     		str	r1, [r3]
 312              		.loc 1 200 0
 313 0136 0433     		add	r3, r3, #4
 314 0138 1A60     		str	r2, [r3]
 315              	.LBE39:
 316              	.LBE36:
 317              		.loc 1 232 0
 318 013a 254B     		ldr	r3, .L9+96
 319              	.LBE35:
 320              	.LBE34:
 625:.\Generated_Source\PSoC4/cyfitter_cfg.c **** 	}
 626:.\Generated_Source\PSoC4/cyfitter_cfg.c **** 
 627:.\Generated_Source\PSoC4/cyfitter_cfg.c **** 	/* Setup clocks based on selections from Clock DWR */
 628:.\Generated_Source\PSoC4/cyfitter_cfg.c **** 	ClockSetup();
 629:.\Generated_Source\PSoC4/cyfitter_cfg.c **** 
 630:.\Generated_Source\PSoC4/cyfitter_cfg.c **** 	/* Perform basic analog initialization to defaults */
 631:.\Generated_Source\PSoC4/cyfitter_cfg.c **** 	AnalogSetDefault();
 632:.\Generated_Source\PSoC4/cyfitter_cfg.c **** 
 633:.\Generated_Source\PSoC4/cyfitter_cfg.c **** }
 321              		.loc 1 633 0
 322              		@ sp needed for prologue
 323              	.LBB41:
 324              	.LBB40:
 325              		.loc 1 232 0
 326 013c 1A78     		ldrb	r2, [r3]
 327              	.LVL19:
 328 013e 254B     		ldr	r3, .L9+100
 329 0140 1A60     		str	r2, [r3]
 330              		.loc 1 233 0
 331 0142 FFF7FEFF 		bl	CyDelayUs
 332              	.LVL20:
ARM GAS  C:\Users\kees\AppData\Local\Temp\ccZ43alk.s 			page 18


 333              		.loc 1 234 0
 334 0146 244B     		ldr	r3, .L9+104
 335 0148 3522     		mov	r2, #53
 336 014a 1A60     		str	r2, [r3]
 337              		.loc 1 237 0
 338 014c 234B     		ldr	r3, .L9+108
 339 014e 1022     		mov	r2, #16
 340 0150 1A60     		str	r2, [r3]
 341              		.loc 1 240 0
 342 0152 234A     		ldr	r2, .L9+112
 343 0154 8023     		mov	r3, #128
 344 0156 1B06     		lsl	r3, r3, #24
 345 0158 1360     		str	r3, [r2]
 346              		.loc 1 243 0
 347 015a 043A     		sub	r2, r2, #4
 348 015c 1360     		str	r3, [r2]
 349              		.loc 1 246 0
 350 015e 8023     		mov	r3, #128
 351 0160 DB02     		lsl	r3, r3, #11
 352 0162 043A     		sub	r2, r2, #4
 353 0164 1360     		str	r3, [r2]
 354              		.loc 1 249 0
 355 0166 1F4A     		ldr	r2, .L9+116
 356 0168 1F4B     		ldr	r3, .L9+120
 357 016a 1A60     		str	r2, [r3]
 358              	.LVL21:
 359              	.LVL22:
 360              	.LBE40:
 361              	.LBE41:
 362              		.loc 1 633 0
 363 016c F8BD     		pop	{r3, r4, r5, r6, r7, pc}
 364              	.L10:
 365 016e C046     		.align	2
 366              	.L9:
 367 0170 00000000 		.word	.LANCHOR0
 368 0174 00320F40 		.word	1074737664
 369 0178 80000000 		.word	.LANCHOR1
 370 017c B8000000 		.word	.LANCHOR1+56
 371 0180 00600F40 		.word	1074749440
 372 0184 02600F40 		.word	1074749442
 373 0188 00000140 		.word	1073807360
 374 018c 03EE0003 		.word	50392579
 375 0190 0C000140 		.word	1073807372
 376 0194 00000280 		.word	-2147352576
 377 0198 00000440 		.word	1074003968
 378 019c 0700F800 		.word	16252935
 379 01a0 08020440 		.word	1074004488
 380 01a4 00030440 		.word	1074004736
 381 01a8 86EDFB00 		.word	16510342
 382 01ac 00500F40 		.word	1074745344
 383 01b0 08500F40 		.word	1074745352
 384 01b4 20500F40 		.word	1074745376
 385 01b8 00000120 		.word	536936448
 386 01bc 38500F40 		.word	1074745400
 387 01c0 00700F40 		.word	1074753536
 388 01c4 00010B40 		.word	1074462976
 389 01c8 CCF1FF0F 		.word	268431820
ARM GAS  C:\Users\kees\AppData\Local\Temp\ccZ43alk.s 			page 19


 390 01cc 1CFF0B40 		.word	1074528028
 391 01d0 FDF1FF0F 		.word	268431869
 392 01d4 28FF0B40 		.word	1074528040
 393 01d8 2CFF0B40 		.word	1074528044
 394 01dc 30020240 		.word	1073873456
 395 01e0 08010B40 		.word	1074462984
 396 01e4 03000080 		.word	-2147483645
 397 01e8 00000240 		.word	1073872896
 398              		.cfi_endproc
 399              	.LFE7:
 400              		.size	cyfitter_cfg, .-cyfitter_cfg
 401              		.section	.rodata
 402              		.align	2
 403              		.set	.LANCHOR0,. + 0
 404              		.set	.LANCHOR1,. + 128
 405              		.type	cfg_memset_list.1912, %object
 406              		.size	cfg_memset_list.1912, 18
 407              	cfg_memset_list.1912:
 408 0000 00300F40 		.word	1074737152
 409 0004 0002     		.short	512
 410 0006 80320F40 		.4byte	1074737792
 411 000a 8001     		.short	384
 412 000c 00400F40 		.word	1074741248
 413 0010 0004     		.short	1024
 414 0012 0000     		.space	2
 415              		.type	BS_UDB_0_0_1_CONFIG_VAL.1913, %object
 416              		.size	BS_UDB_0_0_1_CONFIG_VAL.1913, 128
 417              	BS_UDB_0_0_1_CONFIG_VAL.1913:
 418 0014 07       		.byte	7
 419 0015 00       		.byte	0
 420 0016 38       		.byte	56
 421 0017 00       		.byte	0
 422 0018 0A       		.byte	10
 423 0019 D4       		.byte	-44
 424 001a 10       		.byte	16
 425 001b 28       		.byte	40
 426 001c 01       		.byte	1
 427 001d 20       		.byte	32
 428 001e 00       		.byte	0
 429 001f 90       		.byte	-112
 430 0020 04       		.byte	4
 431 0021 00       		.byte	0
 432 0022 00       		.byte	0
 433 0023 00       		.byte	0
 434 0024 04       		.byte	4
 435 0025 90       		.byte	-112
 436 0026 00       		.byte	0
 437 0027 20       		.byte	32
 438 0028 56       		.byte	86
 439 0029 90       		.byte	-112
 440 002a 09       		.byte	9
 441 002b 00       		.byte	0
 442 002c 04       		.byte	4
 443 002d 0E       		.byte	14
 444 002e 00       		.byte	0
 445 002f 91       		.byte	-111
 446 0030 04       		.byte	4
ARM GAS  C:\Users\kees\AppData\Local\Temp\ccZ43alk.s 			page 20


 447 0031 39       		.byte	57
 448 0032 00       		.byte	0
 449 0033 42       		.byte	66
 450 0034 60       		.byte	96
 451 0035 B0       		.byte	-80
 452 0036 00       		.byte	0
 453 0037 00       		.byte	0
 454 0038 00       		.byte	0
 455 0039 24       		.byte	36
 456 003a 04       		.byte	4
 457 003b 00       		.byte	0
 458 003c 04       		.byte	4
 459 003d 90       		.byte	-112
 460 003e 00       		.byte	0
 461 003f 20       		.byte	32
 462 0040 00       		.byte	0
 463 0041 B0       		.byte	-80
 464 0042 00       		.byte	0
 465 0043 00       		.byte	0
 466 0044 02       		.byte	2
 467 0045 38       		.byte	56
 468 0046 00       		.byte	0
 469 0047 E8       		.byte	-24
 470 0048 7F       		.byte	127
 471 0049 07       		.byte	7
 472 004a 08       		.byte	8
 473 004b 00       		.byte	0
 474 004c 20       		.byte	32
 475 004d 00       		.byte	0
 476 004e 00       		.byte	0
 477 004f 28       		.byte	40
 478 0050 00       		.byte	0
 479 0051 00       		.byte	0
 480 0052 41       		.byte	65
 481 0053 00       		.byte	0
 482 0054 23       		.byte	35
 483 0055 05       		.byte	5
 484 0056 10       		.byte	16
 485 0057 00       		.byte	0
 486 0058 00       		.byte	0
 487 0059 0E       		.byte	14
 488 005a CD       		.byte	-51
 489 005b 0F       		.byte	15
 490 005c 1D       		.byte	29
 491 005d FF       		.byte	-1
 492 005e FF       		.byte	-1
 493 005f FF       		.byte	-1
 494 0060 02       		.byte	2
 495 0061 00       		.byte	0
 496 0062 70       		.byte	112
 497 0063 08       		.byte	8
 498 0064 04       		.byte	4
 499 0065 00       		.byte	0
 500 0066 00       		.byte	0
 501 0067 00       		.byte	0
 502 0068 09       		.byte	9
 503 0069 00       		.byte	0
ARM GAS  C:\Users\kees\AppData\Local\Temp\ccZ43alk.s 			page 21


 504 006a 00       		.byte	0
 505 006b 00       		.byte	0
 506 006c 04       		.byte	4
 507 006d 04       		.byte	4
 508 006e 04       		.byte	4
 509 006f 04       		.byte	4
 510 0070 00       		.byte	0
 511 0071 00       		.byte	0
 512 0072 00       		.byte	0
 513 0073 01       		.byte	1
 514 0074 00       		.byte	0
 515 0075 00       		.byte	0
 516 0076 C0       		.byte	-64
 517 0077 00       		.byte	0
 518 0078 40       		.byte	64
 519 0079 01       		.byte	1
 520 007a 10       		.byte	16
 521 007b 11       		.byte	17
 522 007c C0       		.byte	-64
 523 007d 01       		.byte	1
 524 007e 00       		.byte	0
 525 007f 11       		.byte	17
 526 0080 40       		.byte	64
 527 0081 01       		.byte	1
 528 0082 40       		.byte	64
 529 0083 01       		.byte	1
 530 0084 00       		.byte	0
 531 0085 00       		.byte	0
 532 0086 00       		.byte	0
 533 0087 00       		.byte	0
 534 0088 00       		.byte	0
 535 0089 00       		.byte	0
 536 008a 00       		.byte	0
 537 008b 00       		.byte	0
 538 008c 00       		.byte	0
 539 008d 00       		.byte	0
 540 008e 00       		.byte	0
 541 008f 00       		.byte	0
 542 0090 00       		.byte	0
 543 0091 00       		.byte	0
 544 0092 00       		.byte	0
 545 0093 00       		.byte	0
 546              		.type	cy_cfg_addr_table.1901, %object
 547              		.size	cy_cfg_addr_table.1901, 36
 548              	cy_cfg_addr_table.1901:
 549 0094 01000F40 		.word	1074724865
 550 0098 37300F40 		.word	1074737207
 551 009c 26310F40 		.word	1074737446
 552 00a0 25320F40 		.word	1074737701
 553 00a4 43330F40 		.word	1074737987
 554 00a8 02400F40 		.word	1074741250
 555 00ac 02410F40 		.word	1074741506
 556 00b0 08430F40 		.word	1074742024
 557 00b4 02600F40 		.word	1074749442
 558              		.type	cy_cfg_data_table.1902, %object
 559              		.size	cy_cfg_data_table.1902, 424
 560              	cy_cfg_data_table.1902:
ARM GAS  C:\Users\kees\AppData\Local\Temp\ccZ43alk.s 			page 22


 561 00b8 81       		.byte	-127
 562 00b9 11       		.byte	17
 563 00ba 00       		.byte	0
 564 00bb 02       		.byte	2
 565 00bc 02       		.byte	2
 566 00bd 0D       		.byte	13
 567 00be 04       		.byte	4
 568 00bf 09       		.byte	9
 569 00c0 06       		.byte	6
 570 00c1 06       		.byte	6
 571 00c2 28       		.byte	40
 572 00c3 05       		.byte	5
 573 00c4 2A       		.byte	42
 574 00c5 0A       		.byte	10
 575 00c6 2C       		.byte	44
 576 00c7 03       		.byte	3
 577 00c8 2E       		.byte	46
 578 00c9 0C       		.byte	12
 579 00ca 30       		.byte	48
 580 00cb 0F       		.byte	15
 581 00cc 3A       		.byte	58
 582 00cd 02       		.byte	2
 583 00ce 54       		.byte	84
 584 00cf 40       		.byte	64
 585 00d0 58       		.byte	88
 586 00d1 04       		.byte	4
 587 00d2 5B       		.byte	91
 588 00d3 04       		.byte	4
 589 00d4 5F       		.byte	95
 590 00d5 01       		.byte	1
 591 00d6 80       		.byte	-128
 592 00d7 44       		.byte	68
 593 00d8 81       		.byte	-127
 594 00d9 04       		.byte	4
 595 00da 82       		.byte	-126
 596 00db 08       		.byte	8
 597 00dc 85       		.byte	-123
 598 00dd 07       		.byte	7
 599 00de 88       		.byte	-120
 600 00df 37       		.byte	55
 601 00e0 8B       		.byte	-117
 602 00e1 04       		.byte	4
 603 00e2 8C       		.byte	-116
 604 00e3 08       		.byte	8
 605 00e4 8E       		.byte	-114
 606 00e5 34       		.byte	52
 607 00e6 91       		.byte	-111
 608 00e7 04       		.byte	4
 609 00e8 92       		.byte	-110
 610 00e9 01       		.byte	1
 611 00ea 94       		.byte	-108
 612 00eb 08       		.byte	8
 613 00ec 95       		.byte	-107
 614 00ed 01       		.byte	1
 615 00ee 96       		.byte	-106
 616 00ef E0       		.byte	-32
 617 00f0 97       		.byte	-105
ARM GAS  C:\Users\kees\AppData\Local\Temp\ccZ43alk.s 			page 23


 618 00f1 06       		.byte	6
 619 00f2 99       		.byte	-103
 620 00f3 01       		.byte	1
 621 00f4 9A       		.byte	-102
 622 00f5 80       		.byte	-128
 623 00f6 9B       		.byte	-101
 624 00f7 06       		.byte	6
 625 00f8 9C       		.byte	-100
 626 00f9 37       		.byte	55
 627 00fa 9F       		.byte	-97
 628 00fb 03       		.byte	3
 629 00fc A0       		.byte	-96
 630 00fd 34       		.byte	52
 631 00fe A1       		.byte	-95
 632 00ff 04       		.byte	4
 633 0100 A2       		.byte	-94
 634 0101 03       		.byte	3
 635 0102 A4       		.byte	-92
 636 0103 37       		.byte	55
 637 0104 A5       		.byte	-91
 638 0105 04       		.byte	4
 639 0106 A8       		.byte	-88
 640 0107 08       		.byte	8
 641 0108 AA       		.byte	-86
 642 0109 D0       		.byte	-48
 643 010a AC       		.byte	-84
 644 010b 37       		.byte	55
 645 010c B0       		.byte	-80
 646 010d 3C       		.byte	60
 647 010e B2       		.byte	-78
 648 010f 01       		.byte	1
 649 0110 B4       		.byte	-76
 650 0111 C0       		.byte	-64
 651 0112 B5       		.byte	-75
 652 0113 07       		.byte	7
 653 0114 B6       		.byte	-74
 654 0115 02       		.byte	2
 655 0116 BA       		.byte	-70
 656 0117 02       		.byte	2
 657 0118 BB       		.byte	-69
 658 0119 20       		.byte	32
 659 011a BE       		.byte	-66
 660 011b 44       		.byte	68
 661 011c D6       		.byte	-42
 662 011d 02       		.byte	2
 663 011e D7       		.byte	-41
 664 011f 2C       		.byte	44
 665 0120 D8       		.byte	-40
 666 0121 04       		.byte	4
 667 0122 D9       		.byte	-39
 668 0123 04       		.byte	4
 669 0124 DB       		.byte	-37
 670 0125 04       		.byte	4
 671 0126 DF       		.byte	-33
 672 0127 01       		.byte	1
 673 0128 00       		.byte	0
 674 0129 04       		.byte	4
ARM GAS  C:\Users\kees\AppData\Local\Temp\ccZ43alk.s 			page 24


 675 012a 01       		.byte	1
 676 012b 02       		.byte	2
 677 012c 04       		.byte	4
 678 012d 40       		.byte	64
 679 012e 07       		.byte	7
 680 012f 44       		.byte	68
 681 0130 0E       		.byte	14
 682 0131 25       		.byte	37
 683 0132 0F       		.byte	15
 684 0133 80       		.byte	-128
 685 0134 12       		.byte	18
 686 0135 02       		.byte	2
 687 0136 13       		.byte	19
 688 0137 20       		.byte	32
 689 0138 14       		.byte	20
 690 0139 01       		.byte	1
 691 013a 15       		.byte	21
 692 013b 04       		.byte	4
 693 013c 16       		.byte	22
 694 013d 22       		.byte	34
 695 013e 17       		.byte	23
 696 013f 21       		.byte	33
 697 0140 19       		.byte	25
 698 0141 02       		.byte	2
 699 0142 1C       		.byte	28
 700 0143 52       		.byte	82
 701 0144 1D       		.byte	29
 702 0145 80       		.byte	-128
 703 0146 1E       		.byte	30
 704 0147 06       		.byte	6
 705 0148 25       		.byte	37
 706 0149 20       		.byte	32
 707 014a 27       		.byte	39
 708 014b 08       		.byte	8
 709 014c 2D       		.byte	45
 710 014d 04       		.byte	4
 711 014e 2E       		.byte	46
 712 014f 01       		.byte	1
 713 0150 37       		.byte	55
 714 0151 69       		.byte	105
 715 0152 3C       		.byte	60
 716 0153 04       		.byte	4
 717 0154 3E       		.byte	62
 718 0155 12       		.byte	18
 719 0156 60       		.byte	96
 720 0157 10       		.byte	16
 721 0158 62       		.byte	98
 722 0159 40       		.byte	64
 723 015a 63       		.byte	99
 724 015b 08       		.byte	8
 725 015c 65       		.byte	101
 726 015d 02       		.byte	2
 727 015e 6D       		.byte	109
 728 015f 04       		.byte	4
 729 0160 6E       		.byte	110
 730 0161 11       		.byte	17
 731 0162 6F       		.byte	111
ARM GAS  C:\Users\kees\AppData\Local\Temp\ccZ43alk.s 			page 25


 732 0163 15       		.byte	21
 733 0164 76       		.byte	118
 734 0165 02       		.byte	2
 735 0166 C0       		.byte	-64
 736 0167 DC       		.byte	-36
 737 0168 C2       		.byte	-62
 738 0169 F0       		.byte	-16
 739 016a C4       		.byte	-60
 740 016b F3       		.byte	-13
 741 016c CA       		.byte	-54
 742 016d C0       		.byte	-64
 743 016e CC       		.byte	-52
 744 016f F0       		.byte	-16
 745 0170 CE       		.byte	-50
 746 0171 E0       		.byte	-32
 747 0172 D8       		.byte	-40
 748 0173 8E       		.byte	-114
 749 0174 84       		.byte	-124
 750 0175 04       		.byte	4
 751 0176 86       		.byte	-122
 752 0177 09       		.byte	9
 753 0178 88       		.byte	-120
 754 0179 0E       		.byte	14
 755 017a 94       		.byte	-108
 756 017b 05       		.byte	5
 757 017c 96       		.byte	-106
 758 017d 0A       		.byte	10
 759 017e AC       		.byte	-84
 760 017f 03       		.byte	3
 761 0180 AE       		.byte	-82
 762 0181 04       		.byte	4
 763 0182 B2       		.byte	-78
 764 0183 0F       		.byte	15
 765 0184 B6       		.byte	-74
 766 0185 0F       		.byte	15
 767 0186 B8       		.byte	-72
 768 0187 88       		.byte	-120
 769 0188 C0       		.byte	-64
 770 0189 32       		.byte	50
 771 018a C1       		.byte	-63
 772 018b 01       		.byte	1
 773 018c C2       		.byte	-62
 774 018d 50       		.byte	80
 775 018e C7       		.byte	-57
 776 018f B0       		.byte	-80
 777 0190 C8       		.byte	-56
 778 0191 20       		.byte	32
 779 0192 C9       		.byte	-55
 780 0193 01       		.byte	1
 781 0194 CA       		.byte	-54
 782 0195 FF       		.byte	-1
 783 0196 CB       		.byte	-53
 784 0197 FF       		.byte	-1
 785 0198 CC       		.byte	-52
 786 0199 23       		.byte	35
 787 019a CE       		.byte	-50
 788 019b 80       		.byte	-128
ARM GAS  C:\Users\kees\AppData\Local\Temp\ccZ43alk.s 			page 26


 789 019c CF       		.byte	-49
 790 019d 08       		.byte	8
 791 019e D0       		.byte	-48
 792 019f 04       		.byte	4
 793 01a0 D8       		.byte	-40
 794 01a1 04       		.byte	4
 795 01a2 DA       		.byte	-38
 796 01a3 04       		.byte	4
 797 01a4 DF       		.byte	-33
 798 01a5 01       		.byte	1
 799 01a6 E2       		.byte	-30
 800 01a7 C0       		.byte	-64
 801 01a8 E4       		.byte	-28
 802 01a9 40       		.byte	64
 803 01aa E5       		.byte	-27
 804 01ab 01       		.byte	1
 805 01ac E6       		.byte	-26
 806 01ad 10       		.byte	16
 807 01ae E7       		.byte	-25
 808 01af 11       		.byte	17
 809 01b0 E8       		.byte	-24
 810 01b1 C0       		.byte	-64
 811 01b2 E9       		.byte	-23
 812 01b3 01       		.byte	1
 813 01b4 EB       		.byte	-21
 814 01b5 11       		.byte	17
 815 01b6 EC       		.byte	-20
 816 01b7 40       		.byte	64
 817 01b8 ED       		.byte	-19
 818 01b9 01       		.byte	1
 819 01ba EE       		.byte	-18
 820 01bb 40       		.byte	64
 821 01bc EF       		.byte	-17
 822 01bd 01       		.byte	1
 823 01be 00       		.byte	0
 824 01bf 14       		.byte	20
 825 01c0 05       		.byte	5
 826 01c1 10       		.byte	16
 827 01c2 07       		.byte	7
 828 01c3 61       		.byte	97
 829 01c4 09       		.byte	9
 830 01c5 08       		.byte	8
 831 01c6 0C       		.byte	12
 832 01c7 01       		.byte	1
 833 01c8 0D       		.byte	13
 834 01c9 20       		.byte	32
 835 01ca 0E       		.byte	14
 836 01cb 29       		.byte	41
 837 01cc 12       		.byte	18
 838 01cd 02       		.byte	2
 839 01ce 15       		.byte	21
 840 01cf 02       		.byte	2
 841 01d0 17       		.byte	23
 842 01d1 14       		.byte	20
 843 01d2 18       		.byte	24
 844 01d3 11       		.byte	17
 845 01d4 1D       		.byte	29
ARM GAS  C:\Users\kees\AppData\Local\Temp\ccZ43alk.s 			page 27


 846 01d5 10       		.byte	16
 847 01d6 1F       		.byte	31
 848 01d7 41       		.byte	65
 849 01d8 24       		.byte	36
 850 01d9 04       		.byte	4
 851 01da 25       		.byte	37
 852 01db 08       		.byte	8
 853 01dc 26       		.byte	38
 854 01dd 12       		.byte	18
 855 01de 27       		.byte	39
 856 01df 68       		.byte	104
 857 01e0 28       		.byte	40
 858 01e1 20       		.byte	32
 859 01e2 2B       		.byte	43
 860 01e3 20       		.byte	32
 861 01e4 2C       		.byte	44
 862 01e5 01       		.byte	1
 863 01e6 2E       		.byte	46
 864 01e7 21       		.byte	33
 865 01e8 2F       		.byte	47
 866 01e9 20       		.byte	32
 867 01ea 36       		.byte	54
 868 01eb 04       		.byte	4
 869 01ec 37       		.byte	55
 870 01ed 61       		.byte	97
 871 01ee 3B       		.byte	59
 872 01ef C0       		.byte	-64
 873 01f0 3C       		.byte	60
 874 01f1 04       		.byte	4
 875 01f2 3E       		.byte	62
 876 01f3 10       		.byte	16
 877 01f4 40       		.byte	64
 878 01f5 04       		.byte	4
 879 01f6 41       		.byte	65
 880 01f7 08       		.byte	8
 881 01f8 43       		.byte	67
 882 01f9 40       		.byte	64
 883 01fa 45       		.byte	69
 884 01fb 80       		.byte	-128
 885 01fc 47       		.byte	71
 886 01fd 28       		.byte	40
 887 01fe 48       		.byte	72
 888 01ff 01       		.byte	1
 889 0200 4E       		.byte	78
 890 0201 02       		.byte	2
 891 0202 4F       		.byte	79
 892 0203 04       		.byte	4
 893 0204 51       		.byte	81
 894 0205 01       		.byte	1
 895 0206 56       		.byte	86
 896 0207 40       		.byte	64
 897 0208 57       		.byte	87
 898 0209 64       		.byte	100
 899 020a 5C       		.byte	92
 900 020b 20       		.byte	32
 901 020c 5E       		.byte	94
 902 020d 02       		.byte	2
ARM GAS  C:\Users\kees\AppData\Local\Temp\ccZ43alk.s 			page 28


 903 020e 5F       		.byte	95
 904 020f 44       		.byte	68
 905 0210 67       		.byte	103
 906 0211 02       		.byte	2
 907 0212 8C       		.byte	-116
 908 0213 01       		.byte	1
 909 0214 8D       		.byte	-115
 910 0215 10       		.byte	16
 911 0216 92       		.byte	-110
 912 0217 11       		.byte	17
 913 0218 94       		.byte	-108
 914 0219 04       		.byte	4
 915 021a 98       		.byte	-104
 916 021b 01       		.byte	1
 917 021c 9A       		.byte	-102
 918 021d 20       		.byte	32
 919 021e 9B       		.byte	-101
 920 021f 15       		.byte	21
 921 0220 9E       		.byte	-98
 922 0221 40       		.byte	64
 923 0222 9F       		.byte	-97
 924 0223 60       		.byte	96
 925 0224 A0       		.byte	-96
 926 0225 01       		.byte	1
 927 0226 A1       		.byte	-95
 928 0227 A0       		.byte	-96
 929 0228 A2       		.byte	-94
 930 0229 01       		.byte	1
 931 022a A6       		.byte	-90
 932 022b 12       		.byte	18
 933 022c A7       		.byte	-89
 934 022d 44       		.byte	68
 935 022e AE       		.byte	-82
 936 022f 04       		.byte	4
 937 0230 C0       		.byte	-64
 938 0231 F6       		.byte	-10
 939 0232 C2       		.byte	-62
 940 0233 F4       		.byte	-12
 941 0234 C4       		.byte	-60
 942 0235 71       		.byte	113
 943 0236 CA       		.byte	-54
 944 0237 F0       		.byte	-16
 945 0238 CC       		.byte	-52
 946 0239 F0       		.byte	-16
 947 023a CE       		.byte	-50
 948 023b 60       		.byte	96
 949 023c D0       		.byte	-48
 950 023d 7E       		.byte	126
 951 023e D2       		.byte	-46
 952 023f 18       		.byte	24
 953 0240 D6       		.byte	-42
 954 0241 F0       		.byte	-16
 955 0242 D8       		.byte	-40
 956 0243 10       		.byte	16
 957 0244 62       		.byte	98
 958 0245 02       		.byte	2
 959 0246 D8       		.byte	-40
ARM GAS  C:\Users\kees\AppData\Local\Temp\ccZ43alk.s 			page 29


 960 0247 40       		.byte	64
 961 0248 AE       		.byte	-82
 962 0249 02       		.byte	2
 963 024a EA       		.byte	-22
 964 024b 40       		.byte	64
 965 024c 57       		.byte	87
 966 024d 04       		.byte	4
 967 024e 61       		.byte	97
 968 024f 02       		.byte	2
 969 0250 8D       		.byte	-115
 970 0251 02       		.byte	2
 971 0252 8F       		.byte	-113
 972 0253 04       		.byte	4
 973 0254 D4       		.byte	-44
 974 0255 02       		.byte	2
 975 0256 D8       		.byte	-40
 976 0257 02       		.byte	2
 977 0258 E0       		.byte	-32
 978 0259 02       		.byte	2
 979 025a E4       		.byte	-28
 980 025b 08       		.byte	8
 981 025c 10       		.byte	16
 982 025d 01       		.byte	1
 983 025e 11       		.byte	17
 984 025f 01       		.byte	1
 985              		.text
 986              	.Letext0: