ARM GAS  C:\Users\kees\AppData\Local\Temp\ccDwCwtG.s 			page 1


   1              		.cpu cortex-m0
   2              		.fpu softvfp
   3              		.eabi_attribute 20, 1
   4              		.eabi_attribute 21, 1
   5              		.eabi_attribute 23, 3
   6              		.eabi_attribute 24, 1
   7              		.eabi_attribute 25, 1
   8              		.eabi_attribute 26, 1
   9              		.eabi_attribute 30, 4
  10              		.eabi_attribute 18, 4
  11              		.code	16
  12              		.file	"CyFlash.c"
  19 0000 AC000000 		.text
  19      02006000 
  19      00000201 
  19      FB0E0D00 
  19      01010101 
  20              	.Ltext0:
  21              		.cfi_sections	.debug_frame
  22              		.section	.text.CySysFlashSetWaitCycles,"ax",%progbits
  23              		.align	1
  24              		.global	CySysFlashSetWaitCycles
  25              		.code	16
  26              		.thumb_func
  27              		.type	CySysFlashSetWaitCycles, %function
  28              	CySysFlashSetWaitCycles:
  29              	.LFB1:
  30              		.file 1 ".\\Generated_Source\\PSoC4\\CyFlash.c"
   1:.\Generated_Source\PSoC4/CyFlash.c **** /*******************************************************************************
   2:.\Generated_Source\PSoC4/CyFlash.c **** * File Name: CyFlash.c
   3:.\Generated_Source\PSoC4/CyFlash.c **** * Version 3.40
   4:.\Generated_Source\PSoC4/CyFlash.c **** *
   5:.\Generated_Source\PSoC4/CyFlash.c **** *  Description:
   6:.\Generated_Source\PSoC4/CyFlash.c **** *   Provides an API for the FLASH.
   7:.\Generated_Source\PSoC4/CyFlash.c **** *
   8:.\Generated_Source\PSoC4/CyFlash.c **** *  Note:
   9:.\Generated_Source\PSoC4/CyFlash.c **** *   This code is endian agnostic.
  10:.\Generated_Source\PSoC4/CyFlash.c **** *
  11:.\Generated_Source\PSoC4/CyFlash.c **** *  Note:
  12:.\Generated_Source\PSoC4/CyFlash.c **** *   Documentation of the API's in this file is located in the
  13:.\Generated_Source\PSoC4/CyFlash.c **** *   System Reference Guide provided with PSoC Creator.
  14:.\Generated_Source\PSoC4/CyFlash.c **** *
  15:.\Generated_Source\PSoC4/CyFlash.c **** ********************************************************************************
  16:.\Generated_Source\PSoC4/CyFlash.c **** * Copyright 2010-2013, Cypress Semiconductor Corporation.  All rights reserved.
  17:.\Generated_Source\PSoC4/CyFlash.c **** * You may use this file only in accordance with the license, terms, conditions,
  18:.\Generated_Source\PSoC4/CyFlash.c **** * disclaimers, and limitations in the end user license agreement accompanying
  19:.\Generated_Source\PSoC4/CyFlash.c **** * the software package with which this file was provided.
  20:.\Generated_Source\PSoC4/CyFlash.c **** *******************************************************************************/
  21:.\Generated_Source\PSoC4/CyFlash.c **** 
  22:.\Generated_Source\PSoC4/CyFlash.c **** #include "CyFlash.h"
  23:.\Generated_Source\PSoC4/CyFlash.c **** 
ARM GAS  C:\Users\kees\AppData\Local\Temp\ccDwCwtG.s 			page 2


  24:.\Generated_Source\PSoC4/CyFlash.c **** 
  25:.\Generated_Source\PSoC4/CyFlash.c **** /*******************************************************************************
  26:.\Generated_Source\PSoC4/CyFlash.c **** * Function Name: CySysFlashWriteRow
  27:.\Generated_Source\PSoC4/CyFlash.c **** ********************************************************************************
  28:.\Generated_Source\PSoC4/CyFlash.c **** *
  29:.\Generated_Source\PSoC4/CyFlash.c **** * Summary:
  30:.\Generated_Source\PSoC4/CyFlash.c **** *  Writes a row of Flash.
  31:.\Generated_Source\PSoC4/CyFlash.c **** *
  32:.\Generated_Source\PSoC4/CyFlash.c **** * Parameters:
  33:.\Generated_Source\PSoC4/CyFlash.c **** *  uint16 rowNum:
  34:.\Generated_Source\PSoC4/CyFlash.c **** *   Row number. Each row is 128 bytes so a 32KB flash memory will have a valid
  35:.\Generated_Source\PSoC4/CyFlash.c **** *   range of [0-255].
  36:.\Generated_Source\PSoC4/CyFlash.c **** *
  37:.\Generated_Source\PSoC4/CyFlash.c **** *  uint8* rowData:
  38:.\Generated_Source\PSoC4/CyFlash.c **** *   Array of bytes to write.
  39:.\Generated_Source\PSoC4/CyFlash.c **** *
  40:.\Generated_Source\PSoC4/CyFlash.c **** * Return:
  41:.\Generated_Source\PSoC4/CyFlash.c **** *  Status
  42:.\Generated_Source\PSoC4/CyFlash.c **** *     Value             Description
  43:.\Generated_Source\PSoC4/CyFlash.c **** *    CYRET_SUCCESS     Successful
  44:.\Generated_Source\PSoC4/CyFlash.c **** *    CYRET_LOCKED      Flash writing already in use
  45:.\Generated_Source\PSoC4/CyFlash.c **** *    CYRET_CANCELED    Command not accepted
  46:.\Generated_Source\PSoC4/CyFlash.c **** *    CYRET_BAD_PARAM   One or more invalid parameters
  47:.\Generated_Source\PSoC4/CyFlash.c **** *    Other non-zero    Failure
  48:.\Generated_Source\PSoC4/CyFlash.c **** *
  49:.\Generated_Source\PSoC4/CyFlash.c **** *******************************************************************************/
  50:.\Generated_Source\PSoC4/CyFlash.c **** cystatus CySysFlashWriteRow(uint32 rowNum, const uint8 rowData[])
  51:.\Generated_Source\PSoC4/CyFlash.c **** {
  52:.\Generated_Source\PSoC4/CyFlash.c ****     volatile cystatus retValue = CYRET_SUCCESS;
  53:.\Generated_Source\PSoC4/CyFlash.c ****     volatile uint32   *ptr;
  54:.\Generated_Source\PSoC4/CyFlash.c ****     volatile uint32   cpuValue;
  55:.\Generated_Source\PSoC4/CyFlash.c ****     volatile uint32   localData[(CY_FLASH_SIZEOF_ROW + CY_FLASH_SRAM_ROM_DATA)/4u];
  56:.\Generated_Source\PSoC4/CyFlash.c ****     volatile uint32   imoConfigReg;
  57:.\Generated_Source\PSoC4/CyFlash.c ****     uint8  interruptState;
  58:.\Generated_Source\PSoC4/CyFlash.c **** 
  59:.\Generated_Source\PSoC4/CyFlash.c ****     if ((rowNum < CY_FLASH_NUMBER_ROWS) && (rowData != 0u))
  60:.\Generated_Source\PSoC4/CyFlash.c ****     {
  61:.\Generated_Source\PSoC4/CyFlash.c ****         /* First load the data. Then invoke Write row command. */
  62:.\Generated_Source\PSoC4/CyFlash.c ****         ptr = &localData[CY_FLASH_SRAM_ROM_KEY1];
  63:.\Generated_Source\PSoC4/CyFlash.c **** 
  64:.\Generated_Source\PSoC4/CyFlash.c ****         CY_FLASH_CPUSS_SYSARG_REG = (uint32)ptr;
  65:.\Generated_Source\PSoC4/CyFlash.c **** 
  66:.\Generated_Source\PSoC4/CyFlash.c ****         #if(CY_FLASH_NUMBER_ROWS > 255u)
  67:.\Generated_Source\PSoC4/CyFlash.c ****             localData[CY_FLASH_SRAM_ROM_KEY1] = CY_FLASH_SROM_LOAD_CMD | (uint32)((rowNum & 0x100u)
  68:.\Generated_Source\PSoC4/CyFlash.c ****         #else
  69:.\Generated_Source\PSoC4/CyFlash.c ****             localData[CY_FLASH_SRAM_ROM_KEY1] = CY_FLASH_SROM_LOAD_CMD;
  70:.\Generated_Source\PSoC4/CyFlash.c ****         #endif /* (CY_FLASH_SIZEOF_ROW > 255) */
  71:.\Generated_Source\PSoC4/CyFlash.c **** 
  72:.\Generated_Source\PSoC4/CyFlash.c ****         localData[CY_FLASH_SRAM_ROM_PARAM2/4u] = ((uint32)(CYDEV_FLS_ROW_SIZE - 1u));
  73:.\Generated_Source\PSoC4/CyFlash.c **** 
  74:.\Generated_Source\PSoC4/CyFlash.c ****         /* Copy row data from 8bit to 32bit array with shift for CPUSS commands */
  75:.\Generated_Source\PSoC4/CyFlash.c ****         (void)memcpy((void *)&localData[CY_FLASH_SRAM_ROM_DATA/4u], rowData, CYDEV_FLS_ROW_SIZE);
  76:.\Generated_Source\PSoC4/CyFlash.c **** 
  77:.\Generated_Source\PSoC4/CyFlash.c ****         /* Perform sysreq load data, opcode 0x80000004h */
  78:.\Generated_Source\PSoC4/CyFlash.c ****         CY_FLASH_CPUSS_SYSREQ_REG = CY_FLASH_LOAD_BYTE_OPCODE | CY_FLASH_CPUSS_REQ_START;
  79:.\Generated_Source\PSoC4/CyFlash.c **** 
  80:.\Generated_Source\PSoC4/CyFlash.c ****         while((CY_FLASH_CPUSS_SYSREQ_REG & CY_FLASH_CPUSS_REQ_START) == CY_FLASH_CPUSS_REQ_START)
ARM GAS  C:\Users\kees\AppData\Local\Temp\ccDwCwtG.s 			page 3


  81:.\Generated_Source\PSoC4/CyFlash.c ****         {
  82:.\Generated_Source\PSoC4/CyFlash.c ****             /* Wait till the CY_FLASH_CPUSS_REQ_START bit goes low */
  83:.\Generated_Source\PSoC4/CyFlash.c ****         }
  84:.\Generated_Source\PSoC4/CyFlash.c **** 
  85:.\Generated_Source\PSoC4/CyFlash.c ****         /* Check if the value is written to the SRAM_BASE */
  86:.\Generated_Source\PSoC4/CyFlash.c ****         cpuValue = CY_FLASH_CPUSS_SYSARG_REG;
  87:.\Generated_Source\PSoC4/CyFlash.c ****         if (cpuValue == CY_FLASH_SROM_CMD_RETURN_SUCC)
  88:.\Generated_Source\PSoC4/CyFlash.c ****         {
  89:.\Generated_Source\PSoC4/CyFlash.c ****             retValue = CYRET_SUCCESS;
  90:.\Generated_Source\PSoC4/CyFlash.c ****         }
  91:.\Generated_Source\PSoC4/CyFlash.c ****         else if((cpuValue & CY_FLASH_SROM_CMD_RETURN_MASK) == CY_FLASH_SROM_CMD_RETURN_MASK)
  92:.\Generated_Source\PSoC4/CyFlash.c ****         {
  93:.\Generated_Source\PSoC4/CyFlash.c ****             /* Error value, cant proceed */
  94:.\Generated_Source\PSoC4/CyFlash.c ****             retValue = CYRET_CANCELED;
  95:.\Generated_Source\PSoC4/CyFlash.c ****         }
  96:.\Generated_Source\PSoC4/CyFlash.c ****         else
  97:.\Generated_Source\PSoC4/CyFlash.c ****         {
  98:.\Generated_Source\PSoC4/CyFlash.c ****             while((CY_FLASH_CPUSS_SYSARG_REG & CY_FLASH_SROM_CMD_RETURN_MASK) != CY_FLASH_SROM_CMD_
  99:.\Generated_Source\PSoC4/CyFlash.c ****             {
 100:.\Generated_Source\PSoC4/CyFlash.c ****                 /* Wait till the request is completed */
 101:.\Generated_Source\PSoC4/CyFlash.c ****             }
 102:.\Generated_Source\PSoC4/CyFlash.c ****         }
 103:.\Generated_Source\PSoC4/CyFlash.c **** 
 104:.\Generated_Source\PSoC4/CyFlash.c ****         if(retValue == CYRET_SUCCESS)
 105:.\Generated_Source\PSoC4/CyFlash.c ****         {
 106:.\Generated_Source\PSoC4/CyFlash.c ****             ptr = &localData[CY_FLASH_SRAM_ROM_KEY1/4u];
 107:.\Generated_Source\PSoC4/CyFlash.c ****             CY_FLASH_CPUSS_SYSARG_REG = (uint32)ptr;
 108:.\Generated_Source\PSoC4/CyFlash.c **** 
 109:.\Generated_Source\PSoC4/CyFlash.c ****             /* Write row command to SROM */
 110:.\Generated_Source\PSoC4/CyFlash.c ****             localData[CY_FLASH_SRAM_ROM_KEY1/4u] =  (uint32)(rowNum << 16u) | 
 111:.\Generated_Source\PSoC4/CyFlash.c ****                                                     (uint32)(CY_FLASH_SROM_KEY2_WRITE << 8u) | 
 112:.\Generated_Source\PSoC4/CyFlash.c ****                                                     CY_FLASH_SROM_KEY1;
 113:.\Generated_Source\PSoC4/CyFlash.c **** 
 114:.\Generated_Source\PSoC4/CyFlash.c ****             /* Mask all exceptions to guarantee that IMO configuration will be changed 
 115:.\Generated_Source\PSoC4/CyFlash.c ****             * in the atomic way. It will not affect syscall execution (flash row write) 
 116:.\Generated_Source\PSoC4/CyFlash.c ****             * since it is executed in the NMI context.
 117:.\Generated_Source\PSoC4/CyFlash.c ****             */
 118:.\Generated_Source\PSoC4/CyFlash.c ****             interruptState = CyEnterCriticalSection();
 119:.\Generated_Source\PSoC4/CyFlash.c **** 
 120:.\Generated_Source\PSoC4/CyFlash.c ****             /* Preserve IMO configuration that could be changed 
 121:.\Generated_Source\PSoC4/CyFlash.c ****             * during syscall execution (Cypress ID #150448).
 122:.\Generated_Source\PSoC4/CyFlash.c ****             */
 123:.\Generated_Source\PSoC4/CyFlash.c ****             imoConfigReg = CY_SYS_CLK_IMO_CONFIG_REG;
 124:.\Generated_Source\PSoC4/CyFlash.c **** 
 125:.\Generated_Source\PSoC4/CyFlash.c ****             /* Perform sysreq for Write row, opcode 0x80000005 */
 126:.\Generated_Source\PSoC4/CyFlash.c ****             CY_FLASH_CPUSS_SYSREQ_REG = CY_FLASH_WRITE_ROW_OPCODE | CY_FLASH_CPUSS_REQ_START;
 127:.\Generated_Source\PSoC4/CyFlash.c **** 
 128:.\Generated_Source\PSoC4/CyFlash.c ****             while((CY_FLASH_CPUSS_SYSREQ_REG & CY_FLASH_CPUSS_REQ_START) == CY_FLASH_CPUSS_REQ_STAR
 129:.\Generated_Source\PSoC4/CyFlash.c ****             {
 130:.\Generated_Source\PSoC4/CyFlash.c ****                 /* Wait till the CY_FLASH_CPUSS_REQ_START bit goes low */
 131:.\Generated_Source\PSoC4/CyFlash.c ****             }
 132:.\Generated_Source\PSoC4/CyFlash.c **** 
 133:.\Generated_Source\PSoC4/CyFlash.c ****             /* Restore IMO configuration */
 134:.\Generated_Source\PSoC4/CyFlash.c ****             CY_SYS_CLK_IMO_CONFIG_REG = imoConfigReg;
 135:.\Generated_Source\PSoC4/CyFlash.c **** 
 136:.\Generated_Source\PSoC4/CyFlash.c ****             CyExitCriticalSection(interruptState);
 137:.\Generated_Source\PSoC4/CyFlash.c **** 
ARM GAS  C:\Users\kees\AppData\Local\Temp\ccDwCwtG.s 			page 4


 138:.\Generated_Source\PSoC4/CyFlash.c ****             cpuValue = CY_FLASH_CPUSS_SYSARG_REG;
 139:.\Generated_Source\PSoC4/CyFlash.c ****             if (cpuValue != CY_FLASH_SROM_CMD_RETURN_SUCC)
 140:.\Generated_Source\PSoC4/CyFlash.c ****             {
 141:.\Generated_Source\PSoC4/CyFlash.c ****                 retValue = cpuValue;
 142:.\Generated_Source\PSoC4/CyFlash.c ****             }
 143:.\Generated_Source\PSoC4/CyFlash.c ****         }
 144:.\Generated_Source\PSoC4/CyFlash.c ****     }
 145:.\Generated_Source\PSoC4/CyFlash.c ****     else
 146:.\Generated_Source\PSoC4/CyFlash.c ****     {
 147:.\Generated_Source\PSoC4/CyFlash.c ****         retValue = CYRET_BAD_PARAM;
 148:.\Generated_Source\PSoC4/CyFlash.c ****     }
 149:.\Generated_Source\PSoC4/CyFlash.c **** 
 150:.\Generated_Source\PSoC4/CyFlash.c ****     return (retValue);
 151:.\Generated_Source\PSoC4/CyFlash.c **** }
 152:.\Generated_Source\PSoC4/CyFlash.c **** 
 153:.\Generated_Source\PSoC4/CyFlash.c **** 
 154:.\Generated_Source\PSoC4/CyFlash.c **** /*******************************************************************************
 155:.\Generated_Source\PSoC4/CyFlash.c **** * Function Name: CySysFlashSetWaitCycles
 156:.\Generated_Source\PSoC4/CyFlash.c **** ********************************************************************************
 157:.\Generated_Source\PSoC4/CyFlash.c **** *
 158:.\Generated_Source\PSoC4/CyFlash.c **** * Summary:
 159:.\Generated_Source\PSoC4/CyFlash.c **** *  Sets the number of clock cycles the cache will wait before it samples data
 160:.\Generated_Source\PSoC4/CyFlash.c **** *  coming back from Flash. This function must be called before increasing SYSCLK
 161:.\Generated_Source\PSoC4/CyFlash.c **** *  clock frequency. It can optionally be called after lowering SYSCLK clock
 162:.\Generated_Source\PSoC4/CyFlash.c **** *  frequency in order to improve CPU performance.
 163:.\Generated_Source\PSoC4/CyFlash.c **** *
 164:.\Generated_Source\PSoC4/CyFlash.c **** * Parameters:
 165:.\Generated_Source\PSoC4/CyFlash.c **** *  freq: Valid range [3-48].  Frequency for operation of the IMO.
 166:.\Generated_Source\PSoC4/CyFlash.c **** *  Note: Invalid frequency will be ignored.
 167:.\Generated_Source\PSoC4/CyFlash.c **** *
 168:.\Generated_Source\PSoC4/CyFlash.c **** * Return:
 169:.\Generated_Source\PSoC4/CyFlash.c **** *  None
 170:.\Generated_Source\PSoC4/CyFlash.c **** *
 171:.\Generated_Source\PSoC4/CyFlash.c **** *******************************************************************************/
 172:.\Generated_Source\PSoC4/CyFlash.c **** void CySysFlashSetWaitCycles(uint32 freq)
 173:.\Generated_Source\PSoC4/CyFlash.c **** {
  31              		.loc 1 173 0
  32              		.cfi_startproc
  33 0000 08B5     		push	{r3, lr}
  34              	.LCFI0:
  35              		.cfi_def_cfa_offset 8
  36              		.cfi_offset 3, -8
  37              		.cfi_offset 14, -4
  38              	.LVL0:
 174:.\Generated_Source\PSoC4/CyFlash.c ****     if ((freq >= CY_SYS_CLK_IMO_MIN_FREQ_MHZ) && (freq <= CY_SYS_CLK_IMO_MAX_FREQ_MHZ))
  39              		.loc 1 174 0
  40 0002 C31E     		sub	r3, r0, #3
  41 0004 2D2B     		cmp	r3, #45
  42 0006 0ED8     		bhi	.L2
 175:.\Generated_Source\PSoC4/CyFlash.c ****     {
 176:.\Generated_Source\PSoC4/CyFlash.c ****         if ( freq <= CY_FLASH_SYSCLK_BOUNDARY_MHZ )
  43              		.loc 1 176 0
  44 0008 1828     		cmp	r0, #24
  45 000a 05D8     		bhi	.L3
 177:.\Generated_Source\PSoC4/CyFlash.c ****         {
 178:.\Generated_Source\PSoC4/CyFlash.c ****             CY_SYS_CLK_SELECT_REG &= (uint32)(~CY_FLASH_WAIT_STATE_EN);
  46              		.loc 1 178 0
ARM GAS  C:\Users\kees\AppData\Local\Temp\ccDwCwtG.s 			page 5


  47 000c 084B     		ldr	r3, .L7
  48 000e 094A     		ldr	r2, .L7+4
  49 0010 1968     		ldr	r1, [r3]
  50 0012 0A40     		and	r2, r2, r1
  51 0014 1A60     		str	r2, [r3]
  52 0016 09E0     		b	.L5
  53              	.L3:
 179:.\Generated_Source\PSoC4/CyFlash.c ****         }
 180:.\Generated_Source\PSoC4/CyFlash.c ****         else
 181:.\Generated_Source\PSoC4/CyFlash.c ****         {
 182:.\Generated_Source\PSoC4/CyFlash.c ****             CY_SYS_CLK_SELECT_REG |= CY_FLASH_WAIT_STATE_EN;
  54              		.loc 1 182 0
  55 0018 054A     		ldr	r2, .L7
  56 001a 8023     		mov	r3, #128
  57 001c 1168     		ldr	r1, [r2]
  58 001e DB02     		lsl	r3, r3, #11
  59 0020 0B43     		orr	r3, r3, r1
  60 0022 1360     		str	r3, [r2]
  61 0024 02E0     		b	.L5
  62              	.L2:
 183:.\Generated_Source\PSoC4/CyFlash.c ****         }
 184:.\Generated_Source\PSoC4/CyFlash.c ****     }
 185:.\Generated_Source\PSoC4/CyFlash.c ****     else
 186:.\Generated_Source\PSoC4/CyFlash.c ****     {
 187:.\Generated_Source\PSoC4/CyFlash.c ****         /* Halt CPU in debug mode if frequency is invalid */
 188:.\Generated_Source\PSoC4/CyFlash.c ****         CYASSERT(0u != 0u);
  63              		.loc 1 188 0
  64 0026 0020     		mov	r0, #0
  65              	.LVL1:
  66 0028 FFF7FEFF 		bl	CyHalt
  67              	.LVL2:
  68              	.L5:
 189:.\Generated_Source\PSoC4/CyFlash.c ****     }
 190:.\Generated_Source\PSoC4/CyFlash.c **** }
  69              		.loc 1 190 0
  70              		@ sp needed for prologue
  71 002c 08BD     		pop	{r3, pc}
  72              	.L8:
  73 002e C046     		.align	2
  74              	.L7:
  75 0030 00010B40 		.word	1074462976
  76 0034 FFFFFBFF 		.word	-262145
  77              		.cfi_endproc
  78              	.LFE1:
  79              		.size	CySysFlashSetWaitCycles, .-CySysFlashSetWaitCycles
  80              		.section	.text.CySysFlashWriteRow,"ax",%progbits
  81              		.align	1
  82              		.global	CySysFlashWriteRow
  83              		.code	16
  84              		.thumb_func
  85              		.type	CySysFlashWriteRow, %function
  86              	CySysFlashWriteRow:
  87              	.LFB0:
  88              		.loc 1 51 0
  89              		.cfi_startproc
  90 0000 10B5     		push	{r4, lr}
  91              	.LCFI1:
ARM GAS  C:\Users\kees\AppData\Local\Temp\ccDwCwtG.s 			page 6


  92              		.cfi_def_cfa_offset 8
  93              		.cfi_offset 4, -8
  94              		.cfi_offset 14, -4
  95              	.LVL3:
  96 0002 A6B0     		sub	sp, sp, #152
  97              	.LCFI2:
  98              		.cfi_def_cfa_offset 160
  99              		.loc 1 52 0
 100 0004 0023     		mov	r3, #0
 101              		.loc 1 51 0
 102 0006 041C     		mov	r4, r0
 103              		.loc 1 52 0
 104 0008 2593     		str	r3, [sp, #148]
 105              	.LVL4:
 106              		.loc 1 59 0
 107 000a 0029     		cmp	r1, #0
 108 000c 59D0     		beq	.L10
 109              	.LVL5:
 110 000e FF28     		cmp	r0, #255
 111 0010 57D8     		bhi	.L10
 112              	.LVL6:
 113              		.loc 1 64 0
 114 0012 2E4B     		ldr	r3, .L20
 115 0014 01AA     		add	r2, sp, #4
 116 0016 1A60     		str	r2, [r3]
 117              		.loc 1 67 0
 118 0018 8023     		mov	r3, #128
 119 001a 5B00     		lsl	r3, r3, #1
 120 001c 0340     		and	r3, r3, r0
 121 001e 2C48     		ldr	r0, .L20+4
 122              	.LVL7:
 123 0020 1B04     		lsl	r3, r3, #16
 124 0022 0343     		orr	r3, r3, r0
 125 0024 0193     		str	r3, [sp, #4]
 126              		.loc 1 72 0
 127 0026 7F23     		mov	r3, #127
 128 0028 5360     		str	r3, [r2, #4]
 129              		.loc 1 75 0
 130 002a 03A8     		add	r0, sp, #12
 131 002c 8022     		mov	r2, #128
 132 002e FFF7FEFF 		bl	memcpy
 133              	.LVL8:
 134              		.loc 1 78 0
 135 0032 284A     		ldr	r2, .L20+8
 136 0034 284B     		ldr	r3, .L20+12
 137 0036 1A60     		str	r2, [r3]
 138              	.L11:
 139              		.loc 1 80 0
 140 0038 274B     		ldr	r3, .L20+12
 141 003a 1B68     		ldr	r3, [r3]
 142 003c 002B     		cmp	r3, #0
 143 003e FBDB     		blt	.L11
 144              		.loc 1 86 0
 145 0040 224B     		ldr	r3, .L20
 146 0042 1B68     		ldr	r3, [r3]
 147              	.LVL9:
 148 0044 2493     		str	r3, [sp, #144]
ARM GAS  C:\Users\kees\AppData\Local\Temp\ccDwCwtG.s 			page 7


 149              		.loc 1 87 0
 150 0046 249A     		ldr	r2, [sp, #144]
 151 0048 A023     		mov	r3, #160
 152              	.LVL10:
 153 004a 1B06     		lsl	r3, r3, #24
 154 004c 9A42     		cmp	r2, r3
 155 004e 01D1     		bne	.L12
 156              		.loc 1 89 0
 157 0050 0023     		mov	r3, #0
 158 0052 06E0     		b	.L18
 159              	.L12:
 160              		.loc 1 91 0
 161 0054 249A     		ldr	r2, [sp, #144]
 162 0056 F023     		mov	r3, #240
 163 0058 1B06     		lsl	r3, r3, #24
 164 005a 1A40     		and	r2, r2, r3
 165 005c 9A42     		cmp	r2, r3
 166 005e 02D1     		bne	.L14
 167              		.loc 1 94 0
 168 0060 0923     		mov	r3, #9
 169              	.L18:
 170 0062 2593     		str	r3, [sp, #148]
 171              	.LVL11:
 172 0064 08E0     		b	.L13
 173              	.L14:
 174              		.loc 1 98 0
 175 0066 194B     		ldr	r3, .L20
 176 0068 1A68     		ldr	r2, [r3]
 177 006a F023     		mov	r3, #240
 178 006c 1B06     		lsl	r3, r3, #24
 179 006e 1A40     		and	r2, r2, r3
 180 0070 A023     		mov	r3, #160
 181 0072 1B06     		lsl	r3, r3, #24
 182 0074 9A42     		cmp	r2, r3
 183 0076 F6D1     		bne	.L14
 184              	.L13:
 185              		.loc 1 104 0
 186 0078 259B     		ldr	r3, [sp, #148]
 187 007a 002B     		cmp	r3, #0
 188 007c 23D1     		bne	.L15
 189              	.LVL12:
 190              		.loc 1 107 0
 191 007e 134B     		ldr	r3, .L20
 192 0080 01AA     		add	r2, sp, #4
 193 0082 1A60     		str	r2, [r3]
 194              		.loc 1 110 0
 195 0084 154B     		ldr	r3, .L20+16
 196 0086 2404     		lsl	r4, r4, #16
 197              	.LVL13:
 198 0088 1C43     		orr	r4, r4, r3
 199 008a 0194     		str	r4, [sp, #4]
 200              		.loc 1 118 0
 201 008c FFF7FEFF 		bl	CyEnterCriticalSection
 202              		.loc 1 123 0
 203 0090 134B     		ldr	r3, .L20+20
 204              		.loc 1 126 0
 205 0092 144A     		ldr	r2, .L20+24
ARM GAS  C:\Users\kees\AppData\Local\Temp\ccDwCwtG.s 			page 8


 206              		.loc 1 123 0
 207 0094 1B68     		ldr	r3, [r3]
 208              	.LVL14:
 209 0096 2393     		str	r3, [sp, #140]
 210              		.loc 1 126 0
 211 0098 0F4B     		ldr	r3, .L20+12
 212              	.LVL15:
 213 009a 1A60     		str	r2, [r3]
 214              	.L16:
 215              		.loc 1 128 0
 216 009c 0E4B     		ldr	r3, .L20+12
 217 009e 1B68     		ldr	r3, [r3]
 218 00a0 002B     		cmp	r3, #0
 219 00a2 FBDB     		blt	.L16
 220              		.loc 1 134 0
 221 00a4 239A     		ldr	r2, [sp, #140]
 222 00a6 0E4B     		ldr	r3, .L20+20
 223 00a8 1A60     		str	r2, [r3]
 224              		.loc 1 136 0
 225 00aa FFF7FEFF 		bl	CyExitCriticalSection
 226              		.loc 1 138 0
 227 00ae 074B     		ldr	r3, .L20
 228 00b0 1B68     		ldr	r3, [r3]
 229              	.LVL16:
 230 00b2 2493     		str	r3, [sp, #144]
 231              		.loc 1 139 0
 232 00b4 249A     		ldr	r2, [sp, #144]
 233 00b6 A023     		mov	r3, #160
 234              	.LVL17:
 235 00b8 1B06     		lsl	r3, r3, #24
 236 00ba 9A42     		cmp	r2, r3
 237 00bc 03D0     		beq	.L15
 238              	.LVL18:
 239              		.loc 1 141 0
 240 00be 249B     		ldr	r3, [sp, #144]
 241              	.LVL19:
 242 00c0 00E0     		b	.L19
 243              	.LVL20:
 244              	.L10:
 245              		.loc 1 147 0
 246 00c2 0123     		mov	r3, #1
 247              	.LVL21:
 248              	.L19:
 249 00c4 2593     		str	r3, [sp, #148]
 250              	.LVL22:
 251              	.L15:
 252              		.loc 1 150 0
 253 00c6 2598     		ldr	r0, [sp, #148]
 254              		.loc 1 151 0
 255 00c8 26B0     		add	sp, sp, #152
 256              		@ sp needed for prologue
 257              	.LVL23:
 258 00ca 10BD     		pop	{r4, pc}
 259              	.L21:
 260              		.align	2
 261              	.L20:
 262 00cc 08000040 		.word	1073741832
ARM GAS  C:\Users\kees\AppData\Local\Temp\ccDwCwtG.s 			page 9


 263 00d0 B6D70000 		.word	55222
 264 00d4 04000080 		.word	-2147483644
 265 00d8 04000040 		.word	1073741828
 266 00dc B6D80000 		.word	55478
 267 00e0 08010B40 		.word	1074462984
 268 00e4 05000080 		.word	-2147483643
 269              		.cfi_endproc
 270              	.LFE0:
 271              		.size	CySysFlashWriteRow, .-CySysFlashWriteRow
 272              		.text
 273              	.Letext0: