ARM GAS  C:\Users\kees\AppData\Local\Temp\ccxzCKRQ.s 			page 1


   1              		.cpu cortex-m0
   2              		.fpu softvfp
   3              		.eabi_attribute 20, 1
   4              		.eabi_attribute 21, 1
   5              		.eabi_attribute 23, 3
   6              		.eabi_attribute 24, 1
   7              		.eabi_attribute 25, 1
   8              		.eabi_attribute 26, 1
   9              		.eabi_attribute 30, 4
  10              		.eabi_attribute 18, 4
  11              		.code	16
  12              		.file	"CyLib.c"
  19 0000 B4040000 		.text
  19      02005E00 
  19      00000201 
  19      FB0E0D00 
  19      01010101 
  20              	.Ltext0:
  21              		.cfi_sections	.debug_frame
  22              		.section	.text.CySysClkImoStart,"ax",%progbits
  23              		.align	1
  24              		.global	CySysClkImoStart
  25              		.code	16
  26              		.thumb_func
  27              		.type	CySysClkImoStart, %function
  28              	CySysClkImoStart:
  29              	.LFB0:
  30              		.file 1 ".\\Generated_Source\\PSoC4\\CyLib.c"
   1:.\Generated_Source\PSoC4/CyLib.c **** /*******************************************************************************
   2:.\Generated_Source\PSoC4/CyLib.c **** * File Name: CyLib.c
   3:.\Generated_Source\PSoC4/CyLib.c **** * Version 3.40
   4:.\Generated_Source\PSoC4/CyLib.c **** *
   5:.\Generated_Source\PSoC4/CyLib.c **** *  Description:
   6:.\Generated_Source\PSoC4/CyLib.c **** *   Provides system API for the clocking, interrupts and watchdog timer.
   7:.\Generated_Source\PSoC4/CyLib.c **** *
   8:.\Generated_Source\PSoC4/CyLib.c **** *  Note:
   9:.\Generated_Source\PSoC4/CyLib.c **** *   Documentation of the API's in this file is located in the
  10:.\Generated_Source\PSoC4/CyLib.c **** *   System Reference Guide provided with PSoC Creator.
  11:.\Generated_Source\PSoC4/CyLib.c **** *
  12:.\Generated_Source\PSoC4/CyLib.c **** ********************************************************************************
  13:.\Generated_Source\PSoC4/CyLib.c **** * Copyright 2010-2013, Cypress Semiconductor Corporation.  All rights reserved.
  14:.\Generated_Source\PSoC4/CyLib.c **** * You may use this file only in accordance with the license, terms, conditions,
  15:.\Generated_Source\PSoC4/CyLib.c **** * disclaimers, and limitations in the end user license agreement accompanying
  16:.\Generated_Source\PSoC4/CyLib.c **** * the software package with which this file was provided.
  17:.\Generated_Source\PSoC4/CyLib.c **** *******************************************************************************/
  18:.\Generated_Source\PSoC4/CyLib.c **** 
  19:.\Generated_Source\PSoC4/CyLib.c **** #include "CyLib.h"
  20:.\Generated_Source\PSoC4/CyLib.c **** 
  21:.\Generated_Source\PSoC4/CyLib.c **** 
  22:.\Generated_Source\PSoC4/CyLib.c **** /* Do not use these definitions directly in your application */
  23:.\Generated_Source\PSoC4/CyLib.c **** uint32 cydelayFreqHz  = CYDEV_BCLK__SYSCLK__HZ;
ARM GAS  C:\Users\kees\AppData\Local\Temp\ccxzCKRQ.s 			page 2


  24:.\Generated_Source\PSoC4/CyLib.c **** uint32 cydelayFreqKhz = (CYDEV_BCLK__SYSCLK__HZ + CY_DELAY_1K_MINUS_1_THRESHOLD) / CY_DELAY_1K_THRE
  25:.\Generated_Source\PSoC4/CyLib.c **** uint8  cydelayFreqMhz = (uint8)((CYDEV_BCLK__SYSCLK__HZ + CY_DELAY_1M_MINUS_1_THRESHOLD) / CY_DELAY
  26:.\Generated_Source\PSoC4/CyLib.c **** uint32 cydelay32kMs   = CY_DELAY_MS_OVERFLOW * ((CYDEV_BCLK__SYSCLK__HZ + CY_DELAY_1K_MINUS_1_THRES
  27:.\Generated_Source\PSoC4/CyLib.c ****                         CY_DELAY_1K_THRESHOLD);
  28:.\Generated_Source\PSoC4/CyLib.c **** 
  29:.\Generated_Source\PSoC4/CyLib.c **** 
  30:.\Generated_Source\PSoC4/CyLib.c **** /*******************************************************************************
  31:.\Generated_Source\PSoC4/CyLib.c **** * Function Name: CySysClkImoStart
  32:.\Generated_Source\PSoC4/CyLib.c **** ********************************************************************************
  33:.\Generated_Source\PSoC4/CyLib.c **** *
  34:.\Generated_Source\PSoC4/CyLib.c **** * Summary:
  35:.\Generated_Source\PSoC4/CyLib.c **** *  Enables the IMO.
  36:.\Generated_Source\PSoC4/CyLib.c **** *
  37:.\Generated_Source\PSoC4/CyLib.c **** * Parameters:
  38:.\Generated_Source\PSoC4/CyLib.c **** *  None
  39:.\Generated_Source\PSoC4/CyLib.c **** *
  40:.\Generated_Source\PSoC4/CyLib.c **** * Return:
  41:.\Generated_Source\PSoC4/CyLib.c **** *  None
  42:.\Generated_Source\PSoC4/CyLib.c **** *
  43:.\Generated_Source\PSoC4/CyLib.c **** *******************************************************************************/
  44:.\Generated_Source\PSoC4/CyLib.c **** void CySysClkImoStart(void)
  45:.\Generated_Source\PSoC4/CyLib.c **** {
  31              		.loc 1 45 0
  32              		.cfi_startproc
  46:.\Generated_Source\PSoC4/CyLib.c ****     CY_SYS_CLK_IMO_CONFIG_REG |= CY_SYS_CLK_IMO_CONFIG_ENABLE;
  33              		.loc 1 46 0
  34 0000 034A     		ldr	r2, .L3
  35 0002 8023     		mov	r3, #128
  36 0004 1168     		ldr	r1, [r2]
  37 0006 1B06     		lsl	r3, r3, #24
  38 0008 0B43     		orr	r3, r3, r1
  39 000a 1360     		str	r3, [r2]
  47:.\Generated_Source\PSoC4/CyLib.c **** }
  40              		.loc 1 47 0
  41              		@ sp needed for prologue
  42 000c 7047     		bx	lr
  43              	.L4:
  44 000e C046     		.align	2
  45              	.L3:
  46 0010 08010B40 		.word	1074462984
  47              		.cfi_endproc
  48              	.LFE0:
  49              		.size	CySysClkImoStart, .-CySysClkImoStart
  50              		.section	.text.CySysClkImoStop,"ax",%progbits
  51              		.align	1
  52              		.global	CySysClkImoStop
  53              		.code	16
  54              		.thumb_func
  55              		.type	CySysClkImoStop, %function
  56              	CySysClkImoStop:
  57              	.LFB1:
  48:.\Generated_Source\PSoC4/CyLib.c **** 
  49:.\Generated_Source\PSoC4/CyLib.c **** 
  50:.\Generated_Source\PSoC4/CyLib.c **** /*******************************************************************************
  51:.\Generated_Source\PSoC4/CyLib.c **** * Function Name: CySysClkImoStop
  52:.\Generated_Source\PSoC4/CyLib.c **** ********************************************************************************
  53:.\Generated_Source\PSoC4/CyLib.c **** *
ARM GAS  C:\Users\kees\AppData\Local\Temp\ccxzCKRQ.s 			page 3


  54:.\Generated_Source\PSoC4/CyLib.c **** * Summary:
  55:.\Generated_Source\PSoC4/CyLib.c **** *  Disables the IMO.
  56:.\Generated_Source\PSoC4/CyLib.c **** *
  57:.\Generated_Source\PSoC4/CyLib.c **** * Parameters:
  58:.\Generated_Source\PSoC4/CyLib.c **** *  None
  59:.\Generated_Source\PSoC4/CyLib.c **** *
  60:.\Generated_Source\PSoC4/CyLib.c **** * Return:
  61:.\Generated_Source\PSoC4/CyLib.c **** *  None
  62:.\Generated_Source\PSoC4/CyLib.c **** *
  63:.\Generated_Source\PSoC4/CyLib.c **** *******************************************************************************/
  64:.\Generated_Source\PSoC4/CyLib.c **** void CySysClkImoStop(void)
  65:.\Generated_Source\PSoC4/CyLib.c **** {
  58              		.loc 1 65 0
  59              		.cfi_startproc
  66:.\Generated_Source\PSoC4/CyLib.c ****     CY_SYS_CLK_IMO_CONFIG_REG &= ( uint32 ) ( ~( uint32 )CY_SYS_CLK_IMO_CONFIG_ENABLE);
  60              		.loc 1 66 0
  61 0000 024B     		ldr	r3, .L7
  62 0002 034A     		ldr	r2, .L7+4
  63 0004 1968     		ldr	r1, [r3]
  67:.\Generated_Source\PSoC4/CyLib.c **** }
  64              		.loc 1 67 0
  65              		@ sp needed for prologue
  66              		.loc 1 66 0
  67 0006 0A40     		and	r2, r2, r1
  68 0008 1A60     		str	r2, [r3]
  69              		.loc 1 67 0
  70 000a 7047     		bx	lr
  71              	.L8:
  72              		.align	2
  73              	.L7:
  74 000c 08010B40 		.word	1074462984
  75 0010 FFFFFF7F 		.word	2147483647
  76              		.cfi_endproc
  77              	.LFE1:
  78              		.size	CySysClkImoStop, .-CySysClkImoStop
  79              		.section	.text.CySysClkIloStart,"ax",%progbits
  80              		.align	1
  81              		.global	CySysClkIloStart
  82              		.code	16
  83              		.thumb_func
  84              		.type	CySysClkIloStart, %function
  85              	CySysClkIloStart:
  86              	.LFB2:
  68:.\Generated_Source\PSoC4/CyLib.c **** 
  69:.\Generated_Source\PSoC4/CyLib.c **** 
  70:.\Generated_Source\PSoC4/CyLib.c **** /*******************************************************************************
  71:.\Generated_Source\PSoC4/CyLib.c **** * Function Name: CySysClkIloStart
  72:.\Generated_Source\PSoC4/CyLib.c **** ********************************************************************************
  73:.\Generated_Source\PSoC4/CyLib.c **** *
  74:.\Generated_Source\PSoC4/CyLib.c **** * Summary:
  75:.\Generated_Source\PSoC4/CyLib.c **** *  Enables the ILO.
  76:.\Generated_Source\PSoC4/CyLib.c **** *
  77:.\Generated_Source\PSoC4/CyLib.c **** * Parameters:
  78:.\Generated_Source\PSoC4/CyLib.c **** *  None
  79:.\Generated_Source\PSoC4/CyLib.c **** *
  80:.\Generated_Source\PSoC4/CyLib.c **** * Return:
  81:.\Generated_Source\PSoC4/CyLib.c **** *  None
ARM GAS  C:\Users\kees\AppData\Local\Temp\ccxzCKRQ.s 			page 4


  82:.\Generated_Source\PSoC4/CyLib.c **** *
  83:.\Generated_Source\PSoC4/CyLib.c **** *******************************************************************************/
  84:.\Generated_Source\PSoC4/CyLib.c **** void CySysClkIloStart(void)
  85:.\Generated_Source\PSoC4/CyLib.c **** {
  87              		.loc 1 85 0
  88              		.cfi_startproc
  86:.\Generated_Source\PSoC4/CyLib.c ****     CY_SYS_CLK_ILO_CONFIG_REG |= CY_SYS_CLK_ILO_CONFIG_ENABLE;
  89              		.loc 1 86 0
  90 0000 034A     		ldr	r2, .L11
  91 0002 8023     		mov	r3, #128
  92 0004 1168     		ldr	r1, [r2]
  93 0006 1B06     		lsl	r3, r3, #24
  94 0008 0B43     		orr	r3, r3, r1
  95 000a 1360     		str	r3, [r2]
  87:.\Generated_Source\PSoC4/CyLib.c **** }
  96              		.loc 1 87 0
  97              		@ sp needed for prologue
  98 000c 7047     		bx	lr
  99              	.L12:
 100 000e C046     		.align	2
 101              	.L11:
 102 0010 04010B40 		.word	1074462980
 103              		.cfi_endproc
 104              	.LFE2:
 105              		.size	CySysClkIloStart, .-CySysClkIloStart
 106              		.section	.text.CySysClkIloStop,"ax",%progbits
 107              		.align	1
 108              		.global	CySysClkIloStop
 109              		.code	16
 110              		.thumb_func
 111              		.type	CySysClkIloStop, %function
 112              	CySysClkIloStop:
 113              	.LFB3:
  88:.\Generated_Source\PSoC4/CyLib.c **** 
  89:.\Generated_Source\PSoC4/CyLib.c **** 
  90:.\Generated_Source\PSoC4/CyLib.c **** /*******************************************************************************
  91:.\Generated_Source\PSoC4/CyLib.c **** * Function Name: CySysClkIloStop
  92:.\Generated_Source\PSoC4/CyLib.c **** ********************************************************************************
  93:.\Generated_Source\PSoC4/CyLib.c **** *
  94:.\Generated_Source\PSoC4/CyLib.c **** * Summary:
  95:.\Generated_Source\PSoC4/CyLib.c **** *  Disables the ILO.
  96:.\Generated_Source\PSoC4/CyLib.c **** *
  97:.\Generated_Source\PSoC4/CyLib.c **** * Parameters:
  98:.\Generated_Source\PSoC4/CyLib.c **** *  None
  99:.\Generated_Source\PSoC4/CyLib.c **** *
 100:.\Generated_Source\PSoC4/CyLib.c **** * Return:
 101:.\Generated_Source\PSoC4/CyLib.c **** *  None
 102:.\Generated_Source\PSoC4/CyLib.c **** *
 103:.\Generated_Source\PSoC4/CyLib.c **** * Side Effects:
 104:.\Generated_Source\PSoC4/CyLib.c **** *  This function will have no effect if WDT is locked (CySysWdtLock() is
 105:.\Generated_Source\PSoC4/CyLib.c **** *  called). Call CySysWdtUnlock() to unlock WDT and be able to stop ILO.
 106:.\Generated_Source\PSoC4/CyLib.c **** *  Note that ILO is required for WDT's operation.
 107:.\Generated_Source\PSoC4/CyLib.c **** *
 108:.\Generated_Source\PSoC4/CyLib.c **** *******************************************************************************/
 109:.\Generated_Source\PSoC4/CyLib.c **** void CySysClkIloStop(void)
 110:.\Generated_Source\PSoC4/CyLib.c **** {
 114              		.loc 1 110 0
ARM GAS  C:\Users\kees\AppData\Local\Temp\ccxzCKRQ.s 			page 5


 115              		.cfi_startproc
 111:.\Generated_Source\PSoC4/CyLib.c ****     CY_SYS_CLK_ILO_CONFIG_REG &= ( uint32 ) ( ~( uint32 )CY_SYS_CLK_ILO_CONFIG_ENABLE);
 116              		.loc 1 111 0
 117 0000 024B     		ldr	r3, .L15
 118 0002 034A     		ldr	r2, .L15+4
 119 0004 1968     		ldr	r1, [r3]
 112:.\Generated_Source\PSoC4/CyLib.c **** }
 120              		.loc 1 112 0
 121              		@ sp needed for prologue
 122              		.loc 1 111 0
 123 0006 0A40     		and	r2, r2, r1
 124 0008 1A60     		str	r2, [r3]
 125              		.loc 1 112 0
 126 000a 7047     		bx	lr
 127              	.L16:
 128              		.align	2
 129              	.L15:
 130 000c 04010B40 		.word	1074462980
 131 0010 FFFFFF7F 		.word	2147483647
 132              		.cfi_endproc
 133              	.LFE3:
 134              		.size	CySysClkIloStop, .-CySysClkIloStop
 135              		.section	.text.CySysClkWriteHfclkDirect,"ax",%progbits
 136              		.align	1
 137              		.global	CySysClkWriteHfclkDirect
 138              		.code	16
 139              		.thumb_func
 140              		.type	CySysClkWriteHfclkDirect, %function
 141              	CySysClkWriteHfclkDirect:
 142              	.LFB4:
 113:.\Generated_Source\PSoC4/CyLib.c **** 
 114:.\Generated_Source\PSoC4/CyLib.c **** 
 115:.\Generated_Source\PSoC4/CyLib.c **** /*******************************************************************************
 116:.\Generated_Source\PSoC4/CyLib.c **** * Function Name: CySysClkWriteHfclkDirect
 117:.\Generated_Source\PSoC4/CyLib.c **** ********************************************************************************
 118:.\Generated_Source\PSoC4/CyLib.c **** *
 119:.\Generated_Source\PSoC4/CyLib.c **** * Summary:
 120:.\Generated_Source\PSoC4/CyLib.c **** *  Selects the direct source for the HFCLK.
 121:.\Generated_Source\PSoC4/CyLib.c **** *
 122:.\Generated_Source\PSoC4/CyLib.c **** * Parameters:
 123:.\Generated_Source\PSoC4/CyLib.c **** *  clkSelect: One of the available HFCLK direct sources:
 124:.\Generated_Source\PSoC4/CyLib.c **** *   Value        Define                    Source
 125:.\Generated_Source\PSoC4/CyLib.c **** *    0            CY_SYS_CLK_HFCLK_IMO      IMO
 126:.\Generated_Source\PSoC4/CyLib.c **** *    1            CY_SYS_CLK_HFCLK_EXTCLK   External clock pin
 127:.\Generated_Source\PSoC4/CyLib.c **** *
 128:.\Generated_Source\PSoC4/CyLib.c **** * Return:
 129:.\Generated_Source\PSoC4/CyLib.c **** *  None
 130:.\Generated_Source\PSoC4/CyLib.c **** *
 131:.\Generated_Source\PSoC4/CyLib.c **** * Side Effects:
 132:.\Generated_Source\PSoC4/CyLib.c **** *  The new source must be running and stable before calling this function.
 133:.\Generated_Source\PSoC4/CyLib.c **** *  Direct source is default option for HFCLK.
 134:.\Generated_Source\PSoC4/CyLib.c **** *
 135:.\Generated_Source\PSoC4/CyLib.c **** *  If the SYSCLK clock frequency increases during device operation, call
 136:.\Generated_Source\PSoC4/CyLib.c **** *  CySysFlashSetWaitCycles() with the appropriate parameter to adjust the number
 137:.\Generated_Source\PSoC4/CyLib.c **** *  of clock cycles cache will wait before sampling data coming back from Flash.
 138:.\Generated_Source\PSoC4/CyLib.c **** *  If the SYSCLK clock frequency decreases, you can call CyFlash_SetWaitCycles()
 139:.\Generated_Source\PSoC4/CyLib.c **** *  to improve CPU performance. See CySysFlashSetWaitCycles() for more
ARM GAS  C:\Users\kees\AppData\Local\Temp\ccxzCKRQ.s 			page 6


 140:.\Generated_Source\PSoC4/CyLib.c **** *  information.
 141:.\Generated_Source\PSoC4/CyLib.c **** *
 142:.\Generated_Source\PSoC4/CyLib.c **** *******************************************************************************/
 143:.\Generated_Source\PSoC4/CyLib.c **** void CySysClkWriteHfclkDirect(uint32 clkSelect)
 144:.\Generated_Source\PSoC4/CyLib.c **** {
 143              		.loc 1 144 0
 144              		.cfi_startproc
 145              	.LVL0:
 145:.\Generated_Source\PSoC4/CyLib.c ****     CY_SYS_CLK_SELECT_REG = ((CY_SYS_CLK_SELECT_REG & (( uint32 ) ~(( uint32 )CY_SYS_CLK_SELECT_DIR
 146              		.loc 1 145 0
 147 0000 044B     		ldr	r3, .L19
 148 0002 0121     		mov	r1, #1
 149 0004 1A68     		ldr	r2, [r3]
 150 0006 0840     		and	r0, r0, r1
 151              	.LVL1:
 152 0008 0721     		mov	r1, #7
 153 000a 8A43     		bic	r2, r2, r1
 154 000c 1043     		orr	r0, r0, r2
 155 000e 1860     		str	r0, [r3]
 146:.\Generated_Source\PSoC4/CyLib.c ****                         (( uint32 ) ( ( uint32 )clkSelect & ( uint32 )CY_SYS_CLK_SELECT_DIRECT_SEL_
 147:.\Generated_Source\PSoC4/CyLib.c **** }
 156              		.loc 1 147 0
 157              		@ sp needed for prologue
 158 0010 7047     		bx	lr
 159              	.L20:
 160 0012 C046     		.align	2
 161              	.L19:
 162 0014 00010B40 		.word	1074462976
 163              		.cfi_endproc
 164              	.LFE4:
 165              		.size	CySysClkWriteHfclkDirect, .-CySysClkWriteHfclkDirect
 166              		.section	.text.CySysClkWriteSysclkDiv,"ax",%progbits
 167              		.align	1
 168              		.global	CySysClkWriteSysclkDiv
 169              		.code	16
 170              		.thumb_func
 171              		.type	CySysClkWriteSysclkDiv, %function
 172              	CySysClkWriteSysclkDiv:
 173              	.LFB5:
 148:.\Generated_Source\PSoC4/CyLib.c **** 
 149:.\Generated_Source\PSoC4/CyLib.c **** 
 150:.\Generated_Source\PSoC4/CyLib.c **** /*******************************************************************************
 151:.\Generated_Source\PSoC4/CyLib.c **** * Function Name: CySysClkWriteSysclkDiv
 152:.\Generated_Source\PSoC4/CyLib.c **** ********************************************************************************
 153:.\Generated_Source\PSoC4/CyLib.c **** *
 154:.\Generated_Source\PSoC4/CyLib.c **** * Summary:
 155:.\Generated_Source\PSoC4/CyLib.c **** *  Selects SYSCLK from HFCLK pre-scaler value.
 156:.\Generated_Source\PSoC4/CyLib.c **** *
 157:.\Generated_Source\PSoC4/CyLib.c **** * Parameters:
 158:.\Generated_Source\PSoC4/CyLib.c **** *  divider: Power of 2 prescaler selection
 159:.\Generated_Source\PSoC4/CyLib.c **** *
 160:.\Generated_Source\PSoC4/CyLib.c **** *   Value    Define                        Description
 161:.\Generated_Source\PSoC4/CyLib.c **** *   0        CY_SYS_CLK_SYSCLK_DIV1        SYSCLK = HFCLK / 1
 162:.\Generated_Source\PSoC4/CyLib.c **** *   1        CY_SYS_CLK_SYSCLK_DIV2        SYSCLK = HFCLK / 2
 163:.\Generated_Source\PSoC4/CyLib.c **** *   2        CY_SYS_CLK_SYSCLK_DIV4        SYSCLK = HFCLK / 4
 164:.\Generated_Source\PSoC4/CyLib.c **** *   3        CY_SYS_CLK_SYSCLK_DIV8        SYSCLK = HFCLK / 8
 165:.\Generated_Source\PSoC4/CyLib.c **** *   4        CY_SYS_CLK_SYSCLK_DIV16       SYSCLK = HFCLK / 16
ARM GAS  C:\Users\kees\AppData\Local\Temp\ccxzCKRQ.s 			page 7


 166:.\Generated_Source\PSoC4/CyLib.c **** *   5        CY_SYS_CLK_SYSCLK_DIV32       SYSCLK = HFCLK / 32
 167:.\Generated_Source\PSoC4/CyLib.c **** *   6        CY_SYS_CLK_SYSCLK_DIV64       SYSCLK = HFCLK / 64
 168:.\Generated_Source\PSoC4/CyLib.c **** *   7        CY_SYS_CLK_SYSCLK_DIV128      SYSCLK = HFCLK / 128
 169:.\Generated_Source\PSoC4/CyLib.c **** *
 170:.\Generated_Source\PSoC4/CyLib.c **** * Return:
 171:.\Generated_Source\PSoC4/CyLib.c **** *  None
 172:.\Generated_Source\PSoC4/CyLib.c **** *
 173:.\Generated_Source\PSoC4/CyLib.c **** * Side Effects:
 174:.\Generated_Source\PSoC4/CyLib.c **** *  If the SYSCLK clock frequency increases during device operation, call
 175:.\Generated_Source\PSoC4/CyLib.c **** *  CySysFlashSetWaitCycles() with the appropriate parameter to adjust the number
 176:.\Generated_Source\PSoC4/CyLib.c **** *  of clock cycles cache will wait before sampling data coming back from Flash.
 177:.\Generated_Source\PSoC4/CyLib.c **** *  If the SYSCLK clock frequency decreases, you can call CyFlash_SetWaitCycles()
 178:.\Generated_Source\PSoC4/CyLib.c **** *  to improve CPU performance. See CySysFlashSetWaitCycles() for more
 179:.\Generated_Source\PSoC4/CyLib.c **** *  information.
 180:.\Generated_Source\PSoC4/CyLib.c **** *
 181:.\Generated_Source\PSoC4/CyLib.c **** *******************************************************************************/
 182:.\Generated_Source\PSoC4/CyLib.c **** void CySysClkWriteSysclkDiv(uint32 divider)
 183:.\Generated_Source\PSoC4/CyLib.c **** {
 174              		.loc 1 183 0
 175              		.cfi_startproc
 176 0000 10B5     		push	{r4, lr}
 177              	.LCFI0:
 178              		.cfi_def_cfa_offset 8
 179              		.cfi_offset 4, -8
 180              		.cfi_offset 14, -4
 181              	.LVL2:
 184:.\Generated_Source\PSoC4/CyLib.c ****     CY_SYS_CLK_SELECT_REG = ((uint32)(((uint32)divider & CY_SYS_CLK_SELECT_SYSCLK_DIV_MASK) <<
 185:.\Generated_Source\PSoC4/CyLib.c ****                                     CY_SYS_CLK_SELECT_SYSCLK_DIV_SHIFT)) |
 186:.\Generated_Source\PSoC4/CyLib.c ****                             (CY_SYS_CLK_SELECT_REG & ((uint32)(~(uint32)(CY_SYS_CLK_SELECT_SYSCLK_D
 182              		.loc 1 186 0
 183 0002 054B     		ldr	r3, .L23
 184              		.loc 1 184 0
 185 0004 0722     		mov	r2, #7
 186              		.loc 1 186 0
 187 0006 1C68     		ldr	r4, [r3]
 188              		.loc 1 184 0
 189 0008 1040     		and	r0, r0, r2
 190              	.LVL3:
 191 000a 0449     		ldr	r1, .L23+4
 192 000c C204     		lsl	r2, r0, #19
 193 000e 201C     		mov	r0, r4
 194 0010 0840     		and	r0, r0, r1
 195 0012 1043     		orr	r0, r0, r2
 196 0014 1860     		str	r0, [r3]
 187:.\Generated_Source\PSoC4/CyLib.c ****                                     CY_SYS_CLK_SELECT_SYSCLK_DIV_SHIFT))));
 188:.\Generated_Source\PSoC4/CyLib.c **** }
 197              		.loc 1 188 0
 198              		@ sp needed for prologue
 199 0016 10BD     		pop	{r4, pc}
 200              	.L24:
 201              		.align	2
 202              	.L23:
 203 0018 00010B40 		.word	1074462976
 204 001c FFFFC7FF 		.word	-3670017
 205              		.cfi_endproc
 206              	.LFE5:
 207              		.size	CySysClkWriteSysclkDiv, .-CySysClkWriteSysclkDiv
ARM GAS  C:\Users\kees\AppData\Local\Temp\ccxzCKRQ.s 			page 8


 208              		.section	.text.CySysWdtReadMode,"ax",%progbits
 209              		.align	1
 210              		.global	CySysWdtReadMode
 211              		.code	16
 212              		.thumb_func
 213              		.type	CySysWdtReadMode, %function
 214              	CySysWdtReadMode:
 215              	.LFB11:
 189:.\Generated_Source\PSoC4/CyLib.c **** 
 190:.\Generated_Source\PSoC4/CyLib.c **** 
 191:.\Generated_Source\PSoC4/CyLib.c **** /*******************************************************************************
 192:.\Generated_Source\PSoC4/CyLib.c **** * Function Name: CySysClkWriteImoFreq
 193:.\Generated_Source\PSoC4/CyLib.c **** ********************************************************************************
 194:.\Generated_Source\PSoC4/CyLib.c **** *
 195:.\Generated_Source\PSoC4/CyLib.c **** * Summary:
 196:.\Generated_Source\PSoC4/CyLib.c **** *  Sets the frequency of the IMO.
 197:.\Generated_Source\PSoC4/CyLib.c **** *
 198:.\Generated_Source\PSoC4/CyLib.c **** * Parameters:
 199:.\Generated_Source\PSoC4/CyLib.c **** *  freq: Valid range [3-48].  Frequency for operation of the IMO.
 200:.\Generated_Source\PSoC4/CyLib.c **** *  Note: Invalid frequency will be ignored.
 201:.\Generated_Source\PSoC4/CyLib.c **** *
 202:.\Generated_Source\PSoC4/CyLib.c **** * Return:
 203:.\Generated_Source\PSoC4/CyLib.c **** *  None
 204:.\Generated_Source\PSoC4/CyLib.c **** *
 205:.\Generated_Source\PSoC4/CyLib.c **** * Side Effects:
 206:.\Generated_Source\PSoC4/CyLib.c **** *  If the SYSCLK clock frequency increases during device operation, call
 207:.\Generated_Source\PSoC4/CyLib.c **** *  CySysFlashSetWaitCycles() with the appropriate parameter to adjust the number
 208:.\Generated_Source\PSoC4/CyLib.c **** *  of clock cycles cache will wait before sampling data coming back from Flash.
 209:.\Generated_Source\PSoC4/CyLib.c **** *  If the SYSCLK clock frequency decreases, you can call CyFlash_SetWaitCycles()
 210:.\Generated_Source\PSoC4/CyLib.c **** *  to improve CPU performance. See CySysFlashSetWaitCycles() for more
 211:.\Generated_Source\PSoC4/CyLib.c **** *  information.
 212:.\Generated_Source\PSoC4/CyLib.c **** *
 213:.\Generated_Source\PSoC4/CyLib.c **** *******************************************************************************/
 214:.\Generated_Source\PSoC4/CyLib.c **** void CySysClkWriteImoFreq(uint32 freq)
 215:.\Generated_Source\PSoC4/CyLib.c **** {
 216:.\Generated_Source\PSoC4/CyLib.c ****     uint8  bgTrim4;
 217:.\Generated_Source\PSoC4/CyLib.c ****     uint8  bgTrim5;
 218:.\Generated_Source\PSoC4/CyLib.c ****     uint32 currentFreq = CY_SYS_CLK_IMO_MAX_FREQ_MHZ;
 219:.\Generated_Source\PSoC4/CyLib.c ****     uint8  interruptState;
 220:.\Generated_Source\PSoC4/CyLib.c ****     uint32 i;
 221:.\Generated_Source\PSoC4/CyLib.c **** 
 222:.\Generated_Source\PSoC4/CyLib.c ****     /* Convertion between CySysClkWriteImoFreq() parameter and register's value */
 223:.\Generated_Source\PSoC4/CyLib.c ****     static const uint8 cyImoFreqMhz2Reg[CY_SYS_CLK_IMO_FREQ_TABLE_SIZE] = {
 224:.\Generated_Source\PSoC4/CyLib.c ****         /*  3 MHz */ 0x03u,  /*  4 MHz */ 0x04u,  /*  5 MHz */ 0x05u,  /*  6 MHz */ 0x06u,
 225:.\Generated_Source\PSoC4/CyLib.c ****         /*  7 MHz */ 0x07u,  /*  8 MHz */ 0x08u,  /*  9 MHz */ 0x09u,  /* 10 MHz */ 0x0Au,
 226:.\Generated_Source\PSoC4/CyLib.c ****         /* 11 MHz */ 0x0Bu,  /* 12 MHz */ 0x0Cu,  /* 13 MHz */ 0x0Eu,  /* 14 MHz */ 0x0Fu,
 227:.\Generated_Source\PSoC4/CyLib.c ****         /* 15 MHz */ 0x10u,  /* 16 MHz */ 0x11u,  /* 17 MHz */ 0x12u,  /* 18 MHz */ 0x13u,
 228:.\Generated_Source\PSoC4/CyLib.c ****         /* 19 MHz */ 0x14u,  /* 20 MHz */ 0x15u,  /* 21 MHz */ 0x16u,  /* 22 MHz */ 0x17u,
 229:.\Generated_Source\PSoC4/CyLib.c ****         /* 23 MHz */ 0x18u,  /* 24 MHz */ 0x19u,  /* 25 MHz */ 0x1Bu,  /* 26 MHz */ 0x1Cu,
 230:.\Generated_Source\PSoC4/CyLib.c ****         /* 27 MHz */ 0x1Du,  /* 28 MHz */ 0x1Eu,  /* 29 MHz */ 0x1Fu,  /* 30 MHz */ 0x20u,
 231:.\Generated_Source\PSoC4/CyLib.c ****         /* 31 MHz */ 0x21u,  /* 32 MHz */ 0x22u,  /* 33 MHz */ 0x23u,  /* 34 MHz */ 0x25u,
 232:.\Generated_Source\PSoC4/CyLib.c ****         /* 35 MHz */ 0x26u,  /* 36 MHz */ 0x27u,  /* 37 MHz */ 0x28u,  /* 38 MHz */ 0x29u,
 233:.\Generated_Source\PSoC4/CyLib.c ****         /* 39 MHz */ 0x2Au,  /* 40 MHz */ 0x2Bu,  /* 41 MHz */ 0x2Eu,  /* 42 MHz */ 0x2Fu,
 234:.\Generated_Source\PSoC4/CyLib.c ****         /* 43 MHz */ 0x30u,  /* 44 MHz */ 0x31u,  /* 45 MHz */ 0x32u,  /* 46 MHz */ 0x33u,
 235:.\Generated_Source\PSoC4/CyLib.c ****         /* 47 MHz */ 0x34u,  /* 48 MHz */ 0x35u };
 236:.\Generated_Source\PSoC4/CyLib.c **** 
 237:.\Generated_Source\PSoC4/CyLib.c **** 
ARM GAS  C:\Users\kees\AppData\Local\Temp\ccxzCKRQ.s 			page 9


 238:.\Generated_Source\PSoC4/CyLib.c ****     if ((freq >= CY_SYS_CLK_IMO_MIN_FREQ_MHZ) && (freq <= CY_SYS_CLK_IMO_MAX_FREQ_MHZ))
 239:.\Generated_Source\PSoC4/CyLib.c ****     {
 240:.\Generated_Source\PSoC4/CyLib.c ****         interruptState = CyEnterCriticalSection();
 241:.\Generated_Source\PSoC4/CyLib.c **** 
 242:.\Generated_Source\PSoC4/CyLib.c ****         /* Get current IMO frequency */
 243:.\Generated_Source\PSoC4/CyLib.c ****         for (i = 0u; i < CY_SYS_CLK_IMO_FREQ_TABLE_SIZE; i++)
 244:.\Generated_Source\PSoC4/CyLib.c ****         {
 245:.\Generated_Source\PSoC4/CyLib.c ****             if (cyImoFreqMhz2Reg[i] == (CY_SYS_CLK_IMO_TRIM2_REG & CY_SYS_CLK_IMO_FREQ_BITS_MASK))
 246:.\Generated_Source\PSoC4/CyLib.c ****             {
 247:.\Generated_Source\PSoC4/CyLib.c ****                 currentFreq = i + CY_SYS_CLK_IMO_FREQ_TABLE_OFFSET;
 248:.\Generated_Source\PSoC4/CyLib.c ****                 break;
 249:.\Generated_Source\PSoC4/CyLib.c ****             }
 250:.\Generated_Source\PSoC4/CyLib.c ****         }
 251:.\Generated_Source\PSoC4/CyLib.c **** 
 252:.\Generated_Source\PSoC4/CyLib.c ****         if(freq <= CY_SFLASH_IMO_MAXF0_REG)
 253:.\Generated_Source\PSoC4/CyLib.c ****         {
 254:.\Generated_Source\PSoC4/CyLib.c ****             bgTrim4 = CY_SFLASH_IMO_ABS0_REG;
 255:.\Generated_Source\PSoC4/CyLib.c ****             bgTrim5 = CY_SFLASH_IMO_TMPCO0_REG;
 256:.\Generated_Source\PSoC4/CyLib.c ****         }
 257:.\Generated_Source\PSoC4/CyLib.c ****         else if(freq <= CY_SFLASH_IMO_MAXF1_REG)
 258:.\Generated_Source\PSoC4/CyLib.c ****         {
 259:.\Generated_Source\PSoC4/CyLib.c ****             bgTrim4 = CY_SFLASH_IMO_ABS1_REG;
 260:.\Generated_Source\PSoC4/CyLib.c ****             bgTrim5 = CY_SFLASH_IMO_TMPCO1_REG;
 261:.\Generated_Source\PSoC4/CyLib.c ****         }
 262:.\Generated_Source\PSoC4/CyLib.c ****         else if(freq <= CY_SFLASH_IMO_MAXF2_REG)
 263:.\Generated_Source\PSoC4/CyLib.c ****         {
 264:.\Generated_Source\PSoC4/CyLib.c ****             bgTrim4 = CY_SFLASH_IMO_ABS2_REG;
 265:.\Generated_Source\PSoC4/CyLib.c ****             bgTrim5 = CY_SFLASH_IMO_TMPCO2_REG;
 266:.\Generated_Source\PSoC4/CyLib.c ****         }
 267:.\Generated_Source\PSoC4/CyLib.c ****         else if(freq <= CY_SFLASH_IMO_MAXF3_REG)
 268:.\Generated_Source\PSoC4/CyLib.c ****         {
 269:.\Generated_Source\PSoC4/CyLib.c ****             bgTrim4 = CY_SFLASH_IMO_ABS3_REG;
 270:.\Generated_Source\PSoC4/CyLib.c ****             bgTrim5 = CY_SFLASH_IMO_TMPCO3_REG;
 271:.\Generated_Source\PSoC4/CyLib.c ****         }
 272:.\Generated_Source\PSoC4/CyLib.c ****         else
 273:.\Generated_Source\PSoC4/CyLib.c ****         {
 274:.\Generated_Source\PSoC4/CyLib.c ****             bgTrim4 = CY_SFLASH_IMO_ABS4_REG;
 275:.\Generated_Source\PSoC4/CyLib.c ****             bgTrim5 = CY_SFLASH_IMO_TMPCO4_REG;
 276:.\Generated_Source\PSoC4/CyLib.c ****         }
 277:.\Generated_Source\PSoC4/CyLib.c **** 
 278:.\Generated_Source\PSoC4/CyLib.c **** 
 279:.\Generated_Source\PSoC4/CyLib.c ****         /***************************************************************************
 280:.\Generated_Source\PSoC4/CyLib.c ****         * The IMO can have a different trim per frequency. To avoid possible corner
 281:.\Generated_Source\PSoC4/CyLib.c ****         * cases where a trim change can exceed the maximum frequency, the trim must
 282:.\Generated_Source\PSoC4/CyLib.c ****         * be applied at a frequency that is low enough.
 283:.\Generated_Source\PSoC4/CyLib.c ****         ***************************************************************************/
 284:.\Generated_Source\PSoC4/CyLib.c ****         if ((currentFreq >= CY_SYS_CLK_IMO_BOUNDARY_FREQ_MHZ) && (freq >= CY_SYS_CLK_IMO_BOUNDARY_F
 285:.\Generated_Source\PSoC4/CyLib.c ****         {
 286:.\Generated_Source\PSoC4/CyLib.c ****             /* Set boundary IMO frequency: safe for IMO above 48 MHZ trimming */
 287:.\Generated_Source\PSoC4/CyLib.c ****             CY_SYS_CLK_IMO_TRIM2_REG = (uint32) cyImoFreqMhz2Reg[CY_SYS_CLK_IMO_TEMP_FREQ_MHZ -
 288:.\Generated_Source\PSoC4/CyLib.c ****                                                                  CY_SYS_CLK_IMO_FREQ_TABLE_OFFSET];
 289:.\Generated_Source\PSoC4/CyLib.c **** 
 290:.\Generated_Source\PSoC4/CyLib.c ****             CyDelayCycles(CY_SYS_CLK_IMO_FREQ_TIMEOUT_CYCLES);
 291:.\Generated_Source\PSoC4/CyLib.c **** 
 292:.\Generated_Source\PSoC4/CyLib.c ****             currentFreq = CY_SYS_CLK_IMO_TEMP_FREQ_MHZ;
 293:.\Generated_Source\PSoC4/CyLib.c ****         }
 294:.\Generated_Source\PSoC4/CyLib.c **** 
ARM GAS  C:\Users\kees\AppData\Local\Temp\ccxzCKRQ.s 			page 10


 295:.\Generated_Source\PSoC4/CyLib.c **** 
 296:.\Generated_Source\PSoC4/CyLib.c ****         /***************************************************************************
 297:.\Generated_Source\PSoC4/CyLib.c ****         * Trim change need to allowed to settle (within 5us) before the Freq can be
 298:.\Generated_Source\PSoC4/CyLib.c ****         * changed to the new frequency.
 299:.\Generated_Source\PSoC4/CyLib.c ****         ***************************************************************************/
 300:.\Generated_Source\PSoC4/CyLib.c ****         if (freq > currentFreq)
 301:.\Generated_Source\PSoC4/CyLib.c ****         {
 302:.\Generated_Source\PSoC4/CyLib.c ****             /* Set trims for the new IMO frequency */
 303:.\Generated_Source\PSoC4/CyLib.c ****             CY_SYS_CLK_IMO_TRIM1_REG = (uint32) CY_SFLASH_IMO_TRIM_REG(freq - CY_SYS_CLK_IMO_FREQ_T
 304:.\Generated_Source\PSoC4/CyLib.c ****             CY_PWR_BG_TRIM4_REG  = bgTrim4;
 305:.\Generated_Source\PSoC4/CyLib.c ****             CY_PWR_BG_TRIM5_REG  = bgTrim5;
 306:.\Generated_Source\PSoC4/CyLib.c ****             CyDelayUs(CY_SYS_CLK_IMO_TRIM_TIMEOUT_US);
 307:.\Generated_Source\PSoC4/CyLib.c **** 
 308:.\Generated_Source\PSoC4/CyLib.c ****             /* Set new IMO frequency */
 309:.\Generated_Source\PSoC4/CyLib.c ****             CY_SYS_CLK_IMO_TRIM2_REG = cyImoFreqMhz2Reg[freq - CY_SYS_CLK_IMO_FREQ_TABLE_OFFSET];
 310:.\Generated_Source\PSoC4/CyLib.c ****             CyDelayCycles(CY_SYS_CLK_IMO_FREQ_TIMEOUT_CYCLES);
 311:.\Generated_Source\PSoC4/CyLib.c ****         }
 312:.\Generated_Source\PSoC4/CyLib.c ****         else
 313:.\Generated_Source\PSoC4/CyLib.c ****         {
 314:.\Generated_Source\PSoC4/CyLib.c ****             /* Set new IMO frequency */
 315:.\Generated_Source\PSoC4/CyLib.c ****             CY_SYS_CLK_IMO_TRIM2_REG = cyImoFreqMhz2Reg[freq - CY_SYS_CLK_IMO_FREQ_TABLE_OFFSET];
 316:.\Generated_Source\PSoC4/CyLib.c ****             CyDelayCycles(CY_SYS_CLK_IMO_FREQ_TIMEOUT_CYCLES);
 317:.\Generated_Source\PSoC4/CyLib.c **** 
 318:.\Generated_Source\PSoC4/CyLib.c ****             /* Set trims for the new IMO frequency */
 319:.\Generated_Source\PSoC4/CyLib.c ****             CY_SYS_CLK_IMO_TRIM1_REG = CY_SFLASH_IMO_TRIM_REG(freq - CY_SYS_CLK_IMO_FREQ_TABLE_OFFS
 320:.\Generated_Source\PSoC4/CyLib.c ****             CY_PWR_BG_TRIM4_REG  = bgTrim4;
 321:.\Generated_Source\PSoC4/CyLib.c ****             CY_PWR_BG_TRIM5_REG  = bgTrim5;
 322:.\Generated_Source\PSoC4/CyLib.c ****             CyDelayUs(CY_SYS_CLK_IMO_TRIM_TIMEOUT_US);
 323:.\Generated_Source\PSoC4/CyLib.c ****         }
 324:.\Generated_Source\PSoC4/CyLib.c **** 
 325:.\Generated_Source\PSoC4/CyLib.c ****         CyExitCriticalSection(interruptState);
 326:.\Generated_Source\PSoC4/CyLib.c ****     }
 327:.\Generated_Source\PSoC4/CyLib.c ****     else
 328:.\Generated_Source\PSoC4/CyLib.c ****     {
 329:.\Generated_Source\PSoC4/CyLib.c ****         /* Halt CPU in debug mode if new frequency is invalid */
 330:.\Generated_Source\PSoC4/CyLib.c ****         CYASSERT(0u != 0u);
 331:.\Generated_Source\PSoC4/CyLib.c ****     }
 332:.\Generated_Source\PSoC4/CyLib.c **** }
 333:.\Generated_Source\PSoC4/CyLib.c **** 
 334:.\Generated_Source\PSoC4/CyLib.c **** 
 335:.\Generated_Source\PSoC4/CyLib.c **** /*******************************************************************************
 336:.\Generated_Source\PSoC4/CyLib.c **** * Function Name: CySysWdtLock
 337:.\Generated_Source\PSoC4/CyLib.c **** ********************************************************************************
 338:.\Generated_Source\PSoC4/CyLib.c **** *
 339:.\Generated_Source\PSoC4/CyLib.c **** * Summary:
 340:.\Generated_Source\PSoC4/CyLib.c **** *  Locks out configuration changes to the Watchdog timer registers and ILO
 341:.\Generated_Source\PSoC4/CyLib.c **** *  config register.
 342:.\Generated_Source\PSoC4/CyLib.c **** *
 343:.\Generated_Source\PSoC4/CyLib.c **** * Parameters:
 344:.\Generated_Source\PSoC4/CyLib.c **** *  None
 345:.\Generated_Source\PSoC4/CyLib.c **** *
 346:.\Generated_Source\PSoC4/CyLib.c **** * Return:
 347:.\Generated_Source\PSoC4/CyLib.c **** *  None
 348:.\Generated_Source\PSoC4/CyLib.c **** *
 349:.\Generated_Source\PSoC4/CyLib.c **** * Side effects:
 350:.\Generated_Source\PSoC4/CyLib.c **** *  This API enables ILO, if it was disabled.
 351:.\Generated_Source\PSoC4/CyLib.c **** *  After this API was called, ILO clock can't be disabled untill calling of
ARM GAS  C:\Users\kees\AppData\Local\Temp\ccxzCKRQ.s 			page 11


 352:.\Generated_Source\PSoC4/CyLib.c **** *  CySysWdtUnlock().
 353:.\Generated_Source\PSoC4/CyLib.c **** *
 354:.\Generated_Source\PSoC4/CyLib.c **** *******************************************************************************/
 355:.\Generated_Source\PSoC4/CyLib.c **** void CySysWdtLock(void)
 356:.\Generated_Source\PSoC4/CyLib.c **** {
 357:.\Generated_Source\PSoC4/CyLib.c ****     uint8 interruptState;
 358:.\Generated_Source\PSoC4/CyLib.c ****     interruptState = CyEnterCriticalSection();
 359:.\Generated_Source\PSoC4/CyLib.c **** 
 360:.\Generated_Source\PSoC4/CyLib.c ****     /* Configuring the WDT involves passing control signals between clock domains,
 361:.\Generated_Source\PSoC4/CyLib.c ****     * which requires the ILO to be enabled.
 362:.\Generated_Source\PSoC4/CyLib.c ****     */
 363:.\Generated_Source\PSoC4/CyLib.c ****     if (0u == (CY_SYS_CLK_ILO_CONFIG_REG & CY_SYS_CLK_ILO_CONFIG_ENABLE))
 364:.\Generated_Source\PSoC4/CyLib.c ****     {
 365:.\Generated_Source\PSoC4/CyLib.c ****         CySysClkIloStart();
 366:.\Generated_Source\PSoC4/CyLib.c ****     }
 367:.\Generated_Source\PSoC4/CyLib.c **** 
 368:.\Generated_Source\PSoC4/CyLib.c ****     /* CLK_SELECT register's bits 15:14 are WDT_LOCK */
 369:.\Generated_Source\PSoC4/CyLib.c ****     CY_SYS_CLK_SELECT_REG = (CY_SYS_CLK_SELECT_REG & (uint32)(~CY_SYS_WDT_CLK_LOCK_BITS_MASK)) |
 370:.\Generated_Source\PSoC4/CyLib.c ****              CY_SYS_WDT_CLK_LOCK_BITS_MASK;
 371:.\Generated_Source\PSoC4/CyLib.c **** 
 372:.\Generated_Source\PSoC4/CyLib.c ****     CyExitCriticalSection(interruptState);
 373:.\Generated_Source\PSoC4/CyLib.c **** }
 374:.\Generated_Source\PSoC4/CyLib.c **** 
 375:.\Generated_Source\PSoC4/CyLib.c **** 
 376:.\Generated_Source\PSoC4/CyLib.c **** /*******************************************************************************
 377:.\Generated_Source\PSoC4/CyLib.c **** * Function Name: CySysWdtUnlock
 378:.\Generated_Source\PSoC4/CyLib.c **** ********************************************************************************
 379:.\Generated_Source\PSoC4/CyLib.c **** *
 380:.\Generated_Source\PSoC4/CyLib.c **** * Summary:
 381:.\Generated_Source\PSoC4/CyLib.c **** *  Unlocks the Watchdog Timer configuration register.
 382:.\Generated_Source\PSoC4/CyLib.c **** *
 383:.\Generated_Source\PSoC4/CyLib.c **** * Parameters:
 384:.\Generated_Source\PSoC4/CyLib.c **** *  None
 385:.\Generated_Source\PSoC4/CyLib.c **** *
 386:.\Generated_Source\PSoC4/CyLib.c **** * Return:
 387:.\Generated_Source\PSoC4/CyLib.c **** *  None
 388:.\Generated_Source\PSoC4/CyLib.c **** *
 389:.\Generated_Source\PSoC4/CyLib.c **** * Side effects:
 390:.\Generated_Source\PSoC4/CyLib.c **** *  This API enables ILO, if it was disabled.
 391:.\Generated_Source\PSoC4/CyLib.c **** *
 392:.\Generated_Source\PSoC4/CyLib.c **** *******************************************************************************/
 393:.\Generated_Source\PSoC4/CyLib.c **** void CySysWdtUnlock(void)
 394:.\Generated_Source\PSoC4/CyLib.c **** {
 395:.\Generated_Source\PSoC4/CyLib.c ****     uint8 interruptState;
 396:.\Generated_Source\PSoC4/CyLib.c ****     interruptState = CyEnterCriticalSection();
 397:.\Generated_Source\PSoC4/CyLib.c **** 
 398:.\Generated_Source\PSoC4/CyLib.c ****     /* Configuring the WDT involves passing control signals between clock domains,
 399:.\Generated_Source\PSoC4/CyLib.c ****     * which requires the ILO to be enabled.
 400:.\Generated_Source\PSoC4/CyLib.c ****     */
 401:.\Generated_Source\PSoC4/CyLib.c ****     if (0u == (CY_SYS_CLK_ILO_CONFIG_REG & CY_SYS_CLK_ILO_CONFIG_ENABLE))
 402:.\Generated_Source\PSoC4/CyLib.c ****     {
 403:.\Generated_Source\PSoC4/CyLib.c ****         CySysClkIloStart();
 404:.\Generated_Source\PSoC4/CyLib.c ****     }
 405:.\Generated_Source\PSoC4/CyLib.c **** 
 406:.\Generated_Source\PSoC4/CyLib.c ****     /* Removing WDT lock requires two writes */
 407:.\Generated_Source\PSoC4/CyLib.c ****     CY_SYS_CLK_SELECT_REG = ((CY_SYS_CLK_SELECT_REG & (uint32)(~CY_SYS_WDT_CLK_LOCK_BITS_MASK)) |
 408:.\Generated_Source\PSoC4/CyLib.c ****             CY_SYS_WDT_CLK_LOCK_BIT0);
ARM GAS  C:\Users\kees\AppData\Local\Temp\ccxzCKRQ.s 			page 12


 409:.\Generated_Source\PSoC4/CyLib.c **** 
 410:.\Generated_Source\PSoC4/CyLib.c ****     CY_SYS_CLK_SELECT_REG = ((CY_SYS_CLK_SELECT_REG & (uint32)(~CY_SYS_WDT_CLK_LOCK_BITS_MASK)) |
 411:.\Generated_Source\PSoC4/CyLib.c ****             CY_SYS_WDT_CLK_LOCK_BIT1);
 412:.\Generated_Source\PSoC4/CyLib.c **** 
 413:.\Generated_Source\PSoC4/CyLib.c ****     CyExitCriticalSection(interruptState);
 414:.\Generated_Source\PSoC4/CyLib.c **** }
 415:.\Generated_Source\PSoC4/CyLib.c **** 
 416:.\Generated_Source\PSoC4/CyLib.c **** 
 417:.\Generated_Source\PSoC4/CyLib.c **** /*******************************************************************************
 418:.\Generated_Source\PSoC4/CyLib.c **** * Function Name: CySysWdtReadEnabledStatus
 419:.\Generated_Source\PSoC4/CyLib.c **** ********************************************************************************
 420:.\Generated_Source\PSoC4/CyLib.c **** *
 421:.\Generated_Source\PSoC4/CyLib.c **** * Summary:
 422:.\Generated_Source\PSoC4/CyLib.c **** *  Reads the enabled staus of one of the three WDT counters.
 423:.\Generated_Source\PSoC4/CyLib.c **** *
 424:.\Generated_Source\PSoC4/CyLib.c **** * Parameters:
 425:.\Generated_Source\PSoC4/CyLib.c **** *  counterNum: Valid range [0-2].  Number of the WDT counter.
 426:.\Generated_Source\PSoC4/CyLib.c **** *
 427:.\Generated_Source\PSoC4/CyLib.c **** * Return:
 428:.\Generated_Source\PSoC4/CyLib.c **** *  Status of WDT counter:
 429:.\Generated_Source\PSoC4/CyLib.c **** *   0 - counter is disabled
 430:.\Generated_Source\PSoC4/CyLib.c **** *   1 - counter is enabled
 431:.\Generated_Source\PSoC4/CyLib.c **** *
 432:.\Generated_Source\PSoC4/CyLib.c **** * Side Effects:
 433:.\Generated_Source\PSoC4/CyLib.c **** *  This API returns actual WDT counter status from status register.
 434:.\Generated_Source\PSoC4/CyLib.c **** *  It may take up to 3 LFCLK cycles since WDT counter was enabled for WDT status
 435:.\Generated_Source\PSoC4/CyLib.c **** *  register to contain actual data.
 436:.\Generated_Source\PSoC4/CyLib.c **** *
 437:.\Generated_Source\PSoC4/CyLib.c **** *******************************************************************************/
 438:.\Generated_Source\PSoC4/CyLib.c **** uint32 CySysWdtReadEnabledStatus(uint32 counterNum)
 439:.\Generated_Source\PSoC4/CyLib.c **** {
 440:.\Generated_Source\PSoC4/CyLib.c ****     CYASSERT(counterNum < CY_SYS_WDT_COUNTERS_MAX);
 441:.\Generated_Source\PSoC4/CyLib.c **** 
 442:.\Generated_Source\PSoC4/CyLib.c ****     return ((CY_SYS_WDT_CONTROL_REG >> ((CY_SYS_WDT_CNT_SHIFT * counterNum) + CY_SYS_WDT_CNT_STTS_S
 443:.\Generated_Source\PSoC4/CyLib.c **** }
 444:.\Generated_Source\PSoC4/CyLib.c **** 
 445:.\Generated_Source\PSoC4/CyLib.c **** 
 446:.\Generated_Source\PSoC4/CyLib.c **** /*******************************************************************************
 447:.\Generated_Source\PSoC4/CyLib.c **** * Function Name: CySysWdtWriteMode
 448:.\Generated_Source\PSoC4/CyLib.c **** ********************************************************************************
 449:.\Generated_Source\PSoC4/CyLib.c **** *
 450:.\Generated_Source\PSoC4/CyLib.c **** * Summary:
 451:.\Generated_Source\PSoC4/CyLib.c **** *   Writes the mode of one of the three WDT counters.
 452:.\Generated_Source\PSoC4/CyLib.c **** *
 453:.\Generated_Source\PSoC4/CyLib.c **** * Parameters:
 454:.\Generated_Source\PSoC4/CyLib.c **** *   counterNum: Valid range [0-2].  Number of the WDT counter.
 455:.\Generated_Source\PSoC4/CyLib.c **** *   mode:       Mode of operation for the counter
 456:.\Generated_Source\PSoC4/CyLib.c **** *   Value    Define                   Mode
 457:.\Generated_Source\PSoC4/CyLib.c **** *   0     CY_SYS_WDT_MODE_NONE       Free running
 458:.\Generated_Source\PSoC4/CyLib.c **** *   1     CY_SYS_WDT_MODE_INT        Interrupt generated on match for counter 0
 459:.\Generated_Source\PSoC4/CyLib.c **** *                                    and 1, and on bit toggle for counter 2.
 460:.\Generated_Source\PSoC4/CyLib.c **** *   2     CY_SYS_WDT_MODE_RESET      Reset on match (valid for counter 0 and 1
 461:.\Generated_Source\PSoC4/CyLib.c **** *                                    only)
 462:.\Generated_Source\PSoC4/CyLib.c **** *   3     CY_SYS_WDT_MODE_INT_RESET  Generate an interrupt.  Generate a reset on
 463:.\Generated_Source\PSoC4/CyLib.c **** *                                    the 3rd unhandled interrupt.
 464:.\Generated_Source\PSoC4/CyLib.c **** *                                    (valid for counter 0 and 1 only)
 465:.\Generated_Source\PSoC4/CyLib.c **** * Return:
ARM GAS  C:\Users\kees\AppData\Local\Temp\ccxzCKRQ.s 			page 13


 466:.\Generated_Source\PSoC4/CyLib.c **** *   None
 467:.\Generated_Source\PSoC4/CyLib.c **** *
 468:.\Generated_Source\PSoC4/CyLib.c **** * Side Effects:
 469:.\Generated_Source\PSoC4/CyLib.c **** *   WDT counter counterNum should be disabled to set mode. Othetwise function
 470:.\Generated_Source\PSoC4/CyLib.c **** *   call will have no effect.
 471:.\Generated_Source\PSoC4/CyLib.c **** *   This API enables ILO, if it was disabled.
 472:.\Generated_Source\PSoC4/CyLib.c **** *
 473:.\Generated_Source\PSoC4/CyLib.c **** *******************************************************************************/
 474:.\Generated_Source\PSoC4/CyLib.c **** void CySysWdtWriteMode(uint32 counterNum, uint32 mode)
 475:.\Generated_Source\PSoC4/CyLib.c **** {
 476:.\Generated_Source\PSoC4/CyLib.c ****     uint32 configRegValue;
 477:.\Generated_Source\PSoC4/CyLib.c **** 
 478:.\Generated_Source\PSoC4/CyLib.c ****     CYASSERT(counterNum < CY_SYS_WDT_COUNTERS_MAX);
 479:.\Generated_Source\PSoC4/CyLib.c **** 
 480:.\Generated_Source\PSoC4/CyLib.c ****     /* Configuring the WDT involves passing control signals between clock domains,
 481:.\Generated_Source\PSoC4/CyLib.c ****     * which requires the ILO to be enabled.
 482:.\Generated_Source\PSoC4/CyLib.c ****     */
 483:.\Generated_Source\PSoC4/CyLib.c ****     if (0u == (CY_SYS_CLK_ILO_CONFIG_REG & CY_SYS_CLK_ILO_CONFIG_ENABLE))
 484:.\Generated_Source\PSoC4/CyLib.c ****     {
 485:.\Generated_Source\PSoC4/CyLib.c ****         CySysClkIloStart();
 486:.\Generated_Source\PSoC4/CyLib.c ****     }
 487:.\Generated_Source\PSoC4/CyLib.c **** 
 488:.\Generated_Source\PSoC4/CyLib.c ****     if(0u == CySysWdtReadEnabledStatus(counterNum))
 489:.\Generated_Source\PSoC4/CyLib.c ****     {
 490:.\Generated_Source\PSoC4/CyLib.c ****         configRegValue = CY_SYS_WDT_CONFIG_REG &
 491:.\Generated_Source\PSoC4/CyLib.c ****                             (uint32)~((uint32)(CY_SYS_WDT_MODE_MASK << (counterNum * CY_SYS_WDT_CNT
 492:.\Generated_Source\PSoC4/CyLib.c ****         configRegValue |= (uint32)((mode & CY_SYS_WDT_MODE_MASK) << (counterNum * CY_SYS_WDT_CNT_SH
 493:.\Generated_Source\PSoC4/CyLib.c ****         CY_SYS_WDT_CONFIG_REG = configRegValue;
 494:.\Generated_Source\PSoC4/CyLib.c ****     }
 495:.\Generated_Source\PSoC4/CyLib.c **** }
 496:.\Generated_Source\PSoC4/CyLib.c **** 
 497:.\Generated_Source\PSoC4/CyLib.c **** 
 498:.\Generated_Source\PSoC4/CyLib.c **** /*******************************************************************************
 499:.\Generated_Source\PSoC4/CyLib.c **** * Function Name: CySysWdtReadMode
 500:.\Generated_Source\PSoC4/CyLib.c **** ********************************************************************************
 501:.\Generated_Source\PSoC4/CyLib.c **** *
 502:.\Generated_Source\PSoC4/CyLib.c **** * Summary:
 503:.\Generated_Source\PSoC4/CyLib.c **** *  Reads the mode of one of the three WDT counters.
 504:.\Generated_Source\PSoC4/CyLib.c **** *
 505:.\Generated_Source\PSoC4/CyLib.c **** * Parameters:
 506:.\Generated_Source\PSoC4/CyLib.c **** *  counterNum: Valid range [0-2].  Number of the WDT counter.
 507:.\Generated_Source\PSoC4/CyLib.c **** *
 508:.\Generated_Source\PSoC4/CyLib.c **** * Return:
 509:.\Generated_Source\PSoC4/CyLib.c **** *  Mode of the counter.  Same enumerated values as mode parameter used in
 510:.\Generated_Source\PSoC4/CyLib.c **** *  CySysWdtWriteMode().
 511:.\Generated_Source\PSoC4/CyLib.c **** *
 512:.\Generated_Source\PSoC4/CyLib.c **** *******************************************************************************/
 513:.\Generated_Source\PSoC4/CyLib.c **** uint32 CySysWdtReadMode(uint32 counterNum)
 514:.\Generated_Source\PSoC4/CyLib.c **** {
 216              		.loc 1 514 0
 217              		.cfi_startproc
 218              	.LVL4:
 515:.\Generated_Source\PSoC4/CyLib.c ****     return ((CY_SYS_WDT_CONFIG_REG >> (counterNum * CY_SYS_WDT_CNT_SHIFT)) & CY_SYS_WDT_MODE_MASK);
 219              		.loc 1 515 0
 220 0000 034B     		ldr	r3, .L27
 221 0002 C000     		lsl	r0, r0, #3
 222              	.LVL5:
ARM GAS  C:\Users\kees\AppData\Local\Temp\ccxzCKRQ.s 			page 14


 223 0004 1B68     		ldr	r3, [r3]
 516:.\Generated_Source\PSoC4/CyLib.c **** }
 224              		.loc 1 516 0
 225              		@ sp needed for prologue
 226              		.loc 1 515 0
 227 0006 C340     		lsr	r3, r3, r0
 228 0008 181C     		mov	r0, r3
 229 000a 0323     		mov	r3, #3
 230 000c 1840     		and	r0, r0, r3
 231              		.loc 1 516 0
 232 000e 7047     		bx	lr
 233              	.L28:
 234              		.align	2
 235              	.L27:
 236 0010 0C020B40 		.word	1074463244
 237              		.cfi_endproc
 238              	.LFE11:
 239              		.size	CySysWdtReadMode, .-CySysWdtReadMode
 240              		.section	.text.CySysWdtEnable,"ax",%progbits
 241              		.align	1
 242              		.global	CySysWdtEnable
 243              		.code	16
 244              		.thumb_func
 245              		.type	CySysWdtEnable, %function
 246              	CySysWdtEnable:
 247              	.LFB14:
 517:.\Generated_Source\PSoC4/CyLib.c **** 
 518:.\Generated_Source\PSoC4/CyLib.c **** 
 519:.\Generated_Source\PSoC4/CyLib.c **** /*******************************************************************************
 520:.\Generated_Source\PSoC4/CyLib.c **** * Function Name: CySysWdtWriteClearOnMatch
 521:.\Generated_Source\PSoC4/CyLib.c **** ********************************************************************************
 522:.\Generated_Source\PSoC4/CyLib.c **** *
 523:.\Generated_Source\PSoC4/CyLib.c **** * Summary:
 524:.\Generated_Source\PSoC4/CyLib.c **** *  Configures the WDT counter clear on a match setting.  If configured to clear
 525:.\Generated_Source\PSoC4/CyLib.c **** *  on match the counter will count from 0 to the MatchValue giving it a
 526:.\Generated_Source\PSoC4/CyLib.c **** *  period of (MatchValue + 1).
 527:.\Generated_Source\PSoC4/CyLib.c **** *
 528:.\Generated_Source\PSoC4/CyLib.c **** * Parameters:
 529:.\Generated_Source\PSoC4/CyLib.c **** *  counterNum:
 530:.\Generated_Source\PSoC4/CyLib.c **** *   Valid range [0-1].  Number of the WDT counter.  Match values are not
 531:.\Generated_Source\PSoC4/CyLib.c **** *   supported by counter 2.
 532:.\Generated_Source\PSoC4/CyLib.c **** *
 533:.\Generated_Source\PSoC4/CyLib.c **** * enable:
 534:.\Generated_Source\PSoC4/CyLib.c **** *   0 to disable, 1 to enable
 535:.\Generated_Source\PSoC4/CyLib.c **** *
 536:.\Generated_Source\PSoC4/CyLib.c **** * Return:
 537:.\Generated_Source\PSoC4/CyLib.c **** *   None
 538:.\Generated_Source\PSoC4/CyLib.c **** *
 539:.\Generated_Source\PSoC4/CyLib.c **** * Side Effects:
 540:.\Generated_Source\PSoC4/CyLib.c **** *   WDT counter counterNum should be disabled. Othetwise function
 541:.\Generated_Source\PSoC4/CyLib.c **** *   call will have no effect.
 542:.\Generated_Source\PSoC4/CyLib.c **** *   This API enables ILO, if it was disabled.
 543:.\Generated_Source\PSoC4/CyLib.c **** *
 544:.\Generated_Source\PSoC4/CyLib.c **** *
 545:.\Generated_Source\PSoC4/CyLib.c **** *******************************************************************************/
 546:.\Generated_Source\PSoC4/CyLib.c **** void CySysWdtWriteClearOnMatch(uint32 counterNum, uint32 enable)
 547:.\Generated_Source\PSoC4/CyLib.c **** {
ARM GAS  C:\Users\kees\AppData\Local\Temp\ccxzCKRQ.s 			page 15


 548:.\Generated_Source\PSoC4/CyLib.c ****     CYASSERT((counterNum == CY_SYS_WDT_COUNTER0) ||
 549:.\Generated_Source\PSoC4/CyLib.c ****                                          (counterNum == CY_SYS_WDT_COUNTER1));
 550:.\Generated_Source\PSoC4/CyLib.c **** 
 551:.\Generated_Source\PSoC4/CyLib.c ****     /* Configuring the WDT involves passing control signals between clock domains,
 552:.\Generated_Source\PSoC4/CyLib.c ****     * which requires the ILO to be enabled.
 553:.\Generated_Source\PSoC4/CyLib.c ****     */
 554:.\Generated_Source\PSoC4/CyLib.c ****     if (0u == (CY_SYS_CLK_ILO_CONFIG_REG & CY_SYS_CLK_ILO_CONFIG_ENABLE))
 555:.\Generated_Source\PSoC4/CyLib.c ****     {
 556:.\Generated_Source\PSoC4/CyLib.c ****         CySysClkIloStart();
 557:.\Generated_Source\PSoC4/CyLib.c ****     }
 558:.\Generated_Source\PSoC4/CyLib.c **** 
 559:.\Generated_Source\PSoC4/CyLib.c ****     if(0u == CySysWdtReadEnabledStatus(counterNum))
 560:.\Generated_Source\PSoC4/CyLib.c ****     {
 561:.\Generated_Source\PSoC4/CyLib.c ****         CY_SYS_WDT_CONFIG_REG |= (uint32)(enable << ((counterNum * CY_SYS_WDT_CNT_SHIFT) +
 562:.\Generated_Source\PSoC4/CyLib.c ****                                                         CY_SYS_WDT_CNT_MATCH_CLR_SHIFT));
 563:.\Generated_Source\PSoC4/CyLib.c ****     }
 564:.\Generated_Source\PSoC4/CyLib.c **** }
 565:.\Generated_Source\PSoC4/CyLib.c **** 
 566:.\Generated_Source\PSoC4/CyLib.c **** 
 567:.\Generated_Source\PSoC4/CyLib.c **** /*******************************************************************************
 568:.\Generated_Source\PSoC4/CyLib.c **** * Function Name: CySysWdtReadClearOnMatch
 569:.\Generated_Source\PSoC4/CyLib.c **** ********************************************************************************
 570:.\Generated_Source\PSoC4/CyLib.c **** *
 571:.\Generated_Source\PSoC4/CyLib.c **** * Summary:
 572:.\Generated_Source\PSoC4/CyLib.c **** *  Reads the clear on match setting for the specified counter.
 573:.\Generated_Source\PSoC4/CyLib.c **** *
 574:.\Generated_Source\PSoC4/CyLib.c **** * Parameters:
 575:.\Generated_Source\PSoC4/CyLib.c **** *   counterNum: Valid range [0-1].  Number of the WDT counter.  Match values are
 576:.\Generated_Source\PSoC4/CyLib.c **** *               not supported by counter 2.
 577:.\Generated_Source\PSoC4/CyLib.c **** *
 578:.\Generated_Source\PSoC4/CyLib.c **** * Return:
 579:.\Generated_Source\PSoC4/CyLib.c **** *   Clear on Match status: 1 if enabled, 0 if disabled
 580:.\Generated_Source\PSoC4/CyLib.c **** *
 581:.\Generated_Source\PSoC4/CyLib.c **** *******************************************************************************/
 582:.\Generated_Source\PSoC4/CyLib.c **** uint32 CySysWdtReadClearOnMatch(uint32 counterNum)
 583:.\Generated_Source\PSoC4/CyLib.c **** {
 584:.\Generated_Source\PSoC4/CyLib.c ****     CYASSERT((counterNum == CY_SYS_WDT_COUNTER0) ||
 585:.\Generated_Source\PSoC4/CyLib.c ****                                          (counterNum == CY_SYS_WDT_COUNTER1));
 586:.\Generated_Source\PSoC4/CyLib.c **** 
 587:.\Generated_Source\PSoC4/CyLib.c ****     return (uint32)((CY_SYS_WDT_CONFIG_REG >>
 588:.\Generated_Source\PSoC4/CyLib.c ****                         ((counterNum * CY_SYS_WDT_CNT_SHIFT) + CY_SYS_WDT_CNT_MATCH_CLR_SHIFT)) & 0
 589:.\Generated_Source\PSoC4/CyLib.c **** }
 590:.\Generated_Source\PSoC4/CyLib.c **** 
 591:.\Generated_Source\PSoC4/CyLib.c **** 
 592:.\Generated_Source\PSoC4/CyLib.c **** /*******************************************************************************
 593:.\Generated_Source\PSoC4/CyLib.c **** * Function Name: CySysWdtEnable
 594:.\Generated_Source\PSoC4/CyLib.c **** ********************************************************************************
 595:.\Generated_Source\PSoC4/CyLib.c **** *
 596:.\Generated_Source\PSoC4/CyLib.c **** * Summary:
 597:.\Generated_Source\PSoC4/CyLib.c **** *  Enables the specified WDT counters.  All counters specified in the mask are
 598:.\Generated_Source\PSoC4/CyLib.c **** *  enabled.
 599:.\Generated_Source\PSoC4/CyLib.c **** *
 600:.\Generated_Source\PSoC4/CyLib.c **** * Parameters:
 601:.\Generated_Source\PSoC4/CyLib.c **** *  counterMask: Mask of all counters to enable
 602:.\Generated_Source\PSoC4/CyLib.c **** *      Value    Define                       Counter
 603:.\Generated_Source\PSoC4/CyLib.c **** *      1<<0    CY_SYS_WDT_COUNTER0_MASK      0
 604:.\Generated_Source\PSoC4/CyLib.c **** *      1<<8    CY_SYS_WDT_COUNTER1_MASK      1
ARM GAS  C:\Users\kees\AppData\Local\Temp\ccxzCKRQ.s 			page 16


 605:.\Generated_Source\PSoC4/CyLib.c **** *      1<<16   CY_SYS_WDT_COUNTER2_MASK      2
 606:.\Generated_Source\PSoC4/CyLib.c **** *
 607:.\Generated_Source\PSoC4/CyLib.c **** * Return:
 608:.\Generated_Source\PSoC4/CyLib.c **** *  None
 609:.\Generated_Source\PSoC4/CyLib.c **** *
 610:.\Generated_Source\PSoC4/CyLib.c **** * Side Effects:
 611:.\Generated_Source\PSoC4/CyLib.c **** *  Enabling or disabling a WDT requires 3 LF Clock cycles to come into effect.
 612:.\Generated_Source\PSoC4/CyLib.c **** *  This API enables ILO, if it was disabled.
 613:.\Generated_Source\PSoC4/CyLib.c **** *
 614:.\Generated_Source\PSoC4/CyLib.c **** *******************************************************************************/
 615:.\Generated_Source\PSoC4/CyLib.c **** void CySysWdtEnable(uint32 counterMask)
 616:.\Generated_Source\PSoC4/CyLib.c **** {
 248              		.loc 1 616 0
 249              		.cfi_startproc
 250 0000 10B5     		push	{r4, lr}
 251              	.LCFI1:
 252              		.cfi_def_cfa_offset 8
 253              		.cfi_offset 4, -8
 254              		.cfi_offset 14, -4
 255              	.LVL6:
 617:.\Generated_Source\PSoC4/CyLib.c ****     /* Configuring the WDT involves passing control signals between clock domains,
 618:.\Generated_Source\PSoC4/CyLib.c ****     * which requires the ILO to be enabled.
 619:.\Generated_Source\PSoC4/CyLib.c ****     */
 620:.\Generated_Source\PSoC4/CyLib.c ****     if (0u == (CY_SYS_CLK_ILO_CONFIG_REG & CY_SYS_CLK_ILO_CONFIG_ENABLE))
 256              		.loc 1 620 0
 257 0002 064B     		ldr	r3, .L33
 258              		.loc 1 616 0
 259 0004 041C     		mov	r4, r0
 260              		.loc 1 620 0
 261 0006 1B68     		ldr	r3, [r3]
 262 0008 002B     		cmp	r3, #0
 263 000a 01DB     		blt	.L30
 264              	.LVL7:
 621:.\Generated_Source\PSoC4/CyLib.c ****     {
 622:.\Generated_Source\PSoC4/CyLib.c ****         CySysClkIloStart();
 265              		.loc 1 622 0
 266 000c FFF7FEFF 		bl	CySysClkIloStart
 267              	.LVL8:
 268              	.L30:
 623:.\Generated_Source\PSoC4/CyLib.c ****     }
 624:.\Generated_Source\PSoC4/CyLib.c **** 
 625:.\Generated_Source\PSoC4/CyLib.c ****     CY_SYS_WDT_CONTROL_REG |= counterMask;
 269              		.loc 1 625 0
 270 0010 034B     		ldr	r3, .L33+4
 626:.\Generated_Source\PSoC4/CyLib.c **** }
 271              		.loc 1 626 0
 272              		@ sp needed for prologue
 273              		.loc 1 625 0
 274 0012 1A68     		ldr	r2, [r3]
 275 0014 1443     		orr	r4, r4, r2
 276              	.LVL9:
 277 0016 1C60     		str	r4, [r3]
 278              		.loc 1 626 0
 279 0018 10BD     		pop	{r4, pc}
 280              	.L34:
 281 001a C046     		.align	2
 282              	.L33:
ARM GAS  C:\Users\kees\AppData\Local\Temp\ccxzCKRQ.s 			page 17


 283 001c 04010B40 		.word	1074462980
 284 0020 10020B40 		.word	1074463248
 285              		.cfi_endproc
 286              	.LFE14:
 287              		.size	CySysWdtEnable, .-CySysWdtEnable
 288              		.section	.text.CySysWdtDisable,"ax",%progbits
 289              		.align	1
 290              		.global	CySysWdtDisable
 291              		.code	16
 292              		.thumb_func
 293              		.type	CySysWdtDisable, %function
 294              	CySysWdtDisable:
 295              	.LFB15:
 627:.\Generated_Source\PSoC4/CyLib.c **** 
 628:.\Generated_Source\PSoC4/CyLib.c **** 
 629:.\Generated_Source\PSoC4/CyLib.c **** /*******************************************************************************
 630:.\Generated_Source\PSoC4/CyLib.c **** * Function Name: CySysWdtDisable
 631:.\Generated_Source\PSoC4/CyLib.c **** ********************************************************************************
 632:.\Generated_Source\PSoC4/CyLib.c **** *
 633:.\Generated_Source\PSoC4/CyLib.c **** * Summary:
 634:.\Generated_Source\PSoC4/CyLib.c **** *  Disables the specified WDT counters.  All counters specified in the mask are
 635:.\Generated_Source\PSoC4/CyLib.c **** *  disabled.
 636:.\Generated_Source\PSoC4/CyLib.c **** *
 637:.\Generated_Source\PSoC4/CyLib.c **** * Parameters:
 638:.\Generated_Source\PSoC4/CyLib.c **** *  uint32 counterMask: Mask of all counters to disable
 639:.\Generated_Source\PSoC4/CyLib.c **** *      Value    Define                       Counter
 640:.\Generated_Source\PSoC4/CyLib.c **** *      1<<0    CY_SYS_WDT_COUNTER0_MASK      0
 641:.\Generated_Source\PSoC4/CyLib.c **** *      1<<8    CY_SYS_WDT_COUNTER1_MASK      1
 642:.\Generated_Source\PSoC4/CyLib.c **** *      1<<16   CY_SYS_WDT_COUNTER2_MASK      2
 643:.\Generated_Source\PSoC4/CyLib.c **** *
 644:.\Generated_Source\PSoC4/CyLib.c **** * Return:
 645:.\Generated_Source\PSoC4/CyLib.c **** *   None
 646:.\Generated_Source\PSoC4/CyLib.c **** *
 647:.\Generated_Source\PSoC4/CyLib.c **** * Side Effects:
 648:.\Generated_Source\PSoC4/CyLib.c **** *  Enabling or disabling a WDT requires 3 LF Clock cycles to come into effect.
 649:.\Generated_Source\PSoC4/CyLib.c **** *  This API enables ILO, if it was disabled.
 650:.\Generated_Source\PSoC4/CyLib.c **** *
 651:.\Generated_Source\PSoC4/CyLib.c **** *******************************************************************************/
 652:.\Generated_Source\PSoC4/CyLib.c **** void CySysWdtDisable(uint32 counterMask)
 653:.\Generated_Source\PSoC4/CyLib.c **** {
 296              		.loc 1 653 0
 297              		.cfi_startproc
 298 0000 10B5     		push	{r4, lr}
 299              	.LCFI2:
 300              		.cfi_def_cfa_offset 8
 301              		.cfi_offset 4, -8
 302              		.cfi_offset 14, -4
 303              	.LVL10:
 654:.\Generated_Source\PSoC4/CyLib.c ****     /* Configuring the WDT involves passing control signals between clock domains,
 655:.\Generated_Source\PSoC4/CyLib.c ****     * which requires the ILO to be enabled.
 656:.\Generated_Source\PSoC4/CyLib.c ****     */
 657:.\Generated_Source\PSoC4/CyLib.c ****     if (0u == (CY_SYS_CLK_ILO_CONFIG_REG & CY_SYS_CLK_ILO_CONFIG_ENABLE))
 304              		.loc 1 657 0
 305 0002 064B     		ldr	r3, .L38
 306              		.loc 1 653 0
 307 0004 041C     		mov	r4, r0
 308              		.loc 1 657 0
ARM GAS  C:\Users\kees\AppData\Local\Temp\ccxzCKRQ.s 			page 18


 309 0006 1B68     		ldr	r3, [r3]
 310 0008 002B     		cmp	r3, #0
 311 000a 01DB     		blt	.L36
 312              	.LVL11:
 658:.\Generated_Source\PSoC4/CyLib.c ****     {
 659:.\Generated_Source\PSoC4/CyLib.c ****         CySysClkIloStart();
 313              		.loc 1 659 0
 314 000c FFF7FEFF 		bl	CySysClkIloStart
 315              	.LVL12:
 316              	.L36:
 660:.\Generated_Source\PSoC4/CyLib.c ****     }
 661:.\Generated_Source\PSoC4/CyLib.c **** 
 662:.\Generated_Source\PSoC4/CyLib.c ****     CY_SYS_WDT_CONTROL_REG &= ~counterMask;
 317              		.loc 1 662 0
 318 0010 034B     		ldr	r3, .L38+4
 663:.\Generated_Source\PSoC4/CyLib.c **** }
 319              		.loc 1 663 0
 320              		@ sp needed for prologue
 321              		.loc 1 662 0
 322 0012 1A68     		ldr	r2, [r3]
 323 0014 A243     		bic	r2, r2, r4
 324 0016 1A60     		str	r2, [r3]
 325              	.LVL13:
 326              		.loc 1 663 0
 327 0018 10BD     		pop	{r4, pc}
 328              	.L39:
 329 001a C046     		.align	2
 330              	.L38:
 331 001c 04010B40 		.word	1074462980
 332 0020 10020B40 		.word	1074463248
 333              		.cfi_endproc
 334              	.LFE15:
 335              		.size	CySysWdtDisable, .-CySysWdtDisable
 336              		.section	.text.CySysWdtReadCascade,"ax",%progbits
 337              		.align	1
 338              		.global	CySysWdtReadCascade
 339              		.code	16
 340              		.thumb_func
 341              		.type	CySysWdtReadCascade, %function
 342              	CySysWdtReadCascade:
 343              	.LFB17:
 664:.\Generated_Source\PSoC4/CyLib.c **** 
 665:.\Generated_Source\PSoC4/CyLib.c **** 
 666:.\Generated_Source\PSoC4/CyLib.c **** /*******************************************************************************
 667:.\Generated_Source\PSoC4/CyLib.c **** * Function Name: CySysWdtWriteCascade
 668:.\Generated_Source\PSoC4/CyLib.c **** ********************************************************************************
 669:.\Generated_Source\PSoC4/CyLib.c **** *
 670:.\Generated_Source\PSoC4/CyLib.c **** * Summary:
 671:.\Generated_Source\PSoC4/CyLib.c **** *   Writes the two WDT cascade values based on the combination of mask values
 672:.\Generated_Source\PSoC4/CyLib.c **** *   specified.
 673:.\Generated_Source\PSoC4/CyLib.c **** *
 674:.\Generated_Source\PSoC4/CyLib.c **** * Parameters:
 675:.\Generated_Source\PSoC4/CyLib.c **** *   cascadeMask: Mask value used to set or clear the cascade values.
 676:.\Generated_Source\PSoC4/CyLib.c **** *   Value    Define                     Cascade
 677:.\Generated_Source\PSoC4/CyLib.c **** *   0        CY_SYS_WDT_CASCADE_NONE    Neither
 678:.\Generated_Source\PSoC4/CyLib.c **** *   1<<3     CY_SYS_WDT_CASCADE_01      Cascade 01
 679:.\Generated_Source\PSoC4/CyLib.c **** *   1<<11    CY_SYS_WDT_CASCADE_12      Cascade 12
ARM GAS  C:\Users\kees\AppData\Local\Temp\ccxzCKRQ.s 			page 19


 680:.\Generated_Source\PSoC4/CyLib.c **** *
 681:.\Generated_Source\PSoC4/CyLib.c **** * Return:
 682:.\Generated_Source\PSoC4/CyLib.c **** *   None
 683:.\Generated_Source\PSoC4/CyLib.c **** *
 684:.\Generated_Source\PSoC4/CyLib.c **** * Side effects:
 685:.\Generated_Source\PSoC4/CyLib.c **** *   If only one cascasde mask is specified, the second cascade is disabled.
 686:.\Generated_Source\PSoC4/CyLib.c **** *   To set both cascade modes two defines should be ORed:
 687:.\Generated_Source\PSoC4/CyLib.c **** *    (CY_SYS_WDT_CASCADE_01 | CY_SYS_WDT_CASCADE_12)
 688:.\Generated_Source\PSoC4/CyLib.c **** *   This API enables ILO, if it was disabled.
 689:.\Generated_Source\PSoC4/CyLib.c **** *
 690:.\Generated_Source\PSoC4/CyLib.c **** *******************************************************************************/
 691:.\Generated_Source\PSoC4/CyLib.c **** void CySysWdtWriteCascade(uint32 cascadeMask)
 692:.\Generated_Source\PSoC4/CyLib.c **** {
 693:.\Generated_Source\PSoC4/CyLib.c ****     uint32 configRegValue;
 694:.\Generated_Source\PSoC4/CyLib.c ****     uint32 countersEnableStatus;
 695:.\Generated_Source\PSoC4/CyLib.c **** 
 696:.\Generated_Source\PSoC4/CyLib.c ****     countersEnableStatus = CySysWdtReadEnabledStatus(CY_SYS_WDT_COUNTER0) |
 697:.\Generated_Source\PSoC4/CyLib.c ****                         CySysWdtReadEnabledStatus(CY_SYS_WDT_COUNTER1) |
 698:.\Generated_Source\PSoC4/CyLib.c ****                         CySysWdtReadEnabledStatus(CY_SYS_WDT_COUNTER2);
 699:.\Generated_Source\PSoC4/CyLib.c **** 
 700:.\Generated_Source\PSoC4/CyLib.c ****     if (0u == countersEnableStatus)
 701:.\Generated_Source\PSoC4/CyLib.c ****     {
 702:.\Generated_Source\PSoC4/CyLib.c ****         /* Configuring the WDT involves passing control signals between clock domains,
 703:.\Generated_Source\PSoC4/CyLib.c ****         * which requires the ILO to be enabled.
 704:.\Generated_Source\PSoC4/CyLib.c ****         */
 705:.\Generated_Source\PSoC4/CyLib.c ****         if (0u == (CY_SYS_CLK_ILO_CONFIG_REG & CY_SYS_CLK_ILO_CONFIG_ENABLE))
 706:.\Generated_Source\PSoC4/CyLib.c ****         {
 707:.\Generated_Source\PSoC4/CyLib.c ****             CySysClkIloStart();
 708:.\Generated_Source\PSoC4/CyLib.c ****         }
 709:.\Generated_Source\PSoC4/CyLib.c **** 
 710:.\Generated_Source\PSoC4/CyLib.c ****         configRegValue = CY_SYS_WDT_CONFIG_REG;
 711:.\Generated_Source\PSoC4/CyLib.c ****         configRegValue &= ((uint32)(~(CY_SYS_WDT_CASCADE_01|CY_SYS_WDT_CASCADE_12)));
 712:.\Generated_Source\PSoC4/CyLib.c ****         configRegValue |= cascadeMask;
 713:.\Generated_Source\PSoC4/CyLib.c ****         CY_SYS_WDT_CONFIG_REG = configRegValue;
 714:.\Generated_Source\PSoC4/CyLib.c ****     }
 715:.\Generated_Source\PSoC4/CyLib.c **** }
 716:.\Generated_Source\PSoC4/CyLib.c **** 
 717:.\Generated_Source\PSoC4/CyLib.c **** 
 718:.\Generated_Source\PSoC4/CyLib.c **** /*******************************************************************************
 719:.\Generated_Source\PSoC4/CyLib.c **** * Function Name: CySysWdtReadCascade
 720:.\Generated_Source\PSoC4/CyLib.c **** ********************************************************************************
 721:.\Generated_Source\PSoC4/CyLib.c **** *
 722:.\Generated_Source\PSoC4/CyLib.c **** * Summary:
 723:.\Generated_Source\PSoC4/CyLib.c **** *   Reads the two WDT cascade values returning a mask of the bits set.
 724:.\Generated_Source\PSoC4/CyLib.c **** *
 725:.\Generated_Source\PSoC4/CyLib.c **** * Parameters:
 726:.\Generated_Source\PSoC4/CyLib.c **** *   None
 727:.\Generated_Source\PSoC4/CyLib.c **** *
 728:.\Generated_Source\PSoC4/CyLib.c **** * Return:
 729:.\Generated_Source\PSoC4/CyLib.c **** *   Mask of cascade values set.
 730:.\Generated_Source\PSoC4/CyLib.c **** *   Value    Define                     Cascade
 731:.\Generated_Source\PSoC4/CyLib.c **** *   0        CY_SYS_WDT_CASCADE_NONE    Neither
 732:.\Generated_Source\PSoC4/CyLib.c **** *   1<<3     CY_SYS_WDT_CASCADE_01      Cascade 01
 733:.\Generated_Source\PSoC4/CyLib.c **** *   1<<11    CY_SYS_WDT_CASCADE_12      Cascade 12
 734:.\Generated_Source\PSoC4/CyLib.c **** *
 735:.\Generated_Source\PSoC4/CyLib.c **** *******************************************************************************/
 736:.\Generated_Source\PSoC4/CyLib.c **** uint32 CySysWdtReadCascade(void)
ARM GAS  C:\Users\kees\AppData\Local\Temp\ccxzCKRQ.s 			page 20


 737:.\Generated_Source\PSoC4/CyLib.c **** {
 344              		.loc 1 737 0
 345              		.cfi_startproc
 738:.\Generated_Source\PSoC4/CyLib.c ****     return (CY_SYS_WDT_CONFIG_REG & (CY_SYS_WDT_CASCADE_01 | CY_SYS_WDT_CASCADE_12));
 346              		.loc 1 738 0
 347 0000 024B     		ldr	r3, .L42
 739:.\Generated_Source\PSoC4/CyLib.c **** }
 348              		.loc 1 739 0
 349              		@ sp needed for prologue
 350              		.loc 1 738 0
 351 0002 1868     		ldr	r0, [r3]
 352 0004 024B     		ldr	r3, .L42+4
 353 0006 1840     		and	r0, r0, r3
 354              		.loc 1 739 0
 355 0008 7047     		bx	lr
 356              	.L43:
 357 000a C046     		.align	2
 358              	.L42:
 359 000c 0C020B40 		.word	1074463244
 360 0010 08080000 		.word	2056
 361              		.cfi_endproc
 362              	.LFE17:
 363              		.size	CySysWdtReadCascade, .-CySysWdtReadCascade
 364              		.section	.text.CySysWdtReadToggleBit,"ax",%progbits
 365              		.align	1
 366              		.global	CySysWdtReadToggleBit
 367              		.code	16
 368              		.thumb_func
 369              		.type	CySysWdtReadToggleBit, %function
 370              	CySysWdtReadToggleBit:
 371              	.LFB20:
 740:.\Generated_Source\PSoC4/CyLib.c **** 
 741:.\Generated_Source\PSoC4/CyLib.c **** 
 742:.\Generated_Source\PSoC4/CyLib.c **** /*******************************************************************************
 743:.\Generated_Source\PSoC4/CyLib.c **** * Function Name: CySysWdtWriteMatch
 744:.\Generated_Source\PSoC4/CyLib.c **** ********************************************************************************
 745:.\Generated_Source\PSoC4/CyLib.c **** *
 746:.\Generated_Source\PSoC4/CyLib.c **** * Summary:
 747:.\Generated_Source\PSoC4/CyLib.c **** *  Configures the WDT counter match comparison value.
 748:.\Generated_Source\PSoC4/CyLib.c **** *
 749:.\Generated_Source\PSoC4/CyLib.c **** * Parameters:
 750:.\Generated_Source\PSoC4/CyLib.c **** *  counterNum:
 751:.\Generated_Source\PSoC4/CyLib.c **** *   Valid range [0-1]. Number of the WDT counter. Match values are not
 752:.\Generated_Source\PSoC4/CyLib.c **** *   supported by counter 2.
 753:.\Generated_Source\PSoC4/CyLib.c **** *
 754:.\Generated_Source\PSoC4/CyLib.c **** *  match:
 755:.\Generated_Source\PSoC4/CyLib.c **** *   Valid range [0-65535]. Value to be used to match against the counter.
 756:.\Generated_Source\PSoC4/CyLib.c **** *
 757:.\Generated_Source\PSoC4/CyLib.c **** * Return:
 758:.\Generated_Source\PSoC4/CyLib.c **** *   None
 759:.\Generated_Source\PSoC4/CyLib.c **** *
 760:.\Generated_Source\PSoC4/CyLib.c **** * Side effects:
 761:.\Generated_Source\PSoC4/CyLib.c **** *   This API enables ILO, if it was disabled.
 762:.\Generated_Source\PSoC4/CyLib.c **** *
 763:.\Generated_Source\PSoC4/CyLib.c **** *******************************************************************************/
 764:.\Generated_Source\PSoC4/CyLib.c **** void CySysWdtWriteMatch(uint32 counterNum, uint32 match)
 765:.\Generated_Source\PSoC4/CyLib.c **** {
ARM GAS  C:\Users\kees\AppData\Local\Temp\ccxzCKRQ.s 			page 21


 766:.\Generated_Source\PSoC4/CyLib.c ****     uint32 regValue;
 767:.\Generated_Source\PSoC4/CyLib.c **** 
 768:.\Generated_Source\PSoC4/CyLib.c ****     CYASSERT((counterNum == CY_SYS_WDT_COUNTER0) ||
 769:.\Generated_Source\PSoC4/CyLib.c ****                                          (counterNum == CY_SYS_WDT_COUNTER1));
 770:.\Generated_Source\PSoC4/CyLib.c **** 
 771:.\Generated_Source\PSoC4/CyLib.c ****     /* Configuring the WDT involves passing control signals between clock domains,
 772:.\Generated_Source\PSoC4/CyLib.c ****     * which requires the ILO to be enabled.
 773:.\Generated_Source\PSoC4/CyLib.c ****     */
 774:.\Generated_Source\PSoC4/CyLib.c ****     if (0u == (CY_SYS_CLK_ILO_CONFIG_REG & CY_SYS_CLK_ILO_CONFIG_ENABLE))
 775:.\Generated_Source\PSoC4/CyLib.c ****     {
 776:.\Generated_Source\PSoC4/CyLib.c ****         CySysClkIloStart();
 777:.\Generated_Source\PSoC4/CyLib.c ****     }
 778:.\Generated_Source\PSoC4/CyLib.c **** 
 779:.\Generated_Source\PSoC4/CyLib.c ****     /* Delay ~ 3LFCK in order to male sure previos changes are applied */
 780:.\Generated_Source\PSoC4/CyLib.c ****     CyDelayUs(CY_SYS_WDT_3LFCLK_DELAY_US);
 781:.\Generated_Source\PSoC4/CyLib.c **** 
 782:.\Generated_Source\PSoC4/CyLib.c ****     regValue = CY_SYS_WDT_MATCH_REG;
 783:.\Generated_Source\PSoC4/CyLib.c ****     regValue &= (uint32)~((uint32)(CY_SYS_WDT_LOWER_16BITS_MASK << (counterNum * CY_SYS_WDT_CNT_MAT
 784:.\Generated_Source\PSoC4/CyLib.c ****     CY_SYS_WDT_MATCH_REG = (regValue | (match << (counterNum * CY_SYS_WDT_CNT_MATCH_SHIFT)));
 785:.\Generated_Source\PSoC4/CyLib.c **** }
 786:.\Generated_Source\PSoC4/CyLib.c **** 
 787:.\Generated_Source\PSoC4/CyLib.c **** 
 788:.\Generated_Source\PSoC4/CyLib.c **** /*******************************************************************************
 789:.\Generated_Source\PSoC4/CyLib.c **** * Function Name: CySysWdtWriteToggleBit
 790:.\Generated_Source\PSoC4/CyLib.c **** ********************************************************************************
 791:.\Generated_Source\PSoC4/CyLib.c **** *
 792:.\Generated_Source\PSoC4/CyLib.c **** * Summary:
 793:.\Generated_Source\PSoC4/CyLib.c **** *  Configures which bit in the WDT counter 2 to monitor for a toggle.  When that
 794:.\Generated_Source\PSoC4/CyLib.c **** *  bit toggles an interrupt is generated if the mode for counter 2 has
 795:.\Generated_Source\PSoC4/CyLib.c **** *  interrupts enabled.
 796:.\Generated_Source\PSoC4/CyLib.c **** *
 797:.\Generated_Source\PSoC4/CyLib.c **** * Parameters:
 798:.\Generated_Source\PSoC4/CyLib.c **** *  bit:
 799:.\Generated_Source\PSoC4/CyLib.c **** *   Valid range [0-31].  Counter 2 bit to monitor for a toggle.
 800:.\Generated_Source\PSoC4/CyLib.c **** *
 801:.\Generated_Source\PSoC4/CyLib.c **** * Return:
 802:.\Generated_Source\PSoC4/CyLib.c **** *   None
 803:.\Generated_Source\PSoC4/CyLib.c **** *
 804:.\Generated_Source\PSoC4/CyLib.c **** * Side effects:
 805:.\Generated_Source\PSoC4/CyLib.c **** *   WDT counter 2 should be disabled. Othetwise function
 806:.\Generated_Source\PSoC4/CyLib.c **** *   call will have no effect.
 807:.\Generated_Source\PSoC4/CyLib.c **** *   This API enables ILO, if it was disabled.
 808:.\Generated_Source\PSoC4/CyLib.c **** *
 809:.\Generated_Source\PSoC4/CyLib.c **** *******************************************************************************/
 810:.\Generated_Source\PSoC4/CyLib.c **** void CySysWdtWriteToggleBit(uint32 bits)
 811:.\Generated_Source\PSoC4/CyLib.c **** {
 812:.\Generated_Source\PSoC4/CyLib.c ****     uint32 configRegValue;
 813:.\Generated_Source\PSoC4/CyLib.c **** 
 814:.\Generated_Source\PSoC4/CyLib.c ****     if (0u == CySysWdtReadEnabledStatus(CY_SYS_WDT_COUNTER2))
 815:.\Generated_Source\PSoC4/CyLib.c ****     {
 816:.\Generated_Source\PSoC4/CyLib.c ****         /* Configuring the WDT involves passing control signals between clock domains,
 817:.\Generated_Source\PSoC4/CyLib.c ****         * which requires the ILO to be enabled.
 818:.\Generated_Source\PSoC4/CyLib.c ****         */
 819:.\Generated_Source\PSoC4/CyLib.c ****         if (0u == (CY_SYS_CLK_ILO_CONFIG_REG & CY_SYS_CLK_ILO_CONFIG_ENABLE))
 820:.\Generated_Source\PSoC4/CyLib.c ****         {
 821:.\Generated_Source\PSoC4/CyLib.c ****             CySysClkIloStart();
 822:.\Generated_Source\PSoC4/CyLib.c ****         }
ARM GAS  C:\Users\kees\AppData\Local\Temp\ccxzCKRQ.s 			page 22


 823:.\Generated_Source\PSoC4/CyLib.c **** 
 824:.\Generated_Source\PSoC4/CyLib.c ****         configRegValue = CY_SYS_WDT_CONFIG_REG;
 825:.\Generated_Source\PSoC4/CyLib.c ****         configRegValue &= (uint32)(~((uint32)(CY_SYS_WDT_CONFIG_BITS2_MASK << CY_SYS_WDT_CONFIG_BIT
 826:.\Generated_Source\PSoC4/CyLib.c ****         configRegValue |= ((bits & CY_SYS_WDT_CONFIG_BITS2_MASK) << CY_SYS_WDT_CONFIG_BITS2_POS);
 827:.\Generated_Source\PSoC4/CyLib.c ****         CY_SYS_WDT_CONFIG_REG = configRegValue;
 828:.\Generated_Source\PSoC4/CyLib.c ****     }
 829:.\Generated_Source\PSoC4/CyLib.c **** }
 830:.\Generated_Source\PSoC4/CyLib.c **** 
 831:.\Generated_Source\PSoC4/CyLib.c **** 
 832:.\Generated_Source\PSoC4/CyLib.c **** /*******************************************************************************
 833:.\Generated_Source\PSoC4/CyLib.c **** * Function Name: CySysWdtReadToggleBit
 834:.\Generated_Source\PSoC4/CyLib.c **** ********************************************************************************
 835:.\Generated_Source\PSoC4/CyLib.c **** *
 836:.\Generated_Source\PSoC4/CyLib.c **** * Summary:
 837:.\Generated_Source\PSoC4/CyLib.c **** *  Reads which bit in the WDT counter 2 is monitored for a toggle.
 838:.\Generated_Source\PSoC4/CyLib.c **** *
 839:.\Generated_Source\PSoC4/CyLib.c **** * Parameters:
 840:.\Generated_Source\PSoC4/CyLib.c **** *  None
 841:.\Generated_Source\PSoC4/CyLib.c **** *
 842:.\Generated_Source\PSoC4/CyLib.c **** * Return:
 843:.\Generated_Source\PSoC4/CyLib.c **** *  Bit that is monitored (range of 0 to 31)
 844:.\Generated_Source\PSoC4/CyLib.c **** *
 845:.\Generated_Source\PSoC4/CyLib.c **** *******************************************************************************/
 846:.\Generated_Source\PSoC4/CyLib.c **** uint32 CySysWdtReadToggleBit(void)
 847:.\Generated_Source\PSoC4/CyLib.c **** {
 372              		.loc 1 847 0
 373              		.cfi_startproc
 848:.\Generated_Source\PSoC4/CyLib.c ****     return ((CY_SYS_WDT_CONFIG_REG >> CY_SYS_WDT_CONFIG_BITS2_POS) & CY_SYS_WDT_CONFIG_BITS2_MASK);
 374              		.loc 1 848 0
 375 0000 024B     		ldr	r3, .L46
 849:.\Generated_Source\PSoC4/CyLib.c **** }
 376              		.loc 1 849 0
 377              		@ sp needed for prologue
 378              		.loc 1 848 0
 379 0002 1868     		ldr	r0, [r3]
 380 0004 C000     		lsl	r0, r0, #3
 381 0006 C00E     		lsr	r0, r0, #27
 382              		.loc 1 849 0
 383 0008 7047     		bx	lr
 384              	.L47:
 385 000a C046     		.align	2
 386              	.L46:
 387 000c 0C020B40 		.word	1074463244
 388              		.cfi_endproc
 389              	.LFE20:
 390              		.size	CySysWdtReadToggleBit, .-CySysWdtReadToggleBit
 391              		.section	.text.CySysWdtGetInterruptSource,"ax",%progbits
 392              		.align	1
 393              		.global	CySysWdtGetInterruptSource
 394              		.code	16
 395              		.thumb_func
 396              		.type	CySysWdtGetInterruptSource, %function
 397              	CySysWdtGetInterruptSource:
 398              	.LFB23:
 850:.\Generated_Source\PSoC4/CyLib.c **** 
 851:.\Generated_Source\PSoC4/CyLib.c **** 
 852:.\Generated_Source\PSoC4/CyLib.c **** /*******************************************************************************
ARM GAS  C:\Users\kees\AppData\Local\Temp\ccxzCKRQ.s 			page 23


 853:.\Generated_Source\PSoC4/CyLib.c **** * Function Name: CySysWdtReadMatch
 854:.\Generated_Source\PSoC4/CyLib.c **** ********************************************************************************
 855:.\Generated_Source\PSoC4/CyLib.c **** *
 856:.\Generated_Source\PSoC4/CyLib.c **** * Summary:
 857:.\Generated_Source\PSoC4/CyLib.c **** *  Reads the WDT counter match comparison value.
 858:.\Generated_Source\PSoC4/CyLib.c **** *
 859:.\Generated_Source\PSoC4/CyLib.c **** * Parameters:
 860:.\Generated_Source\PSoC4/CyLib.c **** *  counterNum: Valid range [0-1].  Number of the WDT counter.  Match values
 861:.\Generated_Source\PSoC4/CyLib.c **** *               are not supported by counter 2.
 862:.\Generated_Source\PSoC4/CyLib.c **** *
 863:.\Generated_Source\PSoC4/CyLib.c **** * Return:
 864:.\Generated_Source\PSoC4/CyLib.c **** *  Counter match value
 865:.\Generated_Source\PSoC4/CyLib.c **** *
 866:.\Generated_Source\PSoC4/CyLib.c **** *******************************************************************************/
 867:.\Generated_Source\PSoC4/CyLib.c **** uint32 CySysWdtReadMatch(uint32 counterNum)
 868:.\Generated_Source\PSoC4/CyLib.c **** {
 869:.\Generated_Source\PSoC4/CyLib.c ****     CYASSERT((counterNum == CY_SYS_WDT_COUNTER0) ||
 870:.\Generated_Source\PSoC4/CyLib.c ****                                          (counterNum == CY_SYS_WDT_COUNTER1));
 871:.\Generated_Source\PSoC4/CyLib.c **** 
 872:.\Generated_Source\PSoC4/CyLib.c ****     return ((uint32)(CY_SYS_WDT_MATCH_REG >> (counterNum * CY_SYS_WDT_CNT_MATCH_SHIFT)) & CY_SYS_WD
 873:.\Generated_Source\PSoC4/CyLib.c **** }
 874:.\Generated_Source\PSoC4/CyLib.c **** 
 875:.\Generated_Source\PSoC4/CyLib.c **** 
 876:.\Generated_Source\PSoC4/CyLib.c **** /*******************************************************************************
 877:.\Generated_Source\PSoC4/CyLib.c **** * Function Name: CySysWdtReadCount
 878:.\Generated_Source\PSoC4/CyLib.c **** ********************************************************************************
 879:.\Generated_Source\PSoC4/CyLib.c **** *
 880:.\Generated_Source\PSoC4/CyLib.c **** * Summary:
 881:.\Generated_Source\PSoC4/CyLib.c **** *  Reads the current WDT counter value.
 882:.\Generated_Source\PSoC4/CyLib.c **** *
 883:.\Generated_Source\PSoC4/CyLib.c **** * Parameters:
 884:.\Generated_Source\PSoC4/CyLib.c **** *  counterNum: Valid range [0-2].  Number of the WDT counter.
 885:.\Generated_Source\PSoC4/CyLib.c **** *
 886:.\Generated_Source\PSoC4/CyLib.c **** * Return:
 887:.\Generated_Source\PSoC4/CyLib.c **** *  Live counter value.  Counter 0 and 1 are 16 bit counters and counter
 888:.\Generated_Source\PSoC4/CyLib.c **** *  2 is a 32 bit counter.
 889:.\Generated_Source\PSoC4/CyLib.c **** *
 890:.\Generated_Source\PSoC4/CyLib.c **** *******************************************************************************/
 891:.\Generated_Source\PSoC4/CyLib.c **** uint32 CySysWdtReadCount(uint32 counterNum)
 892:.\Generated_Source\PSoC4/CyLib.c **** {
 893:.\Generated_Source\PSoC4/CyLib.c ****     uint32 regValue = 0u;
 894:.\Generated_Source\PSoC4/CyLib.c **** 
 895:.\Generated_Source\PSoC4/CyLib.c ****     switch(counterNum)
 896:.\Generated_Source\PSoC4/CyLib.c ****     {
 897:.\Generated_Source\PSoC4/CyLib.c ****         /* WDT Counter 0 */
 898:.\Generated_Source\PSoC4/CyLib.c ****         case 0u:
 899:.\Generated_Source\PSoC4/CyLib.c ****             regValue = CY_SYS_WDT_CTRLOW_REG & CY_SYS_WDT_LOWER_16BITS_MASK;
 900:.\Generated_Source\PSoC4/CyLib.c ****         break;
 901:.\Generated_Source\PSoC4/CyLib.c **** 
 902:.\Generated_Source\PSoC4/CyLib.c ****         /* WDT Counter 1 */
 903:.\Generated_Source\PSoC4/CyLib.c ****         case 1u:
 904:.\Generated_Source\PSoC4/CyLib.c ****             regValue = (CY_SYS_WDT_CTRLOW_REG >> CY_SYS_WDT_CNT_MATCH_SHIFT) & CY_SYS_WDT_LOWER_16B
 905:.\Generated_Source\PSoC4/CyLib.c ****         break;
 906:.\Generated_Source\PSoC4/CyLib.c **** 
 907:.\Generated_Source\PSoC4/CyLib.c ****         /* WDT Counter 2 */
 908:.\Generated_Source\PSoC4/CyLib.c ****         case 2u:
 909:.\Generated_Source\PSoC4/CyLib.c ****             regValue = CY_SYS_WDT_CTRHIGH_REG;
ARM GAS  C:\Users\kees\AppData\Local\Temp\ccxzCKRQ.s 			page 24


 910:.\Generated_Source\PSoC4/CyLib.c ****         break;
 911:.\Generated_Source\PSoC4/CyLib.c **** 
 912:.\Generated_Source\PSoC4/CyLib.c ****         default:
 913:.\Generated_Source\PSoC4/CyLib.c ****             CYASSERT(0u != 0u);
 914:.\Generated_Source\PSoC4/CyLib.c ****         break;
 915:.\Generated_Source\PSoC4/CyLib.c ****     }
 916:.\Generated_Source\PSoC4/CyLib.c **** 
 917:.\Generated_Source\PSoC4/CyLib.c ****     return (regValue);
 918:.\Generated_Source\PSoC4/CyLib.c **** }
 919:.\Generated_Source\PSoC4/CyLib.c **** 
 920:.\Generated_Source\PSoC4/CyLib.c **** 
 921:.\Generated_Source\PSoC4/CyLib.c **** /*******************************************************************************
 922:.\Generated_Source\PSoC4/CyLib.c **** * Function Name: CySysWdtGetInterruptSource
 923:.\Generated_Source\PSoC4/CyLib.c **** ********************************************************************************
 924:.\Generated_Source\PSoC4/CyLib.c **** *
 925:.\Generated_Source\PSoC4/CyLib.c **** * Summary:
 926:.\Generated_Source\PSoC4/CyLib.c **** *   Reads a mask containing all the WDT counters interrupts that are currently
 927:.\Generated_Source\PSoC4/CyLib.c **** *   set by hardware, if corresponding mode is selected.
 928:.\Generated_Source\PSoC4/CyLib.c **** *
 929:.\Generated_Source\PSoC4/CyLib.c **** * Parameters:
 930:.\Generated_Source\PSoC4/CyLib.c **** *   None
 931:.\Generated_Source\PSoC4/CyLib.c **** *
 932:.\Generated_Source\PSoC4/CyLib.c **** * Return:
 933:.\Generated_Source\PSoC4/CyLib.c **** *   Mask of interrupts set.
 934:.\Generated_Source\PSoC4/CyLib.c **** *   Value    Define                    Counter
 935:.\Generated_Source\PSoC4/CyLib.c **** *   1<<2     CY_SYS_WDT_COUNTER0_INT    0
 936:.\Generated_Source\PSoC4/CyLib.c **** *   1<<10    CY_SYS_WDT_COUNTER1_INT    1
 937:.\Generated_Source\PSoC4/CyLib.c **** *   1<<18    CY_SYS_WDT_COUNTER2_INT    2
 938:.\Generated_Source\PSoC4/CyLib.c **** *
 939:.\Generated_Source\PSoC4/CyLib.c **** *******************************************************************************/
 940:.\Generated_Source\PSoC4/CyLib.c **** uint32 CySysWdtGetInterruptSource(void)
 941:.\Generated_Source\PSoC4/CyLib.c **** {
 399              		.loc 1 941 0
 400              		.cfi_startproc
 942:.\Generated_Source\PSoC4/CyLib.c ****     return (CY_SYS_WDT_CONTROL_REG & (CY_SYS_WDT_COUNTER0_INT | CY_SYS_WDT_COUNTER1_INT | CY_SYS_WD
 401              		.loc 1 942 0
 402 0000 024B     		ldr	r3, .L50
 943:.\Generated_Source\PSoC4/CyLib.c **** }
 403              		.loc 1 943 0
 404              		@ sp needed for prologue
 405              		.loc 1 942 0
 406 0002 1868     		ldr	r0, [r3]
 407 0004 024B     		ldr	r3, .L50+4
 408 0006 1840     		and	r0, r0, r3
 409              		.loc 1 943 0
 410 0008 7047     		bx	lr
 411              	.L51:
 412 000a C046     		.align	2
 413              	.L50:
 414 000c 10020B40 		.word	1074463248
 415 0010 04040400 		.word	263172
 416              		.cfi_endproc
 417              	.LFE23:
 418              		.size	CySysWdtGetInterruptSource, .-CySysWdtGetInterruptSource
 419              		.section	.text.CySysWdtResetCounters,"ax",%progbits
 420              		.align	1
 421              		.global	CySysWdtResetCounters
ARM GAS  C:\Users\kees\AppData\Local\Temp\ccxzCKRQ.s 			page 25


 422              		.code	16
 423              		.thumb_func
 424              		.type	CySysWdtResetCounters, %function
 425              	CySysWdtResetCounters:
 426              	.LFB25:
 944:.\Generated_Source\PSoC4/CyLib.c **** 
 945:.\Generated_Source\PSoC4/CyLib.c **** 
 946:.\Generated_Source\PSoC4/CyLib.c **** /*******************************************************************************
 947:.\Generated_Source\PSoC4/CyLib.c **** * Function Name: CySysWdtClearInterrupt
 948:.\Generated_Source\PSoC4/CyLib.c **** ********************************************************************************
 949:.\Generated_Source\PSoC4/CyLib.c **** *
 950:.\Generated_Source\PSoC4/CyLib.c **** * Summary:
 951:.\Generated_Source\PSoC4/CyLib.c **** *   Clears all WDT counter interrupts set in the mask. Calling this API also
 952:.\Generated_Source\PSoC4/CyLib.c **** *   prevents Reset from happening when counter mode is set to generate
 953:.\Generated_Source\PSoC4/CyLib.c **** *   3 interrupts and then reset device.
 954:.\Generated_Source\PSoC4/CyLib.c **** *   All WDT interrupts are to be cleared by firmware, otherwise interrupts will
 955:.\Generated_Source\PSoC4/CyLib.c **** *   be generated continuously.
 956:.\Generated_Source\PSoC4/CyLib.c **** *
 957:.\Generated_Source\PSoC4/CyLib.c **** * Parameters:
 958:.\Generated_Source\PSoC4/CyLib.c **** *   counterMask: Mask of all counters to enable
 959:.\Generated_Source\PSoC4/CyLib.c **** *   Value    Define                    Counter
 960:.\Generated_Source\PSoC4/CyLib.c **** *   1<<2     CY_SYS_WDT_COUNTER0_INT    0
 961:.\Generated_Source\PSoC4/CyLib.c **** *   1<<10    CY_SYS_WDT_COUNTER1_INT    1
 962:.\Generated_Source\PSoC4/CyLib.c **** *   1<<18    CY_SYS_WDT_COUNTER2_INT    2
 963:.\Generated_Source\PSoC4/CyLib.c **** *
 964:.\Generated_Source\PSoC4/CyLib.c **** * Return:
 965:.\Generated_Source\PSoC4/CyLib.c **** *   None
 966:.\Generated_Source\PSoC4/CyLib.c **** *
 967:.\Generated_Source\PSoC4/CyLib.c **** * Side effects:
 968:.\Generated_Source\PSoC4/CyLib.c **** *   This API enables ILO, if it was disabled and temporary removes Watchdog
 969:.\Generated_Source\PSoC4/CyLib.c **** *   lock, if it was set, and restores lock state, after cleaning WDT interrupts,
 970:.\Generated_Source\PSoC4/CyLib.c **** *   that are set in mask.
 971:.\Generated_Source\PSoC4/CyLib.c **** *
 972:.\Generated_Source\PSoC4/CyLib.c **** *******************************************************************************/
 973:.\Generated_Source\PSoC4/CyLib.c **** void CySysWdtClearInterrupt(uint32 counterMask)
 974:.\Generated_Source\PSoC4/CyLib.c **** {
 975:.\Generated_Source\PSoC4/CyLib.c ****     uint8 interruptState;
 976:.\Generated_Source\PSoC4/CyLib.c ****     uint32 wdtLockState;
 977:.\Generated_Source\PSoC4/CyLib.c **** 
 978:.\Generated_Source\PSoC4/CyLib.c ****     interruptState = CyEnterCriticalSection();
 979:.\Generated_Source\PSoC4/CyLib.c **** 
 980:.\Generated_Source\PSoC4/CyLib.c ****     /* Configuring the WDT involves passing control signals between clock domains,
 981:.\Generated_Source\PSoC4/CyLib.c ****     * which requires the ILO to be enabled.
 982:.\Generated_Source\PSoC4/CyLib.c ****     */
 983:.\Generated_Source\PSoC4/CyLib.c ****     if (0u == (CY_SYS_CLK_ILO_CONFIG_REG & CY_SYS_CLK_ILO_CONFIG_ENABLE))
 984:.\Generated_Source\PSoC4/CyLib.c ****     {
 985:.\Generated_Source\PSoC4/CyLib.c ****         CySysClkIloStart();
 986:.\Generated_Source\PSoC4/CyLib.c ****     }
 987:.\Generated_Source\PSoC4/CyLib.c **** 
 988:.\Generated_Source\PSoC4/CyLib.c ****     if ((CY_SYS_CLK_SELECT_REG & (uint32)(CY_SYS_WDT_CLK_LOCK_BITS_MASK)) == CY_SYS_WDT_CLK_LOCK_BI
 989:.\Generated_Source\PSoC4/CyLib.c ****     {
 990:.\Generated_Source\PSoC4/CyLib.c ****         wdtLockState = 1u;
 991:.\Generated_Source\PSoC4/CyLib.c **** 
 992:.\Generated_Source\PSoC4/CyLib.c ****         /* Removing WDT lock requires two writes */
 993:.\Generated_Source\PSoC4/CyLib.c ****         CY_SYS_CLK_SELECT_REG = ((CY_SYS_CLK_SELECT_REG & (uint32)(~CY_SYS_WDT_CLK_LOCK_BITS_MASK))
 994:.\Generated_Source\PSoC4/CyLib.c ****                 CY_SYS_WDT_CLK_LOCK_BIT0);
 995:.\Generated_Source\PSoC4/CyLib.c **** 
ARM GAS  C:\Users\kees\AppData\Local\Temp\ccxzCKRQ.s 			page 26


 996:.\Generated_Source\PSoC4/CyLib.c ****         CY_SYS_CLK_SELECT_REG = ((CY_SYS_CLK_SELECT_REG & (uint32)(~CY_SYS_WDT_CLK_LOCK_BITS_MASK))
 997:.\Generated_Source\PSoC4/CyLib.c ****                 CY_SYS_WDT_CLK_LOCK_BIT1);
 998:.\Generated_Source\PSoC4/CyLib.c ****     }
 999:.\Generated_Source\PSoC4/CyLib.c ****     else
1000:.\Generated_Source\PSoC4/CyLib.c ****     {
1001:.\Generated_Source\PSoC4/CyLib.c ****         wdtLockState = 0u;
1002:.\Generated_Source\PSoC4/CyLib.c ****     }
1003:.\Generated_Source\PSoC4/CyLib.c **** 
1004:.\Generated_Source\PSoC4/CyLib.c ****     /* Set the new WDT control register value */
1005:.\Generated_Source\PSoC4/CyLib.c ****     CY_SYS_WDT_CONTROL_REG |= (counterMask & (CY_SYS_WDT_COUNTER0_INT |
1006:.\Generated_Source\PSoC4/CyLib.c ****         CY_SYS_WDT_COUNTER1_INT | CY_SYS_WDT_COUNTER2_INT));
1007:.\Generated_Source\PSoC4/CyLib.c **** 
1008:.\Generated_Source\PSoC4/CyLib.c ****     if (1u == wdtLockState)
1009:.\Generated_Source\PSoC4/CyLib.c ****     {
1010:.\Generated_Source\PSoC4/CyLib.c ****         /* CLK_SELECT register's bits 15:14 are WDT_LOCK */
1011:.\Generated_Source\PSoC4/CyLib.c ****         CY_SYS_CLK_SELECT_REG = (CY_SYS_CLK_SELECT_REG & (uint32)(~CY_SYS_WDT_CLK_LOCK_BITS_MASK)) 
1012:.\Generated_Source\PSoC4/CyLib.c ****                  CY_SYS_WDT_CLK_LOCK_BITS_MASK;
1013:.\Generated_Source\PSoC4/CyLib.c ****     }
1014:.\Generated_Source\PSoC4/CyLib.c **** 
1015:.\Generated_Source\PSoC4/CyLib.c ****     CyExitCriticalSection(interruptState);
1016:.\Generated_Source\PSoC4/CyLib.c **** }
1017:.\Generated_Source\PSoC4/CyLib.c **** 
1018:.\Generated_Source\PSoC4/CyLib.c **** 
1019:.\Generated_Source\PSoC4/CyLib.c **** /*******************************************************************************
1020:.\Generated_Source\PSoC4/CyLib.c **** * Function Name: CySysWdtResetCounters
1021:.\Generated_Source\PSoC4/CyLib.c **** ********************************************************************************
1022:.\Generated_Source\PSoC4/CyLib.c **** *
1023:.\Generated_Source\PSoC4/CyLib.c **** * Summary:
1024:.\Generated_Source\PSoC4/CyLib.c **** *  Resets all WDT counters set in the mask.
1025:.\Generated_Source\PSoC4/CyLib.c **** *
1026:.\Generated_Source\PSoC4/CyLib.c **** * Parameters:
1027:.\Generated_Source\PSoC4/CyLib.c **** *  counterMask: Mask of all counters to reset.
1028:.\Generated_Source\PSoC4/CyLib.c **** *   Value    Define                       Counter
1029:.\Generated_Source\PSoC4/CyLib.c **** *   1<<3     CY_SYS_WDT_COUNTER0_RESET    0
1030:.\Generated_Source\PSoC4/CyLib.c **** *   1<<11    CY_SYS_WDT_COUNTER1_RESET    1
1031:.\Generated_Source\PSoC4/CyLib.c **** *   1<<19    CY_SYS_WDT_COUNTER2_RESET    2
1032:.\Generated_Source\PSoC4/CyLib.c **** *
1033:.\Generated_Source\PSoC4/CyLib.c **** * Return:
1034:.\Generated_Source\PSoC4/CyLib.c **** *   None
1035:.\Generated_Source\PSoC4/CyLib.c **** *
1036:.\Generated_Source\PSoC4/CyLib.c **** * Side effects:
1037:.\Generated_Source\PSoC4/CyLib.c **** *   This API enables ILO, if it was disabled, this API call will not reset
1038:.\Generated_Source\PSoC4/CyLib.c **** *   counter values, if Watchdog is locked.
1039:.\Generated_Source\PSoC4/CyLib.c **** *
1040:.\Generated_Source\PSoC4/CyLib.c **** *******************************************************************************/
1041:.\Generated_Source\PSoC4/CyLib.c **** void CySysWdtResetCounters(uint32 countersMask)
1042:.\Generated_Source\PSoC4/CyLib.c **** {
 427              		.loc 1 1042 0
 428              		.cfi_startproc
 429 0000 10B5     		push	{r4, lr}
 430              	.LCFI3:
 431              		.cfi_def_cfa_offset 8
 432              		.cfi_offset 4, -8
 433              		.cfi_offset 14, -4
 434              	.LVL14:
1043:.\Generated_Source\PSoC4/CyLib.c ****     /* Configuring the WDT involves passing control signals between clock domains,
1044:.\Generated_Source\PSoC4/CyLib.c ****     * which requires the ILO to be enabled.
ARM GAS  C:\Users\kees\AppData\Local\Temp\ccxzCKRQ.s 			page 27


1045:.\Generated_Source\PSoC4/CyLib.c ****     */
1046:.\Generated_Source\PSoC4/CyLib.c ****     if (0u == (CY_SYS_CLK_ILO_CONFIG_REG & CY_SYS_CLK_ILO_CONFIG_ENABLE))
 435              		.loc 1 1046 0
 436 0002 074B     		ldr	r3, .L55
 437              		.loc 1 1042 0
 438 0004 041C     		mov	r4, r0
 439              		.loc 1 1046 0
 440 0006 1B68     		ldr	r3, [r3]
 441 0008 002B     		cmp	r3, #0
 442 000a 01DB     		blt	.L53
 443              	.LVL15:
1047:.\Generated_Source\PSoC4/CyLib.c ****     {
1048:.\Generated_Source\PSoC4/CyLib.c ****         CySysClkIloStart();
 444              		.loc 1 1048 0
 445 000c FFF7FEFF 		bl	CySysClkIloStart
 446              	.LVL16:
 447              	.L53:
1049:.\Generated_Source\PSoC4/CyLib.c ****     }
1050:.\Generated_Source\PSoC4/CyLib.c **** 
1051:.\Generated_Source\PSoC4/CyLib.c ****     /* Set the new WDT reset value */
1052:.\Generated_Source\PSoC4/CyLib.c ****     CY_SYS_WDT_CONTROL_REG |= (countersMask & (CY_SYS_WDT_COUNTER0_RESET |
 448              		.loc 1 1052 0
 449 0010 044B     		ldr	r3, .L55+4
 450 0012 0549     		ldr	r1, .L55+8
 451 0014 1A68     		ldr	r2, [r3]
 452 0016 0C40     		and	r4, r4, r1
 453              	.LVL17:
 454 0018 1443     		orr	r4, r4, r2
 455 001a 1C60     		str	r4, [r3]
1053:.\Generated_Source\PSoC4/CyLib.c ****         CY_SYS_WDT_COUNTER1_RESET | CY_SYS_WDT_COUNTER2_RESET));
1054:.\Generated_Source\PSoC4/CyLib.c **** }
 456              		.loc 1 1054 0
 457              		@ sp needed for prologue
 458 001c 10BD     		pop	{r4, pc}
 459              	.L56:
 460 001e C046     		.align	2
 461              	.L55:
 462 0020 04010B40 		.word	1074462980
 463 0024 10020B40 		.word	1074463248
 464 0028 08080800 		.word	526344
 465              		.cfi_endproc
 466              	.LFE25:
 467              		.size	CySysWdtResetCounters, .-CySysWdtResetCounters
 468              		.section	.text.CySysLvdEnable,"ax",%progbits
 469              		.align	1
 470              		.global	CySysLvdEnable
 471              		.code	16
 472              		.thumb_func
 473              		.type	CySysLvdEnable, %function
 474              	CySysLvdEnable:
 475              	.LFB26:
1055:.\Generated_Source\PSoC4/CyLib.c **** 
1056:.\Generated_Source\PSoC4/CyLib.c **** 
1057:.\Generated_Source\PSoC4/CyLib.c **** /*******************************************************************************
1058:.\Generated_Source\PSoC4/CyLib.c **** * Function Name: CySysLvdEnable
1059:.\Generated_Source\PSoC4/CyLib.c **** ********************************************************************************
1060:.\Generated_Source\PSoC4/CyLib.c **** *
ARM GAS  C:\Users\kees\AppData\Local\Temp\ccxzCKRQ.s 			page 28


1061:.\Generated_Source\PSoC4/CyLib.c **** * Summary:
1062:.\Generated_Source\PSoC4/CyLib.c **** *  Enables the output of the low-voltage monitor when Vddd is at or below the
1063:.\Generated_Source\PSoC4/CyLib.c **** *  trip point, configures device to generate an interrupt, and sets the voltage
1064:.\Generated_Source\PSoC4/CyLib.c **** *  trip level.
1065:.\Generated_Source\PSoC4/CyLib.c **** *
1066:.\Generated_Source\PSoC4/CyLib.c **** * Parameters:
1067:.\Generated_Source\PSoC4/CyLib.c **** *  threshold: Threshold selection for Low Voltage Detect circuit.
1068:.\Generated_Source\PSoC4/CyLib.c **** *  Threshold variation is +/- 2.5% from these typical voltage choices.
1069:.\Generated_Source\PSoC4/CyLib.c **** *         Define                     Voltage threshold
1070:.\Generated_Source\PSoC4/CyLib.c **** *    CY_LVD_THRESHOLD_1_75_V       1.7500 V
1071:.\Generated_Source\PSoC4/CyLib.c **** *    CY_LVD_THRESHOLD_1_80_V       1.8000 V
1072:.\Generated_Source\PSoC4/CyLib.c **** *    CY_LVD_THRESHOLD_1_90_V       1.9000 V
1073:.\Generated_Source\PSoC4/CyLib.c **** *    CY_LVD_THRESHOLD_2_00_V       2.0000 V
1074:.\Generated_Source\PSoC4/CyLib.c **** *    CY_LVD_THRESHOLD_2_10_V       2.1000 V
1075:.\Generated_Source\PSoC4/CyLib.c **** *    CY_LVD_THRESHOLD_2_20_V       2.2000 V
1076:.\Generated_Source\PSoC4/CyLib.c **** *    CY_LVD_THRESHOLD_2_30_V       2.3000 V
1077:.\Generated_Source\PSoC4/CyLib.c **** *    CY_LVD_THRESHOLD_2_40_V       2.4000 V
1078:.\Generated_Source\PSoC4/CyLib.c **** *    CY_LVD_THRESHOLD_2_50_V       2.5000 V
1079:.\Generated_Source\PSoC4/CyLib.c **** *    CY_LVD_THRESHOLD_2_60_V       2.6000 V
1080:.\Generated_Source\PSoC4/CyLib.c **** *    CY_LVD_THRESHOLD_2_70_V       2.7000 V
1081:.\Generated_Source\PSoC4/CyLib.c **** *    CY_LVD_THRESHOLD_2_80_V       2.8000 V
1082:.\Generated_Source\PSoC4/CyLib.c **** *    CY_LVD_THRESHOLD_2_90_V       2.9000 V
1083:.\Generated_Source\PSoC4/CyLib.c **** *    CY_LVD_THRESHOLD_3_00_V       3.0000 V
1084:.\Generated_Source\PSoC4/CyLib.c **** *    CY_LVD_THRESHOLD_3_20_V       3.2000 V
1085:.\Generated_Source\PSoC4/CyLib.c **** *    CY_LVD_THRESHOLD_4_50_V       4.5000 V
1086:.\Generated_Source\PSoC4/CyLib.c **** *
1087:.\Generated_Source\PSoC4/CyLib.c **** * Return:
1088:.\Generated_Source\PSoC4/CyLib.c **** *  None
1089:.\Generated_Source\PSoC4/CyLib.c **** *
1090:.\Generated_Source\PSoC4/CyLib.c **** *******************************************************************************/
1091:.\Generated_Source\PSoC4/CyLib.c **** void CySysLvdEnable(uint32 threshold)
1092:.\Generated_Source\PSoC4/CyLib.c **** {
 476              		.loc 1 1092 0
 477              		.cfi_startproc
 478              	.LVL18:
1093:.\Generated_Source\PSoC4/CyLib.c ****     /* Set threshold */
1094:.\Generated_Source\PSoC4/CyLib.c ****     CY_LVD_PWR_VMON_CONFIG_REG = (CY_LVD_PWR_VMON_CONFIG_REG & ~CY_LVD_PWR_VMON_CONFIG_LVD_SEL_MASK
 479              		.loc 1 1094 0
 480 0000 094B     		ldr	r3, .L59
 481 0002 1E22     		mov	r2, #30
 482 0004 1968     		ldr	r1, [r3]
 483 0006 4000     		lsl	r0, r0, #1
 484              	.LVL19:
 485 0008 9143     		bic	r1, r1, r2
 486 000a 1040     		and	r0, r0, r2
 487 000c 0A1C     		mov	r2, r1
 488 000e 0243     		orr	r2, r2, r0
 489 0010 1A60     		str	r2, [r3]
1095:.\Generated_Source\PSoC4/CyLib.c ****             ((threshold << CY_LVD_PWR_VMON_CONFIG_LVD_SEL_SHIFT) & CY_LVD_PWR_VMON_CONFIG_LVD_SEL_M
1096:.\Generated_Source\PSoC4/CyLib.c **** 
1097:.\Generated_Source\PSoC4/CyLib.c ****     CY_LVD_PWR_VMON_CONFIG_REG |= CY_LVD_PWR_VMON_CONFIG_LVD_EN;
 490              		.loc 1 1097 0
 491 0012 1968     		ldr	r1, [r3]
 492 0014 0122     		mov	r2, #1
 493 0016 0A43     		orr	r2, r2, r1
 494 0018 1A60     		str	r2, [r3]
1098:.\Generated_Source\PSoC4/CyLib.c ****     CY_LVD_PWR_INTR_MASK_REG   |= CY_LVD_PROPAGATE_INT_TO_CPU;
ARM GAS  C:\Users\kees\AppData\Local\Temp\ccxzCKRQ.s 			page 29


 495              		.loc 1 1098 0
 496 001a 103B     		sub	r3, r3, #16
 497 001c 1968     		ldr	r1, [r3]
 498 001e 0222     		mov	r2, #2
 499 0020 0A43     		orr	r2, r2, r1
 500 0022 1A60     		str	r2, [r3]
1099:.\Generated_Source\PSoC4/CyLib.c **** }
 501              		.loc 1 1099 0
 502              		@ sp needed for prologue
 503 0024 7047     		bx	lr
 504              	.L60:
 505 0026 C046     		.align	2
 506              	.L59:
 507 0028 18000B40 		.word	1074462744
 508              		.cfi_endproc
 509              	.LFE26:
 510              		.size	CySysLvdEnable, .-CySysLvdEnable
 511              		.section	.text.CySysLvdDisable,"ax",%progbits
 512              		.align	1
 513              		.global	CySysLvdDisable
 514              		.code	16
 515              		.thumb_func
 516              		.type	CySysLvdDisable, %function
 517              	CySysLvdDisable:
 518              	.LFB27:
1100:.\Generated_Source\PSoC4/CyLib.c **** 
1101:.\Generated_Source\PSoC4/CyLib.c **** 
1102:.\Generated_Source\PSoC4/CyLib.c **** /*******************************************************************************
1103:.\Generated_Source\PSoC4/CyLib.c **** * Function Name: CySysLvdDisable
1104:.\Generated_Source\PSoC4/CyLib.c **** ********************************************************************************
1105:.\Generated_Source\PSoC4/CyLib.c **** *
1106:.\Generated_Source\PSoC4/CyLib.c **** * Summary:
1107:.\Generated_Source\PSoC4/CyLib.c **** *  Disables the low voltage detection. Low voltage interrupt is disabled.
1108:.\Generated_Source\PSoC4/CyLib.c **** *
1109:.\Generated_Source\PSoC4/CyLib.c **** * Parameters:
1110:.\Generated_Source\PSoC4/CyLib.c **** *  None
1111:.\Generated_Source\PSoC4/CyLib.c **** *
1112:.\Generated_Source\PSoC4/CyLib.c **** * Return:
1113:.\Generated_Source\PSoC4/CyLib.c **** *  None
1114:.\Generated_Source\PSoC4/CyLib.c **** *
1115:.\Generated_Source\PSoC4/CyLib.c **** *******************************************************************************/
1116:.\Generated_Source\PSoC4/CyLib.c **** void CySysLvdDisable(void)
1117:.\Generated_Source\PSoC4/CyLib.c **** {
 519              		.loc 1 1117 0
 520              		.cfi_startproc
1118:.\Generated_Source\PSoC4/CyLib.c ****     CY_LVD_PWR_INTR_MASK_REG   &= ~CY_LVD_PROPAGATE_INT_TO_CPU;
 521              		.loc 1 1118 0
 522 0000 054B     		ldr	r3, .L63
 523 0002 0221     		mov	r1, #2
 524 0004 1A68     		ldr	r2, [r3]
1119:.\Generated_Source\PSoC4/CyLib.c ****     CY_LVD_PWR_VMON_CONFIG_REG &= ~CY_LVD_PWR_VMON_CONFIG_LVD_EN;
1120:.\Generated_Source\PSoC4/CyLib.c **** }
 525              		.loc 1 1120 0
 526              		@ sp needed for prologue
 527              		.loc 1 1118 0
 528 0006 8A43     		bic	r2, r2, r1
 529 0008 1A60     		str	r2, [r3]
ARM GAS  C:\Users\kees\AppData\Local\Temp\ccxzCKRQ.s 			page 30


 530              		.loc 1 1119 0
 531 000a 1033     		add	r3, r3, #16
 532 000c 1A68     		ldr	r2, [r3]
 533 000e 0121     		mov	r1, #1
 534 0010 8A43     		bic	r2, r2, r1
 535 0012 1A60     		str	r2, [r3]
 536              		.loc 1 1120 0
 537 0014 7047     		bx	lr
 538              	.L64:
 539 0016 C046     		.align	2
 540              	.L63:
 541 0018 08000B40 		.word	1074462728
 542              		.cfi_endproc
 543              	.LFE27:
 544              		.size	CySysLvdDisable, .-CySysLvdDisable
 545              		.section	.text.CySysLvdGetInterruptSource,"ax",%progbits
 546              		.align	1
 547              		.global	CySysLvdGetInterruptSource
 548              		.code	16
 549              		.thumb_func
 550              		.type	CySysLvdGetInterruptSource, %function
 551              	CySysLvdGetInterruptSource:
 552              	.LFB28:
1121:.\Generated_Source\PSoC4/CyLib.c **** 
1122:.\Generated_Source\PSoC4/CyLib.c **** 
1123:.\Generated_Source\PSoC4/CyLib.c **** /*******************************************************************************
1124:.\Generated_Source\PSoC4/CyLib.c **** * Function Name: CySysLvdGetInterruptSource
1125:.\Generated_Source\PSoC4/CyLib.c **** ********************************************************************************
1126:.\Generated_Source\PSoC4/CyLib.c **** *
1127:.\Generated_Source\PSoC4/CyLib.c **** * Summary:
1128:.\Generated_Source\PSoC4/CyLib.c **** *  Gets the low voltage detection interrupt status (without clearing).
1129:.\Generated_Source\PSoC4/CyLib.c **** *
1130:.\Generated_Source\PSoC4/CyLib.c **** * Parameters:
1131:.\Generated_Source\PSoC4/CyLib.c **** *  None
1132:.\Generated_Source\PSoC4/CyLib.c **** *
1133:.\Generated_Source\PSoC4/CyLib.c **** * Return:
1134:.\Generated_Source\PSoC4/CyLib.c **** *  Interrupt request value:
1135:.\Generated_Source\PSoC4/CyLib.c **** *    CY_SYS_LVD_INT - Indicates an Low Voltage Detect interrupt
1136:.\Generated_Source\PSoC4/CyLib.c **** *
1137:.\Generated_Source\PSoC4/CyLib.c **** *******************************************************************************/
1138:.\Generated_Source\PSoC4/CyLib.c **** uint32 CySysLvdGetInterruptSource(void)
1139:.\Generated_Source\PSoC4/CyLib.c **** {
 553              		.loc 1 1139 0
 554              		.cfi_startproc
1140:.\Generated_Source\PSoC4/CyLib.c ****     return (CY_LVD_PWR_INTR_REG & CY_SYS_LVD_INT);
 555              		.loc 1 1140 0
 556 0000 024B     		ldr	r3, .L67
1141:.\Generated_Source\PSoC4/CyLib.c **** }
 557              		.loc 1 1141 0
 558              		@ sp needed for prologue
 559              		.loc 1 1140 0
 560 0002 1868     		ldr	r0, [r3]
 561 0004 0223     		mov	r3, #2
 562 0006 1840     		and	r0, r0, r3
 563              		.loc 1 1141 0
 564 0008 7047     		bx	lr
 565              	.L68:
ARM GAS  C:\Users\kees\AppData\Local\Temp\ccxzCKRQ.s 			page 31


 566 000a C046     		.align	2
 567              	.L67:
 568 000c 04000B40 		.word	1074462724
 569              		.cfi_endproc
 570              	.LFE28:
 571              		.size	CySysLvdGetInterruptSource, .-CySysLvdGetInterruptSource
 572              		.section	.text.CySysLvdClearInterrupt,"ax",%progbits
 573              		.align	1
 574              		.global	CySysLvdClearInterrupt
 575              		.code	16
 576              		.thumb_func
 577              		.type	CySysLvdClearInterrupt, %function
 578              	CySysLvdClearInterrupt:
 579              	.LFB29:
1142:.\Generated_Source\PSoC4/CyLib.c **** 
1143:.\Generated_Source\PSoC4/CyLib.c **** 
1144:.\Generated_Source\PSoC4/CyLib.c **** /*******************************************************************************
1145:.\Generated_Source\PSoC4/CyLib.c **** * Function Name: CySysLvdClearInterrupt
1146:.\Generated_Source\PSoC4/CyLib.c **** ********************************************************************************
1147:.\Generated_Source\PSoC4/CyLib.c **** *
1148:.\Generated_Source\PSoC4/CyLib.c **** * Summary:
1149:.\Generated_Source\PSoC4/CyLib.c **** *  Clears the low voltage detection interrupt status.
1150:.\Generated_Source\PSoC4/CyLib.c **** *
1151:.\Generated_Source\PSoC4/CyLib.c **** * Parameters:
1152:.\Generated_Source\PSoC4/CyLib.c **** *  None
1153:.\Generated_Source\PSoC4/CyLib.c **** *
1154:.\Generated_Source\PSoC4/CyLib.c **** * Return:
1155:.\Generated_Source\PSoC4/CyLib.c **** *  None
1156:.\Generated_Source\PSoC4/CyLib.c **** *
1157:.\Generated_Source\PSoC4/CyLib.c **** *******************************************************************************/
1158:.\Generated_Source\PSoC4/CyLib.c **** void CySysLvdClearInterrupt(void)
1159:.\Generated_Source\PSoC4/CyLib.c **** {
 580              		.loc 1 1159 0
 581              		.cfi_startproc
1160:.\Generated_Source\PSoC4/CyLib.c ****     CY_LVD_PWR_INTR_REG = CY_SYS_LVD_INT;
 582              		.loc 1 1160 0
 583 0000 014B     		ldr	r3, .L71
 584 0002 0222     		mov	r2, #2
 585 0004 1A60     		str	r2, [r3]
1161:.\Generated_Source\PSoC4/CyLib.c **** }
 586              		.loc 1 1161 0
 587              		@ sp needed for prologue
 588 0006 7047     		bx	lr
 589              	.L72:
 590              		.align	2
 591              	.L71:
 592 0008 04000B40 		.word	1074462724
 593              		.cfi_endproc
 594              	.LFE29:
 595              		.size	CySysLvdClearInterrupt, .-CySysLvdClearInterrupt
 596              		.section	.text.CyDisableInts,"ax",%progbits
 597              		.align	1
 598              		.global	CyDisableInts
 599              		.code	16
 600              		.thumb_func
 601              		.type	CyDisableInts, %function
 602              	CyDisableInts:
ARM GAS  C:\Users\kees\AppData\Local\Temp\ccxzCKRQ.s 			page 32


 603              	.LFB30:
1162:.\Generated_Source\PSoC4/CyLib.c **** 
1163:.\Generated_Source\PSoC4/CyLib.c **** 
1164:.\Generated_Source\PSoC4/CyLib.c **** /*******************************************************************************
1165:.\Generated_Source\PSoC4/CyLib.c **** * Function Name: CyDisableInts
1166:.\Generated_Source\PSoC4/CyLib.c **** ********************************************************************************
1167:.\Generated_Source\PSoC4/CyLib.c **** *
1168:.\Generated_Source\PSoC4/CyLib.c **** * Summary:
1169:.\Generated_Source\PSoC4/CyLib.c **** *  Disables all interrupts.
1170:.\Generated_Source\PSoC4/CyLib.c **** *
1171:.\Generated_Source\PSoC4/CyLib.c **** * Parameters:
1172:.\Generated_Source\PSoC4/CyLib.c **** *  None
1173:.\Generated_Source\PSoC4/CyLib.c **** *
1174:.\Generated_Source\PSoC4/CyLib.c **** * Return:
1175:.\Generated_Source\PSoC4/CyLib.c **** *  32 bit mask of previously enabled interrupts.
1176:.\Generated_Source\PSoC4/CyLib.c **** *
1177:.\Generated_Source\PSoC4/CyLib.c **** *******************************************************************************/
1178:.\Generated_Source\PSoC4/CyLib.c **** uint32 CyDisableInts(void)
1179:.\Generated_Source\PSoC4/CyLib.c **** {
 604              		.loc 1 1179 0
 605              		.cfi_startproc
1180:.\Generated_Source\PSoC4/CyLib.c ****     uint32 intState;
1181:.\Generated_Source\PSoC4/CyLib.c **** 
1182:.\Generated_Source\PSoC4/CyLib.c ****     /* Get the curreent interrupt state. */
1183:.\Generated_Source\PSoC4/CyLib.c ****     intState = CY_INT_CLEAR_REG;
 606              		.loc 1 1183 0
 607 0000 024A     		ldr	r2, .L75
1184:.\Generated_Source\PSoC4/CyLib.c **** 
1185:.\Generated_Source\PSoC4/CyLib.c ****     /* Disable all of the interrupts. */
1186:.\Generated_Source\PSoC4/CyLib.c ****     CY_INT_CLEAR_REG = CY_INT_CLEAR_DISABLE_ALL;
 608              		.loc 1 1186 0
 609 0002 0123     		mov	r3, #1
 610 0004 5B42     		neg	r3, r3
 611              		.loc 1 1183 0
 612 0006 1068     		ldr	r0, [r2]
 613              	.LVL20:
1187:.\Generated_Source\PSoC4/CyLib.c **** 
1188:.\Generated_Source\PSoC4/CyLib.c ****     return (intState);
1189:.\Generated_Source\PSoC4/CyLib.c **** }
 614              		.loc 1 1189 0
 615              		@ sp needed for prologue
 616              		.loc 1 1186 0
 617 0008 1360     		str	r3, [r2]
 618              	.LVL21:
 619              		.loc 1 1189 0
 620 000a 7047     		bx	lr
 621              	.L76:
 622              		.align	2
 623              	.L75:
 624 000c 80E100E0 		.word	-536813184
 625              		.cfi_endproc
 626              	.LFE30:
 627              		.size	CyDisableInts, .-CyDisableInts
 628              		.section	.text.CyEnableInts,"ax",%progbits
 629              		.align	1
 630              		.global	CyEnableInts
 631              		.code	16
ARM GAS  C:\Users\kees\AppData\Local\Temp\ccxzCKRQ.s 			page 33


 632              		.thumb_func
 633              		.type	CyEnableInts, %function
 634              	CyEnableInts:
 635              	.LFB31:
1190:.\Generated_Source\PSoC4/CyLib.c **** 
1191:.\Generated_Source\PSoC4/CyLib.c **** 
1192:.\Generated_Source\PSoC4/CyLib.c **** /*******************************************************************************
1193:.\Generated_Source\PSoC4/CyLib.c **** * Function Name: CyEnableInts
1194:.\Generated_Source\PSoC4/CyLib.c **** ********************************************************************************
1195:.\Generated_Source\PSoC4/CyLib.c **** *
1196:.\Generated_Source\PSoC4/CyLib.c **** * Summary:
1197:.\Generated_Source\PSoC4/CyLib.c **** *  Enables interrupts to a given state.
1198:.\Generated_Source\PSoC4/CyLib.c **** *
1199:.\Generated_Source\PSoC4/CyLib.c **** * Parameters:
1200:.\Generated_Source\PSoC4/CyLib.c **** *   mask, 32 bit mask of interrupts to enable.
1201:.\Generated_Source\PSoC4/CyLib.c **** *
1202:.\Generated_Source\PSoC4/CyLib.c **** * Return:
1203:.\Generated_Source\PSoC4/CyLib.c **** *  None
1204:.\Generated_Source\PSoC4/CyLib.c **** *
1205:.\Generated_Source\PSoC4/CyLib.c **** *******************************************************************************/
1206:.\Generated_Source\PSoC4/CyLib.c **** void CyEnableInts(uint32 mask)
1207:.\Generated_Source\PSoC4/CyLib.c **** {
 636              		.loc 1 1207 0
 637              		.cfi_startproc
 638              	.LVL22:
1208:.\Generated_Source\PSoC4/CyLib.c ****     CY_INT_ENABLE_REG = mask;
 639              		.loc 1 1208 0
 640 0000 014B     		ldr	r3, .L79
1209:.\Generated_Source\PSoC4/CyLib.c **** }
 641              		.loc 1 1209 0
 642              		@ sp needed for prologue
 643              		.loc 1 1208 0
 644 0002 1860     		str	r0, [r3]
 645              		.loc 1 1209 0
 646 0004 7047     		bx	lr
 647              	.L80:
 648 0006 C046     		.align	2
 649              	.L79:
 650 0008 00E100E0 		.word	-536813312
 651              		.cfi_endproc
 652              	.LFE31:
 653              		.size	CyEnableInts, .-CyEnableInts
 654              		.section	.text.CyIntEnable,"ax",%progbits
 655              		.align	1
 656              		.global	CyIntEnable
 657              		.code	16
 658              		.thumb_func
 659              		.type	CyIntEnable, %function
 660              	CyIntEnable:
 661              	.LFB38:
1210:.\Generated_Source\PSoC4/CyLib.c **** 
1211:.\Generated_Source\PSoC4/CyLib.c **** 
1212:.\Generated_Source\PSoC4/CyLib.c **** /*******************************************************************************
1213:.\Generated_Source\PSoC4/CyLib.c **** * Function Name: CyIntSetSysVector
1214:.\Generated_Source\PSoC4/CyLib.c **** ********************************************************************************
1215:.\Generated_Source\PSoC4/CyLib.c **** *
1216:.\Generated_Source\PSoC4/CyLib.c **** * Summary:
ARM GAS  C:\Users\kees\AppData\Local\Temp\ccxzCKRQ.s 			page 34


1217:.\Generated_Source\PSoC4/CyLib.c **** *  Sets the interrupt vector of the specified system interrupt number. These
1218:.\Generated_Source\PSoC4/CyLib.c **** *  interrupts are for SysTick, PendSV and others.
1219:.\Generated_Source\PSoC4/CyLib.c **** *
1220:.\Generated_Source\PSoC4/CyLib.c **** * Parameters:
1221:.\Generated_Source\PSoC4/CyLib.c **** *  number: Interrupt number, valid range [0-15].
1222:.\Generated_Source\PSoC4/CyLib.c **** *  address: Pointer to an interrupt service routine.
1223:.\Generated_Source\PSoC4/CyLib.c **** *
1224:.\Generated_Source\PSoC4/CyLib.c **** * Return:
1225:.\Generated_Source\PSoC4/CyLib.c **** *  The old ISR vector at this location.
1226:.\Generated_Source\PSoC4/CyLib.c **** *
1227:.\Generated_Source\PSoC4/CyLib.c **** *******************************************************************************/
1228:.\Generated_Source\PSoC4/CyLib.c **** cyisraddress CyIntSetSysVector(uint8 number, cyisraddress address)
1229:.\Generated_Source\PSoC4/CyLib.c **** {
1230:.\Generated_Source\PSoC4/CyLib.c ****     cyisraddress oldIsr;
1231:.\Generated_Source\PSoC4/CyLib.c ****     cyisraddress *ramVectorTable = (cyisraddress *) CY_INT_VECT_TABLE;
1232:.\Generated_Source\PSoC4/CyLib.c **** 
1233:.\Generated_Source\PSoC4/CyLib.c ****     CYASSERT(number < CY_INT_IRQ_BASE);
1234:.\Generated_Source\PSoC4/CyLib.c **** 
1235:.\Generated_Source\PSoC4/CyLib.c ****     /* Save old Interrupt service routine. */
1236:.\Generated_Source\PSoC4/CyLib.c ****     oldIsr = ramVectorTable[number];
1237:.\Generated_Source\PSoC4/CyLib.c **** 
1238:.\Generated_Source\PSoC4/CyLib.c ****     /* Set new Interrupt service routine. */
1239:.\Generated_Source\PSoC4/CyLib.c ****     ramVectorTable[number] = address;
1240:.\Generated_Source\PSoC4/CyLib.c **** 
1241:.\Generated_Source\PSoC4/CyLib.c ****     return(oldIsr);
1242:.\Generated_Source\PSoC4/CyLib.c **** }
1243:.\Generated_Source\PSoC4/CyLib.c **** 
1244:.\Generated_Source\PSoC4/CyLib.c **** 
1245:.\Generated_Source\PSoC4/CyLib.c **** /*******************************************************************************
1246:.\Generated_Source\PSoC4/CyLib.c **** * Function Name: CyIntGetSysVector
1247:.\Generated_Source\PSoC4/CyLib.c **** ********************************************************************************
1248:.\Generated_Source\PSoC4/CyLib.c **** *
1249:.\Generated_Source\PSoC4/CyLib.c **** * Summary:
1250:.\Generated_Source\PSoC4/CyLib.c **** *   Gets the interrupt vector of the specified system interrupt number. These
1251:.\Generated_Source\PSoC4/CyLib.c **** *   interrupts are for SysTick, PendSV and others.
1252:.\Generated_Source\PSoC4/CyLib.c **** *
1253:.\Generated_Source\PSoC4/CyLib.c **** * Parameters:
1254:.\Generated_Source\PSoC4/CyLib.c **** *   number: The interrupt number, valid range [0-15].
1255:.\Generated_Source\PSoC4/CyLib.c **** *
1256:.\Generated_Source\PSoC4/CyLib.c **** * Return:
1257:.\Generated_Source\PSoC4/CyLib.c **** *   Address of the ISR in the interrupt vector table.
1258:.\Generated_Source\PSoC4/CyLib.c **** *
1259:.\Generated_Source\PSoC4/CyLib.c **** *******************************************************************************/
1260:.\Generated_Source\PSoC4/CyLib.c **** cyisraddress CyIntGetSysVector(uint8 number)
1261:.\Generated_Source\PSoC4/CyLib.c **** {
1262:.\Generated_Source\PSoC4/CyLib.c ****     cyisraddress *ramVectorTable = (cyisraddress *) CY_INT_VECT_TABLE;
1263:.\Generated_Source\PSoC4/CyLib.c **** 
1264:.\Generated_Source\PSoC4/CyLib.c ****     CYASSERT(number < CY_INT_IRQ_BASE);
1265:.\Generated_Source\PSoC4/CyLib.c **** 
1266:.\Generated_Source\PSoC4/CyLib.c ****     return(ramVectorTable[number]);
1267:.\Generated_Source\PSoC4/CyLib.c **** }
1268:.\Generated_Source\PSoC4/CyLib.c **** 
1269:.\Generated_Source\PSoC4/CyLib.c **** 
1270:.\Generated_Source\PSoC4/CyLib.c **** /*******************************************************************************
1271:.\Generated_Source\PSoC4/CyLib.c **** * Function Name: CyIntSetVector
1272:.\Generated_Source\PSoC4/CyLib.c **** ********************************************************************************
1273:.\Generated_Source\PSoC4/CyLib.c **** *
ARM GAS  C:\Users\kees\AppData\Local\Temp\ccxzCKRQ.s 			page 35


1274:.\Generated_Source\PSoC4/CyLib.c **** * Summary:
1275:.\Generated_Source\PSoC4/CyLib.c **** *  Sets the interrupt vector of the specified interrupt number.
1276:.\Generated_Source\PSoC4/CyLib.c **** *
1277:.\Generated_Source\PSoC4/CyLib.c **** * Parameters:
1278:.\Generated_Source\PSoC4/CyLib.c **** *  number: Valid range [0-31].  Interrupt number
1279:.\Generated_Source\PSoC4/CyLib.c **** *  address: Pointer to an interrupt service routine
1280:.\Generated_Source\PSoC4/CyLib.c **** *
1281:.\Generated_Source\PSoC4/CyLib.c **** * Return:
1282:.\Generated_Source\PSoC4/CyLib.c **** *   Previous interrupt vector value.
1283:.\Generated_Source\PSoC4/CyLib.c **** *
1284:.\Generated_Source\PSoC4/CyLib.c **** *******************************************************************************/
1285:.\Generated_Source\PSoC4/CyLib.c **** cyisraddress CyIntSetVector(uint8 number, cyisraddress address)
1286:.\Generated_Source\PSoC4/CyLib.c **** {
1287:.\Generated_Source\PSoC4/CyLib.c ****     cyisraddress oldIsr;
1288:.\Generated_Source\PSoC4/CyLib.c ****     cyisraddress *ramVectorTable = (cyisraddress *) CY_INT_VECT_TABLE;
1289:.\Generated_Source\PSoC4/CyLib.c **** 
1290:.\Generated_Source\PSoC4/CyLib.c ****     CYASSERT(number < CY_NUM_INTERRUPTS);
1291:.\Generated_Source\PSoC4/CyLib.c **** 
1292:.\Generated_Source\PSoC4/CyLib.c ****     /* Save old Interrupt service routine. */
1293:.\Generated_Source\PSoC4/CyLib.c ****     oldIsr = ramVectorTable[CY_INT_IRQ_BASE + number];
1294:.\Generated_Source\PSoC4/CyLib.c **** 
1295:.\Generated_Source\PSoC4/CyLib.c ****     /* Set new Interrupt service routine. */
1296:.\Generated_Source\PSoC4/CyLib.c ****     ramVectorTable[CY_INT_IRQ_BASE + number] = address;
1297:.\Generated_Source\PSoC4/CyLib.c **** 
1298:.\Generated_Source\PSoC4/CyLib.c ****     return(oldIsr);
1299:.\Generated_Source\PSoC4/CyLib.c **** }
1300:.\Generated_Source\PSoC4/CyLib.c **** 
1301:.\Generated_Source\PSoC4/CyLib.c **** 
1302:.\Generated_Source\PSoC4/CyLib.c **** /*******************************************************************************
1303:.\Generated_Source\PSoC4/CyLib.c **** * Function Name: CyIntGetVector
1304:.\Generated_Source\PSoC4/CyLib.c **** ********************************************************************************
1305:.\Generated_Source\PSoC4/CyLib.c **** *
1306:.\Generated_Source\PSoC4/CyLib.c **** * Summary:
1307:.\Generated_Source\PSoC4/CyLib.c **** *  Gets the interrupt vector of the specified interrupt number.
1308:.\Generated_Source\PSoC4/CyLib.c **** *
1309:.\Generated_Source\PSoC4/CyLib.c **** * Parameters:
1310:.\Generated_Source\PSoC4/CyLib.c **** *  number: Valid range [0-31].  Interrupt number
1311:.\Generated_Source\PSoC4/CyLib.c **** *
1312:.\Generated_Source\PSoC4/CyLib.c **** * Return:
1313:.\Generated_Source\PSoC4/CyLib.c **** *  Address of the ISR in the interrupt vector table.
1314:.\Generated_Source\PSoC4/CyLib.c **** *
1315:.\Generated_Source\PSoC4/CyLib.c **** *******************************************************************************/
1316:.\Generated_Source\PSoC4/CyLib.c **** cyisraddress CyIntGetVector(uint8 number)
1317:.\Generated_Source\PSoC4/CyLib.c **** {
1318:.\Generated_Source\PSoC4/CyLib.c ****     cyisraddress *ramVectorTable = (cyisraddress *) CY_INT_VECT_TABLE;
1319:.\Generated_Source\PSoC4/CyLib.c **** 
1320:.\Generated_Source\PSoC4/CyLib.c ****     CYASSERT(number < CY_NUM_INTERRUPTS);
1321:.\Generated_Source\PSoC4/CyLib.c **** 
1322:.\Generated_Source\PSoC4/CyLib.c ****     return (ramVectorTable[CY_INT_IRQ_BASE + number]);
1323:.\Generated_Source\PSoC4/CyLib.c **** }
1324:.\Generated_Source\PSoC4/CyLib.c **** 
1325:.\Generated_Source\PSoC4/CyLib.c **** /*******************************************************************************
1326:.\Generated_Source\PSoC4/CyLib.c **** * Function Name: CyIntSetPriority
1327:.\Generated_Source\PSoC4/CyLib.c **** ********************************************************************************
1328:.\Generated_Source\PSoC4/CyLib.c **** *
1329:.\Generated_Source\PSoC4/CyLib.c **** * Summary:
1330:.\Generated_Source\PSoC4/CyLib.c **** *  Sets the priority of the interrupt.
ARM GAS  C:\Users\kees\AppData\Local\Temp\ccxzCKRQ.s 			page 36


1331:.\Generated_Source\PSoC4/CyLib.c **** *
1332:.\Generated_Source\PSoC4/CyLib.c **** * Parameters:
1333:.\Generated_Source\PSoC4/CyLib.c **** *  priority: Priority of the interrupt. 0 - 3, 0 being the highest.
1334:.\Generated_Source\PSoC4/CyLib.c **** *  number: The number of the interrupt, 0 - 31.
1335:.\Generated_Source\PSoC4/CyLib.c **** *
1336:.\Generated_Source\PSoC4/CyLib.c **** * Return:
1337:.\Generated_Source\PSoC4/CyLib.c **** *  None
1338:.\Generated_Source\PSoC4/CyLib.c **** *
1339:.\Generated_Source\PSoC4/CyLib.c **** *******************************************************************************/
1340:.\Generated_Source\PSoC4/CyLib.c **** void CyIntSetPriority(uint8 number, uint8 priority)
1341:.\Generated_Source\PSoC4/CyLib.c **** {
1342:.\Generated_Source\PSoC4/CyLib.c ****     uint8 interruptState;
1343:.\Generated_Source\PSoC4/CyLib.c ****     uint32 shift;
1344:.\Generated_Source\PSoC4/CyLib.c ****     uint32 value;
1345:.\Generated_Source\PSoC4/CyLib.c **** 
1346:.\Generated_Source\PSoC4/CyLib.c ****     CYASSERT(priority <= CY_MIN_PRIORITY);
1347:.\Generated_Source\PSoC4/CyLib.c ****     CYASSERT(number < CY_NUM_INTERRUPTS);
1348:.\Generated_Source\PSoC4/CyLib.c **** 
1349:.\Generated_Source\PSoC4/CyLib.c ****     shift = CY_INT_PRIORITY_SHIFT(number);
1350:.\Generated_Source\PSoC4/CyLib.c **** 
1351:.\Generated_Source\PSoC4/CyLib.c ****     interruptState = CyEnterCriticalSection();
1352:.\Generated_Source\PSoC4/CyLib.c **** 
1353:.\Generated_Source\PSoC4/CyLib.c ****     value = CY_INT_PRIORITY_REG(number);
1354:.\Generated_Source\PSoC4/CyLib.c ****     value &= (uint32)(~((uint32)(CY_INT_PRIORITY_MASK << shift)));
1355:.\Generated_Source\PSoC4/CyLib.c ****     value |= ((uint32)priority << shift);
1356:.\Generated_Source\PSoC4/CyLib.c ****     CY_INT_PRIORITY_REG(number) = value;
1357:.\Generated_Source\PSoC4/CyLib.c **** 
1358:.\Generated_Source\PSoC4/CyLib.c ****     CyExitCriticalSection(interruptState);
1359:.\Generated_Source\PSoC4/CyLib.c **** }
1360:.\Generated_Source\PSoC4/CyLib.c **** 
1361:.\Generated_Source\PSoC4/CyLib.c **** 
1362:.\Generated_Source\PSoC4/CyLib.c **** /*******************************************************************************
1363:.\Generated_Source\PSoC4/CyLib.c **** * Function Name: CyIntGetPriority
1364:.\Generated_Source\PSoC4/CyLib.c **** ********************************************************************************
1365:.\Generated_Source\PSoC4/CyLib.c **** *
1366:.\Generated_Source\PSoC4/CyLib.c **** * Summary:
1367:.\Generated_Source\PSoC4/CyLib.c **** *  Gets the priority of the interrupt.
1368:.\Generated_Source\PSoC4/CyLib.c **** *
1369:.\Generated_Source\PSoC4/CyLib.c **** * Parameters:
1370:.\Generated_Source\PSoC4/CyLib.c **** *  number: The number of the interrupt, 0 - 31.
1371:.\Generated_Source\PSoC4/CyLib.c **** *
1372:.\Generated_Source\PSoC4/CyLib.c **** * Return:
1373:.\Generated_Source\PSoC4/CyLib.c **** *  Priority of the interrupt. 0 - 3, 0 being the highest.
1374:.\Generated_Source\PSoC4/CyLib.c **** *
1375:.\Generated_Source\PSoC4/CyLib.c **** *******************************************************************************/
1376:.\Generated_Source\PSoC4/CyLib.c **** uint8 CyIntGetPriority(uint8 number)
1377:.\Generated_Source\PSoC4/CyLib.c **** {
1378:.\Generated_Source\PSoC4/CyLib.c ****     uint8 priority;
1379:.\Generated_Source\PSoC4/CyLib.c **** 
1380:.\Generated_Source\PSoC4/CyLib.c ****     CYASSERT(number < CY_NUM_INTERRUPTS);
1381:.\Generated_Source\PSoC4/CyLib.c **** 
1382:.\Generated_Source\PSoC4/CyLib.c ****     priority = (uint8) (CY_INT_PRIORITY_REG(number) >> CY_INT_PRIORITY_SHIFT(number));
1383:.\Generated_Source\PSoC4/CyLib.c **** 
1384:.\Generated_Source\PSoC4/CyLib.c ****     return (priority & (uint8) CY_INT_PRIORITY_MASK);
1385:.\Generated_Source\PSoC4/CyLib.c **** }
1386:.\Generated_Source\PSoC4/CyLib.c **** 
1387:.\Generated_Source\PSoC4/CyLib.c **** 
ARM GAS  C:\Users\kees\AppData\Local\Temp\ccxzCKRQ.s 			page 37


1388:.\Generated_Source\PSoC4/CyLib.c **** /*******************************************************************************
1389:.\Generated_Source\PSoC4/CyLib.c **** * Function Name: CyIntEnable
1390:.\Generated_Source\PSoC4/CyLib.c **** ********************************************************************************
1391:.\Generated_Source\PSoC4/CyLib.c **** *
1392:.\Generated_Source\PSoC4/CyLib.c **** * Summary:
1393:.\Generated_Source\PSoC4/CyLib.c **** *  Enables the specified interrupt number.
1394:.\Generated_Source\PSoC4/CyLib.c **** *
1395:.\Generated_Source\PSoC4/CyLib.c **** * Parameters:
1396:.\Generated_Source\PSoC4/CyLib.c **** *  number: Valid range [0-31].  Interrupt number
1397:.\Generated_Source\PSoC4/CyLib.c **** *
1398:.\Generated_Source\PSoC4/CyLib.c **** * Return:
1399:.\Generated_Source\PSoC4/CyLib.c **** *  None
1400:.\Generated_Source\PSoC4/CyLib.c **** *
1401:.\Generated_Source\PSoC4/CyLib.c **** *******************************************************************************/
1402:.\Generated_Source\PSoC4/CyLib.c **** void CyIntEnable(uint8 number)
1403:.\Generated_Source\PSoC4/CyLib.c **** {
 662              		.loc 1 1403 0
 663              		.cfi_startproc
 664              	.LVL23:
1404:.\Generated_Source\PSoC4/CyLib.c ****     CY_INT_ENABLE_REG = ((uint32) 0x01u << (CY_INT_ENABLE_RANGE_MASK & number));
 665              		.loc 1 1404 0
 666 0000 1F23     		mov	r3, #31
 667 0002 1840     		and	r0, r0, r3
 668              	.LVL24:
 669 0004 0123     		mov	r3, #1
 670 0006 8340     		lsl	r3, r3, r0
 671 0008 181C     		mov	r0, r3
 672 000a 014B     		ldr	r3, .L83
1405:.\Generated_Source\PSoC4/CyLib.c **** }
 673              		.loc 1 1405 0
 674              		@ sp needed for prologue
 675              		.loc 1 1404 0
 676 000c 1860     		str	r0, [r3]
 677              		.loc 1 1405 0
 678 000e 7047     		bx	lr
 679              	.L84:
 680              		.align	2
 681              	.L83:
 682 0010 00E100E0 		.word	-536813312
 683              		.cfi_endproc
 684              	.LFE38:
 685              		.size	CyIntEnable, .-CyIntEnable
 686              		.section	.text.CyIntGetState,"ax",%progbits
 687              		.align	1
 688              		.global	CyIntGetState
 689              		.code	16
 690              		.thumb_func
 691              		.type	CyIntGetState, %function
 692              	CyIntGetState:
 693              	.LFB39:
1406:.\Generated_Source\PSoC4/CyLib.c **** 
1407:.\Generated_Source\PSoC4/CyLib.c **** 
1408:.\Generated_Source\PSoC4/CyLib.c **** /*******************************************************************************
1409:.\Generated_Source\PSoC4/CyLib.c **** * Function Name: CyIntGetState
1410:.\Generated_Source\PSoC4/CyLib.c **** ********************************************************************************
1411:.\Generated_Source\PSoC4/CyLib.c **** *
1412:.\Generated_Source\PSoC4/CyLib.c **** * Summary:
ARM GAS  C:\Users\kees\AppData\Local\Temp\ccxzCKRQ.s 			page 38


1413:.\Generated_Source\PSoC4/CyLib.c **** *  Gets the enable state of the specified interrupt number.
1414:.\Generated_Source\PSoC4/CyLib.c **** *
1415:.\Generated_Source\PSoC4/CyLib.c **** * Parameters:
1416:.\Generated_Source\PSoC4/CyLib.c **** *  number: Valid range [0-31].  Interrupt number.
1417:.\Generated_Source\PSoC4/CyLib.c **** *
1418:.\Generated_Source\PSoC4/CyLib.c **** * Return:
1419:.\Generated_Source\PSoC4/CyLib.c **** *  Enable status: 1 if enabled, 0 if disabled
1420:.\Generated_Source\PSoC4/CyLib.c **** *
1421:.\Generated_Source\PSoC4/CyLib.c **** *******************************************************************************/
1422:.\Generated_Source\PSoC4/CyLib.c **** uint8 CyIntGetState(uint8 number)
1423:.\Generated_Source\PSoC4/CyLib.c **** {
 694              		.loc 1 1423 0
 695              		.cfi_startproc
 696              	.LVL25:
1424:.\Generated_Source\PSoC4/CyLib.c ****     /* Get the state of the interrupt. */
1425:.\Generated_Source\PSoC4/CyLib.c ****     return ((0u != (CY_INT_ENABLE_REG & ((uint32) 0x01u << (CY_INT_ENABLE_RANGE_MASK & number)))) ?
 697              		.loc 1 1425 0
 698 0000 044B     		ldr	r3, .L87
 699 0002 1F22     		mov	r2, #31
 700 0004 1B68     		ldr	r3, [r3]
 701 0006 1040     		and	r0, r0, r2
 702              	.LVL26:
 703 0008 C340     		lsr	r3, r3, r0
 704 000a 181C     		mov	r0, r3
 705 000c 0123     		mov	r3, #1
 706 000e 1840     		and	r0, r0, r3
1426:.\Generated_Source\PSoC4/CyLib.c **** }
 707              		.loc 1 1426 0
 708              		@ sp needed for prologue
 709 0010 7047     		bx	lr
 710              	.L88:
 711 0012 C046     		.align	2
 712              	.L87:
 713 0014 00E100E0 		.word	-536813312
 714              		.cfi_endproc
 715              	.LFE39:
 716              		.size	CyIntGetState, .-CyIntGetState
 717              		.section	.text.CyIntDisable,"ax",%progbits
 718              		.align	1
 719              		.global	CyIntDisable
 720              		.code	16
 721              		.thumb_func
 722              		.type	CyIntDisable, %function
 723              	CyIntDisable:
 724              	.LFB40:
1427:.\Generated_Source\PSoC4/CyLib.c **** 
1428:.\Generated_Source\PSoC4/CyLib.c **** 
1429:.\Generated_Source\PSoC4/CyLib.c **** /*******************************************************************************
1430:.\Generated_Source\PSoC4/CyLib.c **** * Function Name: CyIntDisable
1431:.\Generated_Source\PSoC4/CyLib.c **** ********************************************************************************
1432:.\Generated_Source\PSoC4/CyLib.c **** *
1433:.\Generated_Source\PSoC4/CyLib.c **** * Summary:
1434:.\Generated_Source\PSoC4/CyLib.c **** *   Disables the specified interrupt number.
1435:.\Generated_Source\PSoC4/CyLib.c **** *
1436:.\Generated_Source\PSoC4/CyLib.c **** * Parameters:
1437:.\Generated_Source\PSoC4/CyLib.c **** *   number: Valid range [0-31].  Interrupt number.
1438:.\Generated_Source\PSoC4/CyLib.c **** *
ARM GAS  C:\Users\kees\AppData\Local\Temp\ccxzCKRQ.s 			page 39


1439:.\Generated_Source\PSoC4/CyLib.c **** * Return:
1440:.\Generated_Source\PSoC4/CyLib.c **** *  None
1441:.\Generated_Source\PSoC4/CyLib.c **** *
1442:.\Generated_Source\PSoC4/CyLib.c **** *******************************************************************************/
1443:.\Generated_Source\PSoC4/CyLib.c **** void CyIntDisable(uint8 number)
1444:.\Generated_Source\PSoC4/CyLib.c **** {
 725              		.loc 1 1444 0
 726              		.cfi_startproc
 727              	.LVL27:
1445:.\Generated_Source\PSoC4/CyLib.c ****     CY_INT_CLEAR_REG = ((uint32) 0x01u << (CY_INT_ENABLE_RANGE_MASK & number));
 728              		.loc 1 1445 0
 729 0000 1F23     		mov	r3, #31
 730 0002 1840     		and	r0, r0, r3
 731              	.LVL28:
 732 0004 0123     		mov	r3, #1
 733 0006 8340     		lsl	r3, r3, r0
 734 0008 181C     		mov	r0, r3
 735 000a 014B     		ldr	r3, .L91
1446:.\Generated_Source\PSoC4/CyLib.c **** }
 736              		.loc 1 1446 0
 737              		@ sp needed for prologue
 738              		.loc 1 1445 0
 739 000c 1860     		str	r0, [r3]
 740              		.loc 1 1446 0
 741 000e 7047     		bx	lr
 742              	.L92:
 743              		.align	2
 744              	.L91:
 745 0010 80E100E0 		.word	-536813184
 746              		.cfi_endproc
 747              	.LFE40:
 748              		.size	CyIntDisable, .-CyIntDisable
 749              		.section	.text.CyIntSetPending,"ax",%progbits
 750              		.align	1
 751              		.global	CyIntSetPending
 752              		.code	16
 753              		.thumb_func
 754              		.type	CyIntSetPending, %function
 755              	CyIntSetPending:
 756              	.LFB41:
1447:.\Generated_Source\PSoC4/CyLib.c **** 
1448:.\Generated_Source\PSoC4/CyLib.c **** /*******************************************************************************
1449:.\Generated_Source\PSoC4/CyLib.c **** * Function Name: CyIntSetPending
1450:.\Generated_Source\PSoC4/CyLib.c **** ********************************************************************************
1451:.\Generated_Source\PSoC4/CyLib.c **** *
1452:.\Generated_Source\PSoC4/CyLib.c **** * Summary:
1453:.\Generated_Source\PSoC4/CyLib.c **** *  Forces the specified interrupt number to be pending.
1454:.\Generated_Source\PSoC4/CyLib.c **** *
1455:.\Generated_Source\PSoC4/CyLib.c **** * Parameters:
1456:.\Generated_Source\PSoC4/CyLib.c **** *  number: Valid range [0-31].  Interrupt number.
1457:.\Generated_Source\PSoC4/CyLib.c **** *
1458:.\Generated_Source\PSoC4/CyLib.c **** * Return:
1459:.\Generated_Source\PSoC4/CyLib.c **** *  None
1460:.\Generated_Source\PSoC4/CyLib.c **** *
1461:.\Generated_Source\PSoC4/CyLib.c **** *******************************************************************************/
1462:.\Generated_Source\PSoC4/CyLib.c **** void CyIntSetPending(uint8 number)
1463:.\Generated_Source\PSoC4/CyLib.c **** {
ARM GAS  C:\Users\kees\AppData\Local\Temp\ccxzCKRQ.s 			page 40


 757              		.loc 1 1463 0
 758              		.cfi_startproc
 759              	.LVL29:
1464:.\Generated_Source\PSoC4/CyLib.c ****     CY_INT_SET_PEND_REG = ((uint32) 0x01u << (CY_INT_ENABLE_RANGE_MASK & number));
 760              		.loc 1 1464 0
 761 0000 1F23     		mov	r3, #31
 762 0002 1840     		and	r0, r0, r3
 763              	.LVL30:
 764 0004 0123     		mov	r3, #1
 765 0006 8340     		lsl	r3, r3, r0
 766 0008 181C     		mov	r0, r3
 767 000a 014B     		ldr	r3, .L95
1465:.\Generated_Source\PSoC4/CyLib.c **** }
 768              		.loc 1 1465 0
 769              		@ sp needed for prologue
 770              		.loc 1 1464 0
 771 000c 1860     		str	r0, [r3]
 772              		.loc 1 1465 0
 773 000e 7047     		bx	lr
 774              	.L96:
 775              		.align	2
 776              	.L95:
 777 0010 00E200E0 		.word	-536813056
 778              		.cfi_endproc
 779              	.LFE41:
 780              		.size	CyIntSetPending, .-CyIntSetPending
 781              		.section	.text.CyIntClearPending,"ax",%progbits
 782              		.align	1
 783              		.global	CyIntClearPending
 784              		.code	16
 785              		.thumb_func
 786              		.type	CyIntClearPending, %function
 787              	CyIntClearPending:
 788              	.LFB42:
1466:.\Generated_Source\PSoC4/CyLib.c **** 
1467:.\Generated_Source\PSoC4/CyLib.c **** 
1468:.\Generated_Source\PSoC4/CyLib.c **** /*******************************************************************************
1469:.\Generated_Source\PSoC4/CyLib.c **** * Function Name: CyIntClearPending
1470:.\Generated_Source\PSoC4/CyLib.c **** ********************************************************************************
1471:.\Generated_Source\PSoC4/CyLib.c **** *
1472:.\Generated_Source\PSoC4/CyLib.c **** * Summary:
1473:.\Generated_Source\PSoC4/CyLib.c **** *  Clears any pending interrupt for the specified interrupt number.
1474:.\Generated_Source\PSoC4/CyLib.c **** *
1475:.\Generated_Source\PSoC4/CyLib.c **** * Parameters:
1476:.\Generated_Source\PSoC4/CyLib.c **** *  number: Valid range [0-31].  Interrupt number.
1477:.\Generated_Source\PSoC4/CyLib.c **** *
1478:.\Generated_Source\PSoC4/CyLib.c **** * Return:
1479:.\Generated_Source\PSoC4/CyLib.c **** *  None
1480:.\Generated_Source\PSoC4/CyLib.c **** *
1481:.\Generated_Source\PSoC4/CyLib.c **** *******************************************************************************/
1482:.\Generated_Source\PSoC4/CyLib.c **** void CyIntClearPending(uint8 number)
1483:.\Generated_Source\PSoC4/CyLib.c **** {
 789              		.loc 1 1483 0
 790              		.cfi_startproc
 791              	.LVL31:
1484:.\Generated_Source\PSoC4/CyLib.c ****     CY_INT_CLR_PEND_REG = ((uint32) 0x01u << (CY_INT_ENABLE_RANGE_MASK & number));
 792              		.loc 1 1484 0
ARM GAS  C:\Users\kees\AppData\Local\Temp\ccxzCKRQ.s 			page 41


 793 0000 1F23     		mov	r3, #31
 794 0002 1840     		and	r0, r0, r3
 795              	.LVL32:
 796 0004 0123     		mov	r3, #1
 797 0006 8340     		lsl	r3, r3, r0
 798 0008 181C     		mov	r0, r3
 799 000a 014B     		ldr	r3, .L99
1485:.\Generated_Source\PSoC4/CyLib.c **** }
 800              		.loc 1 1485 0
 801              		@ sp needed for prologue
 802              		.loc 1 1484 0
 803 000c 1860     		str	r0, [r3]
 804              		.loc 1 1485 0
 805 000e 7047     		bx	lr
 806              	.L100:
 807              		.align	2
 808              	.L99:
 809 0010 80E200E0 		.word	-536812928
 810              		.cfi_endproc
 811              	.LFE42:
 812              		.size	CyIntClearPending, .-CyIntClearPending
 813              		.section	.text.CyHalt,"ax",%progbits
 814              		.align	1
 815              		.global	CyHalt
 816              		.code	16
 817              		.thumb_func
 818              		.type	CyHalt, %function
 819              	CyHalt:
 820              	.LFB43:
1486:.\Generated_Source\PSoC4/CyLib.c **** 
1487:.\Generated_Source\PSoC4/CyLib.c **** 
1488:.\Generated_Source\PSoC4/CyLib.c **** /*******************************************************************************
1489:.\Generated_Source\PSoC4/CyLib.c **** * Function Name: CyHalt
1490:.\Generated_Source\PSoC4/CyLib.c **** ********************************************************************************
1491:.\Generated_Source\PSoC4/CyLib.c **** *
1492:.\Generated_Source\PSoC4/CyLib.c **** * Summary:
1493:.\Generated_Source\PSoC4/CyLib.c **** *  Halts the CPU.
1494:.\Generated_Source\PSoC4/CyLib.c **** *
1495:.\Generated_Source\PSoC4/CyLib.c **** * Parameters:
1496:.\Generated_Source\PSoC4/CyLib.c **** *  reason: Value to be used during debugging.
1497:.\Generated_Source\PSoC4/CyLib.c **** *
1498:.\Generated_Source\PSoC4/CyLib.c **** * Return:
1499:.\Generated_Source\PSoC4/CyLib.c **** *  None
1500:.\Generated_Source\PSoC4/CyLib.c **** *
1501:.\Generated_Source\PSoC4/CyLib.c **** *******************************************************************************/
1502:.\Generated_Source\PSoC4/CyLib.c **** void CyHalt(uint8 reason)
1503:.\Generated_Source\PSoC4/CyLib.c **** {
 821              		.loc 1 1503 0
 822              		.cfi_startproc
 823              	.LVL33:
1504:.\Generated_Source\PSoC4/CyLib.c ****     if(0u != reason)
1505:.\Generated_Source\PSoC4/CyLib.c ****     {
1506:.\Generated_Source\PSoC4/CyLib.c ****         /* To remove unreferenced local variable warning */
1507:.\Generated_Source\PSoC4/CyLib.c ****     }
1508:.\Generated_Source\PSoC4/CyLib.c **** 
1509:.\Generated_Source\PSoC4/CyLib.c ****     #if defined (__ARMCC_VERSION)
1510:.\Generated_Source\PSoC4/CyLib.c ****         __breakpoint(0x0);
ARM GAS  C:\Users\kees\AppData\Local\Temp\ccxzCKRQ.s 			page 42


1511:.\Generated_Source\PSoC4/CyLib.c ****     #elif defined(__GNUC__)
1512:.\Generated_Source\PSoC4/CyLib.c ****         __asm("    bkpt    1");
 824              		.loc 1 1512 0
 825              	@ 1512 ".\Generated_Source\PSoC4\CyLib.c" 1
 826 0000 01BE     		    bkpt    1
 827              	@ 0 "" 2
1513:.\Generated_Source\PSoC4/CyLib.c ****     #elif defined(__C51__)
1514:.\Generated_Source\PSoC4/CyLib.c ****         CYDEV_HALT_CPU;
1515:.\Generated_Source\PSoC4/CyLib.c ****     #endif  /* (__ARMCC_VERSION) */
1516:.\Generated_Source\PSoC4/CyLib.c **** }
 828              		.loc 1 1516 0
 829              		.code	16
 830              		@ sp needed for prologue
 831 0002 7047     		bx	lr
 832              		.cfi_endproc
 833              	.LFE43:
 834              		.size	CyHalt, .-CyHalt
 835              		.section	.text.CyIntGetPriority,"ax",%progbits
 836              		.align	1
 837              		.global	CyIntGetPriority
 838              		.code	16
 839              		.thumb_func
 840              		.type	CyIntGetPriority, %function
 841              	CyIntGetPriority:
 842              	.LFB37:
 843              		.loc 1 1377 0
 844              		.cfi_startproc
 845 0000 10B5     		push	{r4, lr}
 846              	.LCFI4:
 847              		.cfi_def_cfa_offset 8
 848              		.cfi_offset 4, -8
 849              		.cfi_offset 14, -4
 850              	.LVL34:
 851              		.loc 1 1377 0
 852 0002 041C     		mov	r4, r0
 853              		.loc 1 1380 0
 854 0004 1F28     		cmp	r0, #31
 855 0006 02D9     		bls	.L104
 856 0008 0020     		mov	r0, #0
 857              	.LVL35:
 858 000a FFF7FEFF 		bl	CyHalt
 859              	.LVL36:
 860              	.L104:
 861              		.loc 1 1382 0
 862 000e A308     		lsr	r3, r4, #2
 863 0010 054A     		ldr	r2, .L106
 864 0012 9B00     		lsl	r3, r3, #2
 865 0014 9B18     		add	r3, r3, r2
 866 0016 1868     		ldr	r0, [r3]
 867 0018 0323     		mov	r3, #3
 868 001a 1C40     		and	r4, r4, r3
 869              	.LVL37:
 870 001c E400     		lsl	r4, r4, #3
 871 001e 0634     		add	r4, r4, #6
 872 0020 E040     		lsr	r0, r0, r4
 873 0022 1840     		and	r0, r0, r3
 874              		.loc 1 1385 0
ARM GAS  C:\Users\kees\AppData\Local\Temp\ccxzCKRQ.s 			page 43


 875              		@ sp needed for prologue
 876 0024 10BD     		pop	{r4, pc}
 877              	.L107:
 878 0026 C046     		.align	2
 879              	.L106:
 880 0028 00E400E0 		.word	-536812544
 881              		.cfi_endproc
 882              	.LFE37:
 883              		.size	CyIntGetPriority, .-CyIntGetPriority
 884              		.section	.text.CyIntGetVector,"ax",%progbits
 885              		.align	1
 886              		.global	CyIntGetVector
 887              		.code	16
 888              		.thumb_func
 889              		.type	CyIntGetVector, %function
 890              	CyIntGetVector:
 891              	.LFB35:
 892              		.loc 1 1317 0
 893              		.cfi_startproc
 894 0000 10B5     		push	{r4, lr}
 895              	.LCFI5:
 896              		.cfi_def_cfa_offset 8
 897              		.cfi_offset 4, -8
 898              		.cfi_offset 14, -4
 899              	.LVL38:
 900              		.loc 1 1317 0
 901 0002 041C     		mov	r4, r0
 902              		.loc 1 1320 0
 903 0004 1F28     		cmp	r0, #31
 904 0006 02D9     		bls	.L109
 905 0008 0020     		mov	r0, #0
 906              	.LVL39:
 907 000a FFF7FEFF 		bl	CyHalt
 908              	.LVL40:
 909              	.L109:
 910 000e 024B     		ldr	r3, .L111
 911 0010 A400     		lsl	r4, r4, #2
 912              	.LVL41:
 913 0012 E418     		add	r4, r4, r3
 914 0014 2068     		ldr	r0, [r4]
 915              	.LVL42:
 916              		.loc 1 1323 0
 917              		@ sp needed for prologue
 918 0016 10BD     		pop	{r4, pc}
 919              	.L112:
 920              		.align	2
 921              	.L111:
 922 0018 40000020 		.word	536870976
 923              		.cfi_endproc
 924              	.LFE35:
 925              		.size	CyIntGetVector, .-CyIntGetVector
 926              		.section	.text.CyIntSetVector,"ax",%progbits
 927              		.align	1
 928              		.global	CyIntSetVector
 929              		.code	16
 930              		.thumb_func
 931              		.type	CyIntSetVector, %function
ARM GAS  C:\Users\kees\AppData\Local\Temp\ccxzCKRQ.s 			page 44


 932              	CyIntSetVector:
 933              	.LFB34:
 934              		.loc 1 1286 0
 935              		.cfi_startproc
 936 0000 38B5     		push	{r3, r4, r5, lr}
 937              	.LCFI6:
 938              		.cfi_def_cfa_offset 16
 939              		.cfi_offset 3, -16
 940              		.cfi_offset 4, -12
 941              		.cfi_offset 5, -8
 942              		.cfi_offset 14, -4
 943              	.LVL43:
 944              		.loc 1 1286 0
 945 0002 041C     		mov	r4, r0
 946 0004 0D1C     		mov	r5, r1
 947              		.loc 1 1290 0
 948 0006 1F28     		cmp	r0, #31
 949 0008 02D9     		bls	.L114
 950              	.LVL44:
 951 000a 0020     		mov	r0, #0
 952              	.LVL45:
 953 000c FFF7FEFF 		bl	CyHalt
 954              	.LVL46:
 955              	.L114:
 956              		.loc 1 1293 0
 957 0010 024B     		ldr	r3, .L116
 958 0012 A400     		lsl	r4, r4, #2
 959              	.LVL47:
 960 0014 E418     		add	r4, r4, r3
 961 0016 2068     		ldr	r0, [r4]
 962              	.LVL48:
 963              		.loc 1 1299 0
 964              		@ sp needed for prologue
 965              		.loc 1 1296 0
 966 0018 2560     		str	r5, [r4]
 967              	.LVL49:
 968              	.LVL50:
 969              		.loc 1 1299 0
 970 001a 38BD     		pop	{r3, r4, r5, pc}
 971              	.L117:
 972              		.align	2
 973              	.L116:
 974 001c 40000020 		.word	536870976
 975              		.cfi_endproc
 976              	.LFE34:
 977              		.size	CyIntSetVector, .-CyIntSetVector
 978              		.section	.text.CyIntGetSysVector,"ax",%progbits
 979              		.align	1
 980              		.global	CyIntGetSysVector
 981              		.code	16
 982              		.thumb_func
 983              		.type	CyIntGetSysVector, %function
 984              	CyIntGetSysVector:
 985              	.LFB33:
 986              		.loc 1 1261 0
 987              		.cfi_startproc
 988 0000 10B5     		push	{r4, lr}
ARM GAS  C:\Users\kees\AppData\Local\Temp\ccxzCKRQ.s 			page 45


 989              	.LCFI7:
 990              		.cfi_def_cfa_offset 8
 991              		.cfi_offset 4, -8
 992              		.cfi_offset 14, -4
 993              	.LVL51:
 994              		.loc 1 1261 0
 995 0002 041C     		mov	r4, r0
 996              		.loc 1 1264 0
 997 0004 0F28     		cmp	r0, #15
 998 0006 02D9     		bls	.L119
 999 0008 0020     		mov	r0, #0
 1000              	.LVL52:
 1001 000a FFF7FEFF 		bl	CyHalt
 1002              	.LVL53:
 1003              	.L119:
 1004 000e 8023     		mov	r3, #128
 1005 0010 9B05     		lsl	r3, r3, #22
 1006 0012 A400     		lsl	r4, r4, #2
 1007              	.LVL54:
 1008 0014 E418     		add	r4, r4, r3
 1009 0016 2068     		ldr	r0, [r4]
 1010              	.LVL55:
 1011              		.loc 1 1267 0
 1012              		@ sp needed for prologue
 1013 0018 10BD     		pop	{r4, pc}
 1014              		.cfi_endproc
 1015              	.LFE33:
 1016              		.size	CyIntGetSysVector, .-CyIntGetSysVector
 1017              		.section	.text.CyIntSetSysVector,"ax",%progbits
 1018              		.align	1
 1019              		.global	CyIntSetSysVector
 1020              		.code	16
 1021              		.thumb_func
 1022              		.type	CyIntSetSysVector, %function
 1023              	CyIntSetSysVector:
 1024              	.LFB32:
 1025              		.loc 1 1229 0
 1026              		.cfi_startproc
 1027 0000 38B5     		push	{r3, r4, r5, lr}
 1028              	.LCFI8:
 1029              		.cfi_def_cfa_offset 16
 1030              		.cfi_offset 3, -16
 1031              		.cfi_offset 4, -12
 1032              		.cfi_offset 5, -8
 1033              		.cfi_offset 14, -4
 1034              	.LVL56:
 1035              		.loc 1 1229 0
 1036 0002 041C     		mov	r4, r0
 1037 0004 0D1C     		mov	r5, r1
 1038              		.loc 1 1233 0
 1039 0006 0F28     		cmp	r0, #15
 1040 0008 02D9     		bls	.L122
 1041              	.LVL57:
 1042 000a 0020     		mov	r0, #0
 1043              	.LVL58:
 1044 000c FFF7FEFF 		bl	CyHalt
 1045              	.LVL59:
ARM GAS  C:\Users\kees\AppData\Local\Temp\ccxzCKRQ.s 			page 46


 1046              	.L122:
 1047              		.loc 1 1236 0
 1048 0010 8023     		mov	r3, #128
 1049 0012 9B05     		lsl	r3, r3, #22
 1050 0014 A400     		lsl	r4, r4, #2
 1051              	.LVL60:
 1052 0016 E418     		add	r4, r4, r3
 1053 0018 2068     		ldr	r0, [r4]
 1054              	.LVL61:
 1055              		.loc 1 1242 0
 1056              		@ sp needed for prologue
 1057              		.loc 1 1239 0
 1058 001a 2560     		str	r5, [r4]
 1059              	.LVL62:
 1060              	.LVL63:
 1061              		.loc 1 1242 0
 1062 001c 38BD     		pop	{r3, r4, r5, pc}
 1063              		.cfi_endproc
 1064              	.LFE32:
 1065              		.size	CyIntSetSysVector, .-CyIntSetSysVector
 1066              		.section	.text.CySysWdtReadCount,"ax",%progbits
 1067              		.align	1
 1068              		.global	CySysWdtReadCount
 1069              		.code	16
 1070              		.thumb_func
 1071              		.type	CySysWdtReadCount, %function
 1072              	CySysWdtReadCount:
 1073              	.LFB22:
 1074              		.loc 1 892 0
 1075              		.cfi_startproc
 1076 0000 08B5     		push	{r3, lr}
 1077              	.LCFI9:
 1078              		.cfi_def_cfa_offset 8
 1079              		.cfi_offset 3, -8
 1080              		.cfi_offset 14, -4
 1081              	.LVL64:
 1082              		.loc 1 895 0
 1083 0002 0128     		cmp	r0, #1
 1084 0004 08D0     		beq	.L127
 1085 0006 0028     		cmp	r0, #0
 1086 0008 02D0     		beq	.L126
 1087 000a 0228     		cmp	r0, #2
 1088 000c 0BD1     		bne	.L131
 1089 000e 07E0     		b	.L133
 1090              	.L126:
 1091              		.loc 1 899 0
 1092 0010 074B     		ldr	r3, .L134
 1093 0012 1868     		ldr	r0, [r3]
 1094              	.LVL65:
 1095 0014 80B2     		uxth	r0, r0
 1096              	.LVL66:
 1097              		.loc 1 900 0
 1098 0016 0AE0     		b	.L129
 1099              	.LVL67:
 1100              	.L127:
 1101              		.loc 1 904 0
 1102 0018 054B     		ldr	r3, .L134
ARM GAS  C:\Users\kees\AppData\Local\Temp\ccxzCKRQ.s 			page 47


 1103 001a 1868     		ldr	r0, [r3]
 1104              	.LVL68:
 1105 001c 000C     		lsr	r0, r0, #16
 1106              	.LVL69:
 1107              		.loc 1 905 0
 1108 001e 06E0     		b	.L129
 1109              	.LVL70:
 1110              	.L133:
 1111              		.loc 1 909 0
 1112 0020 044B     		ldr	r3, .L134+4
 1113 0022 1868     		ldr	r0, [r3]
 1114              	.LVL71:
 1115              		.loc 1 910 0
 1116 0024 03E0     		b	.L129
 1117              	.LVL72:
 1118              	.L131:
 1119              		.loc 1 913 0
 1120 0026 0020     		mov	r0, #0
 1121              	.LVL73:
 1122 0028 FFF7FEFF 		bl	CyHalt
 1123 002c 0020     		mov	r0, #0
 1124              	.LVL74:
 1125              	.L129:
 1126              	.LVL75:
 1127              		.loc 1 918 0
 1128              		@ sp needed for prologue
 1129 002e 08BD     		pop	{r3, pc}
 1130              	.L135:
 1131              		.align	2
 1132              	.L134:
 1133 0030 00020B40 		.word	1074463232
 1134 0034 04020B40 		.word	1074463236
 1135              		.cfi_endproc
 1136              	.LFE22:
 1137              		.size	CySysWdtReadCount, .-CySysWdtReadCount
 1138              		.section	.text.CySysWdtReadMatch,"ax",%progbits
 1139              		.align	1
 1140              		.global	CySysWdtReadMatch
 1141              		.code	16
 1142              		.thumb_func
 1143              		.type	CySysWdtReadMatch, %function
 1144              	CySysWdtReadMatch:
 1145              	.LFB21:
 1146              		.loc 1 868 0
 1147              		.cfi_startproc
 1148 0000 10B5     		push	{r4, lr}
 1149              	.LCFI10:
 1150              		.cfi_def_cfa_offset 8
 1151              		.cfi_offset 4, -8
 1152              		.cfi_offset 14, -4
 1153              	.LVL76:
 1154              		.loc 1 868 0
 1155 0002 041C     		mov	r4, r0
 1156              		.loc 1 869 0
 1157 0004 0128     		cmp	r0, #1
 1158 0006 02D9     		bls	.L137
 1159 0008 0020     		mov	r0, #0
ARM GAS  C:\Users\kees\AppData\Local\Temp\ccxzCKRQ.s 			page 48


 1160              	.LVL77:
 1161 000a FFF7FEFF 		bl	CyHalt
 1162              	.LVL78:
 1163              	.L137:
 1164              		.loc 1 872 0
 1165 000e 034B     		ldr	r3, .L139
 1166 0010 2401     		lsl	r4, r4, #4
 1167              	.LVL79:
 1168 0012 1868     		ldr	r0, [r3]
 1169              	.LVL80:
 1170              		.loc 1 873 0
 1171              		@ sp needed for prologue
 1172              		.loc 1 872 0
 1173 0014 E040     		lsr	r0, r0, r4
 1174 0016 80B2     		uxth	r0, r0
 1175              		.loc 1 873 0
 1176 0018 10BD     		pop	{r4, pc}
 1177              	.L140:
 1178 001a C046     		.align	2
 1179              	.L139:
 1180 001c 08020B40 		.word	1074463240
 1181              		.cfi_endproc
 1182              	.LFE21:
 1183              		.size	CySysWdtReadMatch, .-CySysWdtReadMatch
 1184              		.section	.text.CySysWdtReadClearOnMatch,"ax",%progbits
 1185              		.align	1
 1186              		.global	CySysWdtReadClearOnMatch
 1187              		.code	16
 1188              		.thumb_func
 1189              		.type	CySysWdtReadClearOnMatch, %function
 1190              	CySysWdtReadClearOnMatch:
 1191              	.LFB13:
 1192              		.loc 1 583 0
 1193              		.cfi_startproc
 1194 0000 10B5     		push	{r4, lr}
 1195              	.LCFI11:
 1196              		.cfi_def_cfa_offset 8
 1197              		.cfi_offset 4, -8
 1198              		.cfi_offset 14, -4
 1199              	.LVL81:
 1200              		.loc 1 583 0
 1201 0002 041C     		mov	r4, r0
 1202              		.loc 1 584 0
 1203 0004 0128     		cmp	r0, #1
 1204 0006 02D9     		bls	.L142
 1205 0008 0020     		mov	r0, #0
 1206              	.LVL82:
 1207 000a FFF7FEFF 		bl	CyHalt
 1208              	.LVL83:
 1209              	.L142:
 1210              		.loc 1 587 0
 1211 000e 044B     		ldr	r3, .L144
 1212 0010 E400     		lsl	r4, r4, #3
 1213              	.LVL84:
 1214 0012 1868     		ldr	r0, [r3]
 1215              	.LVL85:
 1216 0014 0234     		add	r4, r4, #2
ARM GAS  C:\Users\kees\AppData\Local\Temp\ccxzCKRQ.s 			page 49


 1217 0016 E040     		lsr	r0, r0, r4
 1218 0018 0123     		mov	r3, #1
 1219 001a 1840     		and	r0, r0, r3
 1220              		.loc 1 589 0
 1221              		@ sp needed for prologue
 1222 001c 10BD     		pop	{r4, pc}
 1223              	.L145:
 1224 001e C046     		.align	2
 1225              	.L144:
 1226 0020 0C020B40 		.word	1074463244
 1227              		.cfi_endproc
 1228              	.LFE13:
 1229              		.size	CySysWdtReadClearOnMatch, .-CySysWdtReadClearOnMatch
 1230              		.section	.text.CySysWdtReadEnabledStatus,"ax",%progbits
 1231              		.align	1
 1232              		.global	CySysWdtReadEnabledStatus
 1233              		.code	16
 1234              		.thumb_func
 1235              		.type	CySysWdtReadEnabledStatus, %function
 1236              	CySysWdtReadEnabledStatus:
 1237              	.LFB9:
 1238              		.loc 1 439 0
 1239              		.cfi_startproc
 1240 0000 10B5     		push	{r4, lr}
 1241              	.LCFI12:
 1242              		.cfi_def_cfa_offset 8
 1243              		.cfi_offset 4, -8
 1244              		.cfi_offset 14, -4
 1245              	.LVL86:
 1246              		.loc 1 439 0
 1247 0002 041C     		mov	r4, r0
 1248              		.loc 1 440 0
 1249 0004 0228     		cmp	r0, #2
 1250 0006 02D9     		bls	.L147
 1251 0008 0020     		mov	r0, #0
 1252              	.LVL87:
 1253 000a FFF7FEFF 		bl	CyHalt
 1254              	.LVL88:
 1255              	.L147:
 1256              		.loc 1 442 0
 1257 000e 044B     		ldr	r3, .L149
 1258 0010 E400     		lsl	r4, r4, #3
 1259              	.LVL89:
 1260 0012 1868     		ldr	r0, [r3]
 1261              	.LVL90:
 1262 0014 0134     		add	r4, r4, #1
 1263 0016 E040     		lsr	r0, r0, r4
 1264 0018 0123     		mov	r3, #1
 1265 001a 1840     		and	r0, r0, r3
 1266              		.loc 1 443 0
 1267              		@ sp needed for prologue
 1268 001c 10BD     		pop	{r4, pc}
 1269              	.L150:
 1270 001e C046     		.align	2
 1271              	.L149:
 1272 0020 10020B40 		.word	1074463248
 1273              		.cfi_endproc
ARM GAS  C:\Users\kees\AppData\Local\Temp\ccxzCKRQ.s 			page 50


 1274              	.LFE9:
 1275              		.size	CySysWdtReadEnabledStatus, .-CySysWdtReadEnabledStatus
 1276              		.section	.text.CySysWdtWriteToggleBit,"ax",%progbits
 1277              		.align	1
 1278              		.global	CySysWdtWriteToggleBit
 1279              		.code	16
 1280              		.thumb_func
 1281              		.type	CySysWdtWriteToggleBit, %function
 1282              	CySysWdtWriteToggleBit:
 1283              	.LFB19:
 1284              		.loc 1 811 0
 1285              		.cfi_startproc
 1286 0000 10B5     		push	{r4, lr}
 1287              	.LCFI13:
 1288              		.cfi_def_cfa_offset 8
 1289              		.cfi_offset 4, -8
 1290              		.cfi_offset 14, -4
 1291              	.LVL91:
 1292              		.loc 1 811 0
 1293 0002 041C     		mov	r4, r0
 1294              		.loc 1 814 0
 1295 0004 0220     		mov	r0, #2
 1296              	.LVL92:
 1297 0006 FFF7FEFF 		bl	CySysWdtReadEnabledStatus
 1298 000a 0028     		cmp	r0, #0
 1299 000c 0ED1     		bne	.L154
 1300              		.loc 1 819 0
 1301 000e 084B     		ldr	r3, .L155
 1302 0010 1B68     		ldr	r3, [r3]
 1303 0012 002B     		cmp	r3, #0
 1304 0014 01DB     		blt	.L153
 1305              		.loc 1 821 0
 1306 0016 FFF7FEFF 		bl	CySysClkIloStart
 1307              	.L153:
 1308              		.loc 1 824 0
 1309 001a 064B     		ldr	r3, .L155+4
 1310              		.loc 1 825 0
 1311 001c 064A     		ldr	r2, .L155+8
 1312              		.loc 1 824 0
 1313 001e 1968     		ldr	r1, [r3]
 1314              	.LVL93:
 1315              		.loc 1 825 0
 1316 0020 0A40     		and	r2, r2, r1
 1317              	.LVL94:
 1318              		.loc 1 826 0
 1319 0022 1F21     		mov	r1, #31
 1320 0024 0C40     		and	r4, r4, r1
 1321              	.LVL95:
 1322 0026 2406     		lsl	r4, r4, #24
 1323 0028 1443     		orr	r4, r4, r2
 1324              	.LVL96:
 1325              		.loc 1 827 0
 1326 002a 1C60     		str	r4, [r3]
 1327              	.LVL97:
 1328              	.L154:
 1329              		.loc 1 829 0
 1330              		@ sp needed for prologue
ARM GAS  C:\Users\kees\AppData\Local\Temp\ccxzCKRQ.s 			page 51


 1331              	.LVL98:
 1332 002c 10BD     		pop	{r4, pc}
 1333              	.L156:
 1334 002e C046     		.align	2
 1335              	.L155:
 1336 0030 04010B40 		.word	1074462980
 1337 0034 0C020B40 		.word	1074463244
 1338 0038 FFFFFFE0 		.word	-520093697
 1339              		.cfi_endproc
 1340              	.LFE19:
 1341              		.size	CySysWdtWriteToggleBit, .-CySysWdtWriteToggleBit
 1342              		.section	.text.CySysWdtWriteCascade,"ax",%progbits
 1343              		.align	1
 1344              		.global	CySysWdtWriteCascade
 1345              		.code	16
 1346              		.thumb_func
 1347              		.type	CySysWdtWriteCascade, %function
 1348              	CySysWdtWriteCascade:
 1349              	.LFB16:
 1350              		.loc 1 692 0
 1351              		.cfi_startproc
 1352 0000 70B5     		push	{r4, r5, r6, lr}
 1353              	.LCFI14:
 1354              		.cfi_def_cfa_offset 16
 1355              		.cfi_offset 4, -16
 1356              		.cfi_offset 5, -12
 1357              		.cfi_offset 6, -8
 1358              		.cfi_offset 14, -4
 1359              	.LVL99:
 1360              		.loc 1 692 0
 1361 0002 061C     		mov	r6, r0
 1362              		.loc 1 697 0
 1363 0004 0020     		mov	r0, #0
 1364              	.LVL100:
 1365 0006 FFF7FEFF 		bl	CySysWdtReadEnabledStatus
 1366 000a 051C     		mov	r5, r0
 1367 000c 0120     		mov	r0, #1
 1368 000e FFF7FEFF 		bl	CySysWdtReadEnabledStatus
 1369 0012 041C     		mov	r4, r0
 1370              		.loc 1 696 0
 1371 0014 0220     		mov	r0, #2
 1372 0016 FFF7FEFF 		bl	CySysWdtReadEnabledStatus
 1373              		.loc 1 700 0
 1374 001a 002C     		cmp	r4, #0
 1375 001c 0FD1     		bne	.L160
 1376 001e 002D     		cmp	r5, #0
 1377 0020 0DD1     		bne	.L160
 1378 0022 0028     		cmp	r0, #0
 1379 0024 0BD1     		bne	.L160
 1380              		.loc 1 705 0
 1381 0026 064B     		ldr	r3, .L161
 1382 0028 1B68     		ldr	r3, [r3]
 1383 002a 002B     		cmp	r3, #0
 1384 002c 01DB     		blt	.L159
 1385              		.loc 1 707 0
 1386 002e FFF7FEFF 		bl	CySysClkIloStart
 1387              	.L159:
ARM GAS  C:\Users\kees\AppData\Local\Temp\ccxzCKRQ.s 			page 52


 1388              		.loc 1 710 0
 1389 0032 044B     		ldr	r3, .L161+4
 1390              		.loc 1 711 0
 1391 0034 044A     		ldr	r2, .L161+8
 1392              		.loc 1 710 0
 1393 0036 1968     		ldr	r1, [r3]
 1394              	.LVL101:
 1395              		.loc 1 711 0
 1396 0038 0A40     		and	r2, r2, r1
 1397              	.LVL102:
 1398              		.loc 1 712 0
 1399 003a 1643     		orr	r6, r6, r2
 1400              	.LVL103:
 1401              		.loc 1 713 0
 1402 003c 1E60     		str	r6, [r3]
 1403              	.LVL104:
 1404              	.L160:
 1405              		.loc 1 715 0
 1406              		@ sp needed for prologue
 1407              	.LVL105:
 1408 003e 70BD     		pop	{r4, r5, r6, pc}
 1409              	.L162:
 1410              		.align	2
 1411              	.L161:
 1412 0040 04010B40 		.word	1074462980
 1413 0044 0C020B40 		.word	1074463244
 1414 0048 F7F7FFFF 		.word	-2057
 1415              		.cfi_endproc
 1416              	.LFE16:
 1417              		.size	CySysWdtWriteCascade, .-CySysWdtWriteCascade
 1418              		.section	.text.CySysWdtWriteClearOnMatch,"ax",%progbits
 1419              		.align	1
 1420              		.global	CySysWdtWriteClearOnMatch
 1421              		.code	16
 1422              		.thumb_func
 1423              		.type	CySysWdtWriteClearOnMatch, %function
 1424              	CySysWdtWriteClearOnMatch:
 1425              	.LFB12:
 1426              		.loc 1 547 0
 1427              		.cfi_startproc
 1428 0000 38B5     		push	{r3, r4, r5, lr}
 1429              	.LCFI15:
 1430              		.cfi_def_cfa_offset 16
 1431              		.cfi_offset 3, -16
 1432              		.cfi_offset 4, -12
 1433              		.cfi_offset 5, -8
 1434              		.cfi_offset 14, -4
 1435              	.LVL106:
 1436              		.loc 1 547 0
 1437 0002 041C     		mov	r4, r0
 1438 0004 0D1C     		mov	r5, r1
 1439              		.loc 1 548 0
 1440 0006 0128     		cmp	r0, #1
 1441 0008 02D9     		bls	.L164
 1442              	.LVL107:
 1443 000a 0020     		mov	r0, #0
 1444              	.LVL108:
ARM GAS  C:\Users\kees\AppData\Local\Temp\ccxzCKRQ.s 			page 53


 1445 000c FFF7FEFF 		bl	CyHalt
 1446              	.LVL109:
 1447              	.L164:
 1448              		.loc 1 554 0
 1449 0010 094B     		ldr	r3, .L168
 1450 0012 1B68     		ldr	r3, [r3]
 1451 0014 002B     		cmp	r3, #0
 1452 0016 01DB     		blt	.L165
 1453              		.loc 1 556 0
 1454 0018 FFF7FEFF 		bl	CySysClkIloStart
 1455              	.LVL110:
 1456              	.L165:
 1457              		.loc 1 559 0
 1458 001c 201C     		mov	r0, r4
 1459 001e FFF7FEFF 		bl	CySysWdtReadEnabledStatus
 1460 0022 0028     		cmp	r0, #0
 1461 0024 06D1     		bne	.L167
 1462              		.loc 1 561 0
 1463 0026 054B     		ldr	r3, .L168+4
 1464 0028 E400     		lsl	r4, r4, #3
 1465              	.LVL111:
 1466 002a 1A68     		ldr	r2, [r3]
 1467 002c 0234     		add	r4, r4, #2
 1468 002e A540     		lsl	r5, r5, r4
 1469              	.LVL112:
 1470 0030 1543     		orr	r5, r5, r2
 1471 0032 1D60     		str	r5, [r3]
 1472              	.LVL113:
 1473              	.L167:
 1474              		.loc 1 564 0
 1475              		@ sp needed for prologue
 1476              	.LVL114:
 1477              	.LVL115:
 1478 0034 38BD     		pop	{r3, r4, r5, pc}
 1479              	.L169:
 1480 0036 C046     		.align	2
 1481              	.L168:
 1482 0038 04010B40 		.word	1074462980
 1483 003c 0C020B40 		.word	1074463244
 1484              		.cfi_endproc
 1485              	.LFE12:
 1486              		.size	CySysWdtWriteClearOnMatch, .-CySysWdtWriteClearOnMatch
 1487              		.section	.text.CySysWdtWriteMode,"ax",%progbits
 1488              		.align	1
 1489              		.global	CySysWdtWriteMode
 1490              		.code	16
 1491              		.thumb_func
 1492              		.type	CySysWdtWriteMode, %function
 1493              	CySysWdtWriteMode:
 1494              	.LFB10:
 1495              		.loc 1 475 0
 1496              		.cfi_startproc
 1497 0000 38B5     		push	{r3, r4, r5, lr}
 1498              	.LCFI16:
 1499              		.cfi_def_cfa_offset 16
 1500              		.cfi_offset 3, -16
 1501              		.cfi_offset 4, -12
ARM GAS  C:\Users\kees\AppData\Local\Temp\ccxzCKRQ.s 			page 54


 1502              		.cfi_offset 5, -8
 1503              		.cfi_offset 14, -4
 1504              	.LVL116:
 1505              		.loc 1 475 0
 1506 0002 041C     		mov	r4, r0
 1507 0004 0D1C     		mov	r5, r1
 1508              		.loc 1 478 0
 1509 0006 0228     		cmp	r0, #2
 1510 0008 02D9     		bls	.L171
 1511              	.LVL117:
 1512 000a 0020     		mov	r0, #0
 1513              	.LVL118:
 1514 000c FFF7FEFF 		bl	CyHalt
 1515              	.LVL119:
 1516              	.L171:
 1517              		.loc 1 483 0
 1518 0010 0B4B     		ldr	r3, .L175
 1519 0012 1B68     		ldr	r3, [r3]
 1520 0014 002B     		cmp	r3, #0
 1521 0016 01DB     		blt	.L172
 1522              		.loc 1 485 0
 1523 0018 FFF7FEFF 		bl	CySysClkIloStart
 1524              	.LVL120:
 1525              	.L172:
 1526              		.loc 1 488 0
 1527 001c 201C     		mov	r0, r4
 1528 001e FFF7FEFF 		bl	CySysWdtReadEnabledStatus
 1529 0022 0028     		cmp	r0, #0
 1530 0024 0BD1     		bne	.L174
 1531              		.loc 1 490 0
 1532 0026 074B     		ldr	r3, .L175+4
 1533 0028 0322     		mov	r2, #3
 1534              		.loc 1 491 0
 1535 002a E400     		lsl	r4, r4, #3
 1536              	.LVL121:
 1537              		.loc 1 490 0
 1538 002c 1968     		ldr	r1, [r3]
 1539 002e 101C     		mov	r0, r2
 1540 0030 A040     		lsl	r0, r0, r4
 1541 0032 8143     		bic	r1, r1, r0
 1542              	.LVL122:
 1543              		.loc 1 492 0
 1544 0034 1540     		and	r5, r5, r2
 1545              	.LVL123:
 1546 0036 A540     		lsl	r5, r5, r4
 1547 0038 0C1C     		mov	r4, r1
 1548 003a 2C43     		orr	r4, r4, r5
 1549              	.LVL124:
 1550              		.loc 1 493 0
 1551 003c 1C60     		str	r4, [r3]
 1552              	.LVL125:
 1553              	.L174:
 1554              		.loc 1 495 0
 1555              		@ sp needed for prologue
 1556              	.LVL126:
 1557              	.LVL127:
 1558 003e 38BD     		pop	{r3, r4, r5, pc}
ARM GAS  C:\Users\kees\AppData\Local\Temp\ccxzCKRQ.s 			page 55


 1559              	.L176:
 1560              		.align	2
 1561              	.L175:
 1562 0040 04010B40 		.word	1074462980
 1563 0044 0C020B40 		.word	1074463244
 1564              		.cfi_endproc
 1565              	.LFE10:
 1566              		.size	CySysWdtWriteMode, .-CySysWdtWriteMode
 1567              		.section	.text.CySoftwareReset,"ax",%progbits
 1568              		.align	1
 1569              		.global	CySoftwareReset
 1570              		.code	16
 1571              		.thumb_func
 1572              		.type	CySoftwareReset, %function
 1573              	CySoftwareReset:
 1574              	.LFB44:
1517:.\Generated_Source\PSoC4/CyLib.c **** 
1518:.\Generated_Source\PSoC4/CyLib.c **** 
1519:.\Generated_Source\PSoC4/CyLib.c **** /*******************************************************************************
1520:.\Generated_Source\PSoC4/CyLib.c **** * Function Name: CySoftwareReset
1521:.\Generated_Source\PSoC4/CyLib.c **** ********************************************************************************
1522:.\Generated_Source\PSoC4/CyLib.c **** *
1523:.\Generated_Source\PSoC4/CyLib.c **** * Summary:
1524:.\Generated_Source\PSoC4/CyLib.c **** *  Forces a software reset of the device.
1525:.\Generated_Source\PSoC4/CyLib.c **** *
1526:.\Generated_Source\PSoC4/CyLib.c **** * Parameters:
1527:.\Generated_Source\PSoC4/CyLib.c **** *  None
1528:.\Generated_Source\PSoC4/CyLib.c **** *
1529:.\Generated_Source\PSoC4/CyLib.c **** * Return:
1530:.\Generated_Source\PSoC4/CyLib.c **** *  None
1531:.\Generated_Source\PSoC4/CyLib.c **** *
1532:.\Generated_Source\PSoC4/CyLib.c **** *******************************************************************************/
1533:.\Generated_Source\PSoC4/CyLib.c **** void CySoftwareReset(void)
1534:.\Generated_Source\PSoC4/CyLib.c **** {
 1575              		.loc 1 1534 0
 1576              		.cfi_startproc
1535:.\Generated_Source\PSoC4/CyLib.c ****     /***************************************************************************
1536:.\Generated_Source\PSoC4/CyLib.c ****     * Setting the system reset request bit. The vector key value must be written
1537:.\Generated_Source\PSoC4/CyLib.c ****     * to the register, otherwise the register write is unpredictable.
1538:.\Generated_Source\PSoC4/CyLib.c ****     ***************************************************************************/
1539:.\Generated_Source\PSoC4/CyLib.c ****     CY_SYS_CM0_AIRCR_REG = (CY_SYS_CM0_AIRCR_REG & ~CY_SYS_CM0_AIRCR_VECTKEY_MASK) |
 1577              		.loc 1 1539 0
 1578 0000 034B     		ldr	r3, .L179
 1579 0002 0449     		ldr	r1, .L179+4
 1580 0004 1A68     		ldr	r2, [r3]
1540:.\Generated_Source\PSoC4/CyLib.c ****                             CY_SYS_CM0_AIRCR_VECTKEY | CY_SYS_CM0_AIRCR_SYSRESETREQ;
1541:.\Generated_Source\PSoC4/CyLib.c **** }
 1581              		.loc 1 1541 0
 1582              		@ sp needed for prologue
 1583              		.loc 1 1539 0
 1584 0006 92B2     		uxth	r2, r2
 1585 0008 0A43     		orr	r2, r2, r1
 1586 000a 1A60     		str	r2, [r3]
 1587              		.loc 1 1541 0
 1588 000c 7047     		bx	lr
 1589              	.L180:
 1590 000e C046     		.align	2
ARM GAS  C:\Users\kees\AppData\Local\Temp\ccxzCKRQ.s 			page 56


 1591              	.L179:
 1592 0010 0CED00E0 		.word	-536810228
 1593 0014 0400FA05 		.word	100270084
 1594              		.cfi_endproc
 1595              	.LFE44:
 1596              		.size	CySoftwareReset, .-CySoftwareReset
 1597              		.global	__aeabi_uidiv
 1598              		.section	.text.CyDelayFreq,"ax",%progbits
 1599              		.align	1
 1600              		.global	CyDelayFreq
 1601              		.code	16
 1602              		.thumb_func
 1603              		.type	CyDelayFreq, %function
 1604              	CyDelayFreq:
 1605              	.LFB47:
1542:.\Generated_Source\PSoC4/CyLib.c **** 
1543:.\Generated_Source\PSoC4/CyLib.c **** 
1544:.\Generated_Source\PSoC4/CyLib.c **** /*******************************************************************************
1545:.\Generated_Source\PSoC4/CyLib.c **** * Function Name: CyDelay
1546:.\Generated_Source\PSoC4/CyLib.c **** ********************************************************************************
1547:.\Generated_Source\PSoC4/CyLib.c **** *
1548:.\Generated_Source\PSoC4/CyLib.c **** * Summary:
1549:.\Generated_Source\PSoC4/CyLib.c **** *  Blocks for milliseconds.
1550:.\Generated_Source\PSoC4/CyLib.c **** *
1551:.\Generated_Source\PSoC4/CyLib.c **** * Parameters:
1552:.\Generated_Source\PSoC4/CyLib.c **** *  milliseconds: number of milliseconds to delay.
1553:.\Generated_Source\PSoC4/CyLib.c **** *
1554:.\Generated_Source\PSoC4/CyLib.c **** * Return:
1555:.\Generated_Source\PSoC4/CyLib.c **** *  None
1556:.\Generated_Source\PSoC4/CyLib.c **** *
1557:.\Generated_Source\PSoC4/CyLib.c **** *******************************************************************************/
1558:.\Generated_Source\PSoC4/CyLib.c **** void CyDelay(uint32 milliseconds)
1559:.\Generated_Source\PSoC4/CyLib.c **** {
1560:.\Generated_Source\PSoC4/CyLib.c ****     while (milliseconds > CY_DELAY_MS_OVERFLOW)
1561:.\Generated_Source\PSoC4/CyLib.c ****     {
1562:.\Generated_Source\PSoC4/CyLib.c ****         /* This loop prevents overflow.
1563:.\Generated_Source\PSoC4/CyLib.c ****          * At 100MHz, milliseconds * cydelayFreqKhz overflows at about 42 seconds
1564:.\Generated_Source\PSoC4/CyLib.c ****          */
1565:.\Generated_Source\PSoC4/CyLib.c ****         CyDelayCycles(cydelay32kMs);
1566:.\Generated_Source\PSoC4/CyLib.c ****         milliseconds -= CY_DELAY_MS_OVERFLOW;
1567:.\Generated_Source\PSoC4/CyLib.c ****     }
1568:.\Generated_Source\PSoC4/CyLib.c **** 
1569:.\Generated_Source\PSoC4/CyLib.c ****     CyDelayCycles(milliseconds * cydelayFreqKhz);
1570:.\Generated_Source\PSoC4/CyLib.c **** }
1571:.\Generated_Source\PSoC4/CyLib.c **** 
1572:.\Generated_Source\PSoC4/CyLib.c **** 
1573:.\Generated_Source\PSoC4/CyLib.c **** /*******************************************************************************
1574:.\Generated_Source\PSoC4/CyLib.c **** * Function Name: CyDelayUs
1575:.\Generated_Source\PSoC4/CyLib.c **** ********************************************************************************
1576:.\Generated_Source\PSoC4/CyLib.c **** * Summary:
1577:.\Generated_Source\PSoC4/CyLib.c **** *  Blocks for microseconds.
1578:.\Generated_Source\PSoC4/CyLib.c **** *
1579:.\Generated_Source\PSoC4/CyLib.c **** * Parameters:
1580:.\Generated_Source\PSoC4/CyLib.c **** *  microseconds: number of microseconds to delay.
1581:.\Generated_Source\PSoC4/CyLib.c **** *
1582:.\Generated_Source\PSoC4/CyLib.c **** * Return:
1583:.\Generated_Source\PSoC4/CyLib.c **** *  None
ARM GAS  C:\Users\kees\AppData\Local\Temp\ccxzCKRQ.s 			page 57


1584:.\Generated_Source\PSoC4/CyLib.c **** *
1585:.\Generated_Source\PSoC4/CyLib.c **** *******************************************************************************/
1586:.\Generated_Source\PSoC4/CyLib.c **** void CyDelayUs(uint16 microseconds)
1587:.\Generated_Source\PSoC4/CyLib.c **** {
1588:.\Generated_Source\PSoC4/CyLib.c ****     CyDelayCycles((uint32)microseconds * cydelayFreqMhz);
1589:.\Generated_Source\PSoC4/CyLib.c **** }
1590:.\Generated_Source\PSoC4/CyLib.c **** 
1591:.\Generated_Source\PSoC4/CyLib.c **** 
1592:.\Generated_Source\PSoC4/CyLib.c **** /*******************************************************************************
1593:.\Generated_Source\PSoC4/CyLib.c **** * Function Name: CyDelayFreq
1594:.\Generated_Source\PSoC4/CyLib.c **** ********************************************************************************
1595:.\Generated_Source\PSoC4/CyLib.c **** * Summary:
1596:.\Generated_Source\PSoC4/CyLib.c **** *  Sets clock frequency for CyDelay.
1597:.\Generated_Source\PSoC4/CyLib.c **** *
1598:.\Generated_Source\PSoC4/CyLib.c **** * Parameters:
1599:.\Generated_Source\PSoC4/CyLib.c **** *  freq: Frequency of bus clock in Hertz.
1600:.\Generated_Source\PSoC4/CyLib.c **** *
1601:.\Generated_Source\PSoC4/CyLib.c **** * Return:
1602:.\Generated_Source\PSoC4/CyLib.c **** *  None
1603:.\Generated_Source\PSoC4/CyLib.c **** *
1604:.\Generated_Source\PSoC4/CyLib.c **** *******************************************************************************/
1605:.\Generated_Source\PSoC4/CyLib.c **** void CyDelayFreq(uint32 freq)
1606:.\Generated_Source\PSoC4/CyLib.c **** {
 1606              		.loc 1 1606 0
 1607              		.cfi_startproc
 1608 0000 38B5     		push	{r3, r4, r5, lr}
 1609              	.LCFI17:
 1610              		.cfi_def_cfa_offset 16
 1611              		.cfi_offset 3, -16
 1612              		.cfi_offset 4, -12
 1613              		.cfi_offset 5, -8
 1614              		.cfi_offset 14, -4
 1615              	.LVL128:
 1616 0002 0C4B     		ldr	r3, .L185
1607:.\Generated_Source\PSoC4/CyLib.c ****     if (freq != 0u)
 1617              		.loc 1 1607 0
 1618 0004 0028     		cmp	r0, #0
 1619 0006 01D0     		beq	.L182
1608:.\Generated_Source\PSoC4/CyLib.c ****     {
1609:.\Generated_Source\PSoC4/CyLib.c ****         cydelayFreqHz = freq;
 1620              		.loc 1 1609 0
 1621 0008 1860     		str	r0, [r3]
 1622 000a 01E0     		b	.L183
 1623              	.L182:
1610:.\Generated_Source\PSoC4/CyLib.c ****     }
1611:.\Generated_Source\PSoC4/CyLib.c ****     else
1612:.\Generated_Source\PSoC4/CyLib.c ****     {
1613:.\Generated_Source\PSoC4/CyLib.c ****         cydelayFreqHz = CYDEV_BCLK__SYSCLK__HZ;
 1624              		.loc 1 1613 0
 1625 000c 0A4A     		ldr	r2, .L185+4
 1626 000e 1A60     		str	r2, [r3]
 1627              	.L183:
1614:.\Generated_Source\PSoC4/CyLib.c ****     }
1615:.\Generated_Source\PSoC4/CyLib.c **** 
1616:.\Generated_Source\PSoC4/CyLib.c ****     cydelayFreqMhz = (uint8)((cydelayFreqHz + CY_DELAY_1M_MINUS_1_THRESHOLD) / CY_DELAY_1M_THRESHOL
 1628              		.loc 1 1616 0
 1629 0010 084C     		ldr	r4, .L185
ARM GAS  C:\Users\kees\AppData\Local\Temp\ccxzCKRQ.s 			page 58


 1630 0012 0A4B     		ldr	r3, .L185+8
 1631 0014 2568     		ldr	r5, [r4]
 1632 0016 0A49     		ldr	r1, .L185+12
 1633 0018 E818     		add	r0, r5, r3
 1634              	.LVL129:
 1635 001a FFF7FEFF 		bl	__aeabi_uidiv
1617:.\Generated_Source\PSoC4/CyLib.c ****     cydelayFreqKhz = (cydelayFreqHz + CY_DELAY_1K_MINUS_1_THRESHOLD) / CY_DELAY_1K_THRESHOLD;
 1636              		.loc 1 1617 0
 1637 001e 094B     		ldr	r3, .L185+16
 1638 0020 FA21     		mov	r1, #250
 1639              		.loc 1 1616 0
 1640 0022 2071     		strb	r0, [r4, #4]
 1641              		.loc 1 1617 0
 1642 0024 8900     		lsl	r1, r1, #2
 1643 0026 E818     		add	r0, r5, r3
 1644 0028 FFF7FEFF 		bl	__aeabi_uidiv
 1645 002c A060     		str	r0, [r4, #8]
1618:.\Generated_Source\PSoC4/CyLib.c ****     cydelay32kMs   = CY_DELAY_MS_OVERFLOW * cydelayFreqKhz;
 1646              		.loc 1 1618 0
 1647 002e C003     		lsl	r0, r0, #15
 1648 0030 E060     		str	r0, [r4, #12]
1619:.\Generated_Source\PSoC4/CyLib.c **** }
 1649              		.loc 1 1619 0
 1650              		@ sp needed for prologue
 1651 0032 38BD     		pop	{r3, r4, r5, pc}
 1652              	.L186:
 1653              		.align	2
 1654              	.L185:
 1655 0034 00000000 		.word	.LANCHOR0
 1656 0038 006CDC02 		.word	48000000
 1657 003c 3F420F00 		.word	999999
 1658 0040 40420F00 		.word	1000000
 1659 0044 E7030000 		.word	999
 1660              		.cfi_endproc
 1661              	.LFE47:
 1662              		.size	CyDelayFreq, .-CyDelayFreq
 1663              		.section	.text.CyDelayUs,"ax",%progbits
 1664              		.align	1
 1665              		.global	CyDelayUs
 1666              		.code	16
 1667              		.thumb_func
 1668              		.type	CyDelayUs, %function
 1669              	CyDelayUs:
 1670              	.LFB46:
 1671              		.loc 1 1587 0
 1672              		.cfi_startproc
 1673 0000 08B5     		push	{r3, lr}
 1674              	.LCFI18:
 1675              		.cfi_def_cfa_offset 8
 1676              		.cfi_offset 3, -8
 1677              		.cfi_offset 14, -4
 1678              	.LVL130:
 1679              		.loc 1 1588 0
 1680 0002 034B     		ldr	r3, .L189
 1681              		.loc 1 1589 0
 1682              		@ sp needed for prologue
 1683              		.loc 1 1588 0
ARM GAS  C:\Users\kees\AppData\Local\Temp\ccxzCKRQ.s 			page 59


 1684 0004 1B79     		ldrb	r3, [r3, #4]
 1685 0006 5843     		mul	r0, r3
 1686              	.LVL131:
 1687 0008 FFF7FEFF 		bl	CyDelayCycles
 1688              		.loc 1 1589 0
 1689 000c 08BD     		pop	{r3, pc}
 1690              	.L190:
 1691 000e C046     		.align	2
 1692              	.L189:
 1693 0010 00000000 		.word	.LANCHOR0
 1694              		.cfi_endproc
 1695              	.LFE46:
 1696              		.size	CyDelayUs, .-CyDelayUs
 1697              		.section	.text.CySysWdtWriteMatch,"ax",%progbits
 1698              		.align	1
 1699              		.global	CySysWdtWriteMatch
 1700              		.code	16
 1701              		.thumb_func
 1702              		.type	CySysWdtWriteMatch, %function
 1703              	CySysWdtWriteMatch:
 1704              	.LFB18:
 1705              		.loc 1 765 0
 1706              		.cfi_startproc
 1707 0000 38B5     		push	{r3, r4, r5, lr}
 1708              	.LCFI19:
 1709              		.cfi_def_cfa_offset 16
 1710              		.cfi_offset 3, -16
 1711              		.cfi_offset 4, -12
 1712              		.cfi_offset 5, -8
 1713              		.cfi_offset 14, -4
 1714              	.LVL132:
 1715              		.loc 1 765 0
 1716 0002 041C     		mov	r4, r0
 1717 0004 0D1C     		mov	r5, r1
 1718              		.loc 1 768 0
 1719 0006 0128     		cmp	r0, #1
 1720 0008 02D9     		bls	.L192
 1721              	.LVL133:
 1722 000a 0020     		mov	r0, #0
 1723              	.LVL134:
 1724 000c FFF7FEFF 		bl	CyHalt
 1725              	.LVL135:
 1726              	.L192:
 1727              		.loc 1 774 0
 1728 0010 094B     		ldr	r3, .L195
 1729 0012 1B68     		ldr	r3, [r3]
 1730 0014 002B     		cmp	r3, #0
 1731 0016 01DB     		blt	.L193
 1732              		.loc 1 776 0
 1733 0018 FFF7FEFF 		bl	CySysClkIloStart
 1734              	.LVL136:
 1735              	.L193:
 1736              		.loc 1 780 0
 1737 001c 8220     		mov	r0, #130
 1738 001e FFF7FEFF 		bl	CyDelayUs
 1739              		.loc 1 782 0
 1740 0022 064B     		ldr	r3, .L195+4
ARM GAS  C:\Users\kees\AppData\Local\Temp\ccxzCKRQ.s 			page 60


 1741              		.loc 1 784 0
 1742 0024 0649     		ldr	r1, .L195+8
 1743              		.loc 1 782 0
 1744 0026 1A68     		ldr	r2, [r3]
 1745              	.LVL137:
 1746              		.loc 1 783 0
 1747 0028 2401     		lsl	r4, r4, #4
 1748              	.LVL138:
 1749              		.loc 1 784 0
 1750 002a A140     		lsl	r1, r1, r4
 1751 002c 8A43     		bic	r2, r2, r1
 1752              	.LVL139:
 1753 002e A540     		lsl	r5, r5, r4
 1754              	.LVL140:
 1755 0030 141C     		mov	r4, r2
 1756 0032 2C43     		orr	r4, r4, r5
 1757 0034 1C60     		str	r4, [r3]
 1758              		.loc 1 785 0
 1759              		@ sp needed for prologue
 1760 0036 38BD     		pop	{r3, r4, r5, pc}
 1761              	.L196:
 1762              		.align	2
 1763              	.L195:
 1764 0038 04010B40 		.word	1074462980
 1765 003c 08020B40 		.word	1074463240
 1766 0040 FFFF0000 		.word	65535
 1767              		.cfi_endproc
 1768              	.LFE18:
 1769              		.size	CySysWdtWriteMatch, .-CySysWdtWriteMatch
 1770              		.section	.text.CyDelay,"ax",%progbits
 1771              		.align	1
 1772              		.global	CyDelay
 1773              		.code	16
 1774              		.thumb_func
 1775              		.type	CyDelay, %function
 1776              	CyDelay:
 1777              	.LFB45:
 1778              		.loc 1 1559 0
 1779              		.cfi_startproc
 1780 0000 10B5     		push	{r4, lr}
 1781              	.LCFI20:
 1782              		.cfi_def_cfa_offset 8
 1783              		.cfi_offset 4, -8
 1784              		.cfi_offset 14, -4
 1785              	.LVL141:
 1786              		.loc 1 1559 0
 1787 0002 041C     		mov	r4, r0
 1788              		.loc 1 1560 0
 1789 0004 04E0     		b	.L198
 1790              	.LVL142:
 1791              	.L199:
 1792              		.loc 1 1565 0
 1793 0006 D068     		ldr	r0, [r2, #12]
 1794 0008 FFF7FEFF 		bl	CyDelayCycles
 1795              		.loc 1 1566 0
 1796 000c 054B     		ldr	r3, .L201
 1797 000e E418     		add	r4, r4, r3
ARM GAS  C:\Users\kees\AppData\Local\Temp\ccxzCKRQ.s 			page 61


 1798              	.LVL143:
 1799              	.L198:
 1800              		.loc 1 1560 0
 1801 0010 8023     		mov	r3, #128
 1802 0012 1B02     		lsl	r3, r3, #8
 1803 0014 044A     		ldr	r2, .L201+4
 1804 0016 9C42     		cmp	r4, r3
 1805 0018 F5D8     		bhi	.L199
 1806              		.loc 1 1569 0
 1807 001a 9068     		ldr	r0, [r2, #8]
 1808              		.loc 1 1570 0
 1809              		@ sp needed for prologue
 1810              		.loc 1 1569 0
 1811 001c 6043     		mul	r0, r4
 1812 001e FFF7FEFF 		bl	CyDelayCycles
 1813              	.LVL144:
 1814              		.loc 1 1570 0
 1815 0022 10BD     		pop	{r4, pc}
 1816              	.L202:
 1817              		.align	2
 1818              	.L201:
 1819 0024 0080FFFF 		.word	-32768
 1820 0028 00000000 		.word	.LANCHOR0
 1821              		.cfi_endproc
 1822              	.LFE45:
 1823              		.size	CyDelay, .-CyDelay
 1824              		.section	.text.CyIntSetPriority,"ax",%progbits
 1825              		.align	1
 1826              		.global	CyIntSetPriority
 1827              		.code	16
 1828              		.thumb_func
 1829              		.type	CyIntSetPriority, %function
 1830              	CyIntSetPriority:
 1831              	.LFB36:
 1832              		.loc 1 1341 0
 1833              		.cfi_startproc
 1834 0000 38B5     		push	{r3, r4, r5, lr}
 1835              	.LCFI21:
 1836              		.cfi_def_cfa_offset 16
 1837              		.cfi_offset 3, -16
 1838              		.cfi_offset 4, -12
 1839              		.cfi_offset 5, -8
 1840              		.cfi_offset 14, -4
 1841              	.LVL145:
 1842              		.loc 1 1341 0
 1843 0002 041C     		mov	r4, r0
 1844 0004 0D1C     		mov	r5, r1
 1845              		.loc 1 1346 0
 1846 0006 0329     		cmp	r1, #3
 1847 0008 02D9     		bls	.L204
 1848              	.LVL146:
 1849 000a 0020     		mov	r0, #0
 1850 000c FFF7FEFF 		bl	CyHalt
 1851              	.LVL147:
 1852              	.L204:
 1853              		.loc 1 1347 0
 1854 0010 1F2C     		cmp	r4, #31
ARM GAS  C:\Users\kees\AppData\Local\Temp\ccxzCKRQ.s 			page 62


 1855 0012 02D9     		bls	.L205
 1856 0014 0020     		mov	r0, #0
 1857 0016 FFF7FEFF 		bl	CyHalt
 1858              	.LVL148:
 1859              	.L205:
 1860              		.loc 1 1351 0
 1861 001a FFF7FEFF 		bl	CyEnterCriticalSection
 1862              		.loc 1 1353 0
 1863 001e A308     		lsr	r3, r4, #2
 1864 0020 084A     		ldr	r2, .L207
 1865 0022 9B00     		lsl	r3, r3, #2
 1866 0024 9B18     		add	r3, r3, r2
 1867              		.loc 1 1354 0
 1868 0026 0322     		mov	r2, #3
 1869 0028 1440     		and	r4, r4, r2
 1870              	.LVL149:
 1871 002a E400     		lsl	r4, r4, #3
 1872              		.loc 1 1353 0
 1873 002c 1968     		ldr	r1, [r3]
 1874              	.LVL150:
 1875              		.loc 1 1354 0
 1876 002e 0634     		add	r4, r4, #6
 1877 0030 A240     		lsl	r2, r2, r4
 1878 0032 9143     		bic	r1, r1, r2
 1879              		.loc 1 1355 0
 1880 0034 A540     		lsl	r5, r5, r4
 1881              	.LVL151:
 1882 0036 0C1C     		mov	r4, r1
 1883 0038 2C43     		orr	r4, r4, r5
 1884              	.LVL152:
 1885              		.loc 1 1356 0
 1886 003a 1C60     		str	r4, [r3]
 1887              		.loc 1 1358 0
 1888 003c FFF7FEFF 		bl	CyExitCriticalSection
 1889              		.loc 1 1359 0
 1890              		@ sp needed for prologue
 1891              	.LVL153:
 1892 0040 38BD     		pop	{r3, r4, r5, pc}
 1893              	.L208:
 1894 0042 C046     		.align	2
 1895              	.L207:
 1896 0044 00E400E0 		.word	-536812544
 1897              		.cfi_endproc
 1898              	.LFE36:
 1899              		.size	CyIntSetPriority, .-CyIntSetPriority
 1900              		.section	.text.CySysWdtClearInterrupt,"ax",%progbits
 1901              		.align	1
 1902              		.global	CySysWdtClearInterrupt
 1903              		.code	16
 1904              		.thumb_func
 1905              		.type	CySysWdtClearInterrupt, %function
 1906              	CySysWdtClearInterrupt:
 1907              	.LFB24:
 1908              		.loc 1 974 0
 1909              		.cfi_startproc
 1910 0000 38B5     		push	{r3, r4, r5, lr}
 1911              	.LCFI22:
ARM GAS  C:\Users\kees\AppData\Local\Temp\ccxzCKRQ.s 			page 63


 1912              		.cfi_def_cfa_offset 16
 1913              		.cfi_offset 3, -16
 1914              		.cfi_offset 4, -12
 1915              		.cfi_offset 5, -8
 1916              		.cfi_offset 14, -4
 1917              	.LVL154:
 1918              		.loc 1 974 0
 1919 0002 041C     		mov	r4, r0
 1920              		.loc 1 978 0
 1921 0004 FFF7FEFF 		bl	CyEnterCriticalSection
 1922              	.LVL155:
 1923              		.loc 1 983 0
 1924 0008 184B     		ldr	r3, .L215
 1925              		.loc 1 978 0
 1926 000a 051C     		mov	r5, r0
 1927              		.loc 1 983 0
 1928 000c 1B68     		ldr	r3, [r3]
 1929 000e 002B     		cmp	r3, #0
 1930 0010 01DB     		blt	.L210
 1931              		.loc 1 985 0
 1932 0012 FFF7FEFF 		bl	CySysClkIloStart
 1933              	.L210:
 1934              		.loc 1 988 0
 1935 0016 164B     		ldr	r3, .L215+4
 1936 0018 C022     		mov	r2, #192
 1937 001a 1968     		ldr	r1, [r3]
 1938 001c 1202     		lsl	r2, r2, #8
 1939 001e 1140     		and	r1, r1, r2
 1940 0020 9142     		cmp	r1, r2
 1941 0022 01D0     		beq	.L211
 1942 0024 0023     		mov	r3, #0
 1943              	.LVL156:
 1944 0026 0DE0     		b	.L212
 1945              	.LVL157:
 1946              	.L211:
 1947              		.loc 1 993 0
 1948 0028 1868     		ldr	r0, [r3]
 1949 002a 124A     		ldr	r2, .L215+8
 1950 002c 8021     		mov	r1, #128
 1951 002e 1040     		and	r0, r0, r2
 1952 0030 C901     		lsl	r1, r1, #7
 1953 0032 0143     		orr	r1, r1, r0
 1954 0034 1960     		str	r1, [r3]
 1955              		.loc 1 996 0
 1956 0036 1968     		ldr	r1, [r3]
 1957 0038 1140     		and	r1, r1, r2
 1958 003a 8022     		mov	r2, #128
 1959 003c 1202     		lsl	r2, r2, #8
 1960 003e 0A43     		orr	r2, r2, r1
 1961 0040 1A60     		str	r2, [r3]
 1962 0042 0123     		mov	r3, #1
 1963              	.LVL158:
 1964              	.L212:
 1965              		.loc 1 1005 0
 1966 0044 0C4A     		ldr	r2, .L215+12
 1967 0046 0D48     		ldr	r0, .L215+16
 1968 0048 1168     		ldr	r1, [r2]
ARM GAS  C:\Users\kees\AppData\Local\Temp\ccxzCKRQ.s 			page 64


 1969 004a 0440     		and	r4, r4, r0
 1970              	.LVL159:
 1971 004c 0C43     		orr	r4, r4, r1
 1972 004e 1460     		str	r4, [r2]
 1973              		.loc 1 1008 0
 1974 0050 012B     		cmp	r3, #1
 1975 0052 06D1     		bne	.L213
 1976              		.loc 1 1011 0
 1977 0054 113A     		sub	r2, r2, #17
 1978 0056 FF3A     		sub	r2, r2, #255
 1979 0058 1168     		ldr	r1, [r2]
 1980 005a C023     		mov	r3, #192
 1981              	.LVL160:
 1982 005c 1B02     		lsl	r3, r3, #8
 1983 005e 0B43     		orr	r3, r3, r1
 1984 0060 1360     		str	r3, [r2]
 1985              	.LVL161:
 1986              	.L213:
 1987              		.loc 1 1015 0
 1988 0062 281C     		mov	r0, r5
 1989 0064 FFF7FEFF 		bl	CyExitCriticalSection
 1990              	.LVL162:
 1991              		.loc 1 1016 0
 1992              		@ sp needed for prologue
 1993 0068 38BD     		pop	{r3, r4, r5, pc}
 1994              	.L216:
 1995 006a C046     		.align	2
 1996              	.L215:
 1997 006c 04010B40 		.word	1074462980
 1998 0070 00010B40 		.word	1074462976
 1999 0074 FF3FFFFF 		.word	-49153
 2000 0078 10020B40 		.word	1074463248
 2001 007c 04040400 		.word	263172
 2002              		.cfi_endproc
 2003              	.LFE24:
 2004              		.size	CySysWdtClearInterrupt, .-CySysWdtClearInterrupt
 2005              		.section	.text.CySysWdtUnlock,"ax",%progbits
 2006              		.align	1
 2007              		.global	CySysWdtUnlock
 2008              		.code	16
 2009              		.thumb_func
 2010              		.type	CySysWdtUnlock, %function
 2011              	CySysWdtUnlock:
 2012              	.LFB8:
 2013              		.loc 1 394 0
 2014              		.cfi_startproc
 2015 0000 10B5     		push	{r4, lr}
 2016              	.LCFI23:
 2017              		.cfi_def_cfa_offset 8
 2018              		.cfi_offset 4, -8
 2019              		.cfi_offset 14, -4
 2020              		.loc 1 396 0
 2021 0002 FFF7FEFF 		bl	CyEnterCriticalSection
 2022              		.loc 1 401 0
 2023 0006 0C4B     		ldr	r3, .L220
 2024              		.loc 1 396 0
 2025 0008 041C     		mov	r4, r0
ARM GAS  C:\Users\kees\AppData\Local\Temp\ccxzCKRQ.s 			page 65


 2026              		.loc 1 401 0
 2027 000a 1B68     		ldr	r3, [r3]
 2028 000c 002B     		cmp	r3, #0
 2029 000e 01DB     		blt	.L218
 2030              		.loc 1 403 0
 2031 0010 FFF7FEFF 		bl	CySysClkIloStart
 2032              	.L218:
 2033              		.loc 1 407 0
 2034 0014 094B     		ldr	r3, .L220+4
 2035 0016 0A4A     		ldr	r2, .L220+8
 2036 0018 1868     		ldr	r0, [r3]
 2037 001a 8021     		mov	r1, #128
 2038 001c 1040     		and	r0, r0, r2
 2039 001e C901     		lsl	r1, r1, #7
 2040 0020 0143     		orr	r1, r1, r0
 2041 0022 1960     		str	r1, [r3]
 2042              		.loc 1 410 0
 2043 0024 1968     		ldr	r1, [r3]
 2044              		.loc 1 413 0
 2045 0026 201C     		mov	r0, r4
 2046              		.loc 1 410 0
 2047 0028 1140     		and	r1, r1, r2
 2048 002a 8022     		mov	r2, #128
 2049 002c 1202     		lsl	r2, r2, #8
 2050 002e 0A43     		orr	r2, r2, r1
 2051 0030 1A60     		str	r2, [r3]
 2052              		.loc 1 413 0
 2053 0032 FFF7FEFF 		bl	CyExitCriticalSection
 2054              		.loc 1 414 0
 2055              		@ sp needed for prologue
 2056 0036 10BD     		pop	{r4, pc}
 2057              	.L221:
 2058              		.align	2
 2059              	.L220:
 2060 0038 04010B40 		.word	1074462980
 2061 003c 00010B40 		.word	1074462976
 2062 0040 FF3FFFFF 		.word	-49153
 2063              		.cfi_endproc
 2064              	.LFE8:
 2065              		.size	CySysWdtUnlock, .-CySysWdtUnlock
 2066              		.section	.text.CySysWdtLock,"ax",%progbits
 2067              		.align	1
 2068              		.global	CySysWdtLock
 2069              		.code	16
 2070              		.thumb_func
 2071              		.type	CySysWdtLock, %function
 2072              	CySysWdtLock:
 2073              	.LFB7:
 2074              		.loc 1 356 0
 2075              		.cfi_startproc
 2076 0000 10B5     		push	{r4, lr}
 2077              	.LCFI24:
 2078              		.cfi_def_cfa_offset 8
 2079              		.cfi_offset 4, -8
 2080              		.cfi_offset 14, -4
 2081              		.loc 1 358 0
 2082 0002 FFF7FEFF 		bl	CyEnterCriticalSection
ARM GAS  C:\Users\kees\AppData\Local\Temp\ccxzCKRQ.s 			page 66


 2083              		.loc 1 363 0
 2084 0006 084B     		ldr	r3, .L225
 2085              		.loc 1 358 0
 2086 0008 041C     		mov	r4, r0
 2087              		.loc 1 363 0
 2088 000a 1B68     		ldr	r3, [r3]
 2089 000c 002B     		cmp	r3, #0
 2090 000e 01DB     		blt	.L223
 2091              		.loc 1 365 0
 2092 0010 FFF7FEFF 		bl	CySysClkIloStart
 2093              	.L223:
 2094              		.loc 1 369 0
 2095 0014 054A     		ldr	r2, .L225+4
 2096 0016 C023     		mov	r3, #192
 2097 0018 1168     		ldr	r1, [r2]
 2098 001a 1B02     		lsl	r3, r3, #8
 2099 001c 0B43     		orr	r3, r3, r1
 2100 001e 1360     		str	r3, [r2]
 2101              		.loc 1 372 0
 2102 0020 201C     		mov	r0, r4
 2103 0022 FFF7FEFF 		bl	CyExitCriticalSection
 2104              		.loc 1 373 0
 2105              		@ sp needed for prologue
 2106 0026 10BD     		pop	{r4, pc}
 2107              	.L226:
 2108              		.align	2
 2109              	.L225:
 2110 0028 04010B40 		.word	1074462980
 2111 002c 00010B40 		.word	1074462976
 2112              		.cfi_endproc
 2113              	.LFE7:
 2114              		.size	CySysWdtLock, .-CySysWdtLock
 2115              		.section	.text.CySysClkWriteImoFreq,"ax",%progbits
 2116              		.align	1
 2117              		.global	CySysClkWriteImoFreq
 2118              		.code	16
 2119              		.thumb_func
 2120              		.type	CySysClkWriteImoFreq, %function
 2121              	CySysClkWriteImoFreq:
 2122              	.LFB6:
 2123              		.loc 1 215 0
 2124              		.cfi_startproc
 2125 0000 F0B5     		push	{r4, r5, r6, r7, lr}
 2126              	.LCFI25:
 2127              		.cfi_def_cfa_offset 20
 2128              		.cfi_offset 4, -20
 2129              		.cfi_offset 5, -16
 2130              		.cfi_offset 6, -12
 2131              		.cfi_offset 7, -8
 2132              		.cfi_offset 14, -4
 2133              	.LVL163:
 2134              		.loc 1 238 0
 2135 0002 C71E     		sub	r7, r0, #3
 2136              		.loc 1 215 0
 2137 0004 83B0     		sub	sp, sp, #12
 2138              	.LCFI26:
 2139              		.cfi_def_cfa_offset 32
ARM GAS  C:\Users\kees\AppData\Local\Temp\ccxzCKRQ.s 			page 67


 2140              		.loc 1 215 0
 2141 0006 041C     		mov	r4, r0
 2142              		.loc 1 238 0
 2143 0008 2D2F     		cmp	r7, #45
 2144 000a 65D8     		bhi	.L228
 2145              	.LVL164:
 2146              		.loc 1 240 0
 2147 000c FFF7FEFF 		bl	CyEnterCriticalSection
 2148 0010 0023     		mov	r3, #0
 2149              	.LVL165:
 2150 0012 0190     		str	r0, [sp, #4]
 2151              	.L231:
 2152              		.loc 1 245 0
 2153 0014 334A     		ldr	r2, .L244
 2154 0016 1068     		ldr	r0, [r2]
 2155 0018 334A     		ldr	r2, .L244+4
 2156 001a D15C     		ldrb	r1, [r2, r3]
 2157 001c 3F22     		mov	r2, #63
 2158 001e 0240     		and	r2, r2, r0
 2159 0020 9142     		cmp	r1, r2
 2160 0022 01D1     		bne	.L229
 2161              		.loc 1 247 0
 2162 0024 0333     		add	r3, r3, #3
 2163              	.LVL166:
 2164              		.loc 1 248 0
 2165 0026 03E0     		b	.L230
 2166              	.LVL167:
 2167              	.L229:
 2168              		.loc 1 243 0
 2169 0028 0133     		add	r3, r3, #1
 2170 002a 2E2B     		cmp	r3, #46
 2171 002c F2D1     		bne	.L231
 2172 002e 3023     		mov	r3, #48
 2173              	.LVL168:
 2174              	.L230:
 2175              		.loc 1 252 0
 2176 0030 2E4A     		ldr	r2, .L244+8
 2177 0032 1278     		ldrb	r2, [r2]
 2178 0034 9442     		cmp	r4, r2
 2179 0036 01D8     		bhi	.L232
 2180              		.loc 1 254 0
 2181 0038 2D4A     		ldr	r2, .L244+12
 2182 003a 12E0     		b	.L243
 2183              	.L232:
 2184              		.loc 1 257 0
 2185 003c 2D4A     		ldr	r2, .L244+16
 2186 003e 1278     		ldrb	r2, [r2]
 2187 0040 9442     		cmp	r4, r2
 2188 0042 01D8     		bhi	.L234
 2189              		.loc 1 259 0
 2190 0044 2C4A     		ldr	r2, .L244+20
 2191 0046 0CE0     		b	.L243
 2192              	.L234:
 2193              		.loc 1 262 0
 2194 0048 2C4A     		ldr	r2, .L244+24
 2195 004a 1278     		ldrb	r2, [r2]
 2196 004c 9442     		cmp	r4, r2
ARM GAS  C:\Users\kees\AppData\Local\Temp\ccxzCKRQ.s 			page 68


 2197 004e 01D8     		bhi	.L235
 2198              		.loc 1 264 0
 2199 0050 2B4A     		ldr	r2, .L244+28
 2200 0052 06E0     		b	.L243
 2201              	.L235:
 2202              		.loc 1 267 0
 2203 0054 2B4A     		ldr	r2, .L244+32
 2204 0056 1278     		ldrb	r2, [r2]
 2205 0058 9442     		cmp	r4, r2
 2206 005a 01D8     		bhi	.L236
 2207              		.loc 1 269 0
 2208 005c 2A4A     		ldr	r2, .L244+36
 2209 005e 00E0     		b	.L243
 2210              	.L236:
 2211              		.loc 1 274 0
 2212 0060 2A4A     		ldr	r2, .L244+40
 2213              	.L243:
 2214 0062 1578     		ldrb	r5, [r2]
 2215              		.loc 1 275 0
 2216 0064 0132     		add	r2, r2, #1
 2217 0066 1678     		ldrb	r6, [r2]
 2218              		.loc 1 284 0
 2219 0068 2A2B     		cmp	r3, #42
 2220 006a 08D9     		bls	.L237
 2221 006c 2A2C     		cmp	r4, #42
 2222 006e 06D9     		bls	.L237
 2223              		.loc 1 287 0
 2224 0070 1C4B     		ldr	r3, .L244
 2225              	.LVL169:
 2226 0072 1922     		mov	r2, #25
 2227 0074 1A60     		str	r2, [r3]
 2228              		.loc 1 290 0
 2229 0076 0520     		mov	r0, #5
 2230 0078 FFF7FEFF 		bl	CyDelayCycles
 2231 007c 01E0     		b	.L238
 2232              	.LVL170:
 2233              	.L237:
 2234              		.loc 1 300 0
 2235 007e 9C42     		cmp	r4, r3
 2236 0080 13D9     		bls	.L239
 2237              	.L238:
 2238              		.loc 1 303 0
 2239 0082 234B     		ldr	r3, .L244+44
 2240              	.LVL171:
 2241              		.loc 1 306 0
 2242 0084 0520     		mov	r0, #5
 2243              		.loc 1 303 0
 2244 0086 E418     		add	r4, r4, r3
 2245              	.LVL172:
 2246 0088 2278     		ldrb	r2, [r4]
 2247 008a 224B     		ldr	r3, .L244+48
 2248 008c 1A60     		str	r2, [r3]
 2249              		.loc 1 304 0
 2250 008e 0C3B     		sub	r3, r3, #12
 2251 0090 1D60     		str	r5, [r3]
 2252              	.LVL173:
 2253              		.loc 1 305 0
ARM GAS  C:\Users\kees\AppData\Local\Temp\ccxzCKRQ.s 			page 69


 2254 0092 0433     		add	r3, r3, #4
 2255 0094 1E60     		str	r6, [r3]
 2256              	.LVL174:
 2257              		.loc 1 306 0
 2258 0096 FFF7FEFF 		bl	CyDelayUs
 2259              		.loc 1 309 0
 2260 009a 134B     		ldr	r3, .L244+4
 2261              		.loc 1 310 0
 2262 009c 0520     		mov	r0, #5
 2263              		.loc 1 309 0
 2264 009e DA5D     		ldrb	r2, [r3, r7]
 2265 00a0 104B     		ldr	r3, .L244
 2266 00a2 1A60     		str	r2, [r3]
 2267              		.loc 1 310 0
 2268 00a4 FFF7FEFF 		bl	CyDelayCycles
 2269 00a8 12E0     		b	.L240
 2270              	.LVL175:
 2271              	.L239:
 2272              		.loc 1 315 0
 2273 00aa 0F4B     		ldr	r3, .L244+4
 2274              	.LVL176:
 2275              		.loc 1 316 0
 2276 00ac 0520     		mov	r0, #5
 2277              		.loc 1 315 0
 2278 00ae DA5D     		ldrb	r2, [r3, r7]
 2279 00b0 0C4B     		ldr	r3, .L244
 2280 00b2 1A60     		str	r2, [r3]
 2281              		.loc 1 316 0
 2282 00b4 FFF7FEFF 		bl	CyDelayCycles
 2283              		.loc 1 319 0
 2284 00b8 154B     		ldr	r3, .L244+44
 2285              		.loc 1 322 0
 2286 00ba 0520     		mov	r0, #5
 2287              		.loc 1 319 0
 2288 00bc E418     		add	r4, r4, r3
 2289              	.LVL177:
 2290 00be 2278     		ldrb	r2, [r4]
 2291 00c0 144B     		ldr	r3, .L244+48
 2292 00c2 1A60     		str	r2, [r3]
 2293              		.loc 1 320 0
 2294 00c4 0C3B     		sub	r3, r3, #12
 2295 00c6 1D60     		str	r5, [r3]
 2296              	.LVL178:
 2297              		.loc 1 321 0
 2298 00c8 0433     		add	r3, r3, #4
 2299 00ca 1E60     		str	r6, [r3]
 2300              	.LVL179:
 2301              		.loc 1 322 0
 2302 00cc FFF7FEFF 		bl	CyDelayUs
 2303              	.L240:
 2304              		.loc 1 325 0
 2305 00d0 0198     		ldr	r0, [sp, #4]
 2306 00d2 FFF7FEFF 		bl	CyExitCriticalSection
 2307 00d6 02E0     		b	.L242
 2308              	.LVL180:
 2309              	.L228:
 2310              		.loc 1 330 0
ARM GAS  C:\Users\kees\AppData\Local\Temp\ccxzCKRQ.s 			page 70


 2311 00d8 0020     		mov	r0, #0
 2312 00da FFF7FEFF 		bl	CyHalt
 2313              	.LVL181:
 2314              	.L242:
 2315              		.loc 1 332 0
 2316 00de 03B0     		add	sp, sp, #12
 2317              		@ sp needed for prologue
 2318              	.LVL182:
 2319              	.LVL183:
 2320              	.LVL184:
 2321 00e0 F0BD     		pop	{r4, r5, r6, r7, pc}
 2322              	.L245:
 2323 00e2 C046     		.align	2
 2324              	.L244:
 2325 00e4 2CFF0B40 		.word	1074528044
 2326 00e8 00000000 		.word	.LANCHOR1
 2327 00ec C0F1FF0F 		.word	268431808
 2328 00f0 C1F1FF0F 		.word	268431809
 2329 00f4 C3F1FF0F 		.word	268431811
 2330 00f8 C4F1FF0F 		.word	268431812
 2331 00fc C6F1FF0F 		.word	268431814
 2332 0100 C7F1FF0F 		.word	268431815
 2333 0104 C9F1FF0F 		.word	268431817
 2334 0108 CAF1FF0F 		.word	268431818
 2335 010c CCF1FF0F 		.word	268431820
 2336 0110 CDF1FF0F 		.word	268431821
 2337 0114 28FF0B40 		.word	1074528040
 2338              		.cfi_endproc
 2339              	.LFE6:
 2340              		.size	CySysClkWriteImoFreq, .-CySysClkWriteImoFreq
 2341              		.global	cydelayFreqHz
 2342              		.global	cydelayFreqKhz
 2343              		.global	cydelayFreqMhz
 2344              		.global	cydelay32kMs
 2345              		.section	.rodata
 2346              		.align	2
 2347              		.set	.LANCHOR1,. + 0
 2348              		.type	cyImoFreqMhz2Reg.1839, %object
 2349              		.size	cyImoFreqMhz2Reg.1839, 46
 2350              	cyImoFreqMhz2Reg.1839:
 2351 0000 03       		.byte	3
 2352 0001 04       		.byte	4
 2353 0002 05       		.byte	5
 2354 0003 06       		.byte	6
 2355 0004 07       		.byte	7
 2356 0005 08       		.byte	8
 2357 0006 09       		.byte	9
 2358 0007 0A       		.byte	10
 2359 0008 0B       		.byte	11
 2360 0009 0C       		.byte	12
 2361 000a 0E       		.byte	14
 2362 000b 0F       		.byte	15
 2363 000c 10       		.byte	16
 2364 000d 11       		.byte	17
 2365 000e 12       		.byte	18
 2366 000f 13       		.byte	19
 2367 0010 14       		.byte	20
ARM GAS  C:\Users\kees\AppData\Local\Temp\ccxzCKRQ.s 			page 71


 2368 0011 15       		.byte	21
 2369 0012 16       		.byte	22
 2370 0013 17       		.byte	23
 2371 0014 18       		.byte	24
 2372 0015 19       		.byte	25
 2373 0016 1B       		.byte	27
 2374 0017 1C       		.byte	28
 2375 0018 1D       		.byte	29
 2376 0019 1E       		.byte	30
 2377 001a 1F       		.byte	31
 2378 001b 20       		.byte	32
 2379 001c 21       		.byte	33
 2380 001d 22       		.byte	34
 2381 001e 23       		.byte	35
 2382 001f 25       		.byte	37
 2383 0020 26       		.byte	38
 2384 0021 27       		.byte	39
 2385 0022 28       		.byte	40
 2386 0023 29       		.byte	41
 2387 0024 2A       		.byte	42
 2388 0025 2B       		.byte	43
 2389 0026 2E       		.byte	46
 2390 0027 2F       		.byte	47
 2391 0028 30       		.byte	48
 2392 0029 31       		.byte	49
 2393 002a 32       		.byte	50
 2394 002b 33       		.byte	51
 2395 002c 34       		.byte	52
 2396 002d 35       		.byte	53
 2397 002e 0000     		.data
 2398              		.align	2
 2399              		.set	.LANCHOR0,. + 0
 2400              		.type	cydelayFreqHz, %object
 2401              		.size	cydelayFreqHz, 4
 2402              	cydelayFreqHz:
 2403 0000 006CDC02 		.word	48000000
 2404              		.type	cydelayFreqMhz, %object
 2405              		.size	cydelayFreqMhz, 1
 2406              	cydelayFreqMhz:
 2407 0004 30       		.byte	48
 2408 0005 000000   		.space	3
 2409              		.type	cydelayFreqKhz, %object
 2410              		.size	cydelayFreqKhz, 4
 2411              	cydelayFreqKhz:
 2412 0008 80BB0000 		.word	48000
 2413              		.type	cydelay32kMs, %object
 2414              		.size	cydelay32kMs, 4
 2415              	cydelay32kMs:
 2416 000c 0000C05D 		.word	1572864000
 2417              		.text
 2418              	.Letext0: