ARM GAS  C:\Users\kees\AppData\Local\Temp\ccxzCKRQ.s 			page 1


   1              		.cpu cortex-m0
   2              		.fpu softvfp
   3              		.eabi_attribute 20, 1
   4              		.eabi_attribute 21, 1
   5              		.eabi_attribute 23, 3
   6              		.eabi_attribute 24, 1
   7              		.eabi_attribute 25, 1
   8              		.eabi_attribute 26, 1
   9              		.eabi_attribute 30, 4
  10              		.eabi_attribute 18, 4
  11              		.code	16
  12              		.file	"CyLib.c"
  13              		.section	.debug_abbrev,"",%progbits
  14              	.Ldebug_abbrev0:
  15              		.section	.debug_info,"",%progbits
  16              	.Ldebug_info0:
  17              		.section	.debug_line,"",%progbits
  18              	.Ldebug_line0:
  19 0000 B4040000 		.text
  19      02005E00 
  19      00000201 
  19      FB0E0D00 
  19      01010101 
  20              	.Ltext0:
  21              		.cfi_sections	.debug_frame
  22              		.section	.text.CySysClkImoStart,"ax",%progbits
  23              		.align	1
  24              		.global	CySysClkImoStart
  25              		.code	16
  26              		.thumb_func
  27              		.type	CySysClkImoStart, %function
  28              	CySysClkImoStart:
  29              	.LFB0:
  30              		.file 1 ".\\Generated_Source\\PSoC4\\CyLib.c"
   1:.\Generated_Source\PSoC4/CyLib.c **** /*******************************************************************************
   2:.\Generated_Source\PSoC4/CyLib.c **** * File Name: CyLib.c
   3:.\Generated_Source\PSoC4/CyLib.c **** * Version 3.40
   4:.\Generated_Source\PSoC4/CyLib.c **** *
   5:.\Generated_Source\PSoC4/CyLib.c **** *  Description:
   6:.\Generated_Source\PSoC4/CyLib.c **** *   Provides system API for the clocking, interrupts and watchdog timer.
   7:.\Generated_Source\PSoC4/CyLib.c **** *
   8:.\Generated_Source\PSoC4/CyLib.c **** *  Note:
   9:.\Generated_Source\PSoC4/CyLib.c **** *   Documentation of the API's in this file is located in the
  10:.\Generated_Source\PSoC4/CyLib.c **** *   System Reference Guide provided with PSoC Creator.
  11:.\Generated_Source\PSoC4/CyLib.c **** *
  12:.\Generated_Source\PSoC4/CyLib.c **** ********************************************************************************
  13:.\Generated_Source\PSoC4/CyLib.c **** * Copyright 2010-2013, Cypress Semiconductor Corporation.  All rights reserved.
  14:.\Generated_Source\PSoC4/CyLib.c **** * You may use this file only in accordance with the license, terms, conditions,
  15:.\Generated_Source\PSoC4/CyLib.c **** * disclaimers, and limitations in the end user license agreement accompanying
  16:.\Generated_Source\PSoC4/CyLib.c **** * the software package with which this file was provided.
  17:.\Generated_Source\PSoC4/CyLib.c **** *******************************************************************************/
  18:.\Generated_Source\PSoC4/CyLib.c **** 
  19:.\Generated_Source\PSoC4/CyLib.c **** #include "CyLib.h"
  20:.\Generated_Source\PSoC4/CyLib.c **** 
  21:.\Generated_Source\PSoC4/CyLib.c **** 
  22:.\Generated_Source\PSoC4/CyLib.c **** /* Do not use these definitions directly in your application */
  23:.\Generated_Source\PSoC4/CyLib.c **** uint32 cydelayFreqHz  = CYDEV_BCLK__SYSCLK__HZ;
ARM GAS  C:\Users\kees\AppData\Local\Temp\ccxzCKRQ.s 			page 2


  24:.\Generated_Source\PSoC4/CyLib.c **** uint32 cydelayFreqKhz = (CYDEV_BCLK__SYSCLK__HZ + CY_DELAY_1K_MINUS_1_THRESHOLD) / CY_DELAY_1K_THRE
  25:.\Generated_Source\PSoC4/CyLib.c **** uint8  cydelayFreqMhz = (uint8)((CYDEV_BCLK__SYSCLK__HZ + CY_DELAY_1M_MINUS_1_THRESHOLD) / CY_DELAY
  26:.\Generated_Source\PSoC4/CyLib.c **** uint32 cydelay32kMs   = CY_DELAY_MS_OVERFLOW * ((CYDEV_BCLK__SYSCLK__HZ + CY_DELAY_1K_MINUS_1_THRES
  27:.\Generated_Source\PSoC4/CyLib.c ****                         CY_DELAY_1K_THRESHOLD);
  28:.\Generated_Source\PSoC4/CyLib.c **** 
  29:.\Generated_Source\PSoC4/CyLib.c **** 
  30:.\Generated_Source\PSoC4/CyLib.c **** /*******************************************************************************
  31:.\Generated_Source\PSoC4/CyLib.c **** * Function Name: CySysClkImoStart
  32:.\Generated_Source\PSoC4/CyLib.c **** ********************************************************************************
  33:.\Generated_Source\PSoC4/CyLib.c **** *
  34:.\Generated_Source\PSoC4/CyLib.c **** * Summary:
  35:.\Generated_Source\PSoC4/CyLib.c **** *  Enables the IMO.
  36:.\Generated_Source\PSoC4/CyLib.c **** *
  37:.\Generated_Source\PSoC4/CyLib.c **** * Parameters:
  38:.\Generated_Source\PSoC4/CyLib.c **** *  None
  39:.\Generated_Source\PSoC4/CyLib.c **** *
  40:.\Generated_Source\PSoC4/CyLib.c **** * Return:
  41:.\Generated_Source\PSoC4/CyLib.c **** *  None
  42:.\Generated_Source\PSoC4/CyLib.c **** *
  43:.\Generated_Source\PSoC4/CyLib.c **** *******************************************************************************/
  44:.\Generated_Source\PSoC4/CyLib.c **** void CySysClkImoStart(void)
  45:.\Generated_Source\PSoC4/CyLib.c **** {
  31              		.loc 1 45 0
  32              		.cfi_startproc
  46:.\Generated_Source\PSoC4/CyLib.c ****     CY_SYS_CLK_IMO_CONFIG_REG |= CY_SYS_CLK_IMO_CONFIG_ENABLE;
  33              		.loc 1 46 0
  34 0000 034A     		ldr	r2, .L3
  35 0002 8023     		mov	r3, #128
  36 0004 1168     		ldr	r1, [r2]
  37 0006 1B06     		lsl	r3, r3, #24
  38 0008 0B43     		orr	r3, r3, r1
  39 000a 1360     		str	r3, [r2]
  47:.\Generated_Source\PSoC4/CyLib.c **** }
  40              		.loc 1 47 0
  41              		@ sp needed for prologue
  42 000c 7047     		bx	lr
  43              	.L4:
  44 000e C046     		.align	2
  45              	.L3:
  46 0010 08010B40 		.word	1074462984
  47              		.cfi_endproc
  48              	.LFE0:
  49              		.size	CySysClkImoStart, .-CySysClkImoStart
  50              		.section	.text.CySysClkImoStop,"ax",%progbits
  51              		.align	1
  52              		.global	CySysClkImoStop
  53              		.code	16
  54              		.thumb_func
  55              		.type	CySysClkImoStop, %function
  56              	CySysClkImoStop:
  57              	.LFB1:
  48:.\Generated_Source\PSoC4/CyLib.c **** 
  49:.\Generated_Source\PSoC4/CyLib.c **** 
  50:.\Generated_Source\PSoC4/CyLib.c **** /*******************************************************************************
  51:.\Generated_Source\PSoC4/CyLib.c **** * Function Name: CySysClkImoStop
  52:.\Generated_Source\PSoC4/CyLib.c **** ********************************************************************************
  53:.\Generated_Source\PSoC4/CyLib.c **** *
ARM GAS  C:\Users\kees\AppData\Local\Temp\ccxzCKRQ.s 			page 3


  54:.\Generated_Source\PSoC4/CyLib.c **** * Summary:
  55:.\Generated_Source\PSoC4/CyLib.c **** *  Disables the IMO.
  56:.\Generated_Source\PSoC4/CyLib.c **** *
  57:.\Generated_Source\PSoC4/CyLib.c **** * Parameters:
  58:.\Generated_Source\PSoC4/CyLib.c **** *  None
  59:.\Generated_Source\PSoC4/CyLib.c **** *
  60:.\Generated_Source\PSoC4/CyLib.c **** * Return:
  61:.\Generated_Source\PSoC4/CyLib.c **** *  None
  62:.\Generated_Source\PSoC4/CyLib.c **** *
  63:.\Generated_Source\PSoC4/CyLib.c **** *******************************************************************************/
  64:.\Generated_Source\PSoC4/CyLib.c **** void CySysClkImoStop(void)
  65:.\Generated_Source\PSoC4/CyLib.c **** {
  58              		.loc 1 65 0
  59              		.cfi_startproc
  66:.\Generated_Source\PSoC4/CyLib.c ****     CY_SYS_CLK_IMO_CONFIG_REG &= ( uint32 ) ( ~( uint32 )CY_SYS_CLK_IMO_CONFIG_ENABLE);
  60              		.loc 1 66 0
  61 0000 024B     		ldr	r3, .L7
  62 0002 034A     		ldr	r2, .L7+4
  63 0004 1968     		ldr	r1, [r3]
  67:.\Generated_Source\PSoC4/CyLib.c **** }
  64              		.loc 1 67 0
  65              		@ sp needed for prologue
  66              		.loc 1 66 0
  67 0006 0A40     		and	r2, r2, r1
  68 0008 1A60     		str	r2, [r3]
  69              		.loc 1 67 0
  70 000a 7047     		bx	lr
  71              	.L8:
  72              		.align	2
  73              	.L7:
  74 000c 08010B40 		.word	1074462984
  75 0010 FFFFFF7F 		.word	2147483647
  76              		.cfi_endproc
  77              	.LFE1:
  78              		.size	CySysClkImoStop, .-CySysClkImoStop
  79              		.section	.text.CySysClkIloStart,"ax",%progbits
  80              		.align	1
  81              		.global	CySysClkIloStart
  82              		.code	16
  83              		.thumb_func
  84              		.type	CySysClkIloStart, %function
  85              	CySysClkIloStart:
  86              	.LFB2:
  68:.\Generated_Source\PSoC4/CyLib.c **** 
  69:.\Generated_Source\PSoC4/CyLib.c **** 
  70:.\Generated_Source\PSoC4/CyLib.c **** /*******************************************************************************
  71:.\Generated_Source\PSoC4/CyLib.c **** * Function Name: CySysClkIloStart
  72:.\Generated_Source\PSoC4/CyLib.c **** ********************************************************************************
  73:.\Generated_Source\PSoC4/CyLib.c **** *
  74:.\Generated_Source\PSoC4/CyLib.c **** * Summary:
  75:.\Generated_Source\PSoC4/CyLib.c **** *  Enables the ILO.
  76:.\Generated_Source\PSoC4/CyLib.c **** *
  77:.\Generated_Source\PSoC4/CyLib.c **** * Parameters:
  78:.\Generated_Source\PSoC4/CyLib.c **** *  None
  79:.\Generated_Source\PSoC4/CyLib.c **** *
  80:.\Generated_Source\PSoC4/CyLib.c **** * Return:
  81:.\Generated_Source\PSoC4/CyLib.c **** *  None
ARM GAS  C:\Users\kees\AppData\Local\Temp\ccxzCKRQ.s 			page 4


  82:.\Generated_Source\PSoC4/CyLib.c **** *
  83:.\Generated_Source\PSoC4/CyLib.c **** *******************************************************************************/
  84:.\Generated_Source\PSoC4/CyLib.c **** void CySysClkIloStart(void)
  85:.\Generated_Source\PSoC4/CyLib.c **** {
  87              		.loc 1 85 0
  88              		.cfi_startproc
  86:.\Generated_Source\PSoC4/CyLib.c ****     CY_SYS_CLK_ILO_CONFIG_REG |= CY_SYS_CLK_ILO_CONFIG_ENABLE;
  89              		.loc 1 86 0
  90 0000 034A     		ldr	r2, .L11
  91 0002 8023     		mov	r3, #128
  92 0004 1168     		ldr	r1, [r2]
  93 0006 1B06     		lsl	r3, r3, #24
  94 0008 0B43     		orr	r3, r3, r1
  95 000a 1360     		str	r3, [r2]
  87:.\Generated_Source\PSoC4/CyLib.c **** }
  96              		.loc 1 87 0
  97              		@ sp needed for prologue
  98 000c 7047     		bx	lr
  99              	.L12:
 100 000e C046     		.align	2
 101              	.L11:
 102 0010 04010B40 		.word	1074462980
 103              		.cfi_endproc
 104              	.LFE2:
 105              		.size	CySysClkIloStart, .-CySysClkIloStart
 106              		.section	.text.CySysClkIloStop,"ax",%progbits
 107              		.align	1
 108              		.global	CySysClkIloStop
 109              		.code	16
 110              		.thumb_func
 111              		.type	CySysClkIloStop, %function
 112              	CySysClkIloStop:
 113              	.LFB3:
  88:.\Generated_Source\PSoC4/CyLib.c **** 
  89:.\Generated_Source\PSoC4/CyLib.c **** 
  90:.\Generated_Source\PSoC4/CyLib.c **** /*******************************************************************************
  91:.\Generated_Source\PSoC4/CyLib.c **** * Function Name: CySysClkIloStop
  92:.\Generated_Source\PSoC4/CyLib.c **** ********************************************************************************
  93:.\Generated_Source\PSoC4/CyLib.c **** *
  94:.\Generated_Source\PSoC4/CyLib.c **** * Summary:
  95:.\Generated_Source\PSoC4/CyLib.c **** *  Disables the ILO.
  96:.\Generated_Source\PSoC4/CyLib.c **** *
  97:.\Generated_Source\PSoC4/CyLib.c **** * Parameters:
  98:.\Generated_Source\PSoC4/CyLib.c **** *  None
  99:.\Generated_Source\PSoC4/CyLib.c **** *
 100:.\Generated_Source\PSoC4/CyLib.c **** * Return:
 101:.\Generated_Source\PSoC4/CyLib.c **** *  None
 102:.\Generated_Source\PSoC4/CyLib.c **** *
 103:.\Generated_Source\PSoC4/CyLib.c **** * Side Effects:
 104:.\Generated_Source\PSoC4/CyLib.c **** *  This function will have no effect if WDT is locked (CySysWdtLock() is
 105:.\Generated_Source\PSoC4/CyLib.c **** *  called). Call CySysWdtUnlock() to unlock WDT and be able to stop ILO.
 106:.\Generated_Source\PSoC4/CyLib.c **** *  Note that ILO is required for WDT's operation.
 107:.\Generated_Source\PSoC4/CyLib.c **** *
 108:.\Generated_Source\PSoC4/CyLib.c **** *******************************************************************************/
 109:.\Generated_Source\PSoC4/CyLib.c **** void CySysClkIloStop(void)
 110:.\Generated_Source\PSoC4/CyLib.c **** {
 114              		.loc 1 110 0
ARM GAS  C:\Users\kees\AppData\Local\Temp\ccxzCKRQ.s 			page 5


 115              		.cfi_startproc
 111:.\Generated_Source\PSoC4/CyLib.c ****     CY_SYS_CLK_ILO_CONFIG_REG &= ( uint32 ) ( ~( uint32 )CY_SYS_CLK_ILO_CONFIG_ENABLE);
 116              		.loc 1 111 0
 117 0000 024B     		ldr	r3, .L15
 118 0002 034A     		ldr	r2, .L15+4
 119 0004 1968     		ldr	r1, [r3]
 112:.\Generated_Source\PSoC4/CyLib.c **** }
 120              		.loc 1 112 0
 121              		@ sp needed for prologue
 122              		.loc 1 111 0
 123 0006 0A40     		and	r2, r2, r1
 124 0008 1A60     		str	r2, [r3]
 125              		.loc 1 112 0
 126 000a 7047     		bx	lr
 127              	.L16:
 128              		.align	2
 129              	.L15:
 130 000c 04010B40 		.word	1074462980
 131 0010 FFFFFF7F 		.word	2147483647
 132              		.cfi_endproc
 133              	.LFE3:
 134              		.size	CySysClkIloStop, .-CySysClkIloStop
 135              		.section	.text.CySysClkWriteHfclkDirect,"ax",%progbits
 136              		.align	1
 137              		.global	CySysClkWriteHfclkDirect
 138              		.code	16
 139              		.thumb_func
 140              		.type	CySysClkWriteHfclkDirect, %function
 141              	CySysClkWriteHfclkDirect:
 142              	.LFB4:
 113:.\Generated_Source\PSoC4/CyLib.c **** 
 114:.\Generated_Source\PSoC4/CyLib.c **** 
 115:.\Generated_Source\PSoC4/CyLib.c **** /*******************************************************************************
 116:.\Generated_Source\PSoC4/CyLib.c **** * Function Name: CySysClkWriteHfclkDirect
 117:.\Generated_Source\PSoC4/CyLib.c **** ********************************************************************************
 118:.\Generated_Source\PSoC4/CyLib.c **** *
 119:.\Generated_Source\PSoC4/CyLib.c **** * Summary:
 120:.\Generated_Source\PSoC4/CyLib.c **** *  Selects the direct source for the HFCLK.
 121:.\Generated_Source\PSoC4/CyLib.c **** *
 122:.\Generated_Source\PSoC4/CyLib.c **** * Parameters:
 123:.\Generated_Source\PSoC4/CyLib.c **** *  clkSelect: One of the available HFCLK direct sources:
 124:.\Generated_Source\PSoC4/CyLib.c **** *   Value        Define                    Source
 125:.\Generated_Source\PSoC4/CyLib.c **** *    0            CY_SYS_CLK_HFCLK_IMO      IMO
 126:.\Generated_Source\PSoC4/CyLib.c **** *    1            CY_SYS_CLK_HFCLK_EXTCLK   External clock pin
 127:.\Generated_Source\PSoC4/CyLib.c **** *
 128:.\Generated_Source\PSoC4/CyLib.c **** * Return:
 129:.\Generated_Source\PSoC4/CyLib.c **** *  None
 130:.\Generated_Source\PSoC4/CyLib.c **** *
 131:.\Generated_Source\PSoC4/CyLib.c **** * Side Effects:
 132:.\Generated_Source\PSoC4/CyLib.c **** *  The new source must be running and stable before calling this function.
 133:.\Generated_Source\PSoC4/CyLib.c **** *  Direct source is default option for HFCLK.
 134:.\Generated_Source\PSoC4/CyLib.c **** *
 135:.\Generated_Source\PSoC4/CyLib.c **** *  If the SYSCLK clock frequency increases during device operation, call
 136:.\Generated_Source\PSoC4/CyLib.c **** *  CySysFlashSetWaitCycles() with the appropriate parameter to adjust the number
 137:.\Generated_Source\PSoC4/CyLib.c **** *  of clock cycles cache will wait before sampling data coming back from Flash.
 138:.\Generated_Source\PSoC4/CyLib.c **** *  If the SYSCLK clock frequency decreases, you can call CyFlash_SetWaitCycles()
 139:.\Generated_Source\PSoC4/CyLib.c **** *  to improve CPU performance. See CySysFlashSetWaitCycles() for more
ARM GAS  C:\Users\kees\AppData\Local\Temp\ccxzCKRQ.s 			page 6


 140:.\Generated_Source\PSoC4/CyLib.c **** *  information.
 141:.\Generated_Source\PSoC4/CyLib.c **** *
 142:.\Generated_Source\PSoC4/CyLib.c **** *******************************************************************************/
 143:.\Generated_Source\PSoC4/CyLib.c **** void CySysClkWriteHfclkDirect(uint32 clkSelect)
 144:.\Generated_Source\PSoC4/CyLib.c **** {
 143              		.loc 1 144 0
 144              		.cfi_startproc
 145              	.LVL0:
 145:.\Generated_Source\PSoC4/CyLib.c ****     CY_SYS_CLK_SELECT_REG = ((CY_SYS_CLK_SELECT_REG & (( uint32 ) ~(( uint32 )CY_SYS_CLK_SELECT_DIR
 146              		.loc 1 145 0
 147 0000 044B     		ldr	r3, .L19
 148 0002 0121     		mov	r1, #1
 149 0004 1A68     		ldr	r2, [r3]
 150 0006 0840     		and	r0, r0, r1
 151              	.LVL1:
 152 0008 0721     		mov	r1, #7
 153 000a 8A43     		bic	r2, r2, r1
 154 000c 1043     		orr	r0, r0, r2
 155 000e 1860     		str	r0, [r3]
 146:.\Generated_Source\PSoC4/CyLib.c ****                         (( uint32 ) ( ( uint32 )clkSelect & ( uint32 )CY_SYS_CLK_SELECT_DIRECT_SEL_
 147:.\Generated_Source\PSoC4/CyLib.c **** }
 156              		.loc 1 147 0
 157              		@ sp needed for prologue
 158 0010 7047     		bx	lr
 159              	.L20:
 160 0012 C046     		.align	2
 161              	.L19:
 162 0014 00010B40 		.word	1074462976
 163              		.cfi_endproc
 164              	.LFE4:
 165              		.size	CySysClkWriteHfclkDirect, .-CySysClkWriteHfclkDirect
 166              		.section	.text.CySysClkWriteSysclkDiv,"ax",%progbits
 167              		.align	1
 168              		.global	CySysClkWriteSysclkDiv
 169              		.code	16
 170              		.thumb_func
 171              		.type	CySysClkWriteSysclkDiv, %function
 172              	CySysClkWriteSysclkDiv:
 173              	.LFB5:
 148:.\Generated_Source\PSoC4/CyLib.c **** 
 149:.\Generated_Source\PSoC4/CyLib.c **** 
 150:.\Generated_Source\PSoC4/CyLib.c **** /*******************************************************************************
 151:.\Generated_Source\PSoC4/CyLib.c **** * Function Name: CySysClkWriteSysclkDiv
 152:.\Generated_Source\PSoC4/CyLib.c **** ********************************************************************************
 153:.\Generated_Source\PSoC4/CyLib.c **** *
 154:.\Generated_Source\PSoC4/CyLib.c **** * Summary:
 155:.\Generated_Source\PSoC4/CyLib.c **** *  Selects SYSCLK from HFCLK pre-scaler value.
 156:.\Generated_Source\PSoC4/CyLib.c **** *
 157:.\Generated_Source\PSoC4/CyLib.c **** * Parameters:
 158:.\Generated_Source\PSoC4/CyLib.c **** *  divider: Power of 2 prescaler selection
 159:.\Generated_Source\PSoC4/CyLib.c **** *
 160:.\Generated_Source\PSoC4/CyLib.c **** *   Value    Define                        Description
 161:.\Generated_Source\PSoC4/CyLib.c **** *   0        CY_SYS_CLK_SYSCLK_DIV1        SYSCLK = HFCLK / 1
 162:.\Generated_Source\PSoC4/CyLib.c **** *   1        CY_SYS_CLK_SYSCLK_DIV2        SYSCLK = HFCLK / 2
 163:.\Generated_Source\PSoC4/CyLib.c **** *   2        CY_SYS_CLK_SYSCLK_DIV4        SYSCLK = HFCLK / 4
 164:.\Generated_Source\PSoC4/CyLib.c **** *   3        CY_SYS_CLK_SYSCLK_DIV8        SYSCLK = HFCLK / 8
 165:.\Generated_Source\PSoC4/CyLib.c **** *   4        CY_SYS_CLK_SYSCLK_DIV16       SYSCLK = HFCLK / 16
ARM GAS  C:\Users\kees\AppData\Local\Temp\ccxzCKRQ.s 			page 7


 166:.\Generated_Source\PSoC4/CyLib.c **** *   5        CY_SYS_CLK_SYSCLK_DIV32       SYSCLK = HFCLK / 32
 167:.\Generated_Source\PSoC4/CyLib.c **** *   6        CY_SYS_CLK_SYSCLK_DIV64       SYSCLK = HFCLK / 64
 168:.\Generated_Source\PSoC4/CyLib.c **** *   7        CY_SYS_CLK_SYSCLK_DIV128      SYSCLK = HFCLK / 128
 169:.\Generated_Source\PSoC4/CyLib.c **** *
 170:.\Generated_Source\PSoC4/CyLib.c **** * Return:
 171:.\Generated_Source\PSoC4/CyLib.c **** *  None
 172:.\Generated_Source\PSoC4/CyLib.c **** *
 173:.\Generated_Source\PSoC4/CyLib.c **** * Side Effects:
 174:.\Generated_Source\PSoC4/CyLib.c **** *  If the SYSCLK clock frequency increases during device operation, call
 175:.\Generated_Source\PSoC4/CyLib.c **** *  CySysFlashSetWaitCycles() with the appropriate parameter to adjust the number
 176:.\Generated_Source\PSoC4/CyLib.c **** *  of clock cycles cache will wait before sampling data coming back from Flash.
 177:.\Generated_Source\PSoC4/CyLib.c **** *  If the SYSCLK clock frequency decreases, you can call CyFlash_SetWaitCycles()
 178:.\Generated_Source\PSoC4/CyLib.c **** *  to improve CPU performance. See CySysFlashSetWaitCycles() for more
 179:.\Generated_Source\PSoC4/CyLib.c **** *  information.
 180:.\Generated_Source\PSoC4/CyLib.c **** *
 181:.\Generated_Source\PSoC4/CyLib.c **** *******************************************************************************/
 182:.\Generated_Source\PSoC4/CyLib.c **** void CySysClkWriteSysclkDiv(uint32 divider)
 183:.\Generated_Source\PSoC4/CyLib.c **** {
 174              		.loc 1 183 0
 175              		.cfi_startproc
 176 0000 10B5     		push	{r4, lr}
 177              	.LCFI0:
 178              		.cfi_def_cfa_offset 8
 179              		.cfi_offset 4, -8
 180              		.cfi_offset 14, -4
 181              	.LVL2:
 184:.\Generated_Source\PSoC4/CyLib.c ****     CY_SYS_CLK_SELECT_REG = ((uint32)(((uint32)divider & CY_SYS_CLK_SELECT_SYSCLK_DIV_MASK) <<
 185:.\Generated_Source\PSoC4/CyLib.c ****                                     CY_SYS_CLK_SELECT_SYSCLK_DIV_SHIFT)) |
 186:.\Generated_Source\PSoC4/CyLib.c ****                             (CY_SYS_CLK_SELECT_REG & ((uint32)(~(uint32)(CY_SYS_CLK_SELECT_SYSCLK_D
 182              		.loc 1 186 0
 183 0002 054B     		ldr	r3, .L23
 184              		.loc 1 184 0
 185 0004 0722     		mov	r2, #7
 186              		.loc 1 186 0
 187 0006 1C68     		ldr	r4, [r3]
 188              		.loc 1 184 0
 189 0008 1040     		and	r0, r0, r2
 190              	.LVL3:
 191 000a 0449     		ldr	r1, .L23+4
 192 000c C204     		lsl	r2, r0, #19
 193 000e 201C     		mov	r0, r4
 194 0010 0840     		and	r0, r0, r1
 195 0012 1043     		orr	r0, r0, r2
 196 0014 1860     		str	r0, [r3]
 187:.\Generated_Source\PSoC4/CyLib.c ****                                     CY_SYS_CLK_SELECT_SYSCLK_DIV_SHIFT))));
 188:.\Generated_Source\PSoC4/CyLib.c **** }
 197              		.loc 1 188 0
 198              		@ sp needed for prologue
 199 0016 10BD     		pop	{r4, pc}
 200              	.L24:
 201              		.align	2
 202              	.L23:
 203 0018 00010B40 		.word	1074462976
 204 001c FFFFC7FF 		.word	-3670017
 205              		.cfi_endproc
 206              	.LFE5:
 207              		.size	CySysClkWriteSysclkDiv, .-CySysClkWriteSysclkDiv
ARM GAS  C:\Users\kees\AppData\Local\Temp\ccxzCKRQ.s 			page 8


 208              		.section	.text.CySysWdtReadMode,"ax",%progbits
 209              		.align	1
 210              		.global	CySysWdtReadMode
 211              		.code	16
 212              		.thumb_func
 213              		.type	CySysWdtReadMode, %function
 214              	CySysWdtReadMode:
 215              	.LFB11:
 189:.\Generated_Source\PSoC4/CyLib.c **** 
 190:.\Generated_Source\PSoC4/CyLib.c **** 
 191:.\Generated_Source\PSoC4/CyLib.c **** /*******************************************************************************
 192:.\Generated_Source\PSoC4/CyLib.c **** * Function Name: CySysClkWriteImoFreq
 193:.\Generated_Source\PSoC4/CyLib.c **** ********************************************************************************
 194:.\Generated_Source\PSoC4/CyLib.c **** *
 195:.\Generated_Source\PSoC4/CyLib.c **** * Summary:
 196:.\Generated_Source\PSoC4/CyLib.c **** *  Sets the frequency of the IMO.
 197:.\Generated_Source\PSoC4/CyLib.c **** *
 198:.\Generated_Source\PSoC4/CyLib.c **** * Parameters:
 199:.\Generated_Source\PSoC4/CyLib.c **** *  freq: Valid range [3-48].  Frequency for operation of the IMO.
 200:.\Generated_Source\PSoC4/CyLib.c **** *  Note: Invalid frequency will be ignored.
 201:.\Generated_Source\PSoC4/CyLib.c **** *
 202:.\Generated_Source\PSoC4/CyLib.c **** * Return:
 203:.\Generated_Source\PSoC4/CyLib.c **** *  None
 204:.\Generated_Source\PSoC4/CyLib.c **** *
 205:.\Generated_Source\PSoC4/CyLib.c **** * Side Effects:
 206:.\Generated_Source\PSoC4/CyLib.c **** *  If the SYSCLK clock frequency increases during device operation, call
 207:.\Generated_Source\PSoC4/CyLib.c **** *  CySysFlashSetWaitCycles() with the appropriate parameter to adjust the number
 208:.\Generated_Source\PSoC4/CyLib.c **** *  of clock cycles cache will wait before sampling data coming back from Flash.
 209:.\Generated_Source\PSoC4/CyLib.c **** *  If the SYSCLK clock frequency decreases, you can call CyFlash_SetWaitCycles()
 210:.\Generated_Source\PSoC4/CyLib.c **** *  to improve CPU performance. See CySysFlashSetWaitCycles() for more
 211:.\Generated_Source\PSoC4/CyLib.c **** *  information.
 212:.\Generated_Source\PSoC4/CyLib.c **** *
 213:.\Generated_Source\PSoC4/CyLib.c **** *******************************************************************************/
 214:.\Generated_Source\PSoC4/CyLib.c **** void CySysClkWriteImoFreq(uint32 freq)
 215:.\Generated_Source\PSoC4/CyLib.c **** {
 216:.\Generated_Source\PSoC4/CyLib.c ****     uint8  bgTrim4;
 217:.\Generated_Source\PSoC4/CyLib.c ****     uint8  bgTrim5;
 218:.\Generated_Source\PSoC4/CyLib.c ****     uint32 currentFreq = CY_SYS_CLK_IMO_MAX_FREQ_MHZ;
 219:.\Generated_Source\PSoC4/CyLib.c ****     uint8  interruptState;
 220:.\Generated_Source\PSoC4/CyLib.c ****     uint32 i;
 221:.\Generated_Source\PSoC4/CyLib.c **** 
 222:.\Generated_Source\PSoC4/CyLib.c ****     /* Convertion between CySysClkWriteImoFreq() parameter and register's value */
 223:.\Generated_Source\PSoC4/CyLib.c ****     static const uint8 cyImoFreqMhz2Reg[CY_SYS_CLK_IMO_FREQ_TABLE_SIZE] = {
 224:.\Generated_Source\PSoC4/CyLib.c ****         /*  3 MHz */ 0x03u,  /*  4 MHz */ 0x04u,  /*  5 MHz */ 0x05u,  /*  6 MHz */ 0x06u,
 225:.\Generated_Source\PSoC4/CyLib.c ****         /*  7 MHz */ 0x07u,  /*  8 MHz */ 0x08u,  /*  9 MHz */ 0x09u,  /* 10 MHz */ 0x0Au,
 226:.\Generated_Source\PSoC4/CyLib.c ****         /* 11 MHz */ 0x0Bu,  /* 12 MHz */ 0x0Cu,  /* 13 MHz */ 0x0Eu,  /* 14 MHz */ 0x0Fu,
 227:.\Generated_Source\PSoC4/CyLib.c ****         /* 15 MHz */ 0x10u,  /* 16 MHz */ 0x11u,  /* 17 MHz */ 0x12u,  /* 18 MHz */ 0x13u,
 228:.\Generated_Source\PSoC4/CyLib.c ****         /* 19 MHz */ 0x14u,  /* 20 MHz */ 0x15u,  /* 21 MHz */ 0x16u,  /* 22 MHz */ 0x17u,
 229:.\Generated_Source\PSoC4/CyLib.c ****         /* 23 MHz */ 0x18u,  /* 24 MHz */ 0x19u,  /* 25 MHz */ 0x1Bu,  /* 26 MHz */ 0x1Cu,
 230:.\Generated_Source\PSoC4/CyLib.c ****         /* 27 MHz */ 0x1Du,  /* 28 MHz */ 0x1Eu,  /* 29 MHz */ 0x1Fu,  /* 30 MHz */ 0x20u,
 231:.\Generated_Source\PSoC4/CyLib.c ****         /* 31 MHz */ 0x21u,  /* 32 MHz */ 0x22u,  /* 33 MHz */ 0x23u,  /* 34 MHz */ 0x25u,
 232:.\Generated_Source\PSoC4/CyLib.c ****         /* 35 MHz */ 0x26u,  /* 36 MHz */ 0x27u,  /* 37 MHz */ 0x28u,  /* 38 MHz */ 0x29u,
 233:.\Generated_Source\PSoC4/CyLib.c ****         /* 39 MHz */ 0x2Au,  /* 40 MHz */ 0x2Bu,  /* 41 MHz */ 0x2Eu,  /* 42 MHz */ 0x2Fu,
 234:.\Generated_Source\PSoC4/CyLib.c ****         /* 43 MHz */ 0x30u,  /* 44 MHz */ 0x31u,  /* 45 MHz */ 0x32u,  /* 46 MHz */ 0x33u,
 235:.\Generated_Source\PSoC4/CyLib.c ****         /* 47 MHz */ 0x34u,  /* 48 MHz */ 0x35u };
 236:.\Generated_Source\PSoC4/CyLib.c **** 
 237:.\Generated_Source\PSoC4/CyLib.c **** 
ARM GAS  C:\Users\kees\AppData\Local\Temp\ccxzCKRQ.s 			page 9


 238:.\Generated_Source\PSoC4/CyLib.c ****     if ((freq >= CY_SYS_CLK_IMO_MIN_FREQ_MHZ) && (freq <= CY_SYS_CLK_IMO_MAX_FREQ_MHZ))
 239:.\Generated_Source\PSoC4/CyLib.c ****     {
 240:.\Generated_Source\PSoC4/CyLib.c ****         interruptState = CyEnterCriticalSection();
 241:.\Generated_Source\PSoC4/CyLib.c **** 
 242:.\Generated_Source\PSoC4/CyLib.c ****         /* Get current IMO frequency */
 243:.\Generated_Source\PSoC4/CyLib.c ****         for (i = 0u; i < CY_SYS_CLK_IMO_FREQ_TABLE_SIZE; i++)
 244:.\Generated_Source\PSoC4/CyLib.c ****         {
 245:.\Generated_Source\PSoC4/CyLib.c ****             if (cyImoFreqMhz2Reg[i] == (CY_SYS_CLK_IMO_TRIM2_REG & CY_SYS_CLK_IMO_FREQ_BITS_MASK))
 246:.\Generated_Source\PSoC4/CyLib.c ****             {
 247:.\Generated_Source\PSoC4/CyLib.c ****                 currentFreq = i + CY_SYS_CLK_IMO_FREQ_TABLE_OFFSET;
 248:.\Generated_Source\PSoC4/CyLib.c ****                 break;
 249:.\Generated_Source\PSoC4/CyLib.c ****             }
 250:.\Generated_Source\PSoC4/CyLib.c ****         }
 251:.\Generated_Source\PSoC4/CyLib.c **** 
 252:.\Generated_Source\PSoC4/CyLib.c ****         if(freq <= CY_SFLASH_IMO_MAXF0_REG)
 253:.\Generated_Source\PSoC4/CyLib.c ****         {
 254:.\Generated_Source\PSoC4/CyLib.c ****             bgTrim4 = CY_SFLASH_IMO_ABS0_REG;
 255:.\Generated_Source\PSoC4/CyLib.c ****             bgTrim5 = CY_SFLASH_IMO_TMPCO0_REG;
 256:.\Generated_Source\PSoC4/CyLib.c ****         }
 257:.\Generated_Source\PSoC4/CyLib.c ****         else if(freq <= CY_SFLASH_IMO_MAXF1_REG)
 258:.\Generated_Source\PSoC4/CyLib.c ****         {
 259:.\Generated_Source\PSoC4/CyLib.c ****             bgTrim4 = CY_SFLASH_IMO_ABS1_REG;
 260:.\Generated_Source\PSoC4/CyLib.c ****             bgTrim5 = CY_SFLASH_IMO_TMPCO1_REG;
 261:.\Generated_Source\PSoC4/CyLib.c ****         }
 262:.\Generated_Source\PSoC4/CyLib.c ****         else if(freq <= CY_SFLASH_IMO_MAXF2_REG)
 263:.\Generated_Source\PSoC4/CyLib.c ****         {
 264:.\Generated_Source\PSoC4/CyLib.c ****             bgTrim4 = CY_SFLASH_IMO_ABS2_REG;
 265:.\Generated_Source\PSoC4/CyLib.c ****             bgTrim5 = CY_SFLASH_IMO_TMPCO2_REG;
 266:.\Generated_Source\PSoC4/CyLib.c ****         }
 267:.\Generated_Source\PSoC4/CyLib.c ****         else if(freq <= CY_SFLASH_IMO_MAXF3_REG)
 268:.\Generated_Source\PSoC4/CyLib.c ****         {
 269:.\Generated_Source\PSoC4/CyLib.c ****             bgTrim4 = CY_SFLASH_IMO_ABS3_REG;
 270:.\Generated_Source\PSoC4/CyLib.c ****             bgTrim5 = CY_SFLASH_IMO_TMPCO3_REG;
 271:.\Generated_Source\PSoC4/CyLib.c ****         }
 272:.\Generated_Source\PSoC4/CyLib.c ****         else
 273:.\Generated_Source\PSoC4/CyLib.c ****         {
 274:.\Generated_Source\PSoC4/CyLib.c ****             bgTrim4 = CY_SFLASH_IMO_ABS4_REG;
 275:.\Generated_Source\PSoC4/CyLib.c ****             bgTrim5 = CY_SFLASH_IMO_TMPCO4_REG;
 276:.\Generated_Source\PSoC4/CyLib.c ****         }
 277:.\Generated_Source\PSoC4/CyLib.c **** 
 278:.\Generated_Source\PSoC4/CyLib.c **** 
 279:.\Generated_Source\PSoC4/CyLib.c ****         /***************************************************************************
 280:.\Generated_Source\PSoC4/CyLib.c ****         * The IMO can have a different trim per frequency. To avoid possible corner
 281:.\Generated_Source\PSoC4/CyLib.c ****         * cases where a trim change can exceed the maximum frequency, the trim must
 282:.\Generated_Source\PSoC4/CyLib.c ****         * be applied at a frequency that is low enough.
 283:.\Generated_Source\PSoC4/CyLib.c ****         ***************************************************************************/
 284:.\Generated_Source\PSoC4/CyLib.c ****         if ((currentFreq >= CY_SYS_CLK_IMO_BOUNDARY_FREQ_MHZ) && (freq >= CY_SYS_CLK_IMO_BOUNDARY_F
 285:.\Generated_Source\PSoC4/CyLib.c ****         {
 286:.\Generated_Source\PSoC4/CyLib.c ****             /* Set boundary IMO frequency: safe for IMO above 48 MHZ trimming */
 287:.\Generated_Source\PSoC4/CyLib.c ****             CY_SYS_CLK_IMO_TRIM2_REG = (uint32) cyImoFreqMhz2Reg[CY_SYS_CLK_IMO_TEMP_FREQ_MHZ -
 288:.\Generated_Source\PSoC4/CyLib.c ****                                                                  CY_SYS_CLK_IMO_FREQ_TABLE_OFFSET];
 289:.\Generated_Source\PSoC4/CyLib.c **** 
 290:.\Generated_Source\PSoC4/CyLib.c ****             CyDelayCycles(CY_SYS_CLK_IMO_FREQ_TIMEOUT_CYCLES);
 291:.\Generated_Source\PSoC4/CyLib.c **** 
 292:.\Generated_Source\PSoC4/CyLib.c ****             currentFreq = CY_SYS_CLK_IMO_TEMP_FREQ_MHZ;
 293:.\Generated_Source\PSoC4/CyLib.c ****         }
 294:.\Generated_Source\PSoC4/CyLib.c **** 
ARM GAS  C:\Users\kees\AppData\Local\Temp\ccxzCKRQ.s 			page 10


 295:.\Generated_Source\PSoC4/CyLib.c **** 
 296:.\Generated_Source\PSoC4/CyLib.c ****         /***************************************************************************
 297:.\Generated_Source\PSoC4/CyLib.c ****         * Trim change need to allowed to settle (within 5us) before the Freq can be
 298:.\Generated_Source\PSoC4/CyLib.c ****         * changed to the new frequency.
 299:.\Generated_Source\PSoC4/CyLib.c ****         ***************************************************************************/
 300:.\Generated_Source\PSoC4/CyLib.c ****         if (freq > currentFreq)
 301:.\Generated_Source\PSoC4/CyLib.c ****         {
 302:.\Generated_Source\PSoC4/CyLib.c ****             /* Set trims for the new IMO frequency */
 303:.\Generated_Source\PSoC4/CyLib.c ****             CY_SYS_CLK_IMO_TRIM1_REG = (uint32) CY_SFLASH_IMO_TRIM_REG(freq - CY_SYS_CLK_IMO_FREQ_T
 304:.\Generated_Source\PSoC4/CyLib.c ****             CY_PWR_BG_TRIM4_REG  = bgTrim4;
 305:.\Generated_Source\PSoC4/CyLib.c ****             CY_PWR_BG_TRIM5_REG  = bgTrim5;
 306:.\Generated_Source\PSoC4/CyLib.c ****             CyDelayUs(CY_SYS_CLK_IMO_TRIM_TIMEOUT_US);
 307:.\Generated_Source\PSoC4/CyLib.c **** 
 308:.\Generated_Source\PSoC4/CyLib.c ****             /* Set new IMO frequency */
 309:.\Generated_Source\PSoC4/CyLib.c ****             CY_SYS_CLK_IMO_TRIM2_REG = cyImoFreqMhz2Reg[freq - CY_SYS_CLK_IMO_FREQ_TABLE_OFFSET];
 310:.\Generated_Source\PSoC4/CyLib.c ****             CyDelayCycles(CY_SYS_CLK_IMO_FREQ_TIMEOUT_CYCLES);
 311:.\Generated_Source\PSoC4/CyLib.c ****         }
 312:.\Generated_Source\PSoC4/CyLib.c ****         else
 313:.\Generated_Source\PSoC4/CyLib.c ****         {
 314:.\Generated_Source\PSoC4/CyLib.c ****             /* Set new IMO frequency */
 315:.\Generated_Source\PSoC4/CyLib.c ****             CY_SYS_CLK_IMO_TRIM2_REG = cyImoFreqMhz2Reg[freq - CY_SYS_CLK_IMO_FREQ_TABLE_OFFSET];
 316:.\Generated_Source\PSoC4/CyLib.c ****             CyDelayCycles(CY_SYS_CLK_IMO_FREQ_TIMEOUT_CYCLES);
 317:.\Generated_Source\PSoC4/CyLib.c **** 
 318:.\Generated_Source\PSoC4/CyLib.c ****             /* Set trims for the new IMO frequency */
 319:.\Generated_Source\PSoC4/CyLib.c ****             CY_SYS_CLK_IMO_TRIM1_REG = CY_SFLASH_IMO_TRIM_REG(freq - CY_SYS_CLK_IMO_FREQ_TABLE_OFFS
 320:.\Generated_Source\PSoC4/CyLib.c ****             CY_PWR_BG_TRIM4_REG  = bgTrim4;
 321:.\Generated_Source\PSoC4/CyLib.c ****             CY_PWR_BG_TRIM5_REG  = bgTrim5;
 322:.\Generated_Source\PSoC4/CyLib.c ****             CyDelayUs(CY_SYS_CLK_IMO_TRIM_TIMEOUT_US);
 323:.\Generated_Source\PSoC4/CyLib.c ****         }
 324:.\Generated_Source\PSoC4/CyLib.c **** 
 325:.\Generated_Source\PSoC4/CyLib.c ****         CyExitCriticalSection(interruptState);
 326:.\Generated_Source\PSoC4/CyLib.c ****     }
 327:.\Generated_Source\PSoC4/CyLib.c ****     else
 328:.\Generated_Source\PSoC4/CyLib.c ****     {
 329:.\Generated_Source\PSoC4/CyLib.c ****         /* Halt CPU in debug mode if new frequency is invalid */
 330:.\Generated_Source\PSoC4/CyLib.c ****         CYASSERT(0u != 0u);
 331:.\Generated_Source\PSoC4/CyLib.c ****     }
 332:.\Generated_Source\PSoC4/CyLib.c **** }
 333:.\Generated_Source\PSoC4/CyLib.c **** 
 334:.\Generated_Source\PSoC4/CyLib.c **** 
 335:.\Generated_Source\PSoC4/CyLib.c **** /*******************************************************************************
 336:.\Generated_Source\PSoC4/CyLib.c **** * Function Name: CySysWdtLock
 337:.\Generated_Source\PSoC4/CyLib.c **** ********************************************************************************
 338:.\Generated_Source\PSoC4/CyLib.c **** *
 339:.\Generated_Source\PSoC4/CyLib.c **** * Summary:
 340:.\Generated_Source\PSoC4/CyLib.c **** *  Locks out configuration changes to the Watchdog timer registers and ILO
 341:.\Generated_Source\PSoC4/CyLib.c **** *  config register.
 342:.\Generated_Source\PSoC4/CyLib.c **** *
 343:.\Generated_Source\PSoC4/CyLib.c **** * Parameters:
 344:.\Generated_Source\PSoC4/CyLib.c **** *  None
 345:.\Generated_Source\PSoC4/CyLib.c **** *
 346:.\Generated_Source\PSoC4/CyLib.c **** * Return:
 347:.\Generated_Source\PSoC4/CyLib.c **** *  None
 348:.\Generated_Source\PSoC4/CyLib.c **** *
 349:.\Generated_Source\PSoC4/CyLib.c **** * Side effects:
 350:.\Generated_Source\PSoC4/CyLib.c **** *  This API enables ILO, if it was disabled.
 351:.\Generated_Source\PSoC4/CyLib.c **** *  After this API was called, ILO clock can't be disabled untill calling of
ARM GAS  C:\Users\kees\AppData\Local\Temp\ccxzCKRQ.s 			page 11


 352:.\Generated_Source\PSoC4/CyLib.c **** *  CySysWdtUnlock().
 353:.\Generated_Source\PSoC4/CyLib.c **** *
 354:.\Generated_Source\PSoC4/CyLib.c **** *******************************************************************************/
 355:.\Generated_Source\PSoC4/CyLib.c **** void CySysWdtLock(void)
 356:.\Generated_Source\PSoC4/CyLib.c **** {
 357:.\Generated_Source\PSoC4/CyLib.c ****     uint8 interruptState;
 358:.\Generated_Source\PSoC4/CyLib.c ****     interruptState = CyEnterCriticalSection();
 359:.\Generated_Source\PSoC4/CyLib.c **** 
 360:.\Generated_Source\PSoC4/CyLib.c ****     /* Configuring the WDT involves passing control signals between clock domains,
 361:.\Generated_Source\PSoC4/CyLib.c ****     * which requires the ILO to be enabled.
 362:.\Generated_Source\PSoC4/CyLib.c ****     */
 363:.\Generated_Source\PSoC4/CyLib.c ****     if (0u == (CY_SYS_CLK_ILO_CONFIG_REG & CY_SYS_CLK_ILO_CONFIG_ENABLE))
 364:.\Generated_Source\PSoC4/CyLib.c ****     {
 365:.\Generated_Source\PSoC4/CyLib.c ****         CySysClkIloStart();
 366:.\Generated_Source\PSoC4/CyLib.c ****     }
 367:.\Generated_Source\PSoC4/CyLib.c **** 
 368:.\Generated_Source\PSoC4/CyLib.c ****     /* CLK_SELECT register's bits 15:14 are WDT_LOCK */
 369:.\Generated_Source\PSoC4/CyLib.c ****     CY_SYS_CLK_SELECT_REG = (CY_SYS_CLK_SELECT_REG & (uint32)(~CY_SYS_WDT_CLK_LOCK_BITS_MASK)) |
 370:.\Generated_Source\PSoC4/CyLib.c ****              CY_SYS_WDT_CLK_LOCK_BITS_MASK;
 371:.\Generated_Source\PSoC4/CyLib.c **** 
 372:.\Generated_Source\PSoC4/CyLib.c ****     CyExitCriticalSection(interruptState);
 373:.\Generated_Source\PSoC4/CyLib.c **** }
 374:.\Generated_Source\PSoC4/CyLib.c **** 
 375:.\Generated_Source\PSoC4/CyLib.c **** 
 376:.\Generated_Source\PSoC4/CyLib.c **** /*******************************************************************************
 377:.\Generated_Source\PSoC4/CyLib.c **** * Function Name: CySysWdtUnlock
 378:.\Generated_Source\PSoC4/CyLib.c **** ********************************************************************************
 379:.\Generated_Source\PSoC4/CyLib.c **** *
 380:.\Generated_Source\PSoC4/CyLib.c **** * Summary:
 381:.\Generated_Source\PSoC4/CyLib.c **** *  Unlocks the Watchdog Timer configuration register.
 382:.\Generated_Source\PSoC4/CyLib.c **** *
 383:.\Generated_Source\PSoC4/CyLib.c **** * Parameters:
 384:.\Generated_Source\PSoC4/CyLib.c **** *  None
 385:.\Generated_Source\PSoC4/CyLib.c **** *
 386:.\Generated_Source\PSoC4/CyLib.c **** * Return:
 387:.\Generated_Source\PSoC4/CyLib.c **** *  None
 388:.\Generated_Source\PSoC4/CyLib.c **** *
 389:.\Generated_Source\PSoC4/CyLib.c **** * Side effects:
 390:.\Generated_Source\PSoC4/CyLib.c **** *  This API enables ILO, if it was disabled.
 391:.\Generated_Source\PSoC4/CyLib.c **** *
 392:.\Generated_Source\PSoC4/CyLib.c **** *******************************************************************************/
 393:.\Generated_Source\PSoC4/CyLib.c **** void CySysWdtUnlock(void)
 394:.\Generated_Source\PSoC4/CyLib.c **** {
 395:.\Generated_Source\PSoC4/CyLib.c ****     uint8 interruptState;
 396:.\Generated_Source\PSoC4/CyLib.c ****     interruptState = CyEnterCriticalSection();
 397:.\Generated_Source\PSoC4/CyLib.c **** 
 398:.\Generated_Source\PSoC4/CyLib.c ****     /* Configuring the WDT involves passing control signals between clock domains,
 399:.\Generated_Source\PSoC4/CyLib.c ****     * which requires the ILO to be enabled.
 400:.\Generated_Source\PSoC4/CyLib.c ****     */
 401:.\Generated_Source\PSoC4/CyLib.c ****     if (0u == (CY_SYS_CLK_ILO_CONFIG_REG & CY_SYS_CLK_ILO_CONFIG_ENABLE))
 402:.\Generated_Source\PSoC4/CyLib.c ****     {
 403:.\Generated_Source\PSoC4/CyLib.c ****         CySysClkIloStart();
 404:.\Generated_Source\PSoC4/CyLib.c ****     }
 405:.\Generated_Source\PSoC4/CyLib.c **** 
 406:.\Generated_Source\PSoC4/CyLib.c ****     /* Removing WDT lock requires two writes */
 407:.\Generated_Source\PSoC4/CyLib.c ****     CY_SYS_CLK_SELECT_REG = ((CY_SYS_CLK_SELECT_REG & (uint32)(~CY_SYS_WDT_CLK_LOCK_BITS_MASK)) |
 408:.\Generated_Source\PSoC4/CyLib.c ****             CY_SYS_WDT_CLK_LOCK_BIT0);
ARM GAS  C:\Users\kees\AppData\Local\Temp\ccxzCKRQ.s 			page 12


 409:.\Generated_Source\PSoC4/CyLib.c **** 
 410:.\Generated_Source\PSoC4/CyLib.c ****     CY_SYS_CLK_SELECT_REG = ((CY_SYS_CLK_SELECT_REG & (uint32)(~CY_SYS_WDT_CLK_LOCK_BITS_MASK)) |
 411:.\Generated_Source\PSoC4/CyLib.c ****             CY_SYS_WDT_CLK_LOCK_BIT1);
 412:.\Generated_Source\PSoC4/CyLib.c **** 
 413:.\Generated_Source\PSoC4/CyLib.c ****     CyExitCriticalSection(interruptState);
 414:.\Generated_Source\PSoC4/CyLib.c **** }
 415:.\Generated_Source\PSoC4/CyLib.c **** 
 416:.\Generated_Source\PSoC4/CyLib.c **** 
 417:.\Generated_Source\PSoC4/CyLib.c **** /*******************************************************************************
 418:.\Generated_Source\PSoC4/CyLib.c **** * Function Name: CySysWdtReadEnabledStatus
 419:.\Generated_Source\PSoC4/CyLib.c **** ********************************************************************************
 420:.\Generated_Source\PSoC4/CyLib.c **** *
 421:.\Generated_Source\PSoC4/CyLib.c **** * Summary:
 422:.\Generated_Source\PSoC4/CyLib.c **** *  Reads the enabled staus of one of the three WDT counters.
 423:.\Generated_Source\PSoC4/CyLib.c **** *
 424:.\Generated_Source\PSoC4/CyLib.c **** * Parameters:
 425:.\Generated_Source\PSoC4/CyLib.c **** *  counterNum: Valid range [0-2].  Number of the WDT counter.
 426:.\Generated_Source\PSoC4/CyLib.c **** *
 427:.\Generated_Source\PSoC4/CyLib.c **** * Return:
 428:.\Generated_Source\PSoC4/CyLib.c **** *  Status of WDT counter:
 429:.\Generated_Source\PSoC4/CyLib.c **** *   0 - counter is disabled
 430:.\Generated_Source\PSoC4/CyLib.c **** *   1 - counter is enabled
 431:.\Generated_Source\PSoC4/CyLib.c **** *
 432:.\Generated_Source\PSoC4/CyLib.c **** * Side Effects:
 433:.\Generated_Source\PSoC4/CyLib.c **** *  This API returns actual WDT counter status from status register.
 434:.\Generated_Source\PSoC4/CyLib.c **** *  It may take up to 3 LFCLK cycles since WDT counter was enabled for WDT status
 435:.\Generated_Source\PSoC4/CyLib.c **** *  register to contain actual data.
 436:.\Generated_Source\PSoC4/CyLib.c **** *
 437:.\Generated_Source\PSoC4/CyLib.c **** *******************************************************************************/
 438:.\Generated_Source\PSoC4/CyLib.c **** uint32 CySysWdtReadEnabledStatus(uint32 counterNum)
 439:.\Generated_Source\PSoC4/CyLib.c **** {
 440:.\Generated_Source\PSoC4/CyLib.c ****     CYASSERT(counterNum < CY_SYS_WDT_COUNTERS_MAX);
 441:.\Generated_Source\PSoC4/CyLib.c **** 
 442:.\Generated_Source\PSoC4/CyLib.c ****     return ((CY_SYS_WDT_CONTROL_REG >> ((CY_SYS_WDT_CNT_SHIFT * counterNum) + CY_SYS_WDT_CNT_STTS_S
 443:.\Generated_Source\PSoC4/CyLib.c **** }
 444:.\Generated_Source\PSoC4/CyLib.c **** 
 445:.\Generated_Source\PSoC4/CyLib.c **** 
 446:.\Generated_Source\PSoC4/CyLib.c **** /*******************************************************************************
 447:.\Generated_Source\PSoC4/CyLib.c **** * Function Name: CySysWdtWriteMode
 448:.\Generated_Source\PSoC4/CyLib.c **** ********************************************************************************
 449:.\Generated_Source\PSoC4/CyLib.c **** *
 450:.\Generated_Source\PSoC4/CyLib.c **** * Summary:
 451:.\Generated_Source\PSoC4/CyLib.c **** *   Writes the mode of one of the three WDT counters.
 452:.\Generated_Source\PSoC4/CyLib.c **** *
 453:.\Generated_Source\PSoC4/CyLib.c **** * Parameters:
 454:.\Generated_Source\PSoC4/CyLib.c **** *   counterNum: Valid range [0-2].  Number of the WDT counter.
 455:.\Generated_Source\PSoC4/CyLib.c **** *   mode:       Mode of operation for the counter
 456:.\Generated_Source\PSoC4/CyLib.c **** *   Value    Define                   Mode
 457:.\Generated_Source\PSoC4/CyLib.c **** *   0     CY_SYS_WDT_MODE_NONE       Free running
 458:.\Generated_Source\PSoC4/CyLib.c **** *   1     CY_SYS_WDT_MODE_INT        Interrupt generated on match for counter 0
 459:.\Generated_Source\PSoC4/CyLib.c **** *                                    and 1, and on bit toggle for counter 2.
 460:.\Generated_Source\PSoC4/CyLib.c **** *   2     CY_SYS_WDT_MODE_RESET      Reset on match (valid for counter 0 and 1
 461:.\Generated_Source\PSoC4/CyLib.c **** *                                    only)
 462:.\Generated_Source\PSoC4/CyLib.c **** *   3     CY_SYS_WDT_MODE_INT_RESET  Generate an interrupt.  Generate a reset on
 463:.\Generated_Source\PSoC4/CyLib.c **** *                                    the 3rd unhandled interrupt.
 464:.\Generated_Source\PSoC4/CyLib.c **** *                                    (valid for counter 0 and 1 only)
 465:.\Generated_Source\PSoC4/CyLib.c **** * Return:
ARM GAS  C:\Users\kees\AppData\Local\Temp\ccxzCKRQ.s 			page 13


 466:.\Generated_Source\PSoC4/CyLib.c **** *   None
 467:.\Generated_Source\PSoC4/CyLib.c **** *
 468:.\Generated_Source\PSoC4/CyLib.c **** * Side Effects:
 469:.\Generated_Source\PSoC4/CyLib.c **** *   WDT counter counterNum should be disabled to set mode. Othetwise function
 470:.\Generated_Source\PSoC4/CyLib.c **** *   call will have no effect.
 471:.\Generated_Source\PSoC4/CyLib.c **** *   This API enables ILO, if it was disabled.
 472:.\Generated_Source\PSoC4/CyLib.c **** *
 473:.\Generated_Source\PSoC4/CyLib.c **** *******************************************************************************/
 474:.\Generated_Source\PSoC4/CyLib.c **** void CySysWdtWriteMode(uint32 counterNum, uint32 mode)
 475:.\Generated_Source\PSoC4/CyLib.c **** {
 476:.\Generated_Source\PSoC4/CyLib.c ****     uint32 configRegValue;
 477:.\Generated_Source\PSoC4/CyLib.c **** 
 478:.\Generated_Source\PSoC4/CyLib.c ****     CYASSERT(counterNum < CY_SYS_WDT_COUNTERS_MAX);
 479:.\Generated_Source\PSoC4/CyLib.c **** 
 480:.\Generated_Source\PSoC4/CyLib.c ****     /* Configuring the WDT involves passing control signals between clock domains,
 481:.\Generated_Source\PSoC4/CyLib.c ****     * which requires the ILO to be enabled.
 482:.\Generated_Source\PSoC4/CyLib.c ****     */
 483:.\Generated_Source\PSoC4/CyLib.c ****     if (0u == (CY_SYS_CLK_ILO_CONFIG_REG & CY_SYS_CLK_ILO_CONFIG_ENABLE))
 484:.\Generated_Source\PSoC4/CyLib.c ****     {
 485:.\Generated_Source\PSoC4/CyLib.c ****         CySysClkIloStart();
 486:.\Generated_Source\PSoC4/CyLib.c ****     }
 487:.\Generated_Source\PSoC4/CyLib.c **** 
 488:.\Generated_Source\PSoC4/CyLib.c ****     if(0u == CySysWdtReadEnabledStatus(counterNum))
 489:.\Generated_Source\PSoC4/CyLib.c ****     {
 490:.\Generated_Source\PSoC4/CyLib.c ****         configRegValue = CY_SYS_WDT_CONFIG_REG &
 491:.\Generated_Source\PSoC4/CyLib.c ****                             (uint32)~((uint32)(CY_SYS_WDT_MODE_MASK << (counterNum * CY_SYS_WDT_CNT
 492:.\Generated_Source\PSoC4/CyLib.c ****         configRegValue |= (uint32)((mode & CY_SYS_WDT_MODE_MASK) << (counterNum * CY_SYS_WDT_CNT_SH
 493:.\Generated_Source\PSoC4/CyLib.c ****         CY_SYS_WDT_CONFIG_REG = configRegValue;
 494:.\Generated_Source\PSoC4/CyLib.c ****     }
 495:.\Generated_Source\PSoC4/CyLib.c **** }
 496:.\Generated_Source\PSoC4/CyLib.c **** 
 497:.\Generated_Source\PSoC4/CyLib.c **** 
 498:.\Generated_Source\PSoC4/CyLib.c **** /*******************************************************************************
 499:.\Generated_Source\PSoC4/CyLib.c **** * Function Name: CySysWdtReadMode
 500:.\Generated_Source\PSoC4/CyLib.c **** ********************************************************************************
 501:.\Generated_Source\PSoC4/CyLib.c **** *
 502:.\Generated_Source\PSoC4/CyLib.c **** * Summary:
 503:.\Generated_Source\PSoC4/CyLib.c **** *  Reads the mode of one of the three WDT counters.
 504:.\Generated_Source\PSoC4/CyLib.c **** *
 505:.\Generated_Source\PSoC4/CyLib.c **** * Parameters:
 506:.\Generated_Source\PSoC4/CyLib.c **** *  counterNum: Valid range [0-2].  Number of the WDT counter.
 507:.\Generated_Source\PSoC4/CyLib.c **** *
 508:.\Generated_Source\PSoC4/CyLib.c **** * Return:
 509:.\Generated_Source\PSoC4/CyLib.c **** *  Mode of the counter.  Same enumerated values as mode parameter used in
 510:.\Generated_Source\PSoC4/CyLib.c **** *  CySysWdtWriteMode().
 511:.\Generated_Source\PSoC4/CyLib.c **** *
 512:.\Generated_Source\PSoC4/CyLib.c **** *******************************************************************************/
 513:.\Generated_Source\PSoC4/CyLib.c **** uint32 CySysWdtReadMode(uint32 counterNum)
 514:.\Generated_Source\PSoC4/CyLib.c **** {
 216              		.loc 1 514 0
 217              		.cfi_startproc
 218              	.LVL4:
 515:.\Generated_Source\PSoC4/CyLib.c ****     return ((CY_SYS_WDT_CONFIG_REG >> (counterNum * CY_SYS_WDT_CNT_SHIFT)) & CY_SYS_WDT_MODE_MASK);
 219              		.loc 1 515 0
 220 0000 034B     		ldr	r3, .L27
 221 0002 C000     		lsl	r0, r0, #3
 222              	.LVL5:
ARM GAS  C:\Users\kees\AppData\Local\Temp\ccxzCKRQ.s 			page 14


 223 0004 1B68     		ldr	r3, [r3]
 516:.\Generated_Source\PSoC4/CyLib.c **** }
 224              		.loc 1 516 0
 225              		@ sp needed for prologue
 226              		.loc 1 515 0
 227 0006 C340     		lsr	r3, r3, r0
 228 0008 181C     		mov	r0, r3
 229 000a 0323     		mov	r3, #3
 230 000c 1840     		and	r0, r0, r3
 231              		.loc 1 516 0
 232 000e 7047     		bx	lr
 233              	.L28:
 234              		.align	2
 235              	.L27:
 236 0010 0C020B40 		.word	1074463244
 237              		.cfi_endproc
 238              	.LFE11:
 239              		.size	CySysWdtReadMode, .-CySysWdtReadMode
 240              		.section	.text.CySysWdtEnable,"ax",%progbits
 241              		.align	1
 242              		.global	CySysWdtEnable
 243              		.code	16
 244              		.thumb_func
 245              		.type	CySysWdtEnable, %function
 246              	CySysWdtEnable:
 247              	.LFB14:
 517:.\Generated_Source\PSoC4/CyLib.c **** 
 518:.\Generated_Source\PSoC4/CyLib.c **** 
 519:.\Generated_Source\PSoC4/CyLib.c **** /*******************************************************************************
 520:.\Generated_Source\PSoC4/CyLib.c **** * Function Name: CySysWdtWriteClearOnMatch
 521:.\Generated_Source\PSoC4/CyLib.c **** ********************************************************************************
 522:.\Generated_Source\PSoC4/CyLib.c **** *
 523:.\Generated_Source\PSoC4/CyLib.c **** * Summary:
 524:.\Generated_Source\PSoC4/CyLib.c **** *  Configures the WDT counter clear on a match setting.  If configured to clear
 525:.\Generated_Source\PSoC4/CyLib.c **** *  on match the counter will count from 0 to the MatchValue giving it a
 526:.\Generated_Source\PSoC4/CyLib.c **** *  period of (MatchValue + 1).
 527:.\Generated_Source\PSoC4/CyLib.c **** *
 528:.\Generated_Source\PSoC4/CyLib.c **** * Parameters:
 529:.\Generated_Source\PSoC4/CyLib.c **** *  counterNum:
 530:.\Generated_Source\PSoC4/CyLib.c **** *   Valid range [0-1].  Number of the WDT counter.  Match values are not
 531:.\Generated_Source\PSoC4/CyLib.c **** *   supported by counter 2.
 532:.\Generated_Source\PSoC4/CyLib.c **** *
 533:.\Generated_Source\PSoC4/CyLib.c **** * enable:
 534:.\Generated_Source\PSoC4/CyLib.c **** *   0 to disable, 1 to enable
 535:.\Generated_Source\PSoC4/CyLib.c **** *
 536:.\Generated_Source\PSoC4/CyLib.c **** * Return:
 537:.\Generated_Source\PSoC4/CyLib.c **** *   None
 538:.\Generated_Source\PSoC4/CyLib.c **** *
 539:.\Generated_Source\PSoC4/CyLib.c **** * Side Effects:
 540:.\Generated_Source\PSoC4/CyLib.c **** *   WDT counter counterNum should be disabled. Othetwise function
 541:.\Generated_Source\PSoC4/CyLib.c **** *   call will have no effect.
 542:.\Generated_Source\PSoC4/CyLib.c **** *   This API enables ILO, if it was disabled.
 543:.\Generated_Source\PSoC4/CyLib.c **** *
 544:.\Generated_Source\PSoC4/CyLib.c **** *
 545:.\Generated_Source\PSoC4/CyLib.c **** *******************************************************************************/
 546:.\Generated_Source\PSoC4/CyLib.c **** void CySysWdtWriteClearOnMatch(uint32 counterNum, uint32 enable)
 547:.\Generated_Source\PSoC4/CyLib.c **** {
ARM GAS  C:\Users\kees\AppData\Local\Temp\ccxzCKRQ.s 			page 15


 548:.\Generated_Source\PSoC4/CyLib.c ****     CYASSERT((counterNum == CY_SYS_WDT_COUNTER0) ||
 549:.\Generated_Source\PSoC4/CyLib.c ****                                          (counterNum == CY_SYS_WDT_COUNTER1));
 550:.\Generated_Source\PSoC4/CyLib.c **** 
 551:.\Generated_Source\PSoC4/CyLib.c ****     /* Configuring the WDT involves passing control signals between clock domains,
 552:.\Generated_Source\PSoC4/CyLib.c ****     * which requires the ILO to be enabled.
 553:.\Generated_Source\PSoC4/CyLib.c ****     */
 554:.\Generated_Source\PSoC4/CyLib.c ****     if (0u == (CY_SYS_CLK_ILO_CONFIG_REG & CY_SYS_CLK_ILO_CONFIG_ENABLE))
 555:.\Generated_Source\PSoC4/CyLib.c ****     {
 556:.\Generated_Source\PSoC4/CyLib.c ****         CySysClkIloStart();
 557:.\Generated_Source\PSoC4/CyLib.c ****     }
 558:.\Generated_Source\PSoC4/CyLib.c **** 
 559:.\Generated_Source\PSoC4/CyLib.c ****     if(0u == CySysWdtReadEnabledStatus(counterNum))
 560:.\Generated_Source\PSoC4/CyLib.c ****     {
 561:.\Generated_Source\PSoC4/CyLib.c ****         CY_SYS_WDT_CONFIG_REG |= (uint32)(enable << ((counterNum * CY_SYS_WDT_CNT_SHIFT) +
 562:.\Generated_Source\PSoC4/CyLib.c ****                                                         CY_SYS_WDT_CNT_MATCH_CLR_SHIFT));
 563:.\Generated_Source\PSoC4/CyLib.c ****     }
 564:.\Generated_Source\PSoC4/CyLib.c **** }
 565:.\Generated_Source\PSoC4/CyLib.c **** 
 566:.\Generated_Source\PSoC4/CyLib.c **** 
 567:.\Generated_Source\PSoC4/CyLib.c **** /*******************************************************************************
 568:.\Generated_Source\PSoC4/CyLib.c **** * Function Name: CySysWdtReadClearOnMatch
 569:.\Generated_Source\PSoC4/CyLib.c **** ********************************************************************************
 570:.\Generated_Source\PSoC4/CyLib.c **** *
 571:.\Generated_Source\PSoC4/CyLib.c **** * Summary:
 572:.\Generated_Source\PSoC4/CyLib.c **** *  Reads the clear on match setting for the specified counter.
 573:.\Generated_Source\PSoC4/CyLib.c **** *
 574:.\Generated_Source\PSoC4/CyLib.c **** * Parameters:
 575:.\Generated_Source\PSoC4/CyLib.c **** *   counterNum: Valid range [0-1].  Number of the WDT counter.  Match values are
 576:.\Generated_Source\PSoC4/CyLib.c **** *               not supported by counter 2.
 577:.\Generated_Source\PSoC4/CyLib.c **** *
 578:.\Generated_Source\PSoC4/CyLib.c **** * Return:
 579:.\Generated_Source\PSoC4/CyLib.c **** *   Clear on Match status: 1 if enabled, 0 if disabled
 580:.\Generated_Source\PSoC4/CyLib.c **** *
 581:.\Generated_Source\PSoC4/CyLib.c **** *******************************************************************************/
 582:.\Generated_Source\PSoC4/CyLib.c **** uint32 CySysWdtReadClearOnMatch(uint32 counterNum)
 583:.\Generated_Source\PSoC4/CyLib.c **** {
 584:.\Generated_Source\PSoC4/CyLib.c ****     CYASSERT((counterNum == CY_SYS_WDT_COUNTER0) ||
 585:.\Generated_Source\PSoC4/CyLib.c ****                                          (counterNum == CY_SYS_WDT_COUNTER1));
 586:.\Generated_Source\PSoC4/CyLib.c **** 
 587:.\Generated_Source\PSoC4/CyLib.c ****     return (uint32)((CY_SYS_WDT_CONFIG_REG >>
 588:.\Generated_Source\PSoC4/CyLib.c ****                         ((counterNum * CY_SYS_WDT_CNT_SHIFT) + CY_SYS_WDT_CNT_MATCH_CLR_SHIFT)) & 0
 589:.\Generated_Source\PSoC4/CyLib.c **** }
 590:.\Generated_Source\PSoC4/CyLib.c **** 
 591:.\Generated_Source\PSoC4/CyLib.c **** 
 592:.\Generated_Source\PSoC4/CyLib.c **** /*******************************************************************************
 593:.\Generated_Source\PSoC4/CyLib.c **** * Function Name: CySysWdtEnable
 594:.\Generated_Source\PSoC4/CyLib.c **** ********************************************************************************
 595:.\Generated_Source\PSoC4/CyLib.c **** *
 596:.\Generated_Source\PSoC4/CyLib.c **** * Summary:
 597:.\Generated_Source\PSoC4/CyLib.c **** *  Enables the specified WDT counters.  All counters specified in the mask are
 598:.\Generated_Source\PSoC4/CyLib.c **** *  enabled.
 599:.\Generated_Source\PSoC4/CyLib.c **** *
 600:.\Generated_Source\PSoC4/CyLib.c **** * Parameters:
 601:.\Generated_Source\PSoC4/CyLib.c **** *  counterMask: Mask of all counters to enable
 602:.\Generated_Source\PSoC4/CyLib.c **** *      Value    Define                       Counter
 603:.\Generated_Source\PSoC4/CyLib.c **** *      1<<0    CY_SYS_WDT_COUNTER0_MASK      0
 604:.\Generated_Source\PSoC4/CyLib.c **** *      1<<8    CY_SYS_WDT_COUNTER1_MASK      1
ARM GAS  C:\Users\kees\AppData\Local\Temp\ccxzCKRQ.s 			page 16


 605:.\Generated_Source\PSoC4/CyLib.c **** *      1<<16   CY_SYS_WDT_COUNTER2_MASK      2
 606:.\Generated_Source\PSoC4/CyLib.c **** *
 607:.\Generated_Source\PSoC4/CyLib.c **** * Return:
 608:.\Generated_Source\PSoC4/CyLib.c **** *  None
 609:.\Generated_Source\PSoC4/CyLib.c **** *
 610:.\Generated_Source\PSoC4/CyLib.c **** * Side Effects:
 611:.\Generated_Source\PSoC4/CyLib.c **** *  Enabling or disabling a WDT requires 3 LF Clock cycles to come into effect.
 612:.\Generated_Source\PSoC4/CyLib.c **** *  This API enables ILO, if it was disabled.
 613:.\Generated_Source\PSoC4/CyLib.c **** *
 614:.\Generated_Source\PSoC4/CyLib.c **** *******************************************************************************/
 615:.\Generated_Source\PSoC4/CyLib.c **** void CySysWdtEnable(uint32 counterMask)
 616:.\Generated_Source\PSoC4/CyLib.c **** {
 248              		.loc 1 616 0
 249              		.cfi_startproc
 250 0000 10B5     		push	{r4, lr}
 251              	.LCFI1:
 252              		.cfi_def_cfa_offset 8
 253              		.cfi_offset 4, -8
 254              		.cfi_offset 14, -4
 255              	.LVL6:
 617:.\Generated_Source\PSoC4/CyLib.c ****     /* Configuring the WDT involves passing control signals between clock domains,
 618:.\Generated_Source\PSoC4/CyLib.c ****     * which requires the ILO to be enabled.
 619:.\Generated_Source\PSoC4/CyLib.c ****     */
 620:.\Generated_Source\PSoC4/CyLib.c ****     if (0u == (CY_SYS_CLK_ILO_CONFIG_REG & CY_SYS_CLK_ILO_CONFIG_ENABLE))
 256              		.loc 1 620 0
 257 0002 064B     		ldr	r3, .L33
 258              		.loc 1 616 0
 259 0004 041C     		mov	r4, r0
 260              		.loc 1 620 0
 261 0006 1B68     		ldr	r3, [r3]
 262 0008 002B     		cmp	r3, #0
 263 000a 01DB     		blt	.L30
 264              	.LVL7:
 621:.\Generated_Source\PSoC4/CyLib.c ****     {
 622:.\Generated_Source\PSoC4/CyLib.c ****         CySysClkIloStart();
 265              		.loc 1 622 0
 266 000c FFF7FEFF 		bl	CySysClkIloStart
 267              	.LVL8:
 268              	.L30:
 623:.\Generated_Source\PSoC4/CyLib.c ****     }
 624:.\Generated_Source\PSoC4/CyLib.c **** 
 625:.\Generated_Source\PSoC4/CyLib.c ****     CY_SYS_WDT_CONTROL_REG |= counterMask;
 269              		.loc 1 625 0
 270 0010 034B     		ldr	r3, .L33+4
 626:.\Generated_Source\PSoC4/CyLib.c **** }
 271              		.loc 1 626 0
 272              		@ sp needed for prologue
 273              		.loc 1 625 0
 274 0012 1A68     		ldr	r2, [r3]
 275 0014 1443     		orr	r4, r4, r2
 276              	.LVL9:
 277 0016 1C60     		str	r4, [r3]
 278              		.loc 1 626 0
 279 0018 10BD     		pop	{r4, pc}
 280              	.L34:
 281 001a C046     		.align	2
 282              	.L33:
ARM GAS  C:\Users\kees\AppData\Local\Temp\ccxzCKRQ.s 			page 17


 283 001c 04010B40 		.word	1074462980
 284 0020 10020B40 		.word	1074463248
 285              		.cfi_endproc
 286              	.LFE14:
 287              		.size	CySysWdtEnable, .-CySysWdtEnable
 288              		.section	.text.CySysWdtDisable,"ax",%progbits
 289              		.align	1
 290              		.global	CySysWdtDisable
 291              		.code	16
 292              		.thumb_func
 293              		.type	CySysWdtDisable, %function
 294              	CySysWdtDisable:
 295              	.LFB15:
 627:.\Generated_Source\PSoC4/CyLib.c **** 
 628:.\Generated_Source\PSoC4/CyLib.c **** 
 629:.\Generated_Source\PSoC4/CyLib.c **** /*******************************************************************************
 630:.\Generated_Source\PSoC4/CyLib.c **** * Function Name: CySysWdtDisable
 631:.\Generated_Source\PSoC4/CyLib.c **** ********************************************************************************
 632:.\Generated_Source\PSoC4/CyLib.c **** *
 633:.\Generated_Source\PSoC4/CyLib.c **** * Summary:
 634:.\Generated_Source\PSoC4/CyLib.c **** *  Disables the specified WDT counters.  All counters specified in the mask are
 635:.\Generated_Source\PSoC4/CyLib.c **** *  disabled.
 636:.\Generated_Source\PSoC4/CyLib.c **** *
 637:.\Generated_Source\PSoC4/CyLib.c **** * Parameters:
 638:.\Generated_Source\PSoC4/CyLib.c **** *  uint32 counterMask: Mask of all counters to disable
 639:.\Generated_Source\PSoC4/CyLib.c **** *      Value    Define                       Counter
 640:.\Generated_Source\PSoC4/CyLib.c **** *      1<<0    CY_SYS_WDT_COUNTER0_MASK      0
 641:.\Generated_Source\PSoC4/CyLib.c **** *      1<<8    CY_SYS_WDT_COUNTER1_MASK      1
 642:.\Generated_Source\PSoC4/CyLib.c **** *      1<<16   CY_SYS_WDT_COUNTER2_MASK      2
 643:.\Generated_Source\PSoC4/CyLib.c **** *
 644:.\Generated_Source\PSoC4/CyLib.c **** * Return:
 645:.\Generated_Source\PSoC4/CyLib.c **** *   None
 646:.\Generated_Source\PSoC4/CyLib.c **** *
 647:.\Generated_Source\PSoC4/CyLib.c **** * Side Effects:
 648:.\Generated_Source\PSoC4/CyLib.c **** *  Enabling or disabling a WDT requires 3 LF Clock cycles to come into effect.
 649:.\Generated_Source\PSoC4/CyLib.c **** *  This API enables ILO, if it was disabled.
 650:.\Generated_Source\PSoC4/CyLib.c **** *
 651:.\Generated_Source\PSoC4/CyLib.c **** *******************************************************************************/
 652:.\Generated_Source\PSoC4/CyLib.c **** void CySysWdtDisable(uint32 counterMask)
 653:.\Generated_Source\PSoC4/CyLib.c **** {
 296              		.loc 1 653 0
 297              		.cfi_startproc
 298 0000 10B5     		push	{r4, lr}
 299              	.LCFI2:
 300              		.cfi_def_cfa_offset 8
 301              		.cfi_offset 4, -8
 302              		.cfi_offset 14, -4
 303              	.LVL10:
 654:.\Generated_Source\PSoC4/CyLib.c ****     /* Configuring the WDT involves passing control signals between clock domains,
 655:.\Generated_Source\PSoC4/CyLib.c ****     * which requires the ILO to be enabled.
 656:.\Generated_Source\PSoC4/CyLib.c ****     */
 657:.\Generated_Source\PSoC4/CyLib.c ****     if (0u == (CY_SYS_CLK_ILO_CONFIG_REG & CY_SYS_CLK_ILO_CONFIG_ENABLE))
 304              		.loc 1 657 0
 305 0002 064B     		ldr	r3, .L38
 306              		.loc 1 653 0
 307 0004 041C     		mov	r4, r0
 308              		.loc 1 657 0
ARM GAS  C:\Users\kees\AppData\Local\Temp\ccxzCKRQ.s 			page 18


 309 0006 1B68     		ldr	r3, [r3]
 310 0008 002B     		cmp	r3, #0
 311 000a 01DB     		blt	.L36
 312              	.LVL11:
 658:.\Generated_Source\PSoC4/CyLib.c ****     {
 659:.\Generated_Source\PSoC4/CyLib.c ****         CySysClkIloStart();
 313              		.loc 1 659 0
 314 000c FFF7FEFF 		bl	CySysClkIloStart
 315              	.LVL12:
 316              	.L36:
 660:.\Generated_Source\PSoC4/CyLib.c ****     }
 661:.\Generated_Source\PSoC4/CyLib.c **** 
 662:.\Generated_Source\PSoC4/CyLib.c ****     CY_SYS_WDT_CONTROL_REG &= ~counterMask;
 317              		.loc 1 662 0
 318 0010 034B     		ldr	r3, .L38+4
 663:.\Generated_Source\PSoC4/CyLib.c **** }
 319              		.loc 1 663 0
 320              		@ sp needed for prologue
 321              		.loc 1 662 0
 322 0012 1A68     		ldr	r2, [r3]
 323 0014 A243     		bic	r2, r2, r4
 324 0016 1A60     		str	r2, [r3]
 325              	.LVL13:
 326              		.loc 1 663 0
 327 0018 10BD     		pop	{r4, pc}
 328              	.L39:
 329 001a C046     		.align	2
 330              	.L38:
 331 001c 04010B40 		.word	1074462980
 332 0020 10020B40 		.word	1074463248
 333              		.cfi_endproc
 334              	.LFE15:
 335              		.size	CySysWdtDisable, .-CySysWdtDisable
 336              		.section	.text.CySysWdtReadCascade,"ax",%progbits
 337              		.align	1
 338              		.global	CySysWdtReadCascade
 339              		.code	16
 340              		.thumb_func
 341              		.type	CySysWdtReadCascade, %function
 342              	CySysWdtReadCascade:
 343              	.LFB17:
 664:.\Generated_Source\PSoC4/CyLib.c **** 
 665:.\Generated_Source\PSoC4/CyLib.c **** 
 666:.\Generated_Source\PSoC4/CyLib.c **** /*******************************************************************************
 667:.\Generated_Source\PSoC4/CyLib.c **** * Function Name: CySysWdtWriteCascade
 668:.\Generated_Source\PSoC4/CyLib.c **** ********************************************************************************
 669:.\Generated_Source\PSoC4/CyLib.c **** *
 670:.\Generated_Source\PSoC4/CyLib.c **** * Summary:
 671:.\Generated_Source\PSoC4/CyLib.c **** *   Writes the two WDT cascade values based on the combination of mask values
 672:.\Generated_Source\PSoC4/CyLib.c **** *   specified.
 673:.\Generated_Source\PSoC4/CyLib.c **** *
 674:.\Generated_Source\PSoC4/CyLib.c **** * Parameters:
 675:.\Generated_Source\PSoC4/CyLib.c **** *   cascadeMask: Mask value used to set or clear the cascade values.
 676:.\Generated_Source\PSoC4/CyLib.c **** *   Value    Define                     Cascade
 677:.\Generated_Source\PSoC4/CyLib.c **** *   0        CY_SYS_WDT_CASCADE_NONE    Neither
 678:.\Generated_Source\PSoC4/CyLib.c **** *   1<<3     CY_SYS_WDT_CASCADE_01      Cascade 01
 679:.\Generated_Source\PSoC4/CyLib.c **** *   1<<11    CY_SYS_WDT_CASCADE_12      Cascade 12
ARM GAS  C:\Users\kees\AppData\Local\Temp\ccxzCKRQ.s 			page 19


 680:.\Generated_Source\PSoC4/CyLib.c **** *
 681:.\Generated_Source\PSoC4/CyLib.c **** * Return:
 682:.\Generated_Source\PSoC4/CyLib.c **** *   None
 683:.\Generated_Source\PSoC4/CyLib.c **** *
 684:.\Generated_Source\PSoC4/CyLib.c **** * Side effects:
 685:.\Generated_Source\PSoC4/CyLib.c **** *   If only one cascasde mask is specified, the second cascade is disabled.
 686:.\Generated_Source\PSoC4/CyLib.c **** *   To set both cascade modes two defines should be ORed:
 687:.\Generated_Source\PSoC4/CyLib.c **** *    (CY_SYS_WDT_CASCADE_01 | CY_SYS_WDT_CASCADE_12)
 688:.\Generated_Source\PSoC4/CyLib.c **** *   This API enables ILO, if it was disabled.
 689:.\Generated_Source\PSoC4/CyLib.c **** *
 690:.\Generated_Source\PSoC4/CyLib.c **** *******************************************************************************/
 691:.\Generated_Source\PSoC4/CyLib.c **** void CySysWdtWriteCascade(uint32 cascadeMask)
 692:.\Generated_Source\PSoC4/CyLib.c **** {
 693:.\Generated_Source\PSoC4/CyLib.c ****     uint32 configRegValue;
 694:.\Generated_Source\PSoC4/CyLib.c ****     uint32 countersEnableStatus;
 695:.\Generated_Source\PSoC4/CyLib.c **** 
 696:.\Generated_Source\PSoC4/CyLib.c ****     countersEnableStatus = CySysWdtReadEnabledStatus(CY_SYS_WDT_COUNTER0) |
 697:.\Generated_Source\PSoC4/CyLib.c ****                         CySysWdtReadEnabledStatus(CY_SYS_WDT_COUNTER1) |
 698:.\Generated_Source\PSoC4/CyLib.c ****                         CySysWdtReadEnabledStatus(CY_SYS_WDT_COUNTER2);
 699:.\Generated_Source\PSoC4/CyLib.c **** 
 700:.\Generated_Source\PSoC4/CyLib.c ****     if (0u == countersEnableStatus)
 701:.\Generated_Source\PSoC4/CyLib.c ****     {
 702:.\Generated_Source\PSoC4/CyLib.c ****         /* Configuring the WDT involves passing control signals between clock domains,
 703:.\Generated_Source\PSoC4/CyLib.c ****         * which requires the ILO to be enabled.
 704:.\Generated_Source\PSoC4/CyLib.c ****         */
 705:.\Generated_Source\PSoC4/CyLib.c ****         if (0u == (CY_SYS_CLK_ILO_CONFIG_REG & CY_SYS_CLK_ILO_CONFIG_ENABLE))
 706:.\Generated_Source\PSoC4/CyLib.c ****         {
 707:.\Generated_Source\PSoC4/CyLib.c ****             CySysClkIloStart();
 708:.\Generated_Source\PSoC4/CyLib.c ****         }
 709:.\Generated_Source\PSoC4/CyLib.c **** 
 710:.\Generated_Source\PSoC4/CyLib.c ****         configRegValue = CY_SYS_WDT_CONFIG_REG;
 711:.\Generated_Source\PSoC4/CyLib.c ****         configRegValue &= ((uint32)(~(CY_SYS_WDT_CASCADE_01|CY_SYS_WDT_CASCADE_12)));
 712:.\Generated_Source\PSoC4/CyLib.c ****         configRegValue |= cascadeMask;
 713:.\Generated_Source\PSoC4/CyLib.c ****         CY_SYS_WDT_CONFIG_REG = configRegValue;
 714:.\Generated_Source\PSoC4/CyLib.c ****     }
 715:.\Generated_Source\PSoC4/CyLib.c **** }
 716:.\Generated_Source\PSoC4/CyLib.c **** 
 717:.\Generated_Source\PSoC4/CyLib.c **** 
 718:.\Generated_Source\PSoC4/CyLib.c **** /*******************************************************************************
 719:.\Generated_Source\PSoC4/CyLib.c **** * Function Name: CySysWdtReadCascade
 720:.\Generated_Source\PSoC4/CyLib.c **** ********************************************************************************
 721:.\Generated_Source\PSoC4/CyLib.c **** *
 722:.\Generated_Source\PSoC4/CyLib.c **** * Summary:
 723:.\Generated_Source\PSoC4/CyLib.c **** *   Reads the two WDT cascade values returning a mask of the bits set.
 724:.\Generated_Source\PSoC4/CyLib.c **** *
 725:.\Generated_Source\PSoC4/CyLib.c **** * Parameters:
 726:.\Generated_Source\PSoC4/CyLib.c **** *   None
 727:.\Generated_Source\PSoC4/CyLib.c **** *
 728:.\Generated_Source\PSoC4/CyLib.c **** * Return:
 729:.\Generated_Source\PSoC4/CyLib.c **** *   Mask of cascade values set.
 730:.\Generated_Source\PSoC4/CyLib.c **** *   Value    Define                     Cascade
 731:.\Generated_Source\PSoC4/CyLib.c **** *   0        CY_SYS_WDT_CASCADE_NONE    Neither
 732:.\Generated_Source\PSoC4/CyLib.c **** *   1<<3     CY_SYS_WDT_CASCADE_01      Cascade 01
 733:.\Generated_Source\PSoC4/CyLib.c **** *   1<<11    CY_SYS_WDT_CASCADE_12      Cascade 12
 734:.\Generated_Source\PSoC4/CyLib.c **** *
 735:.\Generated_Source\PSoC4/CyLib.c **** *******************************************************************************/
 736:.\Generated_Source\PSoC4/CyLib.c **** uint32 CySysWdtReadCascade(void)
ARM GAS  C:\Users\kees\AppData\Local\Temp\ccxzCKRQ.s 			page 20


 737:.\Generated_Source\PSoC4/CyLib.c **** {
 344              		.loc 1 737 0
 345              		.cfi_startproc
 738:.\Generated_Source\PSoC4/CyLib.c ****     return (CY_SYS_WDT_CONFIG_REG & (CY_SYS_WDT_CASCADE_01 | CY_SYS_WDT_CASCADE_12));
 346              		.loc 1 738 0
 347 0000 024B     		ldr	r3, .L42
 739:.\Generated_Source\PSoC4/CyLib.c **** }
 348              		.loc 1 739 0
 349              		@ sp needed for prologue
 350              		.loc 1 738 0
 351 0002 1868     		ldr	r0, [r3]
 352 0004 024B     		ldr	r3, .L42+4
 353 0006 1840     		and	r0, r0, r3
 354              		.loc 1 739 0
 355 0008 7047     		bx	lr
 356              	.L43:
 357 000a C046     		.align	2
 358              	.L42:
 359 000c 0C020B40 		.word	1074463244
 360 0010 08080000 		.word	2056
 361              		.cfi_endproc
 362              	.LFE17:
 363              		.size	CySysWdtReadCascade, .-CySysWdtReadCascade
 364              		.section	.text.CySysWdtReadToggleBit,"ax",%progbits
 365              		.align	1
 366              		.global	CySysWdtReadToggleBit
 367              		.code	16
 368              		.thumb_func
 369              		.type	CySysWdtReadToggleBit, %function
 370              	CySysWdtReadToggleBit:
 371              	.LFB20:
 740:.\Generated_Source\PSoC4/CyLib.c **** 
 741:.\Generated_Source\PSoC4/CyLib.c **** 
 742:.\Generated_Source\PSoC4/CyLib.c **** /*******************************************************************************
 743:.\Generated_Source\PSoC4/CyLib.c **** * Function Name: CySysWdtWriteMatch
 744:.\Generated_Source\PSoC4/CyLib.c **** ********************************************************************************
 745:.\Generated_Source\PSoC4/CyLib.c **** *
 746:.\Generated_Source\PSoC4/CyLib.c **** * Summary:
 747:.\Generated_Source\PSoC4/CyLib.c **** *  Configures the WDT counter match comparison value.
 748:.\Generated_Source\PSoC4/CyLib.c **** *
 749:.\Generated_Source\PSoC4/CyLib.c **** * Parameters:
 750:.\Generated_Source\PSoC4/CyLib.c **** *  counterNum:
 751:.\Generated_Source\PSoC4/CyLib.c **** *   Valid range [0-1]. Number of the WDT counter. Match values are not
 752:.\Generated_Source\PSoC4/CyLib.c **** *   supported by counter 2.
 753:.\Generated_Source\PSoC4/CyLib.c **** *
 754:.\Generated_Source\PSoC4/CyLib.c **** *  match:
 755:.\Generated_Source\PSoC4/CyLib.c **** *   Valid range [0-65535]. Value to be used to match against the counter.
 756:.\Generated_Source\PSoC4/CyLib.c **** *
 757:.\Generated_Source\PSoC4/CyLib.c **** * Return:
 758:.\Generated_Source\PSoC4/CyLib.c **** *   None
 759:.\Generated_Source\PSoC4/CyLib.c **** *
 760:.\Generated_Source\PSoC4/CyLib.c **** * Side effects:
 761:.\Generated_Source\PSoC4/CyLib.c **** *   This API enables ILO, if it was disabled.
 762:.\Generated_Source\PSoC4/CyLib.c **** *
 763:.\Generated_Source\PSoC4/CyLib.c **** *******************************************************************************/
 764:.\Generated_Source\PSoC4/CyLib.c **** void CySysWdtWriteMatch(uint32 counterNum, uint32 match)
 765:.\Generated_Source\PSoC4/CyLib.c **** {
ARM GAS  C:\Users\kees\AppData\Local\Temp\ccxzCKRQ.s 			page 21


 766:.\Generated_Source\PSoC4/CyLib.c ****     uint32 regValue;
 767:.\Generated_Source\PSoC4/CyLib.c **** 
 768:.\Generated_Source\PSoC4/CyLib.c ****     CYASSERT((counterNum == CY_SYS_WDT_COUNTER0) ||
 769:.\Generated_Source\PSoC4/CyLib.c ****                                          (counterNum == CY_SYS_WDT_COUNTER1));
 770:.\Generated_Source\PSoC4/CyLib.c **** 
 771:.\Generated_Source\PSoC4/CyLib.c ****     /* Configuring the WDT involves passing control signals between clock domains,
 772:.\Generated_Source\PSoC4/CyLib.c ****     * which requires the ILO to be enabled.
 773:.\Generated_Source\PSoC4/CyLib.c ****     */
 774:.\Generated_Source\PSoC4/CyLib.c ****     if (0u == (CY_SYS_CLK_ILO_CONFIG_REG & CY_SYS_CLK_ILO_CONFIG_ENABLE))
 775:.\Generated_Source\PSoC4/CyLib.c ****     {
 776:.\Generated_Source\PSoC4/CyLib.c ****         CySysClkIloStart();
 777:.\Generated_Source\PSoC4/CyLib.c ****     }
 778:.\Generated_Source\PSoC4/CyLib.c **** 
 779:.\Generated_Source\PSoC4/CyLib.c ****     /* Delay ~ 3LFCK in order to male sure previos changes are applied */
 780:.\Generated_Source\PSoC4/CyLib.c ****     CyDelayUs(CY_SYS_WDT_3LFCLK_DELAY_US);
 781:.\Generated_Source\PSoC4/CyLib.c **** 
 782:.\Generated_Source\PSoC4/CyLib.c ****     regValue = CY_SYS_WDT_MATCH_REG;
 783:.\Generated_Source\PSoC4/CyLib.c ****     regValue &= (uint32)~((uint32)(CY_SYS_WDT_LOWER_16BITS_MASK << (counterNum * CY_SYS_WDT_CNT_MAT
 784:.\Generated_Source\PSoC4/CyLib.c ****     CY_SYS_WDT_MATCH_REG = (regValue | (match << (counterNum * CY_SYS_WDT_CNT_MATCH_SHIFT)));
 785:.\Generated_Source\PSoC4/CyLib.c **** }
 786:.\Generated_Source\PSoC4/CyLib.c **** 
 787:.\Generated_Source\PSoC4/CyLib.c **** 
 788:.\Generated_Source\PSoC4/CyLib.c **** /*******************************************************************************
 789:.\Generated_Source\PSoC4/CyLib.c **** * Function Name: CySysWdtWriteToggleBit
 790:.\Generated_Source\PSoC4/CyLib.c **** ********************************************************************************
 791:.\Generated_Source\PSoC4/CyLib.c **** *
 792:.\Generated_Source\PSoC4/CyLib.c **** * Summary:
 793:.\Generated_Source\PSoC4/CyLib.c **** *  Configures which bit in the WDT counter 2 to monitor for a toggle.  When that
 794:.\Generated_Source\PSoC4/CyLib.c **** *  bit toggles an interrupt is generated if the mode for counter 2 has
 795:.\Generated_Source\PSoC4/CyLib.c **** *  interrupts enabled.
 796:.\Generated_Source\PSoC4/CyLib.c **** *
 797:.\Generated_Source\PSoC4/CyLib.c **** * Parameters:
 798:.\Generated_Source\PSoC4/CyLib.c **** *  bit:
 799:.\Generated_Source\PSoC4/CyLib.c **** *   Valid range [0-31].  Counter 2 bit to monitor for a toggle.
 800:.\Generated_Source\PSoC4/CyLib.c **** *
 801:.\Generated_Source\PSoC4/CyLib.c **** * Return:
 802:.\Generated_Source\PSoC4/CyLib.c **** *   None
 803:.\Generated_Source\PSoC4/CyLib.c **** *
 804:.\Generated_Source\PSoC4/CyLib.c **** * Side effects:
 805:.\Generated_Source\PSoC4/CyLib.c **** *   WDT counter 2 should be disabled. Othetwise function
 806:.\Generated_Source\PSoC4/CyLib.c **** *   call will have no effect.
 807:.\Generated_Source\PSoC4/CyLib.c **** *   This API enables ILO, if it was disabled.
 808:.\Generated_Source\PSoC4/CyLib.c **** *
 809:.\Generated_Source\PSoC4/CyLib.c **** *******************************************************************************/
 810:.\Generated_Source\PSoC4/CyLib.c **** void CySysWdtWriteToggleBit(uint32 bits)
 811:.\Generated_Source\PSoC4/CyLib.c **** {
 812:.\Generated_Source\PSoC4/CyLib.c ****     uint32 configRegValue;
 813:.\Generated_Source\PSoC4/CyLib.c **** 
 814:.\Generated_Source\PSoC4/CyLib.c ****     if (0u == CySysWdtReadEnabledStatus(CY_SYS_WDT_COUNTER2))
 815:.\Generated_Source\PSoC4/CyLib.c ****     {
 816:.\Generated_Source\PSoC4/CyLib.c ****         /* Configuring the WDT involves passing control signals between clock domains,
 817:.\Generated_Source\PSoC4/CyLib.c ****         * which requires the ILO to be enabled.
 818:.\Generated_Source\PSoC4/CyLib.c ****         */
 819:.\Generated_Source\PSoC4/CyLib.c ****         if (0u == (CY_SYS_CLK_ILO_CONFIG_REG & CY_SYS_CLK_ILO_CONFIG_ENABLE))
 820:.\Generated_Source\PSoC4/CyLib.c ****         {
 821:.\Generated_Source\PSoC4/CyLib.c ****             CySysClkIloStart();
 822:.\Generated_Source\PSoC4/CyLib.c ****         }
ARM GAS  C:\Users\kees\AppData\Local\Temp\ccxzCKRQ.s 			page 22


 823:.\Generated_Source\PSoC4/CyLib.c **** 
 824:.\Generated_Source\PSoC4/CyLib.c ****         configRegValue = CY_SYS_WDT_CONFIG_REG;
 825:.\Generated_Source\PSoC4/CyLib.c ****         configRegValue &= (uint32)(~((uint32)(CY_SYS_WDT_CONFIG_BITS2_MASK << CY_SYS_WDT_CONFIG_BIT
 826:.\Generated_Source\PSoC4/CyLib.c ****         configRegValue |= ((bits & CY_SYS_WDT_CONFIG_BITS2_MASK) << CY_SYS_WDT_CONFIG_BITS2_POS);
 827:.\Generated_Source\PSoC4/CyLib.c ****         CY_SYS_WDT_CONFIG_REG = configRegValue;
 828:.\Generated_Source\PSoC4/CyLib.c ****     }
 829:.\Generated_Source\PSoC4/CyLib.c **** }
 830:.\Generated_Source\PSoC4/CyLib.c **** 
 831:.\Generated_Source\PSoC4/CyLib.c **** 
 832:.\Generated_Source\PSoC4/CyLib.c **** /*******************************************************************************
 833:.\Generated_Source\PSoC4/CyLib.c **** * Function Name: CySysWdtReadToggleBit
 834:.\Generated_Source\PSoC4/CyLib.c **** ********************************************************************************
 835:.\Generated_Source\PSoC4/CyLib.c **** *
 836:.\Generated_Source\PSoC4/CyLib.c **** * Summary:
 837:.\Generated_Source\PSoC4/CyLib.c **** *  Reads which bit in the WDT counter 2 is monitored for a toggle.
 838:.\Generated_Source\PSoC4/CyLib.c **** *
 839:.\Generated_Source\PSoC4/CyLib.c **** * Parameters:
 840:.\Generated_Source\PSoC4/CyLib.c **** *  None
 841:.\Generated_Source\PSoC4/CyLib.c **** *
 842:.\Generated_Source\PSoC4/CyLib.c **** * Return:
 843:.\Generated_Source\PSoC4/CyLib.c **** *  Bit that is monitored (range of 0 to 31)
 844:.\Generated_Source\PSoC4/CyLib.c **** *
 845:.\Generated_Source\PSoC4/CyLib.c **** *******************************************************************************/
 846:.\Generated_Source\PSoC4/CyLib.c **** uint32 CySysWdtReadToggleBit(void)
 847:.\Generated_Source\PSoC4/CyLib.c **** {
 372              		.loc 1 847 0
 373              		.cfi_startproc
 848:.\Generated_Source\PSoC4/CyLib.c ****     return ((CY_SYS_WDT_CONFIG_REG >> CY_SYS_WDT_CONFIG_BITS2_POS) & CY_SYS_WDT_CONFIG_BITS2_MASK);
 374              		.loc 1 848 0
 375 0000 024B     		ldr	r3, .L46
 849:.\Generated_Source\PSoC4/CyLib.c **** }
 376              		.loc 1 849 0
 377              		@ sp needed for prologue
 378              		.loc 1 848 0
 379 0002 1868     		ldr	r0, [r3]
 380 0004 C000     		lsl	r0, r0, #3
 381 0006 C00E     		lsr	r0, r0, #27
 382              		.loc 1 849 0
 383 0008 7047     		bx	lr
 384              	.L47:
 385 000a C046     		.align	2
 386              	.L46:
 387 000c 0C020B40 		.word	1074463244
 388              		.cfi_endproc
 389              	.LFE20:
 390              		.size	CySysWdtReadToggleBit, .-CySysWdtReadToggleBit
 391              		.section	.text.CySysWdtGetInterruptSource,"ax",%progbits
 392              		.align	1
 393              		.global	CySysWdtGetInterruptSource
 394              		.code	16
 395              		.thumb_func
 396              		.type	CySysWdtGetInterruptSource, %function
 397              	CySysWdtGetInterruptSource:
 398              	.LFB23:
 850:.\Generated_Source\PSoC4/CyLib.c **** 
 851:.\Generated_Source\PSoC4/CyLib.c **** 
 852:.\Generated_Source\PSoC4/CyLib.c **** /*******************************************************************************
ARM GAS  C:\Users\kees\AppData\Local\Temp\ccxzCKRQ.s 			page 23


 853:.\Generated_Source\PSoC4/CyLib.c **** * Function Name: CySysWdtReadMatch
 854:.\Generated_Source\PSoC4/CyLib.c **** ********************************************************************************
 855:.\Generated_Source\PSoC4/CyLib.c **** *
 856:.\Generated_Source\PSoC4/CyLib.c **** * Summary:
 857:.\Generated_Source\PSoC4/CyLib.c **** *  Reads the WDT counter match comparison value.
 858:.\Generated_Source\PSoC4/CyLib.c **** *
 859:.\Generated_Source\PSoC4/CyLib.c **** * Parameters:
 860:.\Generated_Source\PSoC4/CyLib.c **** *  counterNum: Valid range [0-1].  Number of the WDT counter.  Match values
 861:.\Generated_Source\PSoC4/CyLib.c **** *               are not supported by counter 2.
 862:.\Generated_Source\PSoC4/CyLib.c **** *
 863:.\Generated_Source\PSoC4/CyLib.c **** * Return:
 864:.\Generated_Source\PSoC4/CyLib.c **** *  Counter match value
 865:.\Generated_Source\PSoC4/CyLib.c **** *
 866:.\Generated_Source\PSoC4/CyLib.c **** *******************************************************************************/
 867:.\Generated_Source\PSoC4/CyLib.c **** uint32 CySysWdtReadMatch(uint32 counterNum)
 868:.\Generated_Source\PSoC4/CyLib.c **** {
 869:.\Generated_Source\PSoC4/CyLib.c ****     CYASSERT((counterNum == CY_SYS_WDT_COUNTER0) ||
 870:.\Generated_Source\PSoC4/CyLib.c ****                                          (counterNum == CY_SYS_WDT_COUNTER1));
 871:.\Generated_Source\PSoC4/CyLib.c **** 
 872:.\Generated_Source\PSoC4/CyLib.c ****     return ((uint32)(CY_SYS_WDT_MATCH_REG >> (counterNum * CY_SYS_WDT_CNT_MATCH_SHIFT)) & CY_SYS_WD
 873:.\Generated_Source\PSoC4/CyLib.c **** }
 874:.\Generated_Source\PSoC4/CyLib.c **** 
 875:.\Generated_Source\PSoC4/CyLib.c **** 
 876:.\Generated_Source\PSoC4/CyLib.c **** /*******************************************************************************
 877:.\Generated_Source\PSoC4/CyLib.c **** * Function Name: CySysWdtReadCount
 878:.\Generated_Source\PSoC4/CyLib.c **** ********************************************************************************
 879:.\Generated_Source\PSoC4/CyLib.c **** *
 880:.\Generated_Source\PSoC4/CyLib.c **** * Summary:
 881:.\Generated_Source\PSoC4/CyLib.c **** *  Reads the current WDT counter value.
 882:.\Generated_Source\PSoC4/CyLib.c **** *
 883:.\Generated_Source\PSoC4/CyLib.c **** * Parameters:
 884:.\Generated_Source\PSoC4/CyLib.c **** *  counterNum: Valid range [0-2].  Number of the WDT counter.
 885:.\Generated_Source\PSoC4/CyLib.c **** *
 886:.\Generated_Source\PSoC4/CyLib.c **** * Return:
 887:.\Generated_Source\PSoC4/CyLib.c **** *  Live counter value.  Counter 0 and 1 are 16 bit counters and counter
 888:.\Generated_Source\PSoC4/CyLib.c **** *  2 is a 32 bit counter.
 889:.\Generated_Source\PSoC4/CyLib.c **** *
 890:.\Generated_Source\PSoC4/CyLib.c **** *******************************************************************************/
 891:.\Generated_Source\PSoC4/CyLib.c **** uint32 CySysWdtReadCount(uint32 counterNum)
 892:.\Generated_Source\PSoC4/CyLib.c **** {
 893:.\Generated_Source\PSoC4/CyLib.c ****     uint32 regValue = 0u;
 894:.\Generated_Source\PSoC4/CyLib.c **** 
 895:.\Generated_Source\PSoC4/CyLib.c ****     switch(counterNum)
 896:.\Generated_Source\PSoC4/CyLib.c ****     {
 897:.\Generated_Source\PSoC4/CyLib.c ****         /* WDT Counter 0 */
 898:.\Generated_Source\PSoC4/CyLib.c ****         case 0u:
 899:.\Generated_Source\PSoC4/CyLib.c ****             regValue = CY_SYS_WDT_CTRLOW_REG & CY_SYS_WDT_LOWER_16BITS_MASK;
 900:.\Generated_Source\PSoC4/CyLib.c ****         break;
 901:.\Generated_Source\PSoC4/CyLib.c **** 
 902:.\Generated_Source\PSoC4/CyLib.c ****         /* WDT Counter 1 */
 903:.\Generated_Source\PSoC4/CyLib.c ****         case 1u:
 904:.\Generated_Source\PSoC4/CyLib.c ****             regValue = (CY_SYS_WDT_CTRLOW_REG >> CY_SYS_WDT_CNT_MATCH_SHIFT) & CY_SYS_WDT_LOWER_16B
 905:.\Generated_Source\PSoC4/CyLib.c ****         break;
 906:.\Generated_Source\PSoC4/CyLib.c **** 
 907:.\Generated_Source\PSoC4/CyLib.c ****         /* WDT Counter 2 */
 908:.\Generated_Source\PSoC4/CyLib.c ****         case 2u:
 909:.\Generated_Source\PSoC4/CyLib.c ****             regValue = CY_SYS_WDT_CTRHIGH_REG;
ARM GAS  C:\Users\kees\AppData\Local\Temp\ccxzCKRQ.s 			page 24


 910:.\Generated_Source\PSoC4/CyLib.c ****         break;
 911:.\Generated_Source\PSoC4/CyLib.c **** 
 912:.\Generated_Source\PSoC4/CyLib.c ****         default:
 913:.\Generated_Source\PSoC4/CyLib.c ****             CYASSERT(0u != 0u);
 914:.\Generated_Source\PSoC4/CyLib.c ****         break;
 915:.\Generated_Source\PSoC4/CyLib.c ****     }
 916:.\Generated_Source\PSoC4/CyLib.c **** 
 917:.\Generated_Source\PSoC4/CyLib.c ****     return (regValue);
 918:.\Generated_Source\PSoC4/CyLib.c **** }
 919:.\Generated_Source\PSoC4/CyLib.c **** 
 920:.\Generated_Source\PSoC4/CyLib.c **** 
 921:.\Generated_Source\PSoC4/CyLib.c **** /*******************************************************************************
 922:.\Generated_Source\PSoC4/CyLib.c **** * Function Name: CySysWdtGetInterruptSource
 923:.\Generated_Source\PSoC4/CyLib.c **** ********************************************************************************
 924:.\Generated_Source\PSoC4/CyLib.c **** *
 925:.\Generated_Source\PSoC4/CyLib.c **** * Summary:
 926:.\Generated_Source\PSoC4/CyLib.c **** *   Reads a mask containing all the WDT counters interrupts that are currently
 927:.\Generated_Source\PSoC4/CyLib.c **** *   set by hardware, if corresponding mode is selected.
 928:.\Generated_Source\PSoC4/CyLib.c **** *
 929:.\Generated_Source\PSoC4/CyLib.c **** * Parameters:
 930:.\Generated_Source\PSoC4/CyLib.c **** *   None
 931:.\Generated_Source\PSoC4/CyLib.c **** *
 932:.\Generated_Source\PSoC4/CyLib.c **** * Return:
 933:.\Generated_Source\PSoC4/CyLib.c **** *   Mask of interrupts set.
 934:.\Generated_Source\PSoC4/CyLib.c **** *   Value    Define                    Counter
 935:.\Generated_Source\PSoC4/CyLib.c **** *   1<<2     CY_SYS_WDT_COUNTER0_INT    0
 936:.\Generated_Source\PSoC4/CyLib.c **** *   1<<10    CY_SYS_WDT_COUNTER1_INT    1
 937:.\Generated_Source\PSoC4/CyLib.c **** *   1<<18    CY_SYS_WDT_COUNTER2_INT    2
 938:.\Generated_Source\PSoC4/CyLib.c **** *
 939:.\Generated_Source\PSoC4/CyLib.c **** *******************************************************************************/
 940:.\Generated_Source\PSoC4/CyLib.c **** uint32 CySysWdtGetInterruptSource(void)
 941:.\Generated_Source\PSoC4/CyLib.c **** {
 399              		.loc 1 941 0
 400              		.cfi_startproc
 942:.\Generated_Source\PSoC4/CyLib.c ****     return (CY_SYS_WDT_CONTROL_REG & (CY_SYS_WDT_COUNTER0_INT | CY_SYS_WDT_COUNTER1_INT | CY_SYS_WD
 401              		.loc 1 942 0
 402 0000 024B     		ldr	r3, .L50
 943:.\Generated_Source\PSoC4/CyLib.c **** }
 403              		.loc 1 943 0
 404              		@ sp needed for prologue
 405              		.loc 1 942 0
 406 0002 1868     		ldr	r0, [r3]
 407 0004 024B     		ldr	r3, .L50+4
 408 0006 1840     		and	r0, r0, r3
 409              		.loc 1 943 0
 410 0008 7047     		bx	lr
 411              	.L51:
 412 000a C046     		.align	2
 413              	.L50:
 414 000c 10020B40 		.word	1074463248
 415 0010 04040400 		.word	263172
 416              		.cfi_endproc
 417              	.LFE23:
 418              		.size	CySysWdtGetInterruptSource, .-CySysWdtGetInterruptSource
 419              		.section	.text.CySysWdtResetCounters,"ax",%progbits
 420              		.align	1
 421              		.global	CySysWdtResetCounters
ARM GAS  C:\Users\kees\AppData\Local\Temp\ccxzCKRQ.s 			page 25


 422              		.code	16
 423              		.thumb_func
 424              		.type	CySysWdtResetCounters, %function
 425              	CySysWdtResetCounters:
 426              	.LFB25:
 944:.\Generated_Source\PSoC4/CyLib.c **** 
 945:.\Generated_Source\PSoC4/CyLib.c **** 
 946:.\Generated_Source\PSoC4/CyLib.c **** /*******************************************************************************
 947:.\Generated_Source\PSoC4/CyLib.c **** * Function Name: CySysWdtClearInterrupt
 948:.\Generated_Source\PSoC4/CyLib.c **** ********************************************************************************
 949:.\Generated_Source\PSoC4/CyLib.c **** *
 950:.\Generated_Source\PSoC4/CyLib.c **** * Summary:
 951:.\Generated_Source\PSoC4/CyLib.c **** *   Clears all WDT counter interrupts set in the mask. Calling this API also
 952:.\Generated_Source\PSoC4/CyLib.c **** *   prevents Reset from happening when counter mode is set to generate
 953:.\Generated_Source\PSoC4/CyLib.c **** *   3 interrupts and then reset device.
 954:.\Generated_Source\PSoC4/CyLib.c **** *   All WDT interrupts are to be cleared by firmware, otherwise interrupts will
 955:.\Generated_Source\PSoC4/CyLib.c **** *   be generated continuously.
 956:.\Generated_Source\PSoC4/CyLib.c **** *
 957:.\Generated_Source\PSoC4/CyLib.c **** * Parameters:
 958:.\Generated_Source\PSoC4/CyLib.c **** *   counterMask: Mask of all counters to enable
 959:.\Generated_Source\PSoC4/CyLib.c **** *   Value    Define                    Counter
 960:.\Generated_Source\PSoC4/CyLib.c **** *   1<<2     CY_SYS_WDT_COUNTER0_INT    0
 961:.\Generated_Source\PSoC4/CyLib.c **** *   1<<10    CY_SYS_WDT_COUNTER1_INT    1
 962:.\Generated_Source\PSoC4/CyLib.c **** *   1<<18    CY_SYS_WDT_COUNTER2_INT    2
 963:.\Generated_Source\PSoC4/CyLib.c **** *
 964:.\Generated_Source\PSoC4/CyLib.c **** * Return:
 965:.\Generated_Source\PSoC4/CyLib.c **** *   None
 966:.\Generated_Source\PSoC4/CyLib.c **** *
 967:.\Generated_Source\PSoC4/CyLib.c **** * Side effects:
 968:.\Generated_Source\PSoC4/CyLib.c **** *   This API enables ILO, if it was disabled and temporary removes Watchdog
 969:.\Generated_Source\PSoC4/CyLib.c **** *   lock, if it was set, and restores lock state, after cleaning WDT interrupts,
 970:.\Generated_Source\PSoC4/CyLib.c **** *   that are set in mask.
 971:.\Generated_Source\PSoC4/CyLib.c **** *
 972:.\Generated_Source\PSoC4/CyLib.c **** *******************************************************************************/
 973:.\Generated_Source\PSoC4/CyLib.c **** void CySysWdtClearInterrupt(uint32 counterMask)
 974:.\Generated_Source\PSoC4/CyLib.c **** {
 975:.\Generated_Source\PSoC4/CyLib.c ****     uint8 interruptState;
 976:.\Generated_Source\PSoC4/CyLib.c ****     uint32 wdtLockState;
 977:.\Generated_Source\PSoC4/CyLib.c **** 
 978:.\Generated_Source\PSoC4/CyLib.c ****     interruptState = CyEnterCriticalSection();
 979:.\Generated_Source\PSoC4/CyLib.c **** 
 980:.\Generated_Source\PSoC4/CyLib.c ****     /* Configuring the WDT involves passing control signals between clock domains,
 981:.\Generated_Source\PSoC4/CyLib.c ****     * which requires the ILO to be enabled.
 982:.\Generated_Source\PSoC4/CyLib.c ****     */
 983:.\Generated_Source\PSoC4/CyLib.c ****     if (0u == (CY_SYS_CLK_ILO_CONFIG_REG & CY_SYS_CLK_ILO_CONFIG_ENABLE))
 984:.\Generated_Source\PSoC4/CyLib.c ****     {
 985:.\Generated_Source\PSoC4/CyLib.c ****         CySysClkIloStart();
 986:.\Generated_Source\PSoC4/CyLib.c ****     }
 987:.\Generated_Source\PSoC4/CyLib.c **** 
 988:.\Generated_Source\PSoC4/CyLib.c ****     if ((CY_SYS_CLK_SELECT_REG & (uint32)(CY_SYS_WDT_CLK_LOCK_BITS_MASK)) == CY_SYS_WDT_CLK_LOCK_BI
 989:.\Generated_Source\PSoC4/CyLib.c ****     {
 990:.\Generated_Source\PSoC4/CyLib.c ****         wdtLockState = 1u;
 991:.\Generated_Source\PSoC4/CyLib.c **** 
 992:.\Generated_Source\PSoC4/CyLib.c ****         /* Removing WDT lock requires two writes */
 993:.\Generated_Source\PSoC4/CyLib.c ****         CY_SYS_CLK_SELECT_REG = ((CY_SYS_CLK_SELECT_REG & (uint32)(~CY_SYS_WDT_CLK_LOCK_BITS_MASK))
 994:.\Generated_Source\PSoC4/CyLib.c ****                 CY_SYS_WDT_CLK_LOCK_BIT0);
 995:.\Generated_Source\PSoC4/CyLib.c **** 
ARM GAS  C:\Users\kees\AppData\Local\Temp\ccxzCKRQ.s 			page 26


 996:.\Generated_Source\PSoC4/CyLib.c ****         CY_SYS_CLK_SELECT_REG = ((CY_SYS_CLK_SELECT_REG & (uint32)(~CY_SYS_WDT_CLK_LOCK_BITS_MASK))
 997:.\Generated_Source\PSoC4/CyLib.c ****                 CY_SYS_WDT_CLK_LOCK_BIT1);
 998:.\Generated_Source\PSoC4/CyLib.c ****     }
 999:.\Generated_Source\PSoC4/CyLib.c ****     else
1000:.\Generated_Source\PSoC4/CyLib.c ****     {
1001:.\Generated_Source\PSoC4/CyLib.c ****         wdtLockState = 0u;
1002:.\Generated_Source\PSoC4/CyLib.c ****     }
1003:.\Generated_Source\PSoC4/CyLib.c **** 
1004:.\Generated_Source\PSoC4/CyLib.c ****     /* Set the new WDT control register value */
1005:.\Generated_Source\PSoC4/CyLib.c ****     CY_SYS_WDT_CONTROL_REG |= (counterMask & (CY_SYS_WDT_COUNTER0_INT |
1006:.\Generated_Source\PSoC4/CyLib.c ****         CY_SYS_WDT_COUNTER1_INT | CY_SYS_WDT_COUNTER2_INT));
1007:.\Generated_Source\PSoC4/CyLib.c **** 
1008:.\Generated_Source\PSoC4/CyLib.c ****     if (1u == wdtLockState)
1009:.\Generated_Source\PSoC4/CyLib.c ****     {
1010:.\Generated_Source\PSoC4/CyLib.c ****         /* CLK_SELECT register's bits 15:14 are WDT_LOCK */
1011:.\Generated_Source\PSoC4/CyLib.c ****         CY_SYS_CLK_SELECT_REG = (CY_SYS_CLK_SELECT_REG & (uint32)(~CY_SYS_WDT_CLK_LOCK_BITS_MASK)) 
1012:.\Generated_Source\PSoC4/CyLib.c ****                  CY_SYS_WDT_CLK_LOCK_BITS_MASK;
1013:.\Generated_Source\PSoC4/CyLib.c ****     }
1014:.\Generated_Source\PSoC4/CyLib.c **** 
1015:.\Generated_Source\PSoC4/CyLib.c ****     CyExitCriticalSection(interruptState);
1016:.\Generated_Source\PSoC4/CyLib.c **** }
1017:.\Generated_Source\PSoC4/CyLib.c **** 
1018:.\Generated_Source\PSoC4/CyLib.c **** 
1019:.\Generated_Source\PSoC4/CyLib.c **** /*******************************************************************************
1020:.\Generated_Source\PSoC4/CyLib.c **** * Function Name: CySysWdtResetCounters
1021:.\Generated_Source\PSoC4/CyLib.c **** ********************************************************************************
1022:.\Generated_Source\PSoC4/CyLib.c **** *
1023:.\Generated_Source\PSoC4/CyLib.c **** * Summary:
1024:.\Generated_Source\PSoC4/CyLib.c **** *  Resets all WDT counters set in the mask.
1025:.\Generated_Source\PSoC4/CyLib.c **** *
1026:.\Generated_Source\PSoC4/CyLib.c **** * Parameters:
1027:.\Generated_Source\PSoC4/CyLib.c **** *  counterMask: Mask of all counters to reset.
1028:.\Generated_Source\PSoC4/CyLib.c **** *   Value    Define                       Counter
1029:.\Generated_Source\PSoC4/CyLib.c **** *   1<<3     CY_SYS_WDT_COUNTER0_RESET    0
1030:.\Generated_Source\PSoC4/CyLib.c **** *   1<<11    CY_SYS_WDT_COUNTER1_RESET    1
1031:.\Generated_Source\PSoC4/CyLib.c **** *   1<<19    CY_SYS_WDT_COUNTER2_RESET    2
1032:.\Generated_Source\PSoC4/CyLib.c **** *
1033:.\Generated_Source\PSoC4/CyLib.c **** * Return:
1034:.\Generated_Source\PSoC4/CyLib.c **** *   None
1035:.\Generated_Source\PSoC4/CyLib.c **** *
1036:.\Generated_Source\PSoC4/CyLib.c **** * Side effects:
1037:.\Generated_Source\PSoC4/CyLib.c **** *   This API enables ILO, if it was disabled, this API call will not reset
1038:.\Generated_Source\PSoC4/CyLib.c **** *   counter values, if Watchdog is locked.
1039:.\Generated_Source\PSoC4/CyLib.c **** *
1040:.\Generated_Source\PSoC4/CyLib.c **** *******************************************************************************/
1041:.\Generated_Source\PSoC4/CyLib.c **** void CySysWdtResetCounters(uint32 countersMask)
1042:.\Generated_Source\PSoC4/CyLib.c **** {
 427              		.loc 1 1042 0
 428              		.cfi_startproc
 429 0000 10B5     		push	{r4, lr}
 430              	.LCFI3:
 431              		.cfi_def_cfa_offset 8
 432              		.cfi_offset 4, -8
 433              		.cfi_offset 14, -4
 434              	.LVL14:
1043:.\Generated_Source\PSoC4/CyLib.c ****     /* Configuring the WDT involves passing control signals between clock domains,
1044:.\Generated_Source\PSoC4/CyLib.c ****     * which requires the ILO to be enabled.
ARM GAS  C:\Users\kees\AppData\Local\Temp\ccxzCKRQ.s 			page 27


1045:.\Generated_Source\PSoC4/CyLib.c ****     */
1046:.\Generated_Source\PSoC4/CyLib.c ****     if (0u == (CY_SYS_CLK_ILO_CONFIG_REG & CY_SYS_CLK_ILO_CONFIG_ENABLE))
 435              		.loc 1 1046 0
 436 0002 074B     		ldr	r3, .L55
 437              		.loc 1 1042 0
 438 0004 041C     		mov	r4, r0
 439              		.loc 1 1046 0
 440 0006 1B68     		ldr	r3, [r3]
 441 0008 002B     		cmp	r3, #0
 442 000a 01DB     		blt	.L53
 443              	.LVL15:
1047:.\Generated_Source\PSoC4/CyLib.c ****     {
1048:.\Generated_Source\PSoC4/CyLib.c ****         CySysClkIloStart();
 444              		.loc 1 1048 0
 445 000c FFF7FEFF 		bl	CySysClkIloStart
 446              	.LVL16:
 447              	.L53:
1049:.\Generated_Source\PSoC4/CyLib.c ****     }
1050:.\Generated_Source\PSoC4/CyLib.c **** 
1051:.\Generated_Source\PSoC4/CyLib.c ****     /* Set the new WDT reset value */
1052:.\Generated_Source\PSoC4/CyLib.c ****     CY_SYS_WDT_CONTROL_REG |= (countersMask & (CY_SYS_WDT_COUNTER0_RESET |
 448              		.loc 1 1052 0
 449 0010 044B     		ldr	r3, .L55+4
 450 0012 0549     		ldr	r1, .L55+8
 451 0014 1A68     		ldr	r2, [r3]
 452 0016 0C40     		and	r4, r4, r1
 453              	.LVL17:
 454 0018 1443     		orr	r4, r4, r2
 455 001a 1C60     		str	r4, [r3]
1053:.\Generated_Source\PSoC4/CyLib.c ****         CY_SYS_WDT_COUNTER1_RESET | CY_SYS_WDT_COUNTER2_RESET));
1054:.\Generated_Source\PSoC4/CyLib.c **** }
 456              		.loc 1 1054 0
 457              		@ sp needed for prologue
 458 001c 10BD     		pop	{r4, pc}
 459              	.L56:
 460 001e C046     		.align	2
 461              	.L55:
 462 0020 04010B40 		.word	1074462980
 463 0024 10020B40 		.word	1074463248
 464 0028 08080800 		.word	526344
 465              		.cfi_endproc
 466              	.LFE25:
 467              		.size	CySysWdtResetCounters, .-CySysWdtResetCounters
 468              		.section	.text.CySysLvdEnable,"ax",%progbits
 469              		.align	1
 470              		.global	CySysLvdEnable
 471              		.code	16
 472              		.thumb_func
 473              		.type	CySysLvdEnable, %function
 474              	CySysLvdEnable:
 475              	.LFB26:
1055:.\Generated_Source\PSoC4/CyLib.c **** 
1056:.\Generated_Source\PSoC4/CyLib.c **** 
1057:.\Generated_Source\PSoC4/CyLib.c **** /*******************************************************************************
1058:.\Generated_Source\PSoC4/CyLib.c **** * Function Name: CySysLvdEnable
1059:.\Generated_Source\PSoC4/CyLib.c **** ********************************************************************************
1060:.\Generated_Source\PSoC4/CyLib.c **** *
ARM GAS  C:\Users\kees\AppData\Local\Temp\ccxzCKRQ.s 			page 28


1061:.\Generated_Source\PSoC4/CyLib.c **** * Summary:
1062:.\Generated_Source\PSoC4/CyLib.c **** *  Enables the output of the low-voltage monitor when Vddd is at or below the
1063:.\Generated_Source\PSoC4/CyLib.c **** *  trip point, configures device to generate an interrupt, and sets the voltage
1064:.\Generated_Source\PSoC4/CyLib.c **** *  trip level.
1065:.\Generated_Source\PSoC4/CyLib.c **** *
1066:.\Generated_Source\PSoC4/CyLib.c **** * Parameters:
1067:.\Generated_Source\PSoC4/CyLib.c **** *  threshold: Threshold selection for Low Voltage Detect circuit.
1068:.\Generated_Source\PSoC4/CyLib.c **** *  Threshold variation is +/- 2.5% from these typical voltage choices.
1069:.\Generated_Source\PSoC4/CyLib.c **** *         Define                     Voltage threshold
1070:.\Generated_Source\PSoC4/CyLib.c **** *    CY_LVD_THRESHOLD_1_75_V       1.7500 V
1071:.\Generated_Source\PSoC4/CyLib.c **** *    CY_LVD_THRESHOLD_1_80_V       1.8000 V
1072:.\Generated_Source\PSoC4/CyLib.c **** *    CY_LVD_THRESHOLD_1_90_V       1.9000 V
1073:.\Generated_Source\PSoC4/CyLib.c **** *    CY_LVD_THRESHOLD_2_00_V       2.0000 V
1074:.\Generated_Source\PSoC4/CyLib.c **** *    CY_LVD_THRESHOLD_2_10_V       2.1000 V
1075:.\Generated_Source\PSoC4/CyLib.c **** *    CY_LVD_THRESHOLD_2_20_V       2.2000 V
1076:.\Generated_Source\PSoC4/CyLib.c **** *    CY_LVD_THRESHOLD_2_30_V       2.3000 V
1077:.\Generated_Source\PSoC4/CyLib.c **** *    CY_LVD_THRESHOLD_2_40_V       2.4000 V
1078:.\Generated_Source\PSoC4/CyLib.c **** *    CY_LVD_THRESHOLD_2_50_V       2.5000 V
1079:.\Generated_Source\PSoC4/CyLib.c **** *    CY_LVD_THRESHOLD_2_60_V       2.6000 V
1080:.\Generated_Source\PSoC4/CyLib.c **** *    CY_LVD_THRESHOLD_2_70_V       2.7000 V
1081:.\Generated_Source\PSoC4/CyLib.c **** *    CY_LVD_THRESHOLD_2_80_V       2.8000 V
1082:.\Generated_Source\PSoC4/CyLib.c **** *    CY_LVD_THRESHOLD_2_90_V       2.9000 V
1083:.\Generated_Source\PSoC4/CyLib.c **** *    CY_LVD_THRESHOLD_3_00_V       3.0000 V
1084:.\Generated_Source\PSoC4/CyLib.c **** *    CY_LVD_THRESHOLD_3_20_V       3.2000 V
1085:.\Generated_Source\PSoC4/CyLib.c **** *    CY_LVD_THRESHOLD_4_50_V       4.5000 V
1086:.\Generated_Source\PSoC4/CyLib.c **** *
1087:.\Generated_Source\PSoC4/CyLib.c **** * Return:
1088:.\Generated_Source\PSoC4/CyLib.c **** *  None
1089:.\Generated_Source\PSoC4/CyLib.c **** *
1090:.\Generated_Source\PSoC4/CyLib.c **** *******************************************************************************/
1091:.\Generated_Source\PSoC4/CyLib.c **** void CySysLvdEnable(uint32 threshold)
1092:.\Generated_Source\PSoC4/CyLib.c **** {
 476              		.loc 1 1092 0
 477              		.cfi_startproc
 478              	.LVL18:
1093:.\Generated_Source\PSoC4/CyLib.c ****     /* Set threshold */
1094:.\Generated_Source\PSoC4/CyLib.c ****     CY_LVD_PWR_VMON_CONFIG_REG = (CY_LVD_PWR_VMON_CONFIG_REG & ~CY_LVD_PWR_VMON_CONFIG_LVD_SEL_MASK
 479              		.loc 1 1094 0
 480 0000 094B     		ldr	r3, .L59
 481 0002 1E22     		mov	r2, #30
 482 0004 1968     		ldr	r1, [r3]
 483 0006 4000     		lsl	r0, r0, #1
 484              	.LVL19:
 485 0008 9143     		bic	r1, r1, r2
 486 000a 1040     		and	r0, r0, r2
 487 000c 0A1C     		mov	r2, r1
 488 000e 0243     		orr	r2, r2, r0
 489 0010 1A60     		str	r2, [r3]
1095:.\Generated_Source\PSoC4/CyLib.c ****             ((threshold << CY_LVD_PWR_VMON_CONFIG_LVD_SEL_SHIFT) & CY_LVD_PWR_VMON_CONFIG_LVD_SEL_M
1096:.\Generated_Source\PSoC4/CyLib.c **** 
1097:.\Generated_Source\PSoC4/CyLib.c ****     CY_LVD_PWR_VMON_CONFIG_REG |= CY_LVD_PWR_VMON_CONFIG_LVD_EN;
 490              		.loc 1 1097 0
 491 0012 1968     		ldr	r1, [r3]
 492 0014 0122     		mov	r2, #1
 493 0016 0A43     		orr	r2, r2, r1
 494 0018 1A60     		str	r2, [r3]
1098:.\Generated_Source\PSoC4/CyLib.c ****     CY_LVD_PWR_INTR_MASK_REG   |= CY_LVD_PROPAGATE_INT_TO_CPU;
ARM GAS  C:\Users\kees\AppData\Local\Temp\ccxzCKRQ.s 			page 29


 495              		.loc 1 1098 0
 496 001a 103B     		sub	r3, r3, #16
 497 001c 1968     		ldr	r1, [r3]
 498 001e 0222     		mov	r2, #2
 499 0020 0A43     		orr	r2, r2, r1
 500 0022 1A60     		str	r2, [r3]
1099:.\Generated_Source\PSoC4/CyLib.c **** }
 501              		.loc 1 1099 0
 502              		@ sp needed for prologue
 503 0024 7047     		bx	lr
 504              	.L60:
 505 0026 C046     		.align	2
 506              	.L59:
 507 0028 18000B40 		.word	1074462744
 508              		.cfi_endproc
 509              	.LFE26:
 510              		.size	CySysLvdEnable, .-CySysLvdEnable
 511              		.section	.text.CySysLvdDisable,"ax",%progbits
 512              		.align	1
 513              		.global	CySysLvdDisable
 514              		.code	16
 515              		.thumb_func
 516              		.type	CySysLvdDisable, %function
 517              	CySysLvdDisable:
 518              	.LFB27:
1100:.\Generated_Source\PSoC4/CyLib.c **** 
1101:.\Generated_Source\PSoC4/CyLib.c **** 
1102:.\Generated_Source\PSoC4/CyLib.c **** /*******************************************************************************
1103:.\Generated_Source\PSoC4/CyLib.c **** * Function Name: CySysLvdDisable
1104:.\Generated_Source\PSoC4/CyLib.c **** ********************************************************************************
1105:.\Generated_Source\PSoC4/CyLib.c **** *
1106:.\Generated_Source\PSoC4/CyLib.c **** * Summary:
1107:.\Generated_Source\PSoC4/CyLib.c **** *  Disables the low voltage detection. Low voltage interrupt is disabled.
1108:.\Generated_Source\PSoC4/CyLib.c **** *
1109:.\Generated_Source\PSoC4/CyLib.c **** * Parameters:
1110:.\Generated_Source\PSoC4/CyLib.c **** *  None
1111:.\Generated_Source\PSoC4/CyLib.c **** *
1112:.\Generated_Source\PSoC4/CyLib.c **** * Return:
1113:.\Generated_Source\PSoC4/CyLib.c **** *  None
1114:.\Generated_Source\PSoC4/CyLib.c **** *
1115:.\Generated_Source\PSoC4/CyLib.c **** *******************************************************************************/
1116:.\Generated_Source\PSoC4/CyLib.c **** void CySysLvdDisable(void)
1117:.\Generated_Source\PSoC4/CyLib.c **** {
 519              		.loc 1 1117 0
 520              		.cfi_startproc
1118:.\Generated_Source\PSoC4/CyLib.c ****     CY_LVD_PWR_INTR_MASK_REG   &= ~CY_LVD_PROPAGATE_INT_TO_CPU;
 521              		.loc 1 1118 0
 522 0000 054B     		ldr	r3, .L63
 523 0002 0221     		mov	r1, #2
 524 0004 1A68     		ldr	r2, [r3]
1119:.\Generated_Source\PSoC4/CyLib.c ****     CY_LVD_PWR_VMON_CONFIG_REG &= ~CY_LVD_PWR_VMON_CONFIG_LVD_EN;
1120:.\Generated_Source\PSoC4/CyLib.c **** }
 525              		.loc 1 1120 0
 526              		@ sp needed for prologue
 527              		.loc 1 1118 0
 528 0006 8A43     		bic	r2, r2, r1
 529 0008 1A60     		str	r2, [r3]
ARM GAS  C:\Users\kees\AppData\Local\Temp\ccxzCKRQ.s 			page 30


 530              		.loc 1 1119 0
 531 000a 1033     		add	r3, r3, #16
 532 000c 1A68     		ldr	r2, [r3]
 533 000e 0121     		mov	r1, #1
 534 0010 8A43     		bic	r2, r2, r1
 535 0012 1A60     		str	r2, [r3]
 536              		.loc 1 1120 0
 537 0014 7047     		bx	lr
 538              	.L64:
 539 0016 C046     		.align	2
 540              	.L63:
 541 0018 08000B40 		.word	1074462728
 542              		.cfi_endproc
 543              	.LFE27:
 544              		.size	CySysLvdDisable, .-CySysLvdDisable
 545              		.section	.text.CySysLvdGetInterruptSource,"ax",%progbits
 546              		.align	1
 547              		.global	CySysLvdGetInterruptSource
 548              		.code	16
 549              		.thumb_func
 550              		.type	CySysLvdGetInterruptSource, %function
 551              	CySysLvdGetInterruptSource:
 552              	.LFB28:
1121:.\Generated_Source\PSoC4/CyLib.c **** 
1122:.\Generated_Source\PSoC4/CyLib.c **** 
1123:.\Generated_Source\PSoC4/CyLib.c **** /*******************************************************************************
1124:.\Generated_Source\PSoC4/CyLib.c **** * Function Name: CySysLvdGetInterruptSource
1125:.\Generated_Source\PSoC4/CyLib.c **** ********************************************************************************
1126:.\Generated_Source\PSoC4/CyLib.c **** *
1127:.\Generated_Source\PSoC4/CyLib.c **** * Summary:
1128:.\Generated_Source\PSoC4/CyLib.c **** *  Gets the low voltage detection interrupt status (without clearing).
1129:.\Generated_Source\PSoC4/CyLib.c **** *
1130:.\Generated_Source\PSoC4/CyLib.c **** * Parameters:
1131:.\Generated_Source\PSoC4/CyLib.c **** *  None
1132:.\Generated_Source\PSoC4/CyLib.c **** *
1133:.\Generated_Source\PSoC4/CyLib.c **** * Return:
1134:.\Generated_Source\PSoC4/CyLib.c **** *  Interrupt request value:
1135:.\Generated_Source\PSoC4/CyLib.c **** *    CY_SYS_LVD_INT - Indicates an Low Voltage Detect interrupt
1136:.\Generated_Source\PSoC4/CyLib.c **** *
1137:.\Generated_Source\PSoC4/CyLib.c **** *******************************************************************************/
1138:.\Generated_Source\PSoC4/CyLib.c **** uint32 CySysLvdGetInterruptSource(void)
1139:.\Generated_Source\PSoC4/CyLib.c **** {
 553              		.loc 1 1139 0
 554              		.cfi_startproc
1140:.\Generated_Source\PSoC4/CyLib.c ****     return (CY_LVD_PWR_INTR_REG & CY_SYS_LVD_INT);
 555              		.loc 1 1140 0
 556 0000 024B     		ldr	r3, .L67
1141:.\Generated_Source\PSoC4/CyLib.c **** }
 557              		.loc 1 1141 0
 558              		@ sp needed for prologue
 559              		.loc 1 1140 0
 560 0002 1868     		ldr	r0, [r3]
 561 0004 0223     		mov	r3, #2
 562 0006 1840     		and	r0, r0, r3
 563              		.loc 1 1141 0
 564 0008 7047     		bx	lr
 565              	.L68:
ARM GAS  C:\Users\kees\AppData\Local\Temp\ccxzCKRQ.s 			page 31


 566 000a C046     		.align	2
 567              	.L67:
 568 000c 04000B40 		.word	1074462724
 569              		.cfi_endproc
 570              	.LFE28:
 571              		.size	CySysLvdGetInterruptSource, .-CySysLvdGetInterruptSource
 572              		.section	.text.CySysLvdClearInterrupt,"ax",%progbits
 573              		.align	1
 574              		.global	CySysLvdClearInterrupt
 575              		.code	16
 576              		.thumb_func
 577              		.type	CySysLvdClearInterrupt, %function
 578              	CySysLvdClearInterrupt:
 579              	.LFB29:
1142:.\Generated_Source\PSoC4/CyLib.c **** 
1143:.\Generated_Source\PSoC4/CyLib.c **** 
1144:.\Generated_Source\PSoC4/CyLib.c **** /*******************************************************************************
1145:.\Generated_Source\PSoC4/CyLib.c **** * Function Name: CySysLvdClearInterrupt
1146:.\Generated_Source\PSoC4/CyLib.c **** ********************************************************************************
1147:.\Generated_Source\PSoC4/CyLib.c **** *
1148:.\Generated_Source\PSoC4/CyLib.c **** * Summary:
1149:.\Generated_Source\PSoC4/CyLib.c **** *  Clears the low voltage detection interrupt status.
1150:.\Generated_Source\PSoC4/CyLib.c **** *
1151:.\Generated_Source\PSoC4/CyLib.c **** * Parameters:
1152:.\Generated_Source\PSoC4/CyLib.c **** *  None
1153:.\Generated_Source\PSoC4/CyLib.c **** *
1154:.\Generated_Source\PSoC4/CyLib.c **** * Return:
1155:.\Generated_Source\PSoC4/CyLib.c **** *  None
1156:.\Generated_Source\PSoC4/CyLib.c **** *
1157:.\Generated_Source\PSoC4/CyLib.c **** *******************************************************************************/
1158:.\Generated_Source\PSoC4/CyLib.c **** void CySysLvdClearInterrupt(void)
1159:.\Generated_Source\PSoC4/CyLib.c **** {
 580              		.loc 1 1159 0
 581              		.cfi_startproc
1160:.\Generated_Source\PSoC4/CyLib.c ****     CY_LVD_PWR_INTR_REG = CY_SYS_LVD_INT;
 582              		.loc 1 1160 0
 583 0000 014B     		ldr	r3, .L71
 584 0002 0222     		mov	r2, #2
 585 0004 1A60     		str	r2, [r3]
1161:.\Generated_Source\PSoC4/CyLib.c **** }
 586              		.loc 1 1161 0
 587              		@ sp needed for prologue
 588 0006 7047     		bx	lr
 589              	.L72:
 590              		.align	2
 591              	.L71:
 592 0008 04000B40 		.word	1074462724
 593              		.cfi_endproc
 594              	.LFE29:
 595              		.size	CySysLvdClearInterrupt, .-CySysLvdClearInterrupt
 596              		.section	.text.CyDisableInts,"ax",%progbits
 597              		.align	1
 598              		.global	CyDisableInts
 599              		.code	16
 600              		.thumb_func
 601              		.type	CyDisableInts, %function
 602              	CyDisableInts:
ARM GAS  C:\Users\kees\AppData\Local\Temp\ccxzCKRQ.s 			page 32


 603              	.LFB30:
1162:.\Generated_Source\PSoC4/CyLib.c **** 
1163:.\Generated_Source\PSoC4/CyLib.c **** 
1164:.\Generated_Source\PSoC4/CyLib.c **** /*******************************************************************************
1165:.\Generated_Source\PSoC4/CyLib.c **** * Function Name: CyDisableInts
1166:.\Generated_Source\PSoC4/CyLib.c **** ********************************************************************************
1167:.\Generated_Source\PSoC4/CyLib.c **** *
1168:.\Generated_Source\PSoC4/CyLib.c **** * Summary:
1169:.\Generated_Source\PSoC4/CyLib.c **** *  Disables all interrupts.
1170:.\Generated_Source\PSoC4/CyLib.c **** *
1171:.\Generated_Source\PSoC4/CyLib.c **** * Parameters:
1172:.\Generated_Source\PSoC4/CyLib.c **** *  None
1173:.\Generated_Source\PSoC4/CyLib.c **** *
1174:.\Generated_Source\PSoC4/CyLib.c **** * Return:
1175:.\Generated_Source\PSoC4/CyLib.c **** *  32 bit mask of previously enabled interrupts.
1176:.\Generated_Source\PSoC4/CyLib.c **** *
1177:.\Generated_Source\PSoC4/CyLib.c **** *******************************************************************************/
1178:.\Generated_Source\PSoC4/CyLib.c **** uint32 CyDisableInts(void)
1179:.\Generated_Source\PSoC4/CyLib.c **** {
 604              		.loc 1 1179 0
 605              		.cfi_startproc
1180:.\Generated_Source\PSoC4/CyLib.c ****     uint32 intState;
1181:.\Generated_Source\PSoC4/CyLib.c **** 
1182:.\Generated_Source\PSoC4/CyLib.c ****     /* Get the curreent interrupt state. */
1183:.\Generated_Source\PSoC4/CyLib.c ****     intState = CY_INT_CLEAR_REG;
 606              		.loc 1 1183 0
 607 0000 024A     		ldr	r2, .L75
1184:.\Generated_Source\PSoC4/CyLib.c **** 
1185:.\Generated_Source\PSoC4/CyLib.c ****     /* Disable all of the interrupts. */
1186:.\Generated_Source\PSoC4/CyLib.c ****     CY_INT_CLEAR_REG = CY_INT_CLEAR_DISABLE_ALL;
 608              		.loc 1 1186 0
 609 0002 0123     		mov	r3, #1
 610 0004 5B42     		neg	r3, r3
 611              		.loc 1 1183 0
 612 0006 1068     		ldr	r0, [r2]
 613              	.LVL20:
1187:.\Generated_Source\PSoC4/CyLib.c **** 
1188:.\Generated_Source\PSoC4/CyLib.c ****     return (intState);
1189:.\Generated_Source\PSoC4/CyLib.c **** }
 614              		.loc 1 1189 0
 615              		@ sp needed for prologue
 616              		.loc 1 1186 0
 617 0008 1360     		str	r3, [r2]
 618              	.LVL21:
 619              		.loc 1 1189 0
 620 000a 7047     		bx	lr
 621              	.L76:
 622              		.align	2
 623              	.L75:
 624 000c 80E100E0 		.word	-536813184
 625              		.cfi_endproc
 626              	.LFE30:
 627              		.size	CyDisableInts, .-CyDisableInts
 628              		.section	.text.CyEnableInts,"ax",%progbits
 629              		.align	1
 630              		.global	CyEnableInts
 631              		.code	16
ARM GAS  C:\Users\kees\AppData\Local\Temp\ccxzCKRQ.s 			page 33


 632              		.thumb_func
 633              		.type	CyEnableInts, %function
 634              	CyEnableInts:
 635              	.LFB31:
1190:.\Generated_Source\PSoC4/CyLib.c **** 
1191:.\Generated_Source\PSoC4/CyLib.c **** 
1192:.\Generated_Source\PSoC4/CyLib.c **** /*******************************************************************************
1193:.\Generated_Source\PSoC4/CyLib.c **** * Function Name: CyEnableInts
1194:.\Generated_Source\PSoC4/CyLib.c **** ********************************************************************************
1195:.\Generated_Source\PSoC4/CyLib.c **** *
1196:.\Generated_Source\PSoC4/CyLib.c **** * Summary:
1197:.\Generated_Source\PSoC4/CyLib.c **** *  Enables interrupts to a given state.
1198:.\Generated_Source\PSoC4/CyLib.c **** *
1199:.\Generated_Source\PSoC4/CyLib.c **** * Parameters:
1200:.\Generated_Source\PSoC4/CyLib.c **** *   mask, 32 bit mask of interrupts to enable.
1201:.\Generated_Source\PSoC4/CyLib.c **** *
1202:.\Generated_Source\PSoC4/CyLib.c **** * Return:
1203:.\Generated_Source\PSoC4/CyLib.c **** *  None
1204:.\Generated_Source\PSoC4/CyLib.c **** *
1205:.\Generated_Source\PSoC4/CyLib.c **** *******************************************************************************/
1206:.\Generated_Source\PSoC4/CyLib.c **** void CyEnableInts(uint32 mask)
1207:.\Generated_Source\PSoC4/CyLib.c **** {
 636              		.loc 1 1207 0
 637              		.cfi_startproc
 638              	.LVL22:
1208:.\Generated_Source\PSoC4/CyLib.c ****     CY_INT_ENABLE_REG = mask;
 639              		.loc 1 1208 0
 640 0000 014B     		ldr	r3, .L79
1209:.\Generated_Source\PSoC4/CyLib.c **** }
 641              		.loc 1 1209 0
 642              		@ sp needed for prologue
 643              		.loc 1 1208 0
 644 0002 1860     		str	r0, [r3]
 645              		.loc 1 1209 0
 646 0004 7047     		bx	lr
 647              	.L80:
 648 0006 C046     		.align	2
 649              	.L79:
 650 0008 00E100E0 		.word	-536813312
 651              		.cfi_endproc
 652              	.LFE31:
 653              		.size	CyEnableInts, .-CyEnableInts
 654              		.section	.text.CyIntEnable,"ax",%progbits
 655              		.align	1
 656              		.global	CyIntEnable
 657              		.code	16
 658              		.thumb_func
 659              		.type	CyIntEnable, %function
 660              	CyIntEnable:
 661              	.LFB38:
1210:.\Generated_Source\PSoC4/CyLib.c **** 
1211:.\Generated_Source\PSoC4/CyLib.c **** 
1212:.\Generated_Source\PSoC4/CyLib.c **** /*******************************************************************************
1213:.\Generated_Source\PSoC4/CyLib.c **** * Function Name: CyIntSetSysVector
1214:.\Generated_Source\PSoC4/CyLib.c **** ********************************************************************************
1215:.\Generated_Source\PSoC4/CyLib.c **** *
1216:.\Generated_Source\PSoC4/CyLib.c **** * Summary:
ARM GAS  C:\Users\kees\AppData\Local\Temp\ccxzCKRQ.s 			page 34


1217:.\Generated_Source\PSoC4/CyLib.c **** *  Sets the interrupt vector of the specified system interrupt number. These
1218:.\Generated_Source\PSoC4/CyLib.c **** *  interrupts are for SysTick, PendSV and others.
1219:.\Generated_Source\PSoC4/CyLib.c **** *
1220:.\Generated_Source\PSoC4/CyLib.c **** * Parameters:
1221:.\Generated_Source\PSoC4/CyLib.c **** *  number: Interrupt number, valid range [0-15].
1222:.\Generated_Source\PSoC4/CyLib.c **** *  address: Pointer to an interrupt service routine.
1223:.\Generated_Source\PSoC4/CyLib.c **** *
1224:.\Generated_Source\PSoC4/CyLib.c **** * Return:
1225:.\Generated_Source\PSoC4/CyLib.c **** *  The old ISR vector at this location.
1226:.\Generated_Source\PSoC4/CyLib.c **** *
1227:.\Generated_Source\PSoC4/CyLib.c **** *******************************************************************************/
1228:.\Generated_Source\PSoC4/CyLib.c **** cyisraddress CyIntSetSysVector(uint8 number, cyisraddress address)
1229:.\Generated_Source\PSoC4/CyLib.c **** {
1230:.\Generated_Source\PSoC4/CyLib.c ****     cyisraddress oldIsr;
1231:.\Generated_Source\PSoC4/CyLib.c ****     cyisraddress *ramVectorTable = (cyisraddress *) CY_INT_VECT_TABLE;
1232:.\Generated_Source\PSoC4/CyLib.c **** 
1233:.\Generated_Source\PSoC4/CyLib.c ****     CYASSERT(number < CY_INT_IRQ_BASE);
1234:.\Generated_Source\PSoC4/CyLib.c **** 
1235:.\Generated_Source\PSoC4/CyLib.c ****     /* Save old Interrupt service routine. */
1236:.\Generated_Source\PSoC4/CyLib.c ****     oldIsr = ramVectorTable[number];
1237:.\Generated_Source\PSoC4/CyLib.c **** 
1238:.\Generated_Source\PSoC4/CyLib.c ****     /* Set new Interrupt service routine. */
1239:.\Generated_Source\PSoC4/CyLib.c ****     ramVectorTable[number] = address;
1240:.\Generated_Source\PSoC4/CyLib.c **** 
1241:.\Generated_Source\PSoC4/CyLib.c ****     return(oldIsr);
1242:.\Generated_Source\PSoC4/CyLib.c **** }
1243:.\Generated_Source\PSoC4/CyLib.c **** 
1244:.\Generated_Source\PSoC4/CyLib.c **** 
1245:.\Generated_Source\PSoC4/CyLib.c **** /*******************************************************************************
1246:.\Generated_Source\PSoC4/CyLib.c **** * Function Name: CyIntGetSysVector
1247:.\Generated_Source\PSoC4/CyLib.c **** ********************************************************************************
1248:.\Generated_Source\PSoC4/CyLib.c **** *
1249:.\Generated_Source\PSoC4/CyLib.c **** * Summary:
1250:.\Generated_Source\PSoC4/CyLib.c **** *   Gets the interrupt vector of the specified system interrupt number. These
1251:.\Generated_Source\PSoC4/CyLib.c **** *   interrupts are for SysTick, PendSV and others.
1252:.\Generated_Source\PSoC4/CyLib.c **** *
1253:.\Generated_Source\PSoC4/CyLib.c **** * Parameters:
1254:.\Generated_Source\PSoC4/CyLib.c **** *   number: The interrupt number, valid range [0-15].
1255:.\Generated_Source\PSoC4/CyLib.c **** *
1256:.\Generated_Source\PSoC4/CyLib.c **** * Return:
1257:.\Generated_Source\PSoC4/CyLib.c **** *   Address of the ISR in the interrupt vector table.
1258:.\Generated_Source\PSoC4/CyLib.c **** *
1259:.\Generated_Source\PSoC4/CyLib.c **** *******************************************************************************/
1260:.\Generated_Source\PSoC4/CyLib.c **** cyisraddress CyIntGetSysVector(uint8 number)
1261:.\Generated_Source\PSoC4/CyLib.c **** {
1262:.\Generated_Source\PSoC4/CyLib.c ****     cyisraddress *ramVectorTable = (cyisraddress *) CY_INT_VECT_TABLE;
1263:.\Generated_Source\PSoC4/CyLib.c **** 
1264:.\Generated_Source\PSoC4/CyLib.c ****     CYASSERT(number < CY_INT_IRQ_BASE);
1265:.\Generated_Source\PSoC4/CyLib.c **** 
1266:.\Generated_Source\PSoC4/CyLib.c ****     return(ramVectorTable[number]);
1267:.\Generated_Source\PSoC4/CyLib.c **** }
1268:.\Generated_Source\PSoC4/CyLib.c **** 
1269:.\Generated_Source\PSoC4/CyLib.c **** 
1270:.\Generated_Source\PSoC4/CyLib.c **** /*******************************************************************************
1271:.\Generated_Source\PSoC4/CyLib.c **** * Function Name: CyIntSetVector
1272:.\Generated_Source\PSoC4/CyLib.c **** ********************************************************************************
1273:.\Generated_Source\PSoC4/CyLib.c **** *
ARM GAS  C:\Users\kees\AppData\Local\Temp\ccxzCKRQ.s 			page 35


1274:.\Generated_Source\PSoC4/CyLib.c **** * Summary:
1275:.\Generated_Source\PSoC4/CyLib.c **** *  Sets the interrupt vector of the specified interrupt number.
1276:.\Generated_Source\PSoC4/CyLib.c **** *
1277:.\Generated_Source\PSoC4/CyLib.c **** * Parameters:
1278:.\Generated_Source\PSoC4/CyLib.c **** *  number: Valid range [0-31].  Interrupt number
1279:.\Generated_Source\PSoC4/CyLib.c **** *  address: Pointer to an interrupt service routine
1280:.\Generated_Source\PSoC4/CyLib.c **** *
1281:.\Generated_Source\PSoC4/CyLib.c **** * Return:
1282:.\Generated_Source\PSoC4/CyLib.c **** *   Previous interrupt vector value.
1283:.\Generated_Source\PSoC4/CyLib.c **** *
1284:.\Generated_Source\PSoC4/CyLib.c **** *******************************************************************************/
1285:.\Generated_Source\PSoC4/CyLib.c **** cyisraddress CyIntSetVector(uint8 number, cyisraddress address)
1286:.\Generated_Source\PSoC4/CyLib.c **** {
1287:.\Generated_Source\PSoC4/CyLib.c ****     cyisraddress oldIsr;
1288:.\Generated_Source\PSoC4/CyLib.c ****     cyisraddress *ramVectorTable = (cyisraddress *) CY_INT_VECT_TABLE;
1289:.\Generated_Source\PSoC4/CyLib.c **** 
1290:.\Generated_Source\PSoC4/CyLib.c ****     CYASSERT(number < CY_NUM_INTERRUPTS);
1291:.\Generated_Source\PSoC4/CyLib.c **** 
1292:.\Generated_Source\PSoC4/CyLib.c ****     /* Save old Interrupt service routine. */
1293:.\Generated_Source\PSoC4/CyLib.c ****     oldIsr = ramVectorTable[CY_INT_IRQ_BASE + number];
1294:.\Generated_Source\PSoC4/CyLib.c **** 
1295:.\Generated_Source\PSoC4/CyLib.c ****     /* Set new Interrupt service routine. */
1296:.\Generated_Source\PSoC4/CyLib.c ****     ramVectorTable[CY_INT_IRQ_BASE + number] = address;
1297:.\Generated_Source\PSoC4/CyLib.c **** 
1298:.\Generated_Source\PSoC4/CyLib.c ****     return(oldIsr);
1299:.\Generated_Source\PSoC4/CyLib.c **** }
1300:.\Generated_Source\PSoC4/CyLib.c **** 
1301:.\Generated_Source\PSoC4/CyLib.c **** 
1302:.\Generated_Source\PSoC4/CyLib.c **** /*******************************************************************************
1303:.\Generated_Source\PSoC4/CyLib.c **** * Function Name: CyIntGetVector
1304:.\Generated_Source\PSoC4/CyLib.c **** ********************************************************************************
1305:.\Generated_Source\PSoC4/CyLib.c **** *
1306:.\Generated_Source\PSoC4/CyLib.c **** * Summary:
1307:.\Generated_Source\PSoC4/CyLib.c **** *  Gets the interrupt vector of the specified interrupt number.
1308:.\Generated_Source\PSoC4/CyLib.c **** *
1309:.\Generated_Source\PSoC4/CyLib.c **** * Parameters:
1310:.\Generated_Source\PSoC4/CyLib.c **** *  number: Valid range [0-31].  Interrupt number
1311:.\Generated_Source\PSoC4/CyLib.c **** *
1312:.\Generated_Source\PSoC4/CyLib.c **** * Return:
1313:.\Generated_Source\PSoC4/CyLib.c **** *  Address of the ISR in the interrupt vector table.
1314:.\Generated_Source\PSoC4/CyLib.c **** *
1315:.\Generated_Source\PSoC4/CyLib.c **** *******************************************************************************/
1316:.\Generated_Source\PSoC4/CyLib.c **** cyisraddress CyIntGetVector(uint8 number)
1317:.\Generated_Source\PSoC4/CyLib.c **** {
1318:.\Generated_Source\PSoC4/CyLib.c ****     cyisraddress *ramVectorTable = (cyisraddress *) CY_INT_VECT_TABLE;
1319:.\Generated_Source\PSoC4/CyLib.c **** 
1320:.\Generated_Source\PSoC4/CyLib.c ****     CYASSERT(number < CY_NUM_INTERRUPTS);
1321:.\Generated_Source\PSoC4/CyLib.c **** 
1322:.\Generated_Source\PSoC4/CyLib.c ****     return (ramVectorTable[CY_INT_IRQ_BASE + number]);
1323:.\Generated_Source\PSoC4/CyLib.c **** }
1324:.\Generated_Source\PSoC4/CyLib.c **** 
1325:.\Generated_Source\PSoC4/CyLib.c **** /*******************************************************************************
1326:.\Generated_Source\PSoC4/CyLib.c **** * Function Name: CyIntSetPriority
1327:.\Generated_Source\PSoC4/CyLib.c **** ********************************************************************************
1328:.\Generated_Source\PSoC4/CyLib.c **** *
1329:.\Generated_Source\PSoC4/CyLib.c **** * Summary:
1330:.\Generated_Source\PSoC4/CyLib.c **** *  Sets the priority of the interrupt.
ARM GAS  C:\Users\kees\AppData\Local\Temp\ccxzCKRQ.s 			page 36


1331:.\Generated_Source\PSoC4/CyLib.c **** *
1332:.\Generated_Source\PSoC4/CyLib.c **** * Parameters:
1333:.\Generated_Source\PSoC4/CyLib.c **** *  priority: Priority of the interrupt. 0 - 3, 0 being the highest.
1334:.\Generated_Source\PSoC4/CyLib.c **** *  number: The number of the interrupt, 0 - 31.
1335:.\Generated_Source\PSoC4/CyLib.c **** *
1336:.\Generated_Source\PSoC4/CyLib.c **** * Return:
1337:.\Generated_Source\PSoC4/CyLib.c **** *  None
1338:.\Generated_Source\PSoC4/CyLib.c **** *
1339:.\Generated_Source\PSoC4/CyLib.c **** *******************************************************************************/
1340:.\Generated_Source\PSoC4/CyLib.c **** void CyIntSetPriority(uint8 number, uint8 priority)
1341:.\Generated_Source\PSoC4/CyLib.c **** {
1342:.\Generated_Source\PSoC4/CyLib.c ****     uint8 interruptState;
1343:.\Generated_Source\PSoC4/CyLib.c ****     uint32 shift;
1344:.\Generated_Source\PSoC4/CyLib.c ****     uint32 value;
1345:.\Generated_Source\PSoC4/CyLib.c **** 
1346:.\Generated_Source\PSoC4/CyLib.c ****     CYASSERT(priority <= CY_MIN_PRIORITY);
1347:.\Generated_Source\PSoC4/CyLib.c ****     CYASSERT(number < CY_NUM_INTERRUPTS);
1348:.\Generated_Source\PSoC4/CyLib.c **** 
1349:.\Generated_Source\PSoC4/CyLib.c ****     shift = CY_INT_PRIORITY_SHIFT(number);
1350:.\Generated_Source\PSoC4/CyLib.c **** 
1351:.\Generated_Source\PSoC4/CyLib.c ****     interruptState = CyEnterCriticalSection();
1352:.\Generated_Source\PSoC4/CyLib.c **** 
1353:.\Generated_Source\PSoC4/CyLib.c ****     value = CY_INT_PRIORITY_REG(number);
1354:.\Generated_Source\PSoC4/CyLib.c ****     value &= (uint32)(~((uint32)(CY_INT_PRIORITY_MASK << shift)));
1355:.\Generated_Source\PSoC4/CyLib.c ****     value |= ((uint32)priority << shift);
1356:.\Generated_Source\PSoC4/CyLib.c ****     CY_INT_PRIORITY_REG(number) = value;
1357:.\Generated_Source\PSoC4/CyLib.c **** 
1358:.\Generated_Source\PSoC4/CyLib.c ****     CyExitCriticalSection(interruptState);
1359:.\Generated_Source\PSoC4/CyLib.c **** }
1360:.\Generated_Source\PSoC4/CyLib.c **** 
1361:.\Generated_Source\PSoC4/CyLib.c **** 
1362:.\Generated_Source\PSoC4/CyLib.c **** /*******************************************************************************
1363:.\Generated_Source\PSoC4/CyLib.c **** * Function Name: CyIntGetPriority
1364:.\Generated_Source\PSoC4/CyLib.c **** ********************************************************************************
1365:.\Generated_Source\PSoC4/CyLib.c **** *
1366:.\Generated_Source\PSoC4/CyLib.c **** * Summary:
1367:.\Generated_Source\PSoC4/CyLib.c **** *  Gets the priority of the interrupt.
1368:.\Generated_Source\PSoC4/CyLib.c **** *
1369:.\Generated_Source\PSoC4/CyLib.c **** * Parameters:
1370:.\Generated_Source\PSoC4/CyLib.c **** *  number: The number of the interrupt, 0 - 31.
1371:.\Generated_Source\PSoC4/CyLib.c **** *
1372:.\Generated_Source\PSoC4/CyLib.c **** * Return:
1373:.\Generated_Source\PSoC4/CyLib.c **** *  Priority of the interrupt. 0 - 3, 0 being the highest.
1374:.\Generated_Source\PSoC4/CyLib.c **** *
1375:.\Generated_Source\PSoC4/CyLib.c **** *******************************************************************************/
1376:.\Generated_Source\PSoC4/CyLib.c **** uint8 CyIntGetPriority(uint8 number)
1377:.\Generated_Source\PSoC4/CyLib.c **** {
1378:.\Generated_Source\PSoC4/CyLib.c ****     uint8 priority;
1379:.\Generated_Source\PSoC4/CyLib.c **** 
1380:.\Generated_Source\PSoC4/CyLib.c ****     CYASSERT(number < CY_NUM_INTERRUPTS);
1381:.\Generated_Source\PSoC4/CyLib.c **** 
1382:.\Generated_Source\PSoC4/CyLib.c ****     priority = (uint8) (CY_INT_PRIORITY_REG(number) >> CY_INT_PRIORITY_SHIFT(number));
1383:.\Generated_Source\PSoC4/CyLib.c **** 
1384:.\Generated_Source\PSoC4/CyLib.c ****     return (priority & (uint8) CY_INT_PRIORITY_MASK);
1385:.\Generated_Source\PSoC4/CyLib.c **** }
1386:.\Generated_Source\PSoC4/CyLib.c **** 
1387:.\Generated_Source\PSoC4/CyLib.c **** 
ARM GAS  C:\Users\kees\AppData\Local\Temp\ccxzCKRQ.s 			page 37


1388:.\Generated_Source\PSoC4/CyLib.c **** /*******************************************************************************
1389:.\Generated_Source\PSoC4/CyLib.c **** * Function Name: CyIntEnable
1390:.\Generated_Source\PSoC4/CyLib.c **** ********************************************************************************
1391:.\Generated_Source\PSoC4/CyLib.c **** *
1392:.\Generated_Source\PSoC4/CyLib.c **** * Summary:
1393:.\Generated_Source\PSoC4/CyLib.c **** *  Enables the specified interrupt number.
1394:.\Generated_Source\PSoC4/CyLib.c **** *
1395:.\Generated_Source\PSoC4/CyLib.c **** * Parameters:
1396:.\Generated_Source\PSoC4/CyLib.c **** *  number: Valid range [0-31].  Interrupt number
1397:.\Generated_Source\PSoC4/CyLib.c **** *
1398:.\Generated_Source\PSoC4/CyLib.c **** * Return:
1399:.\Generated_Source\PSoC4/CyLib.c **** *  None
1400:.\Generated_Source\PSoC4/CyLib.c **** *
1401:.\Generated_Source\PSoC4/CyLib.c **** *******************************************************************************/
1402:.\Generated_Source\PSoC4/CyLib.c **** void CyIntEnable(uint8 number)
1403:.\Generated_Source\PSoC4/CyLib.c **** {
 662              		.loc 1 1403 0
 663              		.cfi_startproc
 664              	.LVL23:
1404:.\Generated_Source\PSoC4/CyLib.c ****     CY_INT_ENABLE_REG = ((uint32) 0x01u << (CY_INT_ENABLE_RANGE_MASK & number));
 665              		.loc 1 1404 0
 666 0000 1F23     		mov	r3, #31
 667 0002 1840     		and	r0, r0, r3
 668              	.LVL24:
 669 0004 0123     		mov	r3, #1
 670 0006 8340     		lsl	r3, r3, r0
 671 0008 181C     		mov	r0, r3
 672 000a 014B     		ldr	r3, .L83
1405:.\Generated_Source\PSoC4/CyLib.c **** }
 673              		.loc 1 1405 0
 674              		@ sp needed for prologue
 675              		.loc 1 1404 0
 676 000c 1860     		str	r0, [r3]
 677              		.loc 1 1405 0
 678 000e 7047     		bx	lr
 679              	.L84:
 680              		.align	2
 681              	.L83:
 682 0010 00E100E0 		.word	-536813312
 683              		.cfi_endproc
 684              	.LFE38:
 685              		.size	CyIntEnable, .-CyIntEnable
 686              		.section	.text.CyIntGetState,"ax",%progbits
 687              		.align	1
 688              		.global	CyIntGetState
 689              		.code	16
 690              		.thumb_func
 691              		.type	CyIntGetState, %function
 692              	CyIntGetState:
 693              	.LFB39:
1406:.\Generated_Source\PSoC4/CyLib.c **** 
1407:.\Generated_Source\PSoC4/CyLib.c **** 
1408:.\Generated_Source\PSoC4/CyLib.c **** /*******************************************************************************
1409:.\Generated_Source\PSoC4/CyLib.c **** * Function Name: CyIntGetState
1410:.\Generated_Source\PSoC4/CyLib.c **** ********************************************************************************
1411:.\Generated_Source\PSoC4/CyLib.c **** *
1412:.\Generated_Source\PSoC4/CyLib.c **** * Summary:
ARM GAS  C:\Users\kees\AppData\Local\Temp\ccxzCKRQ.s 			page 38


1413:.\Generated_Source\PSoC4/CyLib.c **** *  Gets the enable state of the specified interrupt number.
1414:.\Generated_Source\PSoC4/CyLib.c **** *
1415:.\Generated_Source\PSoC4/CyLib.c **** * Parameters:
1416:.\Generated_Source\PSoC4/CyLib.c **** *  number: Valid range [0-31].  Interrupt number.
1417:.\Generated_Source\PSoC4/CyLib.c **** *
1418:.\Generated_Source\PSoC4/CyLib.c **** * Return:
1419:.\Generated_Source\PSoC4/CyLib.c **** *  Enable status: 1 if enabled, 0 if disabled
1420:.\Generated_Source\PSoC4/CyLib.c **** *
1421:.\Generated_Source\PSoC4/CyLib.c **** *******************************************************************************/
1422:.\Generated_Source\PSoC4/CyLib.c **** uint8 CyIntGetState(uint8 number)
1423:.\Generated_Source\PSoC4/CyLib.c **** {
 694              		.loc 1 1423 0
 695              		.cfi_startproc
 696              	.LVL25:
1424:.\Generated_Source\PSoC4/CyLib.c ****     /* Get the state of the interrupt. */
1425:.\Generated_Source\PSoC4/CyLib.c ****     return ((0u != (CY_INT_ENABLE_REG & ((uint32) 0x01u << (CY_INT_ENABLE_RANGE_MASK & number)))) ?
 697              		.loc 1 1425 0
 698 0000 044B     		ldr	r3, .L87
 699 0002 1F22     		mov	r2, #31
 700 0004 1B68     		ldr	r3, [r3]
 701 0006 1040     		and	r0, r0, r2
 702              	.LVL26:
 703 0008 C340     		lsr	r3, r3, r0
 704 000a 181C     		mov	r0, r3
 705 000c 0123     		mov	r3, #1
 706 000e 1840     		and	r0, r0, r3
1426:.\Generated_Source\PSoC4/CyLib.c **** }
 707              		.loc 1 1426 0
 708              		@ sp needed for prologue
 709 0010 7047     		bx	lr
 710              	.L88:
 711 0012 C046     		.align	2
 712              	.L87:
 713 0014 00E100E0 		.word	-536813312
 714              		.cfi_endproc
 715              	.LFE39:
 716              		.size	CyIntGetState, .-CyIntGetState
 717              		.section	.text.CyIntDisable,"ax",%progbits
 718              		.align	1
 719              		.global	CyIntDisable
 720              		.code	16
 721              		.thumb_func
 722              		.type	CyIntDisable, %function
 723              	CyIntDisable:
 724              	.LFB40:
1427:.\Generated_Source\PSoC4/CyLib.c **** 
1428:.\Generated_Source\PSoC4/CyLib.c **** 
1429:.\Generated_Source\PSoC4/CyLib.c **** /*******************************************************************************
1430:.\Generated_Source\PSoC4/CyLib.c **** * Function Name: CyIntDisable
1431:.\Generated_Source\PSoC4/CyLib.c **** ********************************************************************************
1432:.\Generated_Source\PSoC4/CyLib.c **** *
1433:.\Generated_Source\PSoC4/CyLib.c **** * Summary:
1434:.\Generated_Source\PSoC4/CyLib.c **** *   Disables the specified interrupt number.
1435:.\Generated_Source\PSoC4/CyLib.c **** *
1436:.\Generated_Source\PSoC4/CyLib.c **** * Parameters:
1437:.\Generated_Source\PSoC4/CyLib.c **** *   number: Valid range [0-31].  Interrupt number.
1438:.\Generated_Source\PSoC4/CyLib.c **** *
ARM GAS  C:\Users\kees\AppData\Local\Temp\ccxzCKRQ.s 			page 39


1439:.\Generated_Source\PSoC4/CyLib.c **** * Return:
1440:.\Generated_Source\PSoC4/CyLib.c **** *  None
1441:.\Generated_Source\PSoC4/CyLib.c **** *
1442:.\Generated_Source\PSoC4/CyLib.c **** *******************************************************************************/
1443:.\Generated_Source\PSoC4/CyLib.c **** void CyIntDisable(uint8 number)
1444:.\Generated_Source\PSoC4/CyLib.c **** {
 725              		.loc 1 1444 0
 726              		.cfi_startproc
 727              	.LVL27:
1445:.\Generated_Source\PSoC4/CyLib.c ****     CY_INT_CLEAR_REG = ((uint32) 0x01u << (CY_INT_ENABLE_RANGE_MASK & number));
 728              		.loc 1 1445 0
 729 0000 1F23     		mov	r3, #31
 730 0002 1840     		and	r0, r0, r3
 731              	.LVL28:
 732 0004 0123     		mov	r3, #1
 733 0006 8340     		lsl	r3, r3, r0
 734 0008 181C     		mov	r0, r3
 735 000a 014B     		ldr	r3, .L91
1446:.\Generated_Source\PSoC4/CyLib.c **** }
 736              		.loc 1 1446 0
 737              		@ sp needed for prologue
 738              		.loc 1 1445 0
 739 000c 1860     		str	r0, [r3]
 740              		.loc 1 1446 0
 741 000e 7047     		bx	lr
 742              	.L92:
 743              		.align	2
 744              	.L91:
 745 0010 80E100E0 		.word	-536813184
 746              		.cfi_endproc
 747              	.LFE40:
 748              		.size	CyIntDisable, .-CyIntDisable
 749              		.section	.text.CyIntSetPending,"ax",%progbits
 750              		.align	1
 751              		.global	CyIntSetPending
 752              		.code	16
 753              		.thumb_func
 754              		.type	CyIntSetPending, %function
 755              	CyIntSetPending:
 756              	.LFB41:
1447:.\Generated_Source\PSoC4/CyLib.c **** 
1448:.\Generated_Source\PSoC4/CyLib.c **** /*******************************************************************************
1449:.\Generated_Source\PSoC4/CyLib.c **** * Function Name: CyIntSetPending
1450:.\Generated_Source\PSoC4/CyLib.c **** ********************************************************************************
1451:.\Generated_Source\PSoC4/CyLib.c **** *
1452:.\Generated_Source\PSoC4/CyLib.c **** * Summary:
1453:.\Generated_Source\PSoC4/CyLib.c **** *  Forces the specified interrupt number to be pending.
1454:.\Generated_Source\PSoC4/CyLib.c **** *
1455:.\Generated_Source\PSoC4/CyLib.c **** * Parameters:
1456:.\Generated_Source\PSoC4/CyLib.c **** *  number: Valid range [0-31].  Interrupt number.
1457:.\Generated_Source\PSoC4/CyLib.c **** *
1458:.\Generated_Source\PSoC4/CyLib.c **** * Return:
1459:.\Generated_Source\PSoC4/CyLib.c **** *  None
1460:.\Generated_Source\PSoC4/CyLib.c **** *
1461:.\Generated_Source\PSoC4/CyLib.c **** *******************************************************************************/
1462:.\Generated_Source\PSoC4/CyLib.c **** void CyIntSetPending(uint8 number)
1463:.\Generated_Source\PSoC4/CyLib.c **** {
ARM GAS  C:\Users\kees\AppData\Local\Temp\ccxzCKRQ.s 			page 40


 757              		.loc 1 1463 0
 758              		.cfi_startproc
 759              	.LVL29:
1464:.\Generated_Source\PSoC4/CyLib.c ****     CY_INT_SET_PEND_REG = ((uint32) 0x01u << (CY_INT_ENABLE_RANGE_MASK & number));
 760              		.loc 1 1464 0
 761 0000 1F23     		mov	r3, #31
 762 0002 1840     		and	r0, r0, r3
 763              	.LVL30:
 764 0004 0123     		mov	r3, #1
 765 0006 8340     		lsl	r3, r3, r0
 766 0008 181C     		mov	r0, r3
 767 000a 014B     		ldr	r3, .L95
1465:.\Generated_Source\PSoC4/CyLib.c **** }
 768              		.loc 1 1465 0
 769              		@ sp needed for prologue
 770              		.loc 1 1464 0
 771 000c 1860     		str	r0, [r3]
 772              		.loc 1 1465 0
 773 000e 7047     		bx	lr
 774              	.L96:
 775              		.align	2
 776              	.L95:
 777 0010 00E200E0 		.word	-536813056
 778              		.cfi_endproc
 779              	.LFE41:
 780              		.size	CyIntSetPending, .-CyIntSetPending
 781              		.section	.text.CyIntClearPending,"ax",%progbits
 782              		.align	1
 783              		.global	CyIntClearPending
 784              		.code	16
 785              		.thumb_func
 786              		.type	CyIntClearPending, %function
 787              	CyIntClearPending:
 788              	.LFB42:
1466:.\Generated_Source\PSoC4/CyLib.c **** 
1467:.\Generated_Source\PSoC4/CyLib.c **** 
1468:.\Generated_Source\PSoC4/CyLib.c **** /*******************************************************************************
1469:.\Generated_Source\PSoC4/CyLib.c **** * Function Name: CyIntClearPending
1470:.\Generated_Source\PSoC4/CyLib.c **** ********************************************************************************
1471:.\Generated_Source\PSoC4/CyLib.c **** *
1472:.\Generated_Source\PSoC4/CyLib.c **** * Summary:
1473:.\Generated_Source\PSoC4/CyLib.c **** *  Clears any pending interrupt for the specified interrupt number.
1474:.\Generated_Source\PSoC4/CyLib.c **** *
1475:.\Generated_Source\PSoC4/CyLib.c **** * Parameters:
1476:.\Generated_Source\PSoC4/CyLib.c **** *  number: Valid range [0-31].  Interrupt number.
1477:.\Generated_Source\PSoC4/CyLib.c **** *
1478:.\Generated_Source\PSoC4/CyLib.c **** * Return:
1479:.\Generated_Source\PSoC4/CyLib.c **** *  None
1480:.\Generated_Source\PSoC4/CyLib.c **** *
1481:.\Generated_Source\PSoC4/CyLib.c **** *******************************************************************************/
1482:.\Generated_Source\PSoC4/CyLib.c **** void CyIntClearPending(uint8 number)
1483:.\Generated_Source\PSoC4/CyLib.c **** {
 789              		.loc 1 1483 0
 790              		.cfi_startproc
 791              	.LVL31:
1484:.\Generated_Source\PSoC4/CyLib.c ****     CY_INT_CLR_PEND_REG = ((uint32) 0x01u << (CY_INT_ENABLE_RANGE_MASK & number));
 792              		.loc 1 1484 0
ARM GAS  C:\Users\kees\AppData\Local\Temp\ccxzCKRQ.s 			page 41


 793 0000 1F23     		mov	r3, #31
 794 0002 1840     		and	r0, r0, r3
 795              	.LVL32:
 796 0004 0123     		mov	r3, #1
 797 0006 8340     		lsl	r3, r3, r0
 798 0008 181C     		mov	r0, r3
 799 000a 014B     		ldr	r3, .L99
1485:.\Generated_Source\PSoC4/CyLib.c **** }
 800              		.loc 1 1485 0
 801              		@ sp needed for prologue
 802              		.loc 1 1484 0
 803 000c 1860     		str	r0, [r3]
 804              		.loc 1 1485 0
 805 000e 7047     		bx	lr
 806              	.L100:
 807              		.align	2
 808              	.L99:
 809 0010 80E200E0 		.word	-536812928
 810              		.cfi_endproc
 811              	.LFE42:
 812              		.size	CyIntClearPending, .-CyIntClearPending
 813              		.section	.text.CyHalt,"ax",%progbits
 814              		.align	1
 815              		.global	CyHalt
 816              		.code	16
 817              		.thumb_func
 818              		.type	CyHalt, %function
 819              	CyHalt:
 820              	.LFB43:
1486:.\Generated_Source\PSoC4/CyLib.c **** 
1487:.\Generated_Source\PSoC4/CyLib.c **** 
1488:.\Generated_Source\PSoC4/CyLib.c **** /*******************************************************************************
1489:.\Generated_Source\PSoC4/CyLib.c **** * Function Name: CyHalt
1490:.\Generated_Source\PSoC4/CyLib.c **** ********************************************************************************
1491:.\Generated_Source\PSoC4/CyLib.c **** *
1492:.\Generated_Source\PSoC4/CyLib.c **** * Summary:
1493:.\Generated_Source\PSoC4/CyLib.c **** *  Halts the CPU.
1494:.\Generated_Source\PSoC4/CyLib.c **** *
1495:.\Generated_Source\PSoC4/CyLib.c **** * Parameters:
1496:.\Generated_Source\PSoC4/CyLib.c **** *  reason: Value to be used during debugging.
1497:.\Generated_Source\PSoC4/CyLib.c **** *
1498:.\Generated_Source\PSoC4/CyLib.c **** * Return:
1499:.\Generated_Source\PSoC4/CyLib.c **** *  None
1500:.\Generated_Source\PSoC4/CyLib.c **** *
1501:.\Generated_Source\PSoC4/CyLib.c **** *******************************************************************************/
1502:.\Generated_Source\PSoC4/CyLib.c **** void CyHalt(uint8 reason)
1503:.\Generated_Source\PSoC4/CyLib.c **** {
 821              		.loc 1 1503 0
 822              		.cfi_startproc
 823              	.LVL33:
1504:.\Generated_Source\PSoC4/CyLib.c ****     if(0u != reason)
1505:.\Generated_Source\PSoC4/CyLib.c ****     {
1506:.\Generated_Source\PSoC4/CyLib.c ****         /* To remove unreferenced local variable warning */
1507:.\Generated_Source\PSoC4/CyLib.c ****     }
1508:.\Generated_Source\PSoC4/CyLib.c **** 
1509:.\Generated_Source\PSoC4/CyLib.c ****     #if defined (__ARMCC_VERSION)
1510:.\Generated_Source\PSoC4/CyLib.c ****         __breakpoint(0x0);
ARM GAS  C:\Users\kees\AppData\Local\Temp\ccxzCKRQ.s 			page 42


1511:.\Generated_Source\PSoC4/CyLib.c ****     #elif defined(__GNUC__)
1512:.\Generated_Source\PSoC4/CyLib.c ****         __asm("    bkpt    1");
 824              		.loc 1 1512 0
 825              	@ 1512 ".\Generated_Source\PSoC4\CyLib.c" 1
 826 0000 01BE     		    bkpt    1
 827              	@ 0 "" 2
1513:.\Generated_Source\PSoC4/CyLib.c ****     #elif defined(__C51__)
1514:.\Generated_Source\PSoC4/CyLib.c ****         CYDEV_HALT_CPU;
1515:.\Generated_Source\PSoC4/CyLib.c ****     #endif  /* (__ARMCC_VERSION) */
1516:.\Generated_Source\PSoC4/CyLib.c **** }
 828              		.loc 1 1516 0
 829              		.code	16
 830              		@ sp needed for prologue
 831 0002 7047     		bx	lr
 832              		.cfi_endproc
 833              	.LFE43:
 834              		.size	CyHalt, .-CyHalt
 835              		.section	.text.CyIntGetPriority,"ax",%progbits
 836              		.align	1
 837              		.global	CyIntGetPriority
 838              		.code	16
 839              		.thumb_func
 840              		.type	CyIntGetPriority, %function
 841              	CyIntGetPriority:
 842              	.LFB37:
 843              		.loc 1 1377 0
 844              		.cfi_startproc
 845 0000 10B5     		push	{r4, lr}
 846              	.LCFI4:
 847              		.cfi_def_cfa_offset 8
 848              		.cfi_offset 4, -8
 849              		.cfi_offset 14, -4
 850              	.LVL34:
 851              		.loc 1 1377 0
 852 0002 041C     		mov	r4, r0
 853              		.loc 1 1380 0
 854 0004 1F28     		cmp	r0, #31
 855 0006 02D9     		bls	.L104
 856 0008 0020     		mov	r0, #0
 857              	.LVL35:
 858 000a FFF7FEFF 		bl	CyHalt
 859              	.LVL36:
 860              	.L104:
 861              		.loc 1 1382 0
 862 000e A308     		lsr	r3, r4, #2
 863 0010 054A     		ldr	r2, .L106
 864 0012 9B00     		lsl	r3, r3, #2
 865 0014 9B18     		add	r3, r3, r2
 866 0016 1868     		ldr	r0, [r3]
 867 0018 0323     		mov	r3, #3
 868 001a 1C40     		and	r4, r4, r3
 869              	.LVL37:
 870 001c E400     		lsl	r4, r4, #3
 871 001e 0634     		add	r4, r4, #6
 872 0020 E040     		lsr	r0, r0, r4
 873 0022 1840     		and	r0, r0, r3
 874              		.loc 1 1385 0
ARM GAS  C:\Users\kees\AppData\Local\Temp\ccxzCKRQ.s 			page 43


 875              		@ sp needed for prologue
 876 0024 10BD     		pop	{r4, pc}
 877              	.L107:
 878 0026 C046     		.align	2
 879              	.L106:
 880 0028 00E400E0 		.word	-536812544
 881              		.cfi_endproc
 882              	.LFE37:
 883              		.size	CyIntGetPriority, .-CyIntGetPriority
 884              		.section	.text.CyIntGetVector,"ax",%progbits
 885              		.align	1
 886              		.global	CyIntGetVector
 887              		.code	16
 888              		.thumb_func
 889              		.type	CyIntGetVector, %function
 890              	CyIntGetVector:
 891              	.LFB35:
 892              		.loc 1 1317 0
 893              		.cfi_startproc
 894 0000 10B5     		push	{r4, lr}
 895              	.LCFI5:
 896              		.cfi_def_cfa_offset 8
 897              		.cfi_offset 4, -8
 898              		.cfi_offset 14, -4
 899              	.LVL38:
 900              		.loc 1 1317 0
 901 0002 041C     		mov	r4, r0
 902              		.loc 1 1320 0
 903 0004 1F28     		cmp	r0, #31
 904 0006 02D9     		bls	.L109
 905 0008 0020     		mov	r0, #0
 906              	.LVL39:
 907 000a FFF7FEFF 		bl	CyHalt
 908              	.LVL40:
 909              	.L109:
 910 000e 024B     		ldr	r3, .L111
 911 0010 A400     		lsl	r4, r4, #2
 912              	.LVL41:
 913 0012 E418     		add	r4, r4, r3
 914 0014 2068     		ldr	r0, [r4]
 915              	.LVL42:
 916              		.loc 1 1323 0
 917              		@ sp needed for prologue
 918 0016 10BD     		pop	{r4, pc}
 919              	.L112:
 920              		.align	2
 921              	.L111:
 922 0018 40000020 		.word	536870976
 923              		.cfi_endproc
 924              	.LFE35:
 925              		.size	CyIntGetVector, .-CyIntGetVector
 926              		.section	.text.CyIntSetVector,"ax",%progbits
 927              		.align	1
 928              		.global	CyIntSetVector
 929              		.code	16
 930              		.thumb_func
 931              		.type	CyIntSetVector, %function
ARM GAS  C:\Users\kees\AppData\Local\Temp\ccxzCKRQ.s 			page 44


 932              	CyIntSetVector:
 933              	.LFB34:
 934              		.loc 1 1286 0
 935              		.cfi_startproc
 936 0000 38B5     		push	{r3, r4, r5, lr}
 937              	.LCFI6:
 938              		.cfi_def_cfa_offset 16
 939              		.cfi_offset 3, -16
 940              		.cfi_offset 4, -12
 941              		.cfi_offset 5, -8
 942              		.cfi_offset 14, -4
 943              	.LVL43:
 944              		.loc 1 1286 0
 945 0002 041C     		mov	r4, r0
 946 0004 0D1C     		mov	r5, r1
 947              		.loc 1 1290 0
 948 0006 1F28     		cmp	r0, #31
 949 0008 02D9     		bls	.L114
 950              	.LVL44:
 951 000a 0020     		mov	r0, #0
 952              	.LVL45:
 953 000c FFF7FEFF 		bl	CyHalt
 954              	.LVL46:
 955              	.L114:
 956              		.loc 1 1293 0
 957 0010 024B     		ldr	r3, .L116
 958 0012 A400     		lsl	r4, r4, #2
 959              	.LVL47:
 960 0014 E418     		add	r4, r4, r3
 961 0016 2068     		ldr	r0, [r4]
 962              	.LVL48:
 963              		.loc 1 1299 0
 964              		@ sp needed for prologue
 965              		.loc 1 1296 0
 966 0018 2560     		str	r5, [r4]
 967              	.LVL49:
 968              	.LVL50:
 969              		.loc 1 1299 0
 970 001a 38BD     		pop	{r3, r4, r5, pc}
 971              	.L117:
 972              		.align	2
 973              	.L116:
 974 001c 40000020 		.word	536870976
 975              		.cfi_endproc
 976              	.LFE34:
 977              		.size	CyIntSetVector, .-CyIntSetVector
 978              		.section	.text.CyIntGetSysVector,"ax",%progbits
 979              		.align	1
 980              		.global	CyIntGetSysVector
 981              		.code	16
 982              		.thumb_func
 983              		.type	CyIntGetSysVector, %function
 984              	CyIntGetSysVector:
 985              	.LFB33:
 986              		.loc 1 1261 0
 987              		.cfi_startproc
 988 0000 10B5     		push	{r4, lr}
ARM GAS  C:\Users\kees\AppData\Local\Temp\ccxzCKRQ.s 			page 45


 989              	.LCFI7:
 990              		.cfi_def_cfa_offset 8
 991              		.cfi_offset 4, -8
 992              		.cfi_offset 14, -4
 993              	.LVL51:
 994              		.loc 1 1261 0
 995 0002 041C     		mov	r4, r0
 996              		.loc 1 1264 0
 997 0004 0F28     		cmp	r0, #15
 998 0006 02D9     		bls	.L119
 999 0008 0020     		mov	r0, #0
 1000              	.LVL52:
 1001 000a FFF7FEFF 		bl	CyHalt
 1002              	.LVL53:
 1003              	.L119:
 1004 000e 8023     		mov	r3, #128
 1005 0010 9B05     		lsl	r3, r3, #22
 1006 0012 A400     		lsl	r4, r4, #2
 1007              	.LVL54:
 1008 0014 E418     		add	r4, r4, r3
 1009 0016 2068     		ldr	r0, [r4]
 1010              	.LVL55:
 1011              		.loc 1 1267 0
 1012              		@ sp needed for prologue
 1013 0018 10BD     		pop	{r4, pc}
 1014              		.cfi_endproc
 1015              	.LFE33:
 1016              		.size	CyIntGetSysVector, .-CyIntGetSysVector
 1017              		.section	.text.CyIntSetSysVector,"ax",%progbits
 1018              		.align	1
 1019              		.global	CyIntSetSysVector
 1020              		.code	16
 1021              		.thumb_func
 1022              		.type	CyIntSetSysVector, %function
 1023              	CyIntSetSysVector:
 1024              	.LFB32:
 1025              		.loc 1 1229 0
 1026              		.cfi_startproc
 1027 0000 38B5     		push	{r3, r4, r5, lr}
 1028              	.LCFI8:
 1029              		.cfi_def_cfa_offset 16
 1030              		.cfi_offset 3, -16
 1031              		.cfi_offset 4, -12
 1032              		.cfi_offset 5, -8
 1033              		.cfi_offset 14, -4
 1034              	.LVL56:
 1035              		.loc 1 1229 0
 1036 0002 041C     		mov	r4, r0
 1037 0004 0D1C     		mov	r5, r1
 1038              		.loc 1 1233 0
 1039 0006 0F28     		cmp	r0, #15
 1040 0008 02D9     		bls	.L122
 1041              	.LVL57:
 1042 000a 0020     		mov	r0, #0
 1043              	.LVL58:
 1044 000c FFF7FEFF 		bl	CyHalt
 1045              	.LVL59:
ARM GAS  C:\Users\kees\AppData\Local\Temp\ccxzCKRQ.s 			page 46


 1046              	.L122:
 1047              		.loc 1 1236 0
 1048 0010 8023     		mov	r3, #128
 1049 0012 9B05     		lsl	r3, r3, #22
 1050 0014 A400     		lsl	r4, r4, #2
 1051              	.LVL60:
 1052 0016 E418     		add	r4, r4, r3
 1053 0018 2068     		ldr	r0, [r4]
 1054              	.LVL61:
 1055              		.loc 1 1242 0
 1056              		@ sp needed for prologue
 1057              		.loc 1 1239 0
 1058 001a 2560     		str	r5, [r4]
 1059              	.LVL62:
 1060              	.LVL63:
 1061              		.loc 1 1242 0
 1062 001c 38BD     		pop	{r3, r4, r5, pc}
 1063              		.cfi_endproc
 1064              	.LFE32:
 1065              		.size	CyIntSetSysVector, .-CyIntSetSysVector
 1066              		.section	.text.CySysWdtReadCount,"ax",%progbits
 1067              		.align	1
 1068              		.global	CySysWdtReadCount
 1069              		.code	16
 1070              		.thumb_func
 1071              		.type	CySysWdtReadCount, %function
 1072              	CySysWdtReadCount:
 1073              	.LFB22:
 1074              		.loc 1 892 0
 1075              		.cfi_startproc
 1076 0000 08B5     		push	{r3, lr}
 1077              	.LCFI9:
 1078              		.cfi_def_cfa_offset 8
 1079              		.cfi_offset 3, -8
 1080              		.cfi_offset 14, -4
 1081              	.LVL64:
 1082              		.loc 1 895 0
 1083 0002 0128     		cmp	r0, #1
 1084 0004 08D0     		beq	.L127
 1085 0006 0028     		cmp	r0, #0
 1086 0008 02D0     		beq	.L126
 1087 000a 0228     		cmp	r0, #2
 1088 000c 0BD1     		bne	.L131
 1089 000e 07E0     		b	.L133
 1090              	.L126:
 1091              		.loc 1 899 0
 1092 0010 074B     		ldr	r3, .L134
 1093 0012 1868     		ldr	r0, [r3]
 1094              	.LVL65:
 1095 0014 80B2     		uxth	r0, r0
 1096              	.LVL66:
 1097              		.loc 1 900 0
 1098 0016 0AE0     		b	.L129
 1099              	.LVL67:
 1100              	.L127:
 1101              		.loc 1 904 0
 1102 0018 054B     		ldr	r3, .L134
ARM GAS  C:\Users\kees\AppData\Local\Temp\ccxzCKRQ.s 			page 47


 1103 001a 1868     		ldr	r0, [r3]
 1104              	.LVL68:
 1105 001c 000C     		lsr	r0, r0, #16
 1106              	.LVL69:
 1107              		.loc 1 905 0
 1108 001e 06E0     		b	.L129
 1109              	.LVL70:
 1110              	.L133:
 1111              		.loc 1 909 0
 1112 0020 044B     		ldr	r3, .L134+4
 1113 0022 1868     		ldr	r0, [r3]
 1114              	.LVL71:
 1115              		.loc 1 910 0
 1116 0024 03E0     		b	.L129
 1117              	.LVL72:
 1118              	.L131:
 1119              		.loc 1 913 0
 1120 0026 0020     		mov	r0, #0
 1121              	.LVL73:
 1122 0028 FFF7FEFF 		bl	CyHalt
 1123 002c 0020     		mov	r0, #0
 1124              	.LVL74:
 1125              	.L129:
 1126              	.LVL75:
 1127              		.loc 1 918 0
 1128              		@ sp needed for prologue
 1129 002e 08BD     		pop	{r3, pc}
 1130              	.L135:
 1131              		.align	2
 1132              	.L134:
 1133 0030 00020B40 		.word	1074463232
 1134 0034 04020B40 		.word	1074463236
 1135              		.cfi_endproc
 1136              	.LFE22:
 1137              		.size	CySysWdtReadCount, .-CySysWdtReadCount
 1138              		.section	.text.CySysWdtReadMatch,"ax",%progbits
 1139              		.align	1
 1140              		.global	CySysWdtReadMatch
 1141              		.code	16
 1142              		.thumb_func
 1143              		.type	CySysWdtReadMatch, %function
 1144              	CySysWdtReadMatch:
 1145              	.LFB21:
 1146              		.loc 1 868 0
 1147              		.cfi_startproc
 1148 0000 10B5     		push	{r4, lr}
 1149              	.LCFI10:
 1150              		.cfi_def_cfa_offset 8
 1151              		.cfi_offset 4, -8
 1152              		.cfi_offset 14, -4
 1153              	.LVL76:
 1154              		.loc 1 868 0
 1155 0002 041C     		mov	r4, r0
 1156              		.loc 1 869 0
 1157 0004 0128     		cmp	r0, #1
 1158 0006 02D9     		bls	.L137
 1159 0008 0020     		mov	r0, #0
ARM GAS  C:\Users\kees\AppData\Local\Temp\ccxzCKRQ.s 			page 48


 1160              	.LVL77:
 1161 000a FFF7FEFF 		bl	CyHalt
 1162              	.LVL78:
 1163              	.L137:
 1164              		.loc 1 872 0
 1165 000e 034B     		ldr	r3, .L139
 1166 0010 2401     		lsl	r4, r4, #4
 1167              	.LVL79:
 1168 0012 1868     		ldr	r0, [r3]
 1169              	.LVL80:
 1170              		.loc 1 873 0
 1171              		@ sp needed for prologue
 1172              		.loc 1 872 0
 1173 0014 E040     		lsr	r0, r0, r4
 1174 0016 80B2     		uxth	r0, r0
 1175              		.loc 1 873 0
 1176 0018 10BD     		pop	{r4, pc}
 1177              	.L140:
 1178 001a C046     		.align	2
 1179              	.L139:
 1180 001c 08020B40 		.word	1074463240
 1181              		.cfi_endproc
 1182              	.LFE21:
 1183              		.size	CySysWdtReadMatch, .-CySysWdtReadMatch
 1184              		.section	.text.CySysWdtReadClearOnMatch,"ax",%progbits
 1185              		.align	1
 1186              		.global	CySysWdtReadClearOnMatch
 1187              		.code	16
 1188              		.thumb_func
 1189              		.type	CySysWdtReadClearOnMatch, %function
 1190              	CySysWdtReadClearOnMatch:
 1191              	.LFB13:
 1192              		.loc 1 583 0
 1193              		.cfi_startproc
 1194 0000 10B5     		push	{r4, lr}
 1195              	.LCFI11:
 1196              		.cfi_def_cfa_offset 8
 1197              		.cfi_offset 4, -8
 1198              		.cfi_offset 14, -4
 1199              	.LVL81:
 1200              		.loc 1 583 0
 1201 0002 041C     		mov	r4, r0
 1202              		.loc 1 584 0
 1203 0004 0128     		cmp	r0, #1
 1204 0006 02D9     		bls	.L142
 1205 0008 0020     		mov	r0, #0
 1206              	.LVL82:
 1207 000a FFF7FEFF 		bl	CyHalt
 1208              	.LVL83:
 1209              	.L142:
 1210              		.loc 1 587 0
 1211 000e 044B     		ldr	r3, .L144
 1212 0010 E400     		lsl	r4, r4, #3
 1213              	.LVL84:
 1214 0012 1868     		ldr	r0, [r3]
 1215              	.LVL85:
 1216 0014 0234     		add	r4, r4, #2
ARM GAS  C:\Users\kees\AppData\Local\Temp\ccxzCKRQ.s 			page 49


 1217 0016 E040     		lsr	r0, r0, r4
 1218 0018 0123     		mov	r3, #1
 1219 001a 1840     		and	r0, r0, r3
 1220              		.loc 1 589 0
 1221              		@ sp needed for prologue
 1222 001c 10BD     		pop	{r4, pc}
 1223              	.L145:
 1224 001e C046     		.align	2
 1225              	.L144:
 1226 0020 0C020B40 		.word	1074463244
 1227              		.cfi_endproc
 1228              	.LFE13:
 1229              		.size	CySysWdtReadClearOnMatch, .-CySysWdtReadClearOnMatch
 1230              		.section	.text.CySysWdtReadEnabledStatus,"ax",%progbits
 1231              		.align	1
 1232              		.global	CySysWdtReadEnabledStatus
 1233              		.code	16
 1234              		.thumb_func
 1235              		.type	CySysWdtReadEnabledStatus, %function
 1236              	CySysWdtReadEnabledStatus:
 1237              	.LFB9:
 1238              		.loc 1 439 0
 1239              		.cfi_startproc
 1240 0000 10B5     		push	{r4, lr}
 1241              	.LCFI12:
 1242              		.cfi_def_cfa_offset 8
 1243              		.cfi_offset 4, -8
 1244              		.cfi_offset 14, -4
 1245              	.LVL86:
 1246              		.loc 1 439 0
 1247 0002 041C     		mov	r4, r0
 1248              		.loc 1 440 0
 1249 0004 0228     		cmp	r0, #2
 1250 0006 02D9     		bls	.L147
 1251 0008 0020     		mov	r0, #0
 1252              	.LVL87:
 1253 000a FFF7FEFF 		bl	CyHalt
 1254              	.LVL88:
 1255              	.L147:
 1256              		.loc 1 442 0
 1257 000e 044B     		ldr	r3, .L149
 1258 0010 E400     		lsl	r4, r4, #3
 1259              	.LVL89:
 1260 0012 1868     		ldr	r0, [r3]
 1261              	.LVL90:
 1262 0014 0134     		add	r4, r4, #1
 1263 0016 E040     		lsr	r0, r0, r4
 1264 0018 0123     		mov	r3, #1
 1265 001a 1840     		and	r0, r0, r3
 1266              		.loc 1 443 0
 1267              		@ sp needed for prologue
 1268 001c 10BD     		pop	{r4, pc}
 1269              	.L150:
 1270 001e C046     		.align	2
 1271              	.L149:
 1272 0020 10020B40 		.word	1074463248
 1273              		.cfi_endproc
ARM GAS  C:\Users\kees\AppData\Local\Temp\ccxzCKRQ.s 			page 50


 1274              	.LFE9:
 1275              		.size	CySysWdtReadEnabledStatus, .-CySysWdtReadEnabledStatus
 1276              		.section	.text.CySysWdtWriteToggleBit,"ax",%progbits
 1277              		.align	1
 1278              		.global	CySysWdtWriteToggleBit
 1279              		.code	16
 1280              		.thumb_func
 1281              		.type	CySysWdtWriteToggleBit, %function
 1282              	CySysWdtWriteToggleBit:
 1283              	.LFB19:
 1284              		.loc 1 811 0
 1285              		.cfi_startproc
 1286 0000 10B5     		push	{r4, lr}
 1287              	.LCFI13:
 1288              		.cfi_def_cfa_offset 8
 1289              		.cfi_offset 4, -8
 1290              		.cfi_offset 14, -4
 1291              	.LVL91:
 1292              		.loc 1 811 0
 1293 0002 041C     		mov	r4, r0
 1294              		.loc 1 814 0
 1295 0004 0220     		mov	r0, #2
 1296              	.LVL92:
 1297 0006 FFF7FEFF 		bl	CySysWdtReadEnabledStatus
 1298 000a 0028     		cmp	r0, #0
 1299 000c 0ED1     		bne	.L154
 1300              		.loc 1 819 0
 1301 000e 084B     		ldr	r3, .L155
 1302 0010 1B68     		ldr	r3, [r3]
 1303 0012 002B     		cmp	r3, #0
 1304 0014 01DB     		blt	.L153
 1305              		.loc 1 821 0
 1306 0016 FFF7FEFF 		bl	CySysClkIloStart
 1307              	.L153:
 1308              		.loc 1 824 0
 1309 001a 064B     		ldr	r3, .L155+4
 1310              		.loc 1 825 0
 1311 001c 064A     		ldr	r2, .L155+8
 1312              		.loc 1 824 0
 1313 001e 1968     		ldr	r1, [r3]
 1314              	.LVL93:
 1315              		.loc 1 825 0
 1316 0020 0A40     		and	r2, r2, r1
 1317              	.LVL94:
 1318              		.loc 1 826 0
 1319 0022 1F21     		mov	r1, #31
 1320 0024 0C40     		and	r4, r4, r1
 1321              	.LVL95:
 1322 0026 2406     		lsl	r4, r4, #24
 1323 0028 1443     		orr	r4, r4, r2
 1324              	.LVL96:
 1325              		.loc 1 827 0
 1326 002a 1C60     		str	r4, [r3]
 1327              	.LVL97:
 1328              	.L154:
 1329              		.loc 1 829 0
 1330              		@ sp needed for prologue
ARM GAS  C:\Users\kees\AppData\Local\Temp\ccxzCKRQ.s 			page 51


 1331              	.LVL98:
 1332 002c 10BD     		pop	{r4, pc}
 1333              	.L156:
 1334 002e C046     		.align	2
 1335              	.L155:
 1336 0030 04010B40 		.word	1074462980
 1337 0034 0C020B40 		.word	1074463244
 1338 0038 FFFFFFE0 		.word	-520093697
 1339              		.cfi_endproc
 1340              	.LFE19:
 1341              		.size	CySysWdtWriteToggleBit, .-CySysWdtWriteToggleBit
 1342              		.section	.text.CySysWdtWriteCascade,"ax",%progbits
 1343              		.align	1
 1344              		.global	CySysWdtWriteCascade
 1345              		.code	16
 1346              		.thumb_func
 1347              		.type	CySysWdtWriteCascade, %function
 1348              	CySysWdtWriteCascade:
 1349              	.LFB16:
 1350              		.loc 1 692 0
 1351              		.cfi_startproc
 1352 0000 70B5     		push	{r4, r5, r6, lr}
 1353              	.LCFI14:
 1354              		.cfi_def_cfa_offset 16
 1355              		.cfi_offset 4, -16
 1356              		.cfi_offset 5, -12
 1357              		.cfi_offset 6, -8
 1358              		.cfi_offset 14, -4
 1359              	.LVL99:
 1360              		.loc 1 692 0
 1361 0002 061C     		mov	r6, r0
 1362              		.loc 1 697 0
 1363 0004 0020     		mov	r0, #0
 1364              	.LVL100:
 1365 0006 FFF7FEFF 		bl	CySysWdtReadEnabledStatus
 1366 000a 051C     		mov	r5, r0
 1367 000c 0120     		mov	r0, #1
 1368 000e FFF7FEFF 		bl	CySysWdtReadEnabledStatus
 1369 0012 041C     		mov	r4, r0
 1370              		.loc 1 696 0
 1371 0014 0220     		mov	r0, #2
 1372 0016 FFF7FEFF 		bl	CySysWdtReadEnabledStatus
 1373              		.loc 1 700 0
 1374 001a 002C     		cmp	r4, #0
 1375 001c 0FD1     		bne	.L160
 1376 001e 002D     		cmp	r5, #0
 1377 0020 0DD1     		bne	.L160
 1378 0022 0028     		cmp	r0, #0
 1379 0024 0BD1     		bne	.L160
 1380              		.loc 1 705 0
 1381 0026 064B     		ldr	r3, .L161
 1382 0028 1B68     		ldr	r3, [r3]
 1383 002a 002B     		cmp	r3, #0
 1384 002c 01DB     		blt	.L159
 1385              		.loc 1 707 0
 1386 002e FFF7FEFF 		bl	CySysClkIloStart
 1387              	.L159:
ARM GAS  C:\Users\kees\AppData\Local\Temp\ccxzCKRQ.s 			page 52


 1388              		.loc 1 710 0
 1389 0032 044B     		ldr	r3, .L161+4
 1390              		.loc 1 711 0
 1391 0034 044A     		ldr	r2, .L161+8
 1392              		.loc 1 710 0
 1393 0036 1968     		ldr	r1, [r3]
 1394              	.LVL101:
 1395              		.loc 1 711 0
 1396 0038 0A40     		and	r2, r2, r1
 1397              	.LVL102:
 1398              		.loc 1 712 0
 1399 003a 1643     		orr	r6, r6, r2
 1400              	.LVL103:
 1401              		.loc 1 713 0
 1402 003c 1E60     		str	r6, [r3]
 1403              	.LVL104:
 1404              	.L160:
 1405              		.loc 1 715 0
 1406              		@ sp needed for prologue
 1407              	.LVL105:
 1408 003e 70BD     		pop	{r4, r5, r6, pc}
 1409              	.L162:
 1410              		.align	2
 1411              	.L161:
 1412 0040 04010B40 		.word	1074462980
 1413 0044 0C020B40 		.word	1074463244
 1414 0048 F7F7FFFF 		.word	-2057
 1415              		.cfi_endproc
 1416              	.LFE16:
 1417              		.size	CySysWdtWriteCascade, .-CySysWdtWriteCascade
 1418              		.section	.text.CySysWdtWriteClearOnMatch,"ax",%progbits
 1419              		.align	1
 1420              		.global	CySysWdtWriteClearOnMatch
 1421              		.code	16
 1422              		.thumb_func
 1423              		.type	CySysWdtWriteClearOnMatch, %function
 1424              	CySysWdtWriteClearOnMatch:
 1425              	.LFB12:
 1426              		.loc 1 547 0
 1427              		.cfi_startproc
 1428 0000 38B5     		push	{r3, r4, r5, lr}
 1429              	.LCFI15:
 1430              		.cfi_def_cfa_offset 16
 1431              		.cfi_offset 3, -16
 1432              		.cfi_offset 4, -12
 1433              		.cfi_offset 5, -8
 1434              		.cfi_offset 14, -4
 1435              	.LVL106:
 1436              		.loc 1 547 0
 1437 0002 041C     		mov	r4, r0
 1438 0004 0D1C     		mov	r5, r1
 1439              		.loc 1 548 0
 1440 0006 0128     		cmp	r0, #1
 1441 0008 02D9     		bls	.L164
 1442              	.LVL107:
 1443 000a 0020     		mov	r0, #0
 1444              	.LVL108:
ARM GAS  C:\Users\kees\AppData\Local\Temp\ccxzCKRQ.s 			page 53


 1445 000c FFF7FEFF 		bl	CyHalt
 1446              	.LVL109:
 1447              	.L164:
 1448              		.loc 1 554 0
 1449 0010 094B     		ldr	r3, .L168
 1450 0012 1B68     		ldr	r3, [r3]
 1451 0014 002B     		cmp	r3, #0
 1452 0016 01DB     		blt	.L165
 1453              		.loc 1 556 0
 1454 0018 FFF7FEFF 		bl	CySysClkIloStart
 1455              	.LVL110:
 1456              	.L165:
 1457              		.loc 1 559 0
 1458 001c 201C     		mov	r0, r4
 1459 001e FFF7FEFF 		bl	CySysWdtReadEnabledStatus
 1460 0022 0028     		cmp	r0, #0
 1461 0024 06D1     		bne	.L167
 1462              		.loc 1 561 0
 1463 0026 054B     		ldr	r3, .L168+4
 1464 0028 E400     		lsl	r4, r4, #3
 1465              	.LVL111:
 1466 002a 1A68     		ldr	r2, [r3]
 1467 002c 0234     		add	r4, r4, #2
 1468 002e A540     		lsl	r5, r5, r4
 1469              	.LVL112:
 1470 0030 1543     		orr	r5, r5, r2
 1471 0032 1D60     		str	r5, [r3]
 1472              	.LVL113:
 1473              	.L167:
 1474              		.loc 1 564 0
 1475              		@ sp needed for prologue
 1476              	.LVL114:
 1477              	.LVL115:
 1478 0034 38BD     		pop	{r3, r4, r5, pc}
 1479              	.L169:
 1480 0036 C046     		.align	2
 1481              	.L168:
 1482 0038 04010B40 		.word	1074462980
 1483 003c 0C020B40 		.word	1074463244
 1484              		.cfi_endproc
 1485              	.LFE12:
 1486              		.size	CySysWdtWriteClearOnMatch, .-CySysWdtWriteClearOnMatch
 1487              		.section	.text.CySysWdtWriteMode,"ax",%progbits
 1488              		.align	1
 1489              		.global	CySysWdtWriteMode
 1490              		.code	16
 1491              		.thumb_func
 1492              		.type	CySysWdtWriteMode, %function
 1493              	CySysWdtWriteMode:
 1494              	.LFB10:
 1495              		.loc 1 475 0
 1496              		.cfi_startproc
 1497 0000 38B5     		push	{r3, r4, r5, lr}
 1498              	.LCFI16:
 1499              		.cfi_def_cfa_offset 16
 1500              		.cfi_offset 3, -16
 1501              		.cfi_offset 4, -12
ARM GAS  C:\Users\kees\AppData\Local\Temp\ccxzCKRQ.s 			page 54


 1502              		.cfi_offset 5, -8
 1503              		.cfi_offset 14, -4
 1504              	.LVL116:
 1505              		.loc 1 475 0
 1506 0002 041C     		mov	r4, r0
 1507 0004 0D1C     		mov	r5, r1
 1508              		.loc 1 478 0
 1509 0006 0228     		cmp	r0, #2
 1510 0008 02D9     		bls	.L171
 1511              	.LVL117:
 1512 000a 0020     		mov	r0, #0
 1513              	.LVL118:
 1514 000c FFF7FEFF 		bl	CyHalt
 1515              	.LVL119:
 1516              	.L171:
 1517              		.loc 1 483 0
 1518 0010 0B4B     		ldr	r3, .L175
 1519 0012 1B68     		ldr	r3, [r3]
 1520 0014 002B     		cmp	r3, #0
 1521 0016 01DB     		blt	.L172
 1522              		.loc 1 485 0
 1523 0018 FFF7FEFF 		bl	CySysClkIloStart
 1524              	.LVL120:
 1525              	.L172:
 1526              		.loc 1 488 0
 1527 001c 201C     		mov	r0, r4
 1528 001e FFF7FEFF 		bl	CySysWdtReadEnabledStatus
 1529 0022 0028     		cmp	r0, #0
 1530 0024 0BD1     		bne	.L174
 1531              		.loc 1 490 0
 1532 0026 074B     		ldr	r3, .L175+4
 1533 0028 0322     		mov	r2, #3
 1534              		.loc 1 491 0
 1535 002a E400     		lsl	r4, r4, #3
 1536              	.LVL121:
 1537              		.loc 1 490 0
 1538 002c 1968     		ldr	r1, [r3]
 1539 002e 101C     		mov	r0, r2
 1540 0030 A040     		lsl	r0, r0, r4
 1541 0032 8143     		bic	r1, r1, r0
 1542              	.LVL122:
 1543              		.loc 1 492 0
 1544 0034 1540     		and	r5, r5, r2
 1545              	.LVL123:
 1546 0036 A540     		lsl	r5, r5, r4
 1547 0038 0C1C     		mov	r4, r1
 1548 003a 2C43     		orr	r4, r4, r5
 1549              	.LVL124:
 1550              		.loc 1 493 0
 1551 003c 1C60     		str	r4, [r3]
 1552              	.LVL125:
 1553              	.L174:
 1554              		.loc 1 495 0
 1555              		@ sp needed for prologue
 1556              	.LVL126:
 1557              	.LVL127:
 1558 003e 38BD     		pop	{r3, r4, r5, pc}
ARM GAS  C:\Users\kees\AppData\Local\Temp\ccxzCKRQ.s 			page 55


 1559              	.L176:
 1560              		.align	2
 1561              	.L175:
 1562 0040 04010B40 		.word	1074462980
 1563 0044 0C020B40 		.word	1074463244
 1564              		.cfi_endproc
 1565              	.LFE10:
 1566              		.size	CySysWdtWriteMode, .-CySysWdtWriteMode
 1567              		.section	.text.CySoftwareReset,"ax",%progbits
 1568              		.align	1
 1569              		.global	CySoftwareReset
 1570              		.code	16
 1571              		.thumb_func
 1572              		.type	CySoftwareReset, %function
 1573              	CySoftwareReset:
 1574              	.LFB44:
1517:.\Generated_Source\PSoC4/CyLib.c **** 
1518:.\Generated_Source\PSoC4/CyLib.c **** 
1519:.\Generated_Source\PSoC4/CyLib.c **** /*******************************************************************************
1520:.\Generated_Source\PSoC4/CyLib.c **** * Function Name: CySoftwareReset
1521:.\Generated_Source\PSoC4/CyLib.c **** ********************************************************************************
1522:.\Generated_Source\PSoC4/CyLib.c **** *
1523:.\Generated_Source\PSoC4/CyLib.c **** * Summary:
1524:.\Generated_Source\PSoC4/CyLib.c **** *  Forces a software reset of the device.
1525:.\Generated_Source\PSoC4/CyLib.c **** *
1526:.\Generated_Source\PSoC4/CyLib.c **** * Parameters:
1527:.\Generated_Source\PSoC4/CyLib.c **** *  None
1528:.\Generated_Source\PSoC4/CyLib.c **** *
1529:.\Generated_Source\PSoC4/CyLib.c **** * Return:
1530:.\Generated_Source\PSoC4/CyLib.c **** *  None
1531:.\Generated_Source\PSoC4/CyLib.c **** *
1532:.\Generated_Source\PSoC4/CyLib.c **** *******************************************************************************/
1533:.\Generated_Source\PSoC4/CyLib.c **** void CySoftwareReset(void)
1534:.\Generated_Source\PSoC4/CyLib.c **** {
 1575              		.loc 1 1534 0
 1576              		.cfi_startproc
1535:.\Generated_Source\PSoC4/CyLib.c ****     /***************************************************************************
1536:.\Generated_Source\PSoC4/CyLib.c ****     * Setting the system reset request bit. The vector key value must be written
1537:.\Generated_Source\PSoC4/CyLib.c ****     * to the register, otherwise the register write is unpredictable.
1538:.\Generated_Source\PSoC4/CyLib.c ****     ***************************************************************************/
1539:.\Generated_Source\PSoC4/CyLib.c ****     CY_SYS_CM0_AIRCR_REG = (CY_SYS_CM0_AIRCR_REG & ~CY_SYS_CM0_AIRCR_VECTKEY_MASK) |
 1577              		.loc 1 1539 0
 1578 0000 034B     		ldr	r3, .L179
 1579 0002 0449     		ldr	r1, .L179+4
 1580 0004 1A68     		ldr	r2, [r3]
1540:.\Generated_Source\PSoC4/CyLib.c ****                             CY_SYS_CM0_AIRCR_VECTKEY | CY_SYS_CM0_AIRCR_SYSRESETREQ;
1541:.\Generated_Source\PSoC4/CyLib.c **** }
 1581              		.loc 1 1541 0
 1582              		@ sp needed for prologue
 1583              		.loc 1 1539 0
 1584 0006 92B2     		uxth	r2, r2
 1585 0008 0A43     		orr	r2, r2, r1
 1586 000a 1A60     		str	r2, [r3]
 1587              		.loc 1 1541 0
 1588 000c 7047     		bx	lr
 1589              	.L180:
 1590 000e C046     		.align	2
ARM GAS  C:\Users\kees\AppData\Local\Temp\ccxzCKRQ.s 			page 56


 1591              	.L179:
 1592 0010 0CED00E0 		.word	-536810228
 1593 0014 0400FA05 		.word	100270084
 1594              		.cfi_endproc
 1595              	.LFE44:
 1596              		.size	CySoftwareReset, .-CySoftwareReset
 1597              		.global	__aeabi_uidiv
 1598              		.section	.text.CyDelayFreq,"ax",%progbits
 1599              		.align	1
 1600              		.global	CyDelayFreq
 1601              		.code	16
 1602              		.thumb_func
 1603              		.type	CyDelayFreq, %function
 1604              	CyDelayFreq:
 1605              	.LFB47:
1542:.\Generated_Source\PSoC4/CyLib.c **** 
1543:.\Generated_Source\PSoC4/CyLib.c **** 
1544:.\Generated_Source\PSoC4/CyLib.c **** /*******************************************************************************
1545:.\Generated_Source\PSoC4/CyLib.c **** * Function Name: CyDelay
1546:.\Generated_Source\PSoC4/CyLib.c **** ********************************************************************************
1547:.\Generated_Source\PSoC4/CyLib.c **** *
1548:.\Generated_Source\PSoC4/CyLib.c **** * Summary:
1549:.\Generated_Source\PSoC4/CyLib.c **** *  Blocks for milliseconds.
1550:.\Generated_Source\PSoC4/CyLib.c **** *
1551:.\Generated_Source\PSoC4/CyLib.c **** * Parameters:
1552:.\Generated_Source\PSoC4/CyLib.c **** *  milliseconds: number of milliseconds to delay.
1553:.\Generated_Source\PSoC4/CyLib.c **** *
1554:.\Generated_Source\PSoC4/CyLib.c **** * Return:
1555:.\Generated_Source\PSoC4/CyLib.c **** *  None
1556:.\Generated_Source\PSoC4/CyLib.c **** *
1557:.\Generated_Source\PSoC4/CyLib.c **** *******************************************************************************/
1558:.\Generated_Source\PSoC4/CyLib.c **** void CyDelay(uint32 milliseconds)
1559:.\Generated_Source\PSoC4/CyLib.c **** {
1560:.\Generated_Source\PSoC4/CyLib.c ****     while (milliseconds > CY_DELAY_MS_OVERFLOW)
1561:.\Generated_Source\PSoC4/CyLib.c ****     {
1562:.\Generated_Source\PSoC4/CyLib.c ****         /* This loop prevents overflow.
1563:.\Generated_Source\PSoC4/CyLib.c ****          * At 100MHz, milliseconds * cydelayFreqKhz overflows at about 42 seconds
1564:.\Generated_Source\PSoC4/CyLib.c ****          */
1565:.\Generated_Source\PSoC4/CyLib.c ****         CyDelayCycles(cydelay32kMs);
1566:.\Generated_Source\PSoC4/CyLib.c ****         milliseconds -= CY_DELAY_MS_OVERFLOW;
1567:.\Generated_Source\PSoC4/CyLib.c ****     }
1568:.\Generated_Source\PSoC4/CyLib.c **** 
1569:.\Generated_Source\PSoC4/CyLib.c ****     CyDelayCycles(milliseconds * cydelayFreqKhz);
1570:.\Generated_Source\PSoC4/CyLib.c **** }
1571:.\Generated_Source\PSoC4/CyLib.c **** 
1572:.\Generated_Source\PSoC4/CyLib.c **** 
1573:.\Generated_Source\PSoC4/CyLib.c **** /*******************************************************************************
1574:.\Generated_Source\PSoC4/CyLib.c **** * Function Name: CyDelayUs
1575:.\Generated_Source\PSoC4/CyLib.c **** ********************************************************************************
1576:.\Generated_Source\PSoC4/CyLib.c **** * Summary:
1577:.\Generated_Source\PSoC4/CyLib.c **** *  Blocks for microseconds.
1578:.\Generated_Source\PSoC4/CyLib.c **** *
1579:.\Generated_Source\PSoC4/CyLib.c **** * Parameters:
1580:.\Generated_Source\PSoC4/CyLib.c **** *  microseconds: number of microseconds to delay.
1581:.\Generated_Source\PSoC4/CyLib.c **** *
1582:.\Generated_Source\PSoC4/CyLib.c **** * Return:
1583:.\Generated_Source\PSoC4/CyLib.c **** *  None
ARM GAS  C:\Users\kees\AppData\Local\Temp\ccxzCKRQ.s 			page 57


1584:.\Generated_Source\PSoC4/CyLib.c **** *
1585:.\Generated_Source\PSoC4/CyLib.c **** *******************************************************************************/
1586:.\Generated_Source\PSoC4/CyLib.c **** void CyDelayUs(uint16 microseconds)
1587:.\Generated_Source\PSoC4/CyLib.c **** {
1588:.\Generated_Source\PSoC4/CyLib.c ****     CyDelayCycles((uint32)microseconds * cydelayFreqMhz);
1589:.\Generated_Source\PSoC4/CyLib.c **** }
1590:.\Generated_Source\PSoC4/CyLib.c **** 
1591:.\Generated_Source\PSoC4/CyLib.c **** 
1592:.\Generated_Source\PSoC4/CyLib.c **** /*******************************************************************************
1593:.\Generated_Source\PSoC4/CyLib.c **** * Function Name: CyDelayFreq
1594:.\Generated_Source\PSoC4/CyLib.c **** ********************************************************************************
1595:.\Generated_Source\PSoC4/CyLib.c **** * Summary:
1596:.\Generated_Source\PSoC4/CyLib.c **** *  Sets clock frequency for CyDelay.
1597:.\Generated_Source\PSoC4/CyLib.c **** *
1598:.\Generated_Source\PSoC4/CyLib.c **** * Parameters:
1599:.\Generated_Source\PSoC4/CyLib.c **** *  freq: Frequency of bus clock in Hertz.
1600:.\Generated_Source\PSoC4/CyLib.c **** *
1601:.\Generated_Source\PSoC4/CyLib.c **** * Return:
1602:.\Generated_Source\PSoC4/CyLib.c **** *  None
1603:.\Generated_Source\PSoC4/CyLib.c **** *
1604:.\Generated_Source\PSoC4/CyLib.c **** *******************************************************************************/
1605:.\Generated_Source\PSoC4/CyLib.c **** void CyDelayFreq(uint32 freq)
1606:.\Generated_Source\PSoC4/CyLib.c **** {
 1606              		.loc 1 1606 0
 1607              		.cfi_startproc
 1608 0000 38B5     		push	{r3, r4, r5, lr}
 1609              	.LCFI17:
 1610              		.cfi_def_cfa_offset 16
 1611              		.cfi_offset 3, -16
 1612              		.cfi_offset 4, -12
 1613              		.cfi_offset 5, -8
 1614              		.cfi_offset 14, -4
 1615              	.LVL128:
 1616 0002 0C4B     		ldr	r3, .L185
1607:.\Generated_Source\PSoC4/CyLib.c ****     if (freq != 0u)
 1617              		.loc 1 1607 0
 1618 0004 0028     		cmp	r0, #0
 1619 0006 01D0     		beq	.L182
1608:.\Generated_Source\PSoC4/CyLib.c ****     {
1609:.\Generated_Source\PSoC4/CyLib.c ****         cydelayFreqHz = freq;
 1620              		.loc 1 1609 0
 1621 0008 1860     		str	r0, [r3]
 1622 000a 01E0     		b	.L183
 1623              	.L182:
1610:.\Generated_Source\PSoC4/CyLib.c ****     }
1611:.\Generated_Source\PSoC4/CyLib.c ****     else
1612:.\Generated_Source\PSoC4/CyLib.c ****     {
1613:.\Generated_Source\PSoC4/CyLib.c ****         cydelayFreqHz = CYDEV_BCLK__SYSCLK__HZ;
 1624              		.loc 1 1613 0
 1625 000c 0A4A     		ldr	r2, .L185+4
 1626 000e 1A60     		str	r2, [r3]
 1627              	.L183:
1614:.\Generated_Source\PSoC4/CyLib.c ****     }
1615:.\Generated_Source\PSoC4/CyLib.c **** 
1616:.\Generated_Source\PSoC4/CyLib.c ****     cydelayFreqMhz = (uint8)((cydelayFreqHz + CY_DELAY_1M_MINUS_1_THRESHOLD) / CY_DELAY_1M_THRESHOL
 1628              		.loc 1 1616 0
 1629 0010 084C     		ldr	r4, .L185
ARM GAS  C:\Users\kees\AppData\Local\Temp\ccxzCKRQ.s 			page 58


 1630 0012 0A4B     		ldr	r3, .L185+8
 1631 0014 2568     		ldr	r5, [r4]
 1632 0016 0A49     		ldr	r1, .L185+12
 1633 0018 E818     		add	r0, r5, r3
 1634              	.LVL129:
 1635 001a FFF7FEFF 		bl	__aeabi_uidiv
1617:.\Generated_Source\PSoC4/CyLib.c ****     cydelayFreqKhz = (cydelayFreqHz + CY_DELAY_1K_MINUS_1_THRESHOLD) / CY_DELAY_1K_THRESHOLD;
 1636              		.loc 1 1617 0
 1637 001e 094B     		ldr	r3, .L185+16
 1638 0020 FA21     		mov	r1, #250
 1639              		.loc 1 1616 0
 1640 0022 2071     		strb	r0, [r4, #4]
 1641              		.loc 1 1617 0
 1642 0024 8900     		lsl	r1, r1, #2
 1643 0026 E818     		add	r0, r5, r3
 1644 0028 FFF7FEFF 		bl	__aeabi_uidiv
 1645 002c A060     		str	r0, [r4, #8]
1618:.\Generated_Source\PSoC4/CyLib.c ****     cydelay32kMs   = CY_DELAY_MS_OVERFLOW * cydelayFreqKhz;
 1646              		.loc 1 1618 0
 1647 002e C003     		lsl	r0, r0, #15
 1648 0030 E060     		str	r0, [r4, #12]
1619:.\Generated_Source\PSoC4/CyLib.c **** }
 1649              		.loc 1 1619 0
 1650              		@ sp needed for prologue
 1651 0032 38BD     		pop	{r3, r4, r5, pc}
 1652              	.L186:
 1653              		.align	2
 1654              	.L185:
 1655 0034 00000000 		.word	.LANCHOR0
 1656 0038 006CDC02 		.word	48000000
 1657 003c 3F420F00 		.word	999999
 1658 0040 40420F00 		.word	1000000
 1659 0044 E7030000 		.word	999
 1660              		.cfi_endproc
 1661              	.LFE47:
 1662              		.size	CyDelayFreq, .-CyDelayFreq
 1663              		.section	.text.CyDelayUs,"ax",%progbits
 1664              		.align	1
 1665              		.global	CyDelayUs
 1666              		.code	16
 1667              		.thumb_func
 1668              		.type	CyDelayUs, %function
 1669              	CyDelayUs:
 1670              	.LFB46:
 1671              		.loc 1 1587 0
 1672              		.cfi_startproc
 1673 0000 08B5     		push	{r3, lr}
 1674              	.LCFI18:
 1675              		.cfi_def_cfa_offset 8
 1676              		.cfi_offset 3, -8
 1677              		.cfi_offset 14, -4
 1678              	.LVL130:
 1679              		.loc 1 1588 0
 1680 0002 034B     		ldr	r3, .L189
 1681              		.loc 1 1589 0
 1682              		@ sp needed for prologue
 1683              		.loc 1 1588 0
ARM GAS  C:\Users\kees\AppData\Local\Temp\ccxzCKRQ.s 			page 59


 1684 0004 1B79     		ldrb	r3, [r3, #4]
 1685 0006 5843     		mul	r0, r3
 1686              	.LVL131:
 1687 0008 FFF7FEFF 		bl	CyDelayCycles
 1688              		.loc 1 1589 0
 1689 000c 08BD     		pop	{r3, pc}
 1690              	.L190:
 1691 000e C046     		.align	2
 1692              	.L189:
 1693 0010 00000000 		.word	.LANCHOR0
 1694              		.cfi_endproc
 1695              	.LFE46:
 1696              		.size	CyDelayUs, .-CyDelayUs
 1697              		.section	.text.CySysWdtWriteMatch,"ax",%progbits
 1698              		.align	1
 1699              		.global	CySysWdtWriteMatch
 1700              		.code	16
 1701              		.thumb_func
 1702              		.type	CySysWdtWriteMatch, %function
 1703              	CySysWdtWriteMatch:
 1704              	.LFB18:
 1705              		.loc 1 765 0
 1706              		.cfi_startproc
 1707 0000 38B5     		push	{r3, r4, r5, lr}
 1708              	.LCFI19:
 1709              		.cfi_def_cfa_offset 16
 1710              		.cfi_offset 3, -16
 1711              		.cfi_offset 4, -12
 1712              		.cfi_offset 5, -8
 1713              		.cfi_offset 14, -4
 1714              	.LVL132:
 1715              		.loc 1 765 0
 1716 0002 041C     		mov	r4, r0
 1717 0004 0D1C     		mov	r5, r1
 1718              		.loc 1 768 0
 1719 0006 0128     		cmp	r0, #1
 1720 0008 02D9     		bls	.L192
 1721              	.LVL133:
 1722 000a 0020     		mov	r0, #0
 1723              	.LVL134:
 1724 000c FFF7FEFF 		bl	CyHalt
 1725              	.LVL135:
 1726              	.L192:
 1727              		.loc 1 774 0
 1728 0010 094B     		ldr	r3, .L195
 1729 0012 1B68     		ldr	r3, [r3]
 1730 0014 002B     		cmp	r3, #0
 1731 0016 01DB     		blt	.L193
 1732              		.loc 1 776 0
 1733 0018 FFF7FEFF 		bl	CySysClkIloStart
 1734              	.LVL136:
 1735              	.L193:
 1736              		.loc 1 780 0
 1737 001c 8220     		mov	r0, #130
 1738 001e FFF7FEFF 		bl	CyDelayUs
 1739              		.loc 1 782 0
 1740 0022 064B     		ldr	r3, .L195+4
ARM GAS  C:\Users\kees\AppData\Local\Temp\ccxzCKRQ.s 			page 60


 1741              		.loc 1 784 0
 1742 0024 0649     		ldr	r1, .L195+8
 1743              		.loc 1 782 0
 1744 0026 1A68     		ldr	r2, [r3]
 1745              	.LVL137:
 1746              		.loc 1 783 0
 1747 0028 2401     		lsl	r4, r4, #4
 1748              	.LVL138:
 1749              		.loc 1 784 0
 1750 002a A140     		lsl	r1, r1, r4
 1751 002c 8A43     		bic	r2, r2, r1
 1752              	.LVL139:
 1753 002e A540     		lsl	r5, r5, r4
 1754              	.LVL140:
 1755 0030 141C     		mov	r4, r2
 1756 0032 2C43     		orr	r4, r4, r5
 1757 0034 1C60     		str	r4, [r3]
 1758              		.loc 1 785 0
 1759              		@ sp needed for prologue
 1760 0036 38BD     		pop	{r3, r4, r5, pc}
 1761              	.L196:
 1762              		.align	2
 1763              	.L195:
 1764 0038 04010B40 		.word	1074462980
 1765 003c 08020B40 		.word	1074463240
 1766 0040 FFFF0000 		.word	65535
 1767              		.cfi_endproc
 1768              	.LFE18:
 1769              		.size	CySysWdtWriteMatch, .-CySysWdtWriteMatch
 1770              		.section	.text.CyDelay,"ax",%progbits
 1771              		.align	1
 1772              		.global	CyDelay
 1773              		.code	16
 1774              		.thumb_func
 1775              		.type	CyDelay, %function
 1776              	CyDelay:
 1777              	.LFB45:
 1778              		.loc 1 1559 0
 1779              		.cfi_startproc
 1780 0000 10B5     		push	{r4, lr}
 1781              	.LCFI20:
 1782              		.cfi_def_cfa_offset 8
 1783              		.cfi_offset 4, -8
 1784              		.cfi_offset 14, -4
 1785              	.LVL141:
 1786              		.loc 1 1559 0
 1787 0002 041C     		mov	r4, r0
 1788              		.loc 1 1560 0
 1789 0004 04E0     		b	.L198
 1790              	.LVL142:
 1791              	.L199:
 1792              		.loc 1 1565 0
 1793 0006 D068     		ldr	r0, [r2, #12]
 1794 0008 FFF7FEFF 		bl	CyDelayCycles
 1795              		.loc 1 1566 0
 1796 000c 054B     		ldr	r3, .L201
 1797 000e E418     		add	r4, r4, r3
ARM GAS  C:\Users\kees\AppData\Local\Temp\ccxzCKRQ.s 			page 61


 1798              	.LVL143:
 1799              	.L198:
 1800              		.loc 1 1560 0
 1801 0010 8023     		mov	r3, #128
 1802 0012 1B02     		lsl	r3, r3, #8
 1803 0014 044A     		ldr	r2, .L201+4
 1804 0016 9C42     		cmp	r4, r3
 1805 0018 F5D8     		bhi	.L199
 1806              		.loc 1 1569 0
 1807 001a 9068     		ldr	r0, [r2, #8]
 1808              		.loc 1 1570 0
 1809              		@ sp needed for prologue
 1810              		.loc 1 1569 0
 1811 001c 6043     		mul	r0, r4
 1812 001e FFF7FEFF 		bl	CyDelayCycles
 1813              	.LVL144:
 1814              		.loc 1 1570 0
 1815 0022 10BD     		pop	{r4, pc}
 1816              	.L202:
 1817              		.align	2
 1818              	.L201:
 1819 0024 0080FFFF 		.word	-32768
 1820 0028 00000000 		.word	.LANCHOR0
 1821              		.cfi_endproc
 1822              	.LFE45:
 1823              		.size	CyDelay, .-CyDelay
 1824              		.section	.text.CyIntSetPriority,"ax",%progbits
 1825              		.align	1
 1826              		.global	CyIntSetPriority
 1827              		.code	16
 1828              		.thumb_func
 1829              		.type	CyIntSetPriority, %function
 1830              	CyIntSetPriority:
 1831              	.LFB36:
 1832              		.loc 1 1341 0
 1833              		.cfi_startproc
 1834 0000 38B5     		push	{r3, r4, r5, lr}
 1835              	.LCFI21:
 1836              		.cfi_def_cfa_offset 16
 1837              		.cfi_offset 3, -16
 1838              		.cfi_offset 4, -12
 1839              		.cfi_offset 5, -8
 1840              		.cfi_offset 14, -4
 1841              	.LVL145:
 1842              		.loc 1 1341 0
 1843 0002 041C     		mov	r4, r0
 1844 0004 0D1C     		mov	r5, r1
 1845              		.loc 1 1346 0
 1846 0006 0329     		cmp	r1, #3
 1847 0008 02D9     		bls	.L204
 1848              	.LVL146:
 1849 000a 0020     		mov	r0, #0
 1850 000c FFF7FEFF 		bl	CyHalt
 1851              	.LVL147:
 1852              	.L204:
 1853              		.loc 1 1347 0
 1854 0010 1F2C     		cmp	r4, #31
ARM GAS  C:\Users\kees\AppData\Local\Temp\ccxzCKRQ.s 			page 62


 1855 0012 02D9     		bls	.L205
 1856 0014 0020     		mov	r0, #0
 1857 0016 FFF7FEFF 		bl	CyHalt
 1858              	.LVL148:
 1859              	.L205:
 1860              		.loc 1 1351 0
 1861 001a FFF7FEFF 		bl	CyEnterCriticalSection
 1862              		.loc 1 1353 0
 1863 001e A308     		lsr	r3, r4, #2
 1864 0020 084A     		ldr	r2, .L207
 1865 0022 9B00     		lsl	r3, r3, #2
 1866 0024 9B18     		add	r3, r3, r2
 1867              		.loc 1 1354 0
 1868 0026 0322     		mov	r2, #3
 1869 0028 1440     		and	r4, r4, r2
 1870              	.LVL149:
 1871 002a E400     		lsl	r4, r4, #3
 1872              		.loc 1 1353 0
 1873 002c 1968     		ldr	r1, [r3]
 1874              	.LVL150:
 1875              		.loc 1 1354 0
 1876 002e 0634     		add	r4, r4, #6
 1877 0030 A240     		lsl	r2, r2, r4
 1878 0032 9143     		bic	r1, r1, r2
 1879              		.loc 1 1355 0
 1880 0034 A540     		lsl	r5, r5, r4
 1881              	.LVL151:
 1882 0036 0C1C     		mov	r4, r1
 1883 0038 2C43     		orr	r4, r4, r5
 1884              	.LVL152:
 1885              		.loc 1 1356 0
 1886 003a 1C60     		str	r4, [r3]
 1887              		.loc 1 1358 0
 1888 003c FFF7FEFF 		bl	CyExitCriticalSection
 1889              		.loc 1 1359 0
 1890              		@ sp needed for prologue
 1891              	.LVL153:
 1892 0040 38BD     		pop	{r3, r4, r5, pc}
 1893              	.L208:
 1894 0042 C046     		.align	2
 1895              	.L207:
 1896 0044 00E400E0 		.word	-536812544
 1897              		.cfi_endproc
 1898              	.LFE36:
 1899              		.size	CyIntSetPriority, .-CyIntSetPriority
 1900              		.section	.text.CySysWdtClearInterrupt,"ax",%progbits
 1901              		.align	1
 1902              		.global	CySysWdtClearInterrupt
 1903              		.code	16
 1904              		.thumb_func
 1905              		.type	CySysWdtClearInterrupt, %function
 1906              	CySysWdtClearInterrupt:
 1907              	.LFB24:
 1908              		.loc 1 974 0
 1909              		.cfi_startproc
 1910 0000 38B5     		push	{r3, r4, r5, lr}
 1911              	.LCFI22:
ARM GAS  C:\Users\kees\AppData\Local\Temp\ccxzCKRQ.s 			page 63


 1912              		.cfi_def_cfa_offset 16
 1913              		.cfi_offset 3, -16
 1914              		.cfi_offset 4, -12
 1915              		.cfi_offset 5, -8
 1916              		.cfi_offset 14, -4
 1917              	.LVL154:
 1918              		.loc 1 974 0
 1919 0002 041C     		mov	r4, r0
 1920              		.loc 1 978 0
 1921 0004 FFF7FEFF 		bl	CyEnterCriticalSection
 1922              	.LVL155:
 1923              		.loc 1 983 0
 1924 0008 184B     		ldr	r3, .L215
 1925              		.loc 1 978 0
 1926 000a 051C     		mov	r5, r0
 1927              		.loc 1 983 0
 1928 000c 1B68     		ldr	r3, [r3]
 1929 000e 002B     		cmp	r3, #0
 1930 0010 01DB     		blt	.L210
 1931              		.loc 1 985 0
 1932 0012 FFF7FEFF 		bl	CySysClkIloStart
 1933              	.L210:
 1934              		.loc 1 988 0
 1935 0016 164B     		ldr	r3, .L215+4
 1936 0018 C022     		mov	r2, #192
 1937 001a 1968     		ldr	r1, [r3]
 1938 001c 1202     		lsl	r2, r2, #8
 1939 001e 1140     		and	r1, r1, r2
 1940 0020 9142     		cmp	r1, r2
 1941 0022 01D0     		beq	.L211
 1942 0024 0023     		mov	r3, #0
 1943              	.LVL156:
 1944 0026 0DE0     		b	.L212
 1945              	.LVL157:
 1946              	.L211:
 1947              		.loc 1 993 0
 1948 0028 1868     		ldr	r0, [r3]
 1949 002a 124A     		ldr	r2, .L215+8
 1950 002c 8021     		mov	r1, #128
 1951 002e 1040     		and	r0, r0, r2
 1952 0030 C901     		lsl	r1, r1, #7
 1953 0032 0143     		orr	r1, r1, r0
 1954 0034 1960     		str	r1, [r3]
 1955              		.loc 1 996 0
 1956 0036 1968     		ldr	r1, [r3]
 1957 0038 1140     		and	r1, r1, r2
 1958 003a 8022     		mov	r2, #128
 1959 003c 1202     		lsl	r2, r2, #8
 1960 003e 0A43     		orr	r2, r2, r1
 1961 0040 1A60     		str	r2, [r3]
 1962 0042 0123     		mov	r3, #1
 1963              	.LVL158:
 1964              	.L212:
 1965              		.loc 1 1005 0
 1966 0044 0C4A     		ldr	r2, .L215+12
 1967 0046 0D48     		ldr	r0, .L215+16
 1968 0048 1168     		ldr	r1, [r2]
ARM GAS  C:\Users\kees\AppData\Local\Temp\ccxzCKRQ.s 			page 64


 1969 004a 0440     		and	r4, r4, r0
 1970              	.LVL159:
 1971 004c 0C43     		orr	r4, r4, r1
 1972 004e 1460     		str	r4, [r2]
 1973              		.loc 1 1008 0
 1974 0050 012B     		cmp	r3, #1
 1975 0052 06D1     		bne	.L213
 1976              		.loc 1 1011 0
 1977 0054 113A     		sub	r2, r2, #17
 1978 0056 FF3A     		sub	r2, r2, #255
 1979 0058 1168     		ldr	r1, [r2]
 1980 005a C023     		mov	r3, #192
 1981              	.LVL160:
 1982 005c 1B02     		lsl	r3, r3, #8
 1983 005e 0B43     		orr	r3, r3, r1
 1984 0060 1360     		str	r3, [r2]
 1985              	.LVL161:
 1986              	.L213:
 1987              		.loc 1 1015 0
 1988 0062 281C     		mov	r0, r5
 1989 0064 FFF7FEFF 		bl	CyExitCriticalSection
 1990              	.LVL162:
 1991              		.loc 1 1016 0
 1992              		@ sp needed for prologue
 1993 0068 38BD     		pop	{r3, r4, r5, pc}
 1994              	.L216:
 1995 006a C046     		.align	2
 1996              	.L215:
 1997 006c 04010B40 		.word	1074462980
 1998 0070 00010B40 		.word	1074462976
 1999 0074 FF3FFFFF 		.word	-49153
 2000 0078 10020B40 		.word	1074463248
 2001 007c 04040400 		.word	263172
 2002              		.cfi_endproc
 2003              	.LFE24:
 2004              		.size	CySysWdtClearInterrupt, .-CySysWdtClearInterrupt
 2005              		.section	.text.CySysWdtUnlock,"ax",%progbits
 2006              		.align	1
 2007              		.global	CySysWdtUnlock
 2008              		.code	16
 2009              		.thumb_func
 2010              		.type	CySysWdtUnlock, %function
 2011              	CySysWdtUnlock:
 2012              	.LFB8:
 2013              		.loc 1 394 0
 2014              		.cfi_startproc
 2015 0000 10B5     		push	{r4, lr}
 2016              	.LCFI23:
 2017              		.cfi_def_cfa_offset 8
 2018              		.cfi_offset 4, -8
 2019              		.cfi_offset 14, -4
 2020              		.loc 1 396 0
 2021 0002 FFF7FEFF 		bl	CyEnterCriticalSection
 2022              		.loc 1 401 0
 2023 0006 0C4B     		ldr	r3, .L220
 2024              		.loc 1 396 0
 2025 0008 041C     		mov	r4, r0
ARM GAS  C:\Users\kees\AppData\Local\Temp\ccxzCKRQ.s 			page 65


 2026              		.loc 1 401 0
 2027 000a 1B68     		ldr	r3, [r3]
 2028 000c 002B     		cmp	r3, #0
 2029 000e 01DB     		blt	.L218
 2030              		.loc 1 403 0
 2031 0010 FFF7FEFF 		bl	CySysClkIloStart
 2032              	.L218:
 2033              		.loc 1 407 0
 2034 0014 094B     		ldr	r3, .L220+4
 2035 0016 0A4A     		ldr	r2, .L220+8
 2036 0018 1868     		ldr	r0, [r3]
 2037 001a 8021     		mov	r1, #128
 2038 001c 1040     		and	r0, r0, r2
 2039 001e C901     		lsl	r1, r1, #7
 2040 0020 0143     		orr	r1, r1, r0
 2041 0022 1960     		str	r1, [r3]
 2042              		.loc 1 410 0
 2043 0024 1968     		ldr	r1, [r3]
 2044              		.loc 1 413 0
 2045 0026 201C     		mov	r0, r4
 2046              		.loc 1 410 0
 2047 0028 1140     		and	r1, r1, r2
 2048 002a 8022     		mov	r2, #128
 2049 002c 1202     		lsl	r2, r2, #8
 2050 002e 0A43     		orr	r2, r2, r1
 2051 0030 1A60     		str	r2, [r3]
 2052              		.loc 1 413 0
 2053 0032 FFF7FEFF 		bl	CyExitCriticalSection
 2054              		.loc 1 414 0
 2055              		@ sp needed for prologue
 2056 0036 10BD     		pop	{r4, pc}
 2057              	.L221:
 2058              		.align	2
 2059              	.L220:
 2060 0038 04010B40 		.word	1074462980
 2061 003c 00010B40 		.word	1074462976
 2062 0040 FF3FFFFF 		.word	-49153
 2063              		.cfi_endproc
 2064              	.LFE8:
 2065              		.size	CySysWdtUnlock, .-CySysWdtUnlock
 2066              		.section	.text.CySysWdtLock,"ax",%progbits
 2067              		.align	1
 2068              		.global	CySysWdtLock
 2069              		.code	16
 2070              		.thumb_func
 2071              		.type	CySysWdtLock, %function
 2072              	CySysWdtLock:
 2073              	.LFB7:
 2074              		.loc 1 356 0
 2075              		.cfi_startproc
 2076 0000 10B5     		push	{r4, lr}
 2077              	.LCFI24:
 2078              		.cfi_def_cfa_offset 8
 2079              		.cfi_offset 4, -8
 2080              		.cfi_offset 14, -4
 2081              		.loc 1 358 0
 2082 0002 FFF7FEFF 		bl	CyEnterCriticalSection
ARM GAS  C:\Users\kees\AppData\Local\Temp\ccxzCKRQ.s 			page 66


 2083              		.loc 1 363 0
 2084 0006 084B     		ldr	r3, .L225
 2085              		.loc 1 358 0
 2086 0008 041C     		mov	r4, r0
 2087              		.loc 1 363 0
 2088 000a 1B68     		ldr	r3, [r3]
 2089 000c 002B     		cmp	r3, #0
 2090 000e 01DB     		blt	.L223
 2091              		.loc 1 365 0
 2092 0010 FFF7FEFF 		bl	CySysClkIloStart
 2093              	.L223:
 2094              		.loc 1 369 0
 2095 0014 054A     		ldr	r2, .L225+4
 2096 0016 C023     		mov	r3, #192
 2097 0018 1168     		ldr	r1, [r2]
 2098 001a 1B02     		lsl	r3, r3, #8
 2099 001c 0B43     		orr	r3, r3, r1
 2100 001e 1360     		str	r3, [r2]
 2101              		.loc 1 372 0
 2102 0020 201C     		mov	r0, r4
 2103 0022 FFF7FEFF 		bl	CyExitCriticalSection
 2104              		.loc 1 373 0
 2105              		@ sp needed for prologue
 2106 0026 10BD     		pop	{r4, pc}
 2107              	.L226:
 2108              		.align	2
 2109              	.L225:
 2110 0028 04010B40 		.word	1074462980
 2111 002c 00010B40 		.word	1074462976
 2112              		.cfi_endproc
 2113              	.LFE7:
 2114              		.size	CySysWdtLock, .-CySysWdtLock
 2115              		.section	.text.CySysClkWriteImoFreq,"ax",%progbits
 2116              		.align	1
 2117              		.global	CySysClkWriteImoFreq
 2118              		.code	16
 2119              		.thumb_func
 2120              		.type	CySysClkWriteImoFreq, %function
 2121              	CySysClkWriteImoFreq:
 2122              	.LFB6:
 2123              		.loc 1 215 0
 2124              		.cfi_startproc
 2125 0000 F0B5     		push	{r4, r5, r6, r7, lr}
 2126              	.LCFI25:
 2127              		.cfi_def_cfa_offset 20
 2128              		.cfi_offset 4, -20
 2129              		.cfi_offset 5, -16
 2130              		.cfi_offset 6, -12
 2131              		.cfi_offset 7, -8
 2132              		.cfi_offset 14, -4
 2133              	.LVL163:
 2134              		.loc 1 238 0
 2135 0002 C71E     		sub	r7, r0, #3
 2136              		.loc 1 215 0
 2137 0004 83B0     		sub	sp, sp, #12
 2138              	.LCFI26:
 2139              		.cfi_def_cfa_offset 32
ARM GAS  C:\Users\kees\AppData\Local\Temp\ccxzCKRQ.s 			page 67


 2140              		.loc 1 215 0
 2141 0006 041C     		mov	r4, r0
 2142              		.loc 1 238 0
 2143 0008 2D2F     		cmp	r7, #45
 2144 000a 65D8     		bhi	.L228
 2145              	.LVL164:
 2146              		.loc 1 240 0
 2147 000c FFF7FEFF 		bl	CyEnterCriticalSection
 2148 0010 0023     		mov	r3, #0
 2149              	.LVL165:
 2150 0012 0190     		str	r0, [sp, #4]
 2151              	.L231:
 2152              		.loc 1 245 0
 2153 0014 334A     		ldr	r2, .L244
 2154 0016 1068     		ldr	r0, [r2]
 2155 0018 334A     		ldr	r2, .L244+4
 2156 001a D15C     		ldrb	r1, [r2, r3]
 2157 001c 3F22     		mov	r2, #63
 2158 001e 0240     		and	r2, r2, r0
 2159 0020 9142     		cmp	r1, r2
 2160 0022 01D1     		bne	.L229
 2161              		.loc 1 247 0
 2162 0024 0333     		add	r3, r3, #3
 2163              	.LVL166:
 2164              		.loc 1 248 0
 2165 0026 03E0     		b	.L230
 2166              	.LVL167:
 2167              	.L229:
 2168              		.loc 1 243 0
 2169 0028 0133     		add	r3, r3, #1
 2170 002a 2E2B     		cmp	r3, #46
 2171 002c F2D1     		bne	.L231
 2172 002e 3023     		mov	r3, #48
 2173              	.LVL168:
 2174              	.L230:
 2175              		.loc 1 252 0
 2176 0030 2E4A     		ldr	r2, .L244+8
 2177 0032 1278     		ldrb	r2, [r2]
 2178 0034 9442     		cmp	r4, r2
 2179 0036 01D8     		bhi	.L232
 2180              		.loc 1 254 0
 2181 0038 2D4A     		ldr	r2, .L244+12
 2182 003a 12E0     		b	.L243
 2183              	.L232:
 2184              		.loc 1 257 0
 2185 003c 2D4A     		ldr	r2, .L244+16
 2186 003e 1278     		ldrb	r2, [r2]
 2187 0040 9442     		cmp	r4, r2
 2188 0042 01D8     		bhi	.L234
 2189              		.loc 1 259 0
 2190 0044 2C4A     		ldr	r2, .L244+20
 2191 0046 0CE0     		b	.L243
 2192              	.L234:
 2193              		.loc 1 262 0
 2194 0048 2C4A     		ldr	r2, .L244+24
 2195 004a 1278     		ldrb	r2, [r2]
 2196 004c 9442     		cmp	r4, r2
ARM GAS  C:\Users\kees\AppData\Local\Temp\ccxzCKRQ.s 			page 68


 2197 004e 01D8     		bhi	.L235
 2198              		.loc 1 264 0
 2199 0050 2B4A     		ldr	r2, .L244+28
 2200 0052 06E0     		b	.L243
 2201              	.L235:
 2202              		.loc 1 267 0
 2203 0054 2B4A     		ldr	r2, .L244+32
 2204 0056 1278     		ldrb	r2, [r2]
 2205 0058 9442     		cmp	r4, r2
 2206 005a 01D8     		bhi	.L236
 2207              		.loc 1 269 0
 2208 005c 2A4A     		ldr	r2, .L244+36
 2209 005e 00E0     		b	.L243
 2210              	.L236:
 2211              		.loc 1 274 0
 2212 0060 2A4A     		ldr	r2, .L244+40
 2213              	.L243:
 2214 0062 1578     		ldrb	r5, [r2]
 2215              		.loc 1 275 0
 2216 0064 0132     		add	r2, r2, #1
 2217 0066 1678     		ldrb	r6, [r2]
 2218              		.loc 1 284 0
 2219 0068 2A2B     		cmp	r3, #42
 2220 006a 08D9     		bls	.L237
 2221 006c 2A2C     		cmp	r4, #42
 2222 006e 06D9     		bls	.L237
 2223              		.loc 1 287 0
 2224 0070 1C4B     		ldr	r3, .L244
 2225              	.LVL169:
 2226 0072 1922     		mov	r2, #25
 2227 0074 1A60     		str	r2, [r3]
 2228              		.loc 1 290 0
 2229 0076 0520     		mov	r0, #5
 2230 0078 FFF7FEFF 		bl	CyDelayCycles
 2231 007c 01E0     		b	.L238
 2232              	.LVL170:
 2233              	.L237:
 2234              		.loc 1 300 0
 2235 007e 9C42     		cmp	r4, r3
 2236 0080 13D9     		bls	.L239
 2237              	.L238:
 2238              		.loc 1 303 0
 2239 0082 234B     		ldr	r3, .L244+44
 2240              	.LVL171:
 2241              		.loc 1 306 0
 2242 0084 0520     		mov	r0, #5
 2243              		.loc 1 303 0
 2244 0086 E418     		add	r4, r4, r3
 2245              	.LVL172:
 2246 0088 2278     		ldrb	r2, [r4]
 2247 008a 224B     		ldr	r3, .L244+48
 2248 008c 1A60     		str	r2, [r3]
 2249              		.loc 1 304 0
 2250 008e 0C3B     		sub	r3, r3, #12
 2251 0090 1D60     		str	r5, [r3]
 2252              	.LVL173:
 2253              		.loc 1 305 0
ARM GAS  C:\Users\kees\AppData\Local\Temp\ccxzCKRQ.s 			page 69


 2254 0092 0433     		add	r3, r3, #4
 2255 0094 1E60     		str	r6, [r3]
 2256              	.LVL174:
 2257              		.loc 1 306 0
 2258 0096 FFF7FEFF 		bl	CyDelayUs
 2259              		.loc 1 309 0
 2260 009a 134B     		ldr	r3, .L244+4
 2261              		.loc 1 310 0
 2262 009c 0520     		mov	r0, #5
 2263              		.loc 1 309 0
 2264 009e DA5D     		ldrb	r2, [r3, r7]
 2265 00a0 104B     		ldr	r3, .L244
 2266 00a2 1A60     		str	r2, [r3]
 2267              		.loc 1 310 0
 2268 00a4 FFF7FEFF 		bl	CyDelayCycles
 2269 00a8 12E0     		b	.L240
 2270              	.LVL175:
 2271              	.L239:
 2272              		.loc 1 315 0
 2273 00aa 0F4B     		ldr	r3, .L244+4
 2274              	.LVL176:
 2275              		.loc 1 316 0
 2276 00ac 0520     		mov	r0, #5
 2277              		.loc 1 315 0
 2278 00ae DA5D     		ldrb	r2, [r3, r7]
 2279 00b0 0C4B     		ldr	r3, .L244
 2280 00b2 1A60     		str	r2, [r3]
 2281              		.loc 1 316 0
 2282 00b4 FFF7FEFF 		bl	CyDelayCycles
 2283              		.loc 1 319 0
 2284 00b8 154B     		ldr	r3, .L244+44
 2285              		.loc 1 322 0
 2286 00ba 0520     		mov	r0, #5
 2287              		.loc 1 319 0
 2288 00bc E418     		add	r4, r4, r3
 2289              	.LVL177:
 2290 00be 2278     		ldrb	r2, [r4]
 2291 00c0 144B     		ldr	r3, .L244+48
 2292 00c2 1A60     		str	r2, [r3]
 2293              		.loc 1 320 0
 2294 00c4 0C3B     		sub	r3, r3, #12
 2295 00c6 1D60     		str	r5, [r3]
 2296              	.LVL178:
 2297              		.loc 1 321 0
 2298 00c8 0433     		add	r3, r3, #4
 2299 00ca 1E60     		str	r6, [r3]
 2300              	.LVL179:
 2301              		.loc 1 322 0
 2302 00cc FFF7FEFF 		bl	CyDelayUs
 2303              	.L240:
 2304              		.loc 1 325 0
 2305 00d0 0198     		ldr	r0, [sp, #4]
 2306 00d2 FFF7FEFF 		bl	CyExitCriticalSection
 2307 00d6 02E0     		b	.L242
 2308              	.LVL180:
 2309              	.L228:
 2310              		.loc 1 330 0
ARM GAS  C:\Users\kees\AppData\Local\Temp\ccxzCKRQ.s 			page 70


 2311 00d8 0020     		mov	r0, #0
 2312 00da FFF7FEFF 		bl	CyHalt
 2313              	.LVL181:
 2314              	.L242:
 2315              		.loc 1 332 0
 2316 00de 03B0     		add	sp, sp, #12
 2317              		@ sp needed for prologue
 2318              	.LVL182:
 2319              	.LVL183:
 2320              	.LVL184:
 2321 00e0 F0BD     		pop	{r4, r5, r6, r7, pc}
 2322              	.L245:
 2323 00e2 C046     		.align	2
 2324              	.L244:
 2325 00e4 2CFF0B40 		.word	1074528044
 2326 00e8 00000000 		.word	.LANCHOR1
 2327 00ec C0F1FF0F 		.word	268431808
 2328 00f0 C1F1FF0F 		.word	268431809
 2329 00f4 C3F1FF0F 		.word	268431811
 2330 00f8 C4F1FF0F 		.word	268431812
 2331 00fc C6F1FF0F 		.word	268431814
 2332 0100 C7F1FF0F 		.word	268431815
 2333 0104 C9F1FF0F 		.word	268431817
 2334 0108 CAF1FF0F 		.word	268431818
 2335 010c CCF1FF0F 		.word	268431820
 2336 0110 CDF1FF0F 		.word	268431821
 2337 0114 28FF0B40 		.word	1074528040
 2338              		.cfi_endproc
 2339              	.LFE6:
 2340              		.size	CySysClkWriteImoFreq, .-CySysClkWriteImoFreq
 2341              		.global	cydelayFreqHz
 2342              		.global	cydelayFreqKhz
 2343              		.global	cydelayFreqMhz
 2344              		.global	cydelay32kMs
 2345              		.section	.rodata
 2346              		.align	2
 2347              		.set	.LANCHOR1,. + 0
 2348              		.type	cyImoFreqMhz2Reg.1839, %object
 2349              		.size	cyImoFreqMhz2Reg.1839, 46
 2350              	cyImoFreqMhz2Reg.1839:
 2351 0000 03       		.byte	3
 2352 0001 04       		.byte	4
 2353 0002 05       		.byte	5
 2354 0003 06       		.byte	6
 2355 0004 07       		.byte	7
 2356 0005 08       		.byte	8
 2357 0006 09       		.byte	9
 2358 0007 0A       		.byte	10
 2359 0008 0B       		.byte	11
 2360 0009 0C       		.byte	12
 2361 000a 0E       		.byte	14
 2362 000b 0F       		.byte	15
 2363 000c 10       		.byte	16
 2364 000d 11       		.byte	17
 2365 000e 12       		.byte	18
 2366 000f 13       		.byte	19
 2367 0010 14       		.byte	20
ARM GAS  C:\Users\kees\AppData\Local\Temp\ccxzCKRQ.s 			page 71


 2368 0011 15       		.byte	21
 2369 0012 16       		.byte	22
 2370 0013 17       		.byte	23
 2371 0014 18       		.byte	24
 2372 0015 19       		.byte	25
 2373 0016 1B       		.byte	27
 2374 0017 1C       		.byte	28
 2375 0018 1D       		.byte	29
 2376 0019 1E       		.byte	30
 2377 001a 1F       		.byte	31
 2378 001b 20       		.byte	32
 2379 001c 21       		.byte	33
 2380 001d 22       		.byte	34
 2381 001e 23       		.byte	35
 2382 001f 25       		.byte	37
 2383 0020 26       		.byte	38
 2384 0021 27       		.byte	39
 2385 0022 28       		.byte	40
 2386 0023 29       		.byte	41
 2387 0024 2A       		.byte	42
 2388 0025 2B       		.byte	43
 2389 0026 2E       		.byte	46
 2390 0027 2F       		.byte	47
 2391 0028 30       		.byte	48
 2392 0029 31       		.byte	49
 2393 002a 32       		.byte	50
 2394 002b 33       		.byte	51
 2395 002c 34       		.byte	52
 2396 002d 35       		.byte	53
 2397 002e 0000     		.data
 2398              		.align	2
 2399              		.set	.LANCHOR0,. + 0
 2400              		.type	cydelayFreqHz, %object
 2401              		.size	cydelayFreqHz, 4
 2402              	cydelayFreqHz:
 2403 0000 006CDC02 		.word	48000000
 2404              		.type	cydelayFreqMhz, %object
 2405              		.size	cydelayFreqMhz, 1
 2406              	cydelayFreqMhz:
 2407 0004 30       		.byte	48
 2408 0005 000000   		.space	3
 2409              		.type	cydelayFreqKhz, %object
 2410              		.size	cydelayFreqKhz, 4
 2411              	cydelayFreqKhz:
 2412 0008 80BB0000 		.word	48000
 2413              		.type	cydelay32kMs, %object
 2414              		.size	cydelay32kMs, 4
 2415              	cydelay32kMs:
 2416 000c 0000C05D 		.word	1572864000
 2417              		.text
 2418              	.Letext0:
 2419              		.section	.debug_loc,"",%progbits
 2420              	.Ldebug_loc0:
 2421              	.LLST5:
 2422 0000 00000000 		.4byte	.LVL0
 2423 0004 08000000 		.4byte	.LVL1
 2424 0008 0100     		.2byte	0x1
ARM GAS  C:\Users\kees\AppData\Local\Temp\ccxzCKRQ.s 			page 72


 2425 000a 50       		.byte	0x50
 2426 000b 00000000 		.4byte	0x0
 2427 000f 00000000 		.4byte	0x0
 2428              	.LLST6:
 2429 0013 00000000 		.4byte	.LFB5
 2430 0017 02000000 		.4byte	.LCFI0
 2431 001b 0100     		.2byte	0x1
 2432 001d 5D       		.byte	0x5d
 2433 001e 02000000 		.4byte	.LCFI0
 2434 0022 20000000 		.4byte	.LFE5
 2435 0026 0200     		.2byte	0x2
 2436 0028 7D       		.byte	0x7d
 2437 0029 08       		.sleb128 8
 2438 002a 00000000 		.4byte	0x0
 2439 002e 00000000 		.4byte	0x0
 2440              	.LLST7:
 2441 0032 02000000 		.4byte	.LVL2
 2442 0036 0A000000 		.4byte	.LVL3
 2443 003a 0100     		.2byte	0x1
 2444 003c 50       		.byte	0x50
 2445 003d 00000000 		.4byte	0x0
 2446 0041 00000000 		.4byte	0x0
 2447              	.LLST9:
 2448 0045 00000000 		.4byte	.LVL4
 2449 0049 04000000 		.4byte	.LVL5
 2450 004d 0100     		.2byte	0x1
 2451 004f 50       		.byte	0x50
 2452 0050 00000000 		.4byte	0x0
 2453 0054 00000000 		.4byte	0x0
 2454              	.LLST10:
 2455 0058 00000000 		.4byte	.LFB14
 2456 005c 02000000 		.4byte	.LCFI1
 2457 0060 0100     		.2byte	0x1
 2458 0062 5D       		.byte	0x5d
 2459 0063 02000000 		.4byte	.LCFI1
 2460 0067 24000000 		.4byte	.LFE14
 2461 006b 0200     		.2byte	0x2
 2462 006d 7D       		.byte	0x7d
 2463 006e 08       		.sleb128 8
 2464 006f 00000000 		.4byte	0x0
 2465 0073 00000000 		.4byte	0x0
 2466              	.LLST11:
 2467 0077 02000000 		.4byte	.LVL6
 2468 007b 0C000000 		.4byte	.LVL7
 2469 007f 0100     		.2byte	0x1
 2470 0081 50       		.byte	0x50
 2471 0082 0C000000 		.4byte	.LVL7
 2472 0086 16000000 		.4byte	.LVL9
 2473 008a 0100     		.2byte	0x1
 2474 008c 54       		.byte	0x54
 2475 008d 16000000 		.4byte	.LVL9
 2476 0091 24000000 		.4byte	.LFE14
 2477 0095 0100     		.2byte	0x1
 2478 0097 50       		.byte	0x50
 2479 0098 00000000 		.4byte	0x0
 2480 009c 00000000 		.4byte	0x0
 2481              	.LLST12:
ARM GAS  C:\Users\kees\AppData\Local\Temp\ccxzCKRQ.s 			page 73


 2482 00a0 00000000 		.4byte	.LFB15
 2483 00a4 02000000 		.4byte	.LCFI2
 2484 00a8 0100     		.2byte	0x1
 2485 00aa 5D       		.byte	0x5d
 2486 00ab 02000000 		.4byte	.LCFI2
 2487 00af 24000000 		.4byte	.LFE15
 2488 00b3 0200     		.2byte	0x2
 2489 00b5 7D       		.byte	0x7d
 2490 00b6 08       		.sleb128 8
 2491 00b7 00000000 		.4byte	0x0
 2492 00bb 00000000 		.4byte	0x0
 2493              	.LLST13:
 2494 00bf 02000000 		.4byte	.LVL10
 2495 00c3 0C000000 		.4byte	.LVL11
 2496 00c7 0100     		.2byte	0x1
 2497 00c9 50       		.byte	0x50
 2498 00ca 0C000000 		.4byte	.LVL11
 2499 00ce 18000000 		.4byte	.LVL13
 2500 00d2 0100     		.2byte	0x1
 2501 00d4 54       		.byte	0x54
 2502 00d5 18000000 		.4byte	.LVL13
 2503 00d9 24000000 		.4byte	.LFE15
 2504 00dd 0100     		.2byte	0x1
 2505 00df 50       		.byte	0x50
 2506 00e0 00000000 		.4byte	0x0
 2507 00e4 00000000 		.4byte	0x0
 2508              	.LLST17:
 2509 00e8 00000000 		.4byte	.LFB25
 2510 00ec 02000000 		.4byte	.LCFI3
 2511 00f0 0100     		.2byte	0x1
 2512 00f2 5D       		.byte	0x5d
 2513 00f3 02000000 		.4byte	.LCFI3
 2514 00f7 2C000000 		.4byte	.LFE25
 2515 00fb 0200     		.2byte	0x2
 2516 00fd 7D       		.byte	0x7d
 2517 00fe 08       		.sleb128 8
 2518 00ff 00000000 		.4byte	0x0
 2519 0103 00000000 		.4byte	0x0
 2520              	.LLST18:
 2521 0107 02000000 		.4byte	.LVL14
 2522 010b 0C000000 		.4byte	.LVL15
 2523 010f 0100     		.2byte	0x1
 2524 0111 50       		.byte	0x50
 2525 0112 0C000000 		.4byte	.LVL15
 2526 0116 18000000 		.4byte	.LVL17
 2527 011a 0100     		.2byte	0x1
 2528 011c 54       		.byte	0x54
 2529 011d 18000000 		.4byte	.LVL17
 2530 0121 2C000000 		.4byte	.LFE25
 2531 0125 0100     		.2byte	0x1
 2532 0127 50       		.byte	0x50
 2533 0128 00000000 		.4byte	0x0
 2534 012c 00000000 		.4byte	0x0
 2535              	.LLST20:
 2536 0130 00000000 		.4byte	.LVL18
 2537 0134 08000000 		.4byte	.LVL19
 2538 0138 0100     		.2byte	0x1
ARM GAS  C:\Users\kees\AppData\Local\Temp\ccxzCKRQ.s 			page 74


 2539 013a 50       		.byte	0x50
 2540 013b 00000000 		.4byte	0x0
 2541 013f 00000000 		.4byte	0x0
 2542              	.LLST25:
 2543 0143 08000000 		.4byte	.LVL20
 2544 0147 0A000000 		.4byte	.LVL21
 2545 014b 0100     		.2byte	0x1
 2546 014d 50       		.byte	0x50
 2547 014e 00000000 		.4byte	0x0
 2548 0152 00000000 		.4byte	0x0
 2549              	.LLST28:
 2550 0156 00000000 		.4byte	.LVL23
 2551 015a 04000000 		.4byte	.LVL24
 2552 015e 0100     		.2byte	0x1
 2553 0160 50       		.byte	0x50
 2554 0161 00000000 		.4byte	0x0
 2555 0165 00000000 		.4byte	0x0
 2556              	.LLST30:
 2557 0169 00000000 		.4byte	.LVL25
 2558 016d 08000000 		.4byte	.LVL26
 2559 0171 0100     		.2byte	0x1
 2560 0173 50       		.byte	0x50
 2561 0174 00000000 		.4byte	0x0
 2562 0178 00000000 		.4byte	0x0
 2563              	.LLST32:
 2564 017c 00000000 		.4byte	.LVL27
 2565 0180 04000000 		.4byte	.LVL28
 2566 0184 0100     		.2byte	0x1
 2567 0186 50       		.byte	0x50
 2568 0187 00000000 		.4byte	0x0
 2569 018b 00000000 		.4byte	0x0
 2570              	.LLST34:
 2571 018f 00000000 		.4byte	.LVL29
 2572 0193 04000000 		.4byte	.LVL30
 2573 0197 0100     		.2byte	0x1
 2574 0199 50       		.byte	0x50
 2575 019a 00000000 		.4byte	0x0
 2576 019e 00000000 		.4byte	0x0
 2577              	.LLST36:
 2578 01a2 00000000 		.4byte	.LVL31
 2579 01a6 04000000 		.4byte	.LVL32
 2580 01aa 0100     		.2byte	0x1
 2581 01ac 50       		.byte	0x50
 2582 01ad 00000000 		.4byte	0x0
 2583 01b1 00000000 		.4byte	0x0
 2584              	.LLST38:
 2585 01b5 00000000 		.4byte	.LFB37
 2586 01b9 02000000 		.4byte	.LCFI4
 2587 01bd 0100     		.2byte	0x1
 2588 01bf 5D       		.byte	0x5d
 2589 01c0 02000000 		.4byte	.LCFI4
 2590 01c4 2C000000 		.4byte	.LFE37
 2591 01c8 0200     		.2byte	0x2
 2592 01ca 7D       		.byte	0x7d
 2593 01cb 08       		.sleb128 8
 2594 01cc 00000000 		.4byte	0x0
 2595 01d0 00000000 		.4byte	0x0
ARM GAS  C:\Users\kees\AppData\Local\Temp\ccxzCKRQ.s 			page 75


 2596              	.LLST39:
 2597 01d4 02000000 		.4byte	.LVL34
 2598 01d8 0A000000 		.4byte	.LVL35
 2599 01dc 0100     		.2byte	0x1
 2600 01de 50       		.byte	0x50
 2601 01df 0A000000 		.4byte	.LVL35
 2602 01e3 1C000000 		.4byte	.LVL37
 2603 01e7 0100     		.2byte	0x1
 2604 01e9 54       		.byte	0x54
 2605 01ea 00000000 		.4byte	0x0
 2606 01ee 00000000 		.4byte	0x0
 2607              	.LLST40:
 2608 01f2 00000000 		.4byte	.LFB35
 2609 01f6 02000000 		.4byte	.LCFI5
 2610 01fa 0100     		.2byte	0x1
 2611 01fc 5D       		.byte	0x5d
 2612 01fd 02000000 		.4byte	.LCFI5
 2613 0201 1C000000 		.4byte	.LFE35
 2614 0205 0200     		.2byte	0x2
 2615 0207 7D       		.byte	0x7d
 2616 0208 08       		.sleb128 8
 2617 0209 00000000 		.4byte	0x0
 2618 020d 00000000 		.4byte	0x0
 2619              	.LLST41:
 2620 0211 02000000 		.4byte	.LVL38
 2621 0215 0A000000 		.4byte	.LVL39
 2622 0219 0100     		.2byte	0x1
 2623 021b 50       		.byte	0x50
 2624 021c 0A000000 		.4byte	.LVL39
 2625 0220 12000000 		.4byte	.LVL41
 2626 0224 0100     		.2byte	0x1
 2627 0226 54       		.byte	0x54
 2628 0227 12000000 		.4byte	.LVL41
 2629 022b 16000000 		.4byte	.LVL42
 2630 022f 0100     		.2byte	0x1
 2631 0231 50       		.byte	0x50
 2632 0232 00000000 		.4byte	0x0
 2633 0236 00000000 		.4byte	0x0
 2634              	.LLST42:
 2635 023a 00000000 		.4byte	.LFB34
 2636 023e 02000000 		.4byte	.LCFI6
 2637 0242 0100     		.2byte	0x1
 2638 0244 5D       		.byte	0x5d
 2639 0245 02000000 		.4byte	.LCFI6
 2640 0249 20000000 		.4byte	.LFE34
 2641 024d 0200     		.2byte	0x2
 2642 024f 7D       		.byte	0x7d
 2643 0250 10       		.sleb128 16
 2644 0251 00000000 		.4byte	0x0
 2645 0255 00000000 		.4byte	0x0
 2646              	.LLST43:
 2647 0259 02000000 		.4byte	.LVL43
 2648 025d 0C000000 		.4byte	.LVL45
 2649 0261 0100     		.2byte	0x1
 2650 0263 50       		.byte	0x50
 2651 0264 0C000000 		.4byte	.LVL45
 2652 0268 14000000 		.4byte	.LVL47
ARM GAS  C:\Users\kees\AppData\Local\Temp\ccxzCKRQ.s 			page 76


 2653 026c 0100     		.2byte	0x1
 2654 026e 54       		.byte	0x54
 2655 026f 14000000 		.4byte	.LVL47
 2656 0273 18000000 		.4byte	.LVL48
 2657 0277 0100     		.2byte	0x1
 2658 0279 50       		.byte	0x50
 2659 027a 00000000 		.4byte	0x0
 2660 027e 00000000 		.4byte	0x0
 2661              	.LLST44:
 2662 0282 02000000 		.4byte	.LVL43
 2663 0286 0A000000 		.4byte	.LVL44
 2664 028a 0100     		.2byte	0x1
 2665 028c 51       		.byte	0x51
 2666 028d 0A000000 		.4byte	.LVL44
 2667 0291 1A000000 		.4byte	.LVL50
 2668 0295 0100     		.2byte	0x1
 2669 0297 55       		.byte	0x55
 2670 0298 1A000000 		.4byte	.LVL50
 2671 029c 20000000 		.4byte	.LFE34
 2672 02a0 0100     		.2byte	0x1
 2673 02a2 51       		.byte	0x51
 2674 02a3 00000000 		.4byte	0x0
 2675 02a7 00000000 		.4byte	0x0
 2676              	.LLST45:
 2677 02ab 18000000 		.4byte	.LVL48
 2678 02af 1A000000 		.4byte	.LVL49
 2679 02b3 0100     		.2byte	0x1
 2680 02b5 50       		.byte	0x50
 2681 02b6 00000000 		.4byte	0x0
 2682 02ba 00000000 		.4byte	0x0
 2683              	.LLST46:
 2684 02be 00000000 		.4byte	.LFB33
 2685 02c2 02000000 		.4byte	.LCFI7
 2686 02c6 0100     		.2byte	0x1
 2687 02c8 5D       		.byte	0x5d
 2688 02c9 02000000 		.4byte	.LCFI7
 2689 02cd 1A000000 		.4byte	.LFE33
 2690 02d1 0200     		.2byte	0x2
 2691 02d3 7D       		.byte	0x7d
 2692 02d4 08       		.sleb128 8
 2693 02d5 00000000 		.4byte	0x0
 2694 02d9 00000000 		.4byte	0x0
 2695              	.LLST47:
 2696 02dd 02000000 		.4byte	.LVL51
 2697 02e1 0A000000 		.4byte	.LVL52
 2698 02e5 0100     		.2byte	0x1
 2699 02e7 50       		.byte	0x50
 2700 02e8 0A000000 		.4byte	.LVL52
 2701 02ec 14000000 		.4byte	.LVL54
 2702 02f0 0100     		.2byte	0x1
 2703 02f2 54       		.byte	0x54
 2704 02f3 14000000 		.4byte	.LVL54
 2705 02f7 18000000 		.4byte	.LVL55
 2706 02fb 0100     		.2byte	0x1
 2707 02fd 50       		.byte	0x50
 2708 02fe 00000000 		.4byte	0x0
 2709 0302 00000000 		.4byte	0x0
ARM GAS  C:\Users\kees\AppData\Local\Temp\ccxzCKRQ.s 			page 77


 2710              	.LLST48:
 2711 0306 00000000 		.4byte	.LFB32
 2712 030a 02000000 		.4byte	.LCFI8
 2713 030e 0100     		.2byte	0x1
 2714 0310 5D       		.byte	0x5d
 2715 0311 02000000 		.4byte	.LCFI8
 2716 0315 1E000000 		.4byte	.LFE32
 2717 0319 0200     		.2byte	0x2
 2718 031b 7D       		.byte	0x7d
 2719 031c 10       		.sleb128 16
 2720 031d 00000000 		.4byte	0x0
 2721 0321 00000000 		.4byte	0x0
 2722              	.LLST49:
 2723 0325 02000000 		.4byte	.LVL56
 2724 0329 0C000000 		.4byte	.LVL58
 2725 032d 0100     		.2byte	0x1
 2726 032f 50       		.byte	0x50
 2727 0330 0C000000 		.4byte	.LVL58
 2728 0334 16000000 		.4byte	.LVL60
 2729 0338 0100     		.2byte	0x1
 2730 033a 54       		.byte	0x54
 2731 033b 16000000 		.4byte	.LVL60
 2732 033f 1A000000 		.4byte	.LVL61
 2733 0343 0100     		.2byte	0x1
 2734 0345 50       		.byte	0x50
 2735 0346 00000000 		.4byte	0x0
 2736 034a 00000000 		.4byte	0x0
 2737              	.LLST50:
 2738 034e 02000000 		.4byte	.LVL56
 2739 0352 0A000000 		.4byte	.LVL57
 2740 0356 0100     		.2byte	0x1
 2741 0358 51       		.byte	0x51
 2742 0359 0A000000 		.4byte	.LVL57
 2743 035d 1C000000 		.4byte	.LVL63
 2744 0361 0100     		.2byte	0x1
 2745 0363 55       		.byte	0x55
 2746 0364 1C000000 		.4byte	.LVL63
 2747 0368 1E000000 		.4byte	.LFE32
 2748 036c 0100     		.2byte	0x1
 2749 036e 51       		.byte	0x51
 2750 036f 00000000 		.4byte	0x0
 2751 0373 00000000 		.4byte	0x0
 2752              	.LLST51:
 2753 0377 1A000000 		.4byte	.LVL61
 2754 037b 1C000000 		.4byte	.LVL62
 2755 037f 0100     		.2byte	0x1
 2756 0381 50       		.byte	0x50
 2757 0382 00000000 		.4byte	0x0
 2758 0386 00000000 		.4byte	0x0
 2759              	.LLST52:
 2760 038a 00000000 		.4byte	.LFB22
 2761 038e 02000000 		.4byte	.LCFI9
 2762 0392 0100     		.2byte	0x1
 2763 0394 5D       		.byte	0x5d
 2764 0395 02000000 		.4byte	.LCFI9
 2765 0399 38000000 		.4byte	.LFE22
 2766 039d 0200     		.2byte	0x2
ARM GAS  C:\Users\kees\AppData\Local\Temp\ccxzCKRQ.s 			page 78


 2767 039f 7D       		.byte	0x7d
 2768 03a0 08       		.sleb128 8
 2769 03a1 00000000 		.4byte	0x0
 2770 03a5 00000000 		.4byte	0x0
 2771              	.LLST53:
 2772 03a9 02000000 		.4byte	.LVL64
 2773 03ad 14000000 		.4byte	.LVL65
 2774 03b1 0100     		.2byte	0x1
 2775 03b3 50       		.byte	0x50
 2776 03b4 18000000 		.4byte	.LVL67
 2777 03b8 1C000000 		.4byte	.LVL68
 2778 03bc 0100     		.2byte	0x1
 2779 03be 50       		.byte	0x50
 2780 03bf 20000000 		.4byte	.LVL70
 2781 03c3 24000000 		.4byte	.LVL71
 2782 03c7 0100     		.2byte	0x1
 2783 03c9 50       		.byte	0x50
 2784 03ca 26000000 		.4byte	.LVL72
 2785 03ce 28000000 		.4byte	.LVL73
 2786 03d2 0100     		.2byte	0x1
 2787 03d4 50       		.byte	0x50
 2788 03d5 00000000 		.4byte	0x0
 2789 03d9 00000000 		.4byte	0x0
 2790              	.LLST54:
 2791 03dd 16000000 		.4byte	.LVL66
 2792 03e1 18000000 		.4byte	.LVL67
 2793 03e5 0100     		.2byte	0x1
 2794 03e7 50       		.byte	0x50
 2795 03e8 1E000000 		.4byte	.LVL69
 2796 03ec 20000000 		.4byte	.LVL70
 2797 03f0 0100     		.2byte	0x1
 2798 03f2 50       		.byte	0x50
 2799 03f3 24000000 		.4byte	.LVL71
 2800 03f7 26000000 		.4byte	.LVL72
 2801 03fb 0100     		.2byte	0x1
 2802 03fd 50       		.byte	0x50
 2803 03fe 2E000000 		.4byte	.LVL74
 2804 0402 2E000000 		.4byte	.LVL75
 2805 0406 0100     		.2byte	0x1
 2806 0408 50       		.byte	0x50
 2807 0409 00000000 		.4byte	0x0
 2808 040d 00000000 		.4byte	0x0
 2809              	.LLST55:
 2810 0411 00000000 		.4byte	.LFB21
 2811 0415 02000000 		.4byte	.LCFI10
 2812 0419 0100     		.2byte	0x1
 2813 041b 5D       		.byte	0x5d
 2814 041c 02000000 		.4byte	.LCFI10
 2815 0420 20000000 		.4byte	.LFE21
 2816 0424 0200     		.2byte	0x2
 2817 0426 7D       		.byte	0x7d
 2818 0427 08       		.sleb128 8
 2819 0428 00000000 		.4byte	0x0
 2820 042c 00000000 		.4byte	0x0
 2821              	.LLST56:
 2822 0430 02000000 		.4byte	.LVL76
 2823 0434 0A000000 		.4byte	.LVL77
ARM GAS  C:\Users\kees\AppData\Local\Temp\ccxzCKRQ.s 			page 79


 2824 0438 0100     		.2byte	0x1
 2825 043a 50       		.byte	0x50
 2826 043b 0A000000 		.4byte	.LVL77
 2827 043f 12000000 		.4byte	.LVL79
 2828 0443 0100     		.2byte	0x1
 2829 0445 54       		.byte	0x54
 2830 0446 12000000 		.4byte	.LVL79
 2831 044a 14000000 		.4byte	.LVL80
 2832 044e 0100     		.2byte	0x1
 2833 0450 50       		.byte	0x50
 2834 0451 00000000 		.4byte	0x0
 2835 0455 00000000 		.4byte	0x0
 2836              	.LLST57:
 2837 0459 00000000 		.4byte	.LFB13
 2838 045d 02000000 		.4byte	.LCFI11
 2839 0461 0100     		.2byte	0x1
 2840 0463 5D       		.byte	0x5d
 2841 0464 02000000 		.4byte	.LCFI11
 2842 0468 24000000 		.4byte	.LFE13
 2843 046c 0200     		.2byte	0x2
 2844 046e 7D       		.byte	0x7d
 2845 046f 08       		.sleb128 8
 2846 0470 00000000 		.4byte	0x0
 2847 0474 00000000 		.4byte	0x0
 2848              	.LLST58:
 2849 0478 02000000 		.4byte	.LVL81
 2850 047c 0A000000 		.4byte	.LVL82
 2851 0480 0100     		.2byte	0x1
 2852 0482 50       		.byte	0x50
 2853 0483 0A000000 		.4byte	.LVL82
 2854 0487 12000000 		.4byte	.LVL84
 2855 048b 0100     		.2byte	0x1
 2856 048d 54       		.byte	0x54
 2857 048e 12000000 		.4byte	.LVL84
 2858 0492 14000000 		.4byte	.LVL85
 2859 0496 0100     		.2byte	0x1
 2860 0498 50       		.byte	0x50
 2861 0499 00000000 		.4byte	0x0
 2862 049d 00000000 		.4byte	0x0
 2863              	.LLST59:
 2864 04a1 00000000 		.4byte	.LFB9
 2865 04a5 02000000 		.4byte	.LCFI12
 2866 04a9 0100     		.2byte	0x1
 2867 04ab 5D       		.byte	0x5d
 2868 04ac 02000000 		.4byte	.LCFI12
 2869 04b0 24000000 		.4byte	.LFE9
 2870 04b4 0200     		.2byte	0x2
 2871 04b6 7D       		.byte	0x7d
 2872 04b7 08       		.sleb128 8
 2873 04b8 00000000 		.4byte	0x0
 2874 04bc 00000000 		.4byte	0x0
 2875              	.LLST60:
 2876 04c0 02000000 		.4byte	.LVL86
 2877 04c4 0A000000 		.4byte	.LVL87
 2878 04c8 0100     		.2byte	0x1
 2879 04ca 50       		.byte	0x50
 2880 04cb 0A000000 		.4byte	.LVL87
ARM GAS  C:\Users\kees\AppData\Local\Temp\ccxzCKRQ.s 			page 80


 2881 04cf 12000000 		.4byte	.LVL89
 2882 04d3 0100     		.2byte	0x1
 2883 04d5 54       		.byte	0x54
 2884 04d6 12000000 		.4byte	.LVL89
 2885 04da 14000000 		.4byte	.LVL90
 2886 04de 0100     		.2byte	0x1
 2887 04e0 50       		.byte	0x50
 2888 04e1 00000000 		.4byte	0x0
 2889 04e5 00000000 		.4byte	0x0
 2890              	.LLST61:
 2891 04e9 00000000 		.4byte	.LFB19
 2892 04ed 02000000 		.4byte	.LCFI13
 2893 04f1 0100     		.2byte	0x1
 2894 04f3 5D       		.byte	0x5d
 2895 04f4 02000000 		.4byte	.LCFI13
 2896 04f8 3C000000 		.4byte	.LFE19
 2897 04fc 0200     		.2byte	0x2
 2898 04fe 7D       		.byte	0x7d
 2899 04ff 08       		.sleb128 8
 2900 0500 00000000 		.4byte	0x0
 2901 0504 00000000 		.4byte	0x0
 2902              	.LLST62:
 2903 0508 02000000 		.4byte	.LVL91
 2904 050c 06000000 		.4byte	.LVL92
 2905 0510 0100     		.2byte	0x1
 2906 0512 50       		.byte	0x50
 2907 0513 06000000 		.4byte	.LVL92
 2908 0517 26000000 		.4byte	.LVL95
 2909 051b 0100     		.2byte	0x1
 2910 051d 54       		.byte	0x54
 2911 051e 2C000000 		.4byte	.LVL97
 2912 0522 2C000000 		.4byte	.LVL98
 2913 0526 0100     		.2byte	0x1
 2914 0528 54       		.byte	0x54
 2915 0529 00000000 		.4byte	0x0
 2916 052d 00000000 		.4byte	0x0
 2917              	.LLST63:
 2918 0531 20000000 		.4byte	.LVL93
 2919 0535 22000000 		.4byte	.LVL94
 2920 0539 0100     		.2byte	0x1
 2921 053b 51       		.byte	0x51
 2922 053c 22000000 		.4byte	.LVL94
 2923 0540 2A000000 		.4byte	.LVL96
 2924 0544 0100     		.2byte	0x1
 2925 0546 52       		.byte	0x52
 2926 0547 2A000000 		.4byte	.LVL96
 2927 054b 2C000000 		.4byte	.LVL98
 2928 054f 0100     		.2byte	0x1
 2929 0551 54       		.byte	0x54
 2930 0552 00000000 		.4byte	0x0
 2931 0556 00000000 		.4byte	0x0
 2932              	.LLST64:
 2933 055a 00000000 		.4byte	.LFB16
 2934 055e 02000000 		.4byte	.LCFI14
 2935 0562 0100     		.2byte	0x1
 2936 0564 5D       		.byte	0x5d
 2937 0565 02000000 		.4byte	.LCFI14
ARM GAS  C:\Users\kees\AppData\Local\Temp\ccxzCKRQ.s 			page 81


 2938 0569 4C000000 		.4byte	.LFE16
 2939 056d 0200     		.2byte	0x2
 2940 056f 7D       		.byte	0x7d
 2941 0570 10       		.sleb128 16
 2942 0571 00000000 		.4byte	0x0
 2943 0575 00000000 		.4byte	0x0
 2944              	.LLST65:
 2945 0579 02000000 		.4byte	.LVL99
 2946 057d 06000000 		.4byte	.LVL100
 2947 0581 0100     		.2byte	0x1
 2948 0583 50       		.byte	0x50
 2949 0584 06000000 		.4byte	.LVL100
 2950 0588 3C000000 		.4byte	.LVL103
 2951 058c 0100     		.2byte	0x1
 2952 058e 56       		.byte	0x56
 2953 058f 3E000000 		.4byte	.LVL104
 2954 0593 3E000000 		.4byte	.LVL105
 2955 0597 0100     		.2byte	0x1
 2956 0599 56       		.byte	0x56
 2957 059a 00000000 		.4byte	0x0
 2958 059e 00000000 		.4byte	0x0
 2959              	.LLST66:
 2960 05a2 38000000 		.4byte	.LVL101
 2961 05a6 3A000000 		.4byte	.LVL102
 2962 05aa 0100     		.2byte	0x1
 2963 05ac 51       		.byte	0x51
 2964 05ad 3A000000 		.4byte	.LVL102
 2965 05b1 3C000000 		.4byte	.LVL103
 2966 05b5 0100     		.2byte	0x1
 2967 05b7 52       		.byte	0x52
 2968 05b8 3C000000 		.4byte	.LVL103
 2969 05bc 3E000000 		.4byte	.LVL105
 2970 05c0 0100     		.2byte	0x1
 2971 05c2 56       		.byte	0x56
 2972 05c3 00000000 		.4byte	0x0
 2973 05c7 00000000 		.4byte	0x0
 2974              	.LLST67:
 2975 05cb 00000000 		.4byte	.LFB12
 2976 05cf 02000000 		.4byte	.LCFI15
 2977 05d3 0100     		.2byte	0x1
 2978 05d5 5D       		.byte	0x5d
 2979 05d6 02000000 		.4byte	.LCFI15
 2980 05da 40000000 		.4byte	.LFE12
 2981 05de 0200     		.2byte	0x2
 2982 05e0 7D       		.byte	0x7d
 2983 05e1 10       		.sleb128 16
 2984 05e2 00000000 		.4byte	0x0
 2985 05e6 00000000 		.4byte	0x0
 2986              	.LLST68:
 2987 05ea 02000000 		.4byte	.LVL106
 2988 05ee 0C000000 		.4byte	.LVL108
 2989 05f2 0100     		.2byte	0x1
 2990 05f4 50       		.byte	0x50
 2991 05f5 0C000000 		.4byte	.LVL108
 2992 05f9 2A000000 		.4byte	.LVL111
 2993 05fd 0100     		.2byte	0x1
 2994 05ff 54       		.byte	0x54
ARM GAS  C:\Users\kees\AppData\Local\Temp\ccxzCKRQ.s 			page 82


 2995 0600 34000000 		.4byte	.LVL113
 2996 0604 34000000 		.4byte	.LVL114
 2997 0608 0100     		.2byte	0x1
 2998 060a 54       		.byte	0x54
 2999 060b 00000000 		.4byte	0x0
 3000 060f 00000000 		.4byte	0x0
 3001              	.LLST69:
 3002 0613 02000000 		.4byte	.LVL106
 3003 0617 0A000000 		.4byte	.LVL107
 3004 061b 0100     		.2byte	0x1
 3005 061d 51       		.byte	0x51
 3006 061e 0A000000 		.4byte	.LVL107
 3007 0622 30000000 		.4byte	.LVL112
 3008 0626 0100     		.2byte	0x1
 3009 0628 55       		.byte	0x55
 3010 0629 34000000 		.4byte	.LVL113
 3011 062d 34000000 		.4byte	.LVL115
 3012 0631 0100     		.2byte	0x1
 3013 0633 55       		.byte	0x55
 3014 0634 00000000 		.4byte	0x0
 3015 0638 00000000 		.4byte	0x0
 3016              	.LLST70:
 3017 063c 00000000 		.4byte	.LFB10
 3018 0640 02000000 		.4byte	.LCFI16
 3019 0644 0100     		.2byte	0x1
 3020 0646 5D       		.byte	0x5d
 3021 0647 02000000 		.4byte	.LCFI16
 3022 064b 48000000 		.4byte	.LFE10
 3023 064f 0200     		.2byte	0x2
 3024 0651 7D       		.byte	0x7d
 3025 0652 10       		.sleb128 16
 3026 0653 00000000 		.4byte	0x0
 3027 0657 00000000 		.4byte	0x0
 3028              	.LLST71:
 3029 065b 02000000 		.4byte	.LVL116
 3030 065f 0C000000 		.4byte	.LVL118
 3031 0663 0100     		.2byte	0x1
 3032 0665 50       		.byte	0x50
 3033 0666 0C000000 		.4byte	.LVL118
 3034 066a 2C000000 		.4byte	.LVL121
 3035 066e 0100     		.2byte	0x1
 3036 0670 54       		.byte	0x54
 3037 0671 3E000000 		.4byte	.LVL125
 3038 0675 3E000000 		.4byte	.LVL126
 3039 0679 0100     		.2byte	0x1
 3040 067b 54       		.byte	0x54
 3041 067c 00000000 		.4byte	0x0
 3042 0680 00000000 		.4byte	0x0
 3043              	.LLST72:
 3044 0684 02000000 		.4byte	.LVL116
 3045 0688 0A000000 		.4byte	.LVL117
 3046 068c 0100     		.2byte	0x1
 3047 068e 51       		.byte	0x51
 3048 068f 0A000000 		.4byte	.LVL117
 3049 0693 36000000 		.4byte	.LVL123
 3050 0697 0100     		.2byte	0x1
 3051 0699 55       		.byte	0x55
ARM GAS  C:\Users\kees\AppData\Local\Temp\ccxzCKRQ.s 			page 83


 3052 069a 3E000000 		.4byte	.LVL125
 3053 069e 3E000000 		.4byte	.LVL127
 3054 06a2 0100     		.2byte	0x1
 3055 06a4 55       		.byte	0x55
 3056 06a5 00000000 		.4byte	0x0
 3057 06a9 00000000 		.4byte	0x0
 3058              	.LLST73:
 3059 06ad 34000000 		.4byte	.LVL122
 3060 06b1 3C000000 		.4byte	.LVL124
 3061 06b5 0100     		.2byte	0x1
 3062 06b7 51       		.byte	0x51
 3063 06b8 3C000000 		.4byte	.LVL124
 3064 06bc 3E000000 		.4byte	.LVL126
 3065 06c0 0100     		.2byte	0x1
 3066 06c2 54       		.byte	0x54
 3067 06c3 00000000 		.4byte	0x0
 3068 06c7 00000000 		.4byte	0x0
 3069              	.LLST75:
 3070 06cb 00000000 		.4byte	.LFB47
 3071 06cf 02000000 		.4byte	.LCFI17
 3072 06d3 0100     		.2byte	0x1
 3073 06d5 5D       		.byte	0x5d
 3074 06d6 02000000 		.4byte	.LCFI17
 3075 06da 48000000 		.4byte	.LFE47
 3076 06de 0200     		.2byte	0x2
 3077 06e0 7D       		.byte	0x7d
 3078 06e1 10       		.sleb128 16
 3079 06e2 00000000 		.4byte	0x0
 3080 06e6 00000000 		.4byte	0x0
 3081              	.LLST76:
 3082 06ea 02000000 		.4byte	.LVL128
 3083 06ee 1A000000 		.4byte	.LVL129
 3084 06f2 0100     		.2byte	0x1
 3085 06f4 50       		.byte	0x50
 3086 06f5 00000000 		.4byte	0x0
 3087 06f9 00000000 		.4byte	0x0
 3088              	.LLST77:
 3089 06fd 00000000 		.4byte	.LFB46
 3090 0701 02000000 		.4byte	.LCFI18
 3091 0705 0100     		.2byte	0x1
 3092 0707 5D       		.byte	0x5d
 3093 0708 02000000 		.4byte	.LCFI18
 3094 070c 14000000 		.4byte	.LFE46
 3095 0710 0200     		.2byte	0x2
 3096 0712 7D       		.byte	0x7d
 3097 0713 08       		.sleb128 8
 3098 0714 00000000 		.4byte	0x0
 3099 0718 00000000 		.4byte	0x0
 3100              	.LLST78:
 3101 071c 02000000 		.4byte	.LVL130
 3102 0720 08000000 		.4byte	.LVL131
 3103 0724 0100     		.2byte	0x1
 3104 0726 50       		.byte	0x50
 3105 0727 00000000 		.4byte	0x0
 3106 072b 00000000 		.4byte	0x0
 3107              	.LLST79:
 3108 072f 00000000 		.4byte	.LFB18
ARM GAS  C:\Users\kees\AppData\Local\Temp\ccxzCKRQ.s 			page 84


 3109 0733 02000000 		.4byte	.LCFI19
 3110 0737 0100     		.2byte	0x1
 3111 0739 5D       		.byte	0x5d
 3112 073a 02000000 		.4byte	.LCFI19
 3113 073e 44000000 		.4byte	.LFE18
 3114 0742 0200     		.2byte	0x2
 3115 0744 7D       		.byte	0x7d
 3116 0745 10       		.sleb128 16
 3117 0746 00000000 		.4byte	0x0
 3118 074a 00000000 		.4byte	0x0
 3119              	.LLST80:
 3120 074e 02000000 		.4byte	.LVL132
 3121 0752 0C000000 		.4byte	.LVL134
 3122 0756 0100     		.2byte	0x1
 3123 0758 50       		.byte	0x50
 3124 0759 0C000000 		.4byte	.LVL134
 3125 075d 2A000000 		.4byte	.LVL138
 3126 0761 0100     		.2byte	0x1
 3127 0763 54       		.byte	0x54
 3128 0764 00000000 		.4byte	0x0
 3129 0768 00000000 		.4byte	0x0
 3130              	.LLST81:
 3131 076c 02000000 		.4byte	.LVL132
 3132 0770 0A000000 		.4byte	.LVL133
 3133 0774 0100     		.2byte	0x1
 3134 0776 51       		.byte	0x51
 3135 0777 0A000000 		.4byte	.LVL133
 3136 077b 30000000 		.4byte	.LVL140
 3137 077f 0100     		.2byte	0x1
 3138 0781 55       		.byte	0x55
 3139 0782 00000000 		.4byte	0x0
 3140 0786 00000000 		.4byte	0x0
 3141              	.LLST82:
 3142 078a 28000000 		.4byte	.LVL137
 3143 078e 2E000000 		.4byte	.LVL139
 3144 0792 0100     		.2byte	0x1
 3145 0794 52       		.byte	0x52
 3146 0795 00000000 		.4byte	0x0
 3147 0799 00000000 		.4byte	0x0
 3148              	.LLST83:
 3149 079d 00000000 		.4byte	.LFB45
 3150 07a1 02000000 		.4byte	.LCFI20
 3151 07a5 0100     		.2byte	0x1
 3152 07a7 5D       		.byte	0x5d
 3153 07a8 02000000 		.4byte	.LCFI20
 3154 07ac 2C000000 		.4byte	.LFE45
 3155 07b0 0200     		.2byte	0x2
 3156 07b2 7D       		.byte	0x7d
 3157 07b3 08       		.sleb128 8
 3158 07b4 00000000 		.4byte	0x0
 3159 07b8 00000000 		.4byte	0x0
 3160              	.LLST84:
 3161 07bc 02000000 		.4byte	.LVL141
 3162 07c0 06000000 		.4byte	.LVL142
 3163 07c4 0100     		.2byte	0x1
 3164 07c6 50       		.byte	0x50
 3165 07c7 06000000 		.4byte	.LVL142
ARM GAS  C:\Users\kees\AppData\Local\Temp\ccxzCKRQ.s 			page 85


 3166 07cb 22000000 		.4byte	.LVL144
 3167 07cf 0100     		.2byte	0x1
 3168 07d1 54       		.byte	0x54
 3169 07d2 00000000 		.4byte	0x0
 3170 07d6 00000000 		.4byte	0x0
 3171              	.LLST85:
 3172 07da 00000000 		.4byte	.LFB36
 3173 07de 02000000 		.4byte	.LCFI21
 3174 07e2 0100     		.2byte	0x1
 3175 07e4 5D       		.byte	0x5d
 3176 07e5 02000000 		.4byte	.LCFI21
 3177 07e9 48000000 		.4byte	.LFE36
 3178 07ed 0200     		.2byte	0x2
 3179 07ef 7D       		.byte	0x7d
 3180 07f0 10       		.sleb128 16
 3181 07f1 00000000 		.4byte	0x0
 3182 07f5 00000000 		.4byte	0x0
 3183              	.LLST86:
 3184 07f9 02000000 		.4byte	.LVL145
 3185 07fd 0A000000 		.4byte	.LVL146
 3186 0801 0100     		.2byte	0x1
 3187 0803 50       		.byte	0x50
 3188 0804 0A000000 		.4byte	.LVL146
 3189 0808 2A000000 		.4byte	.LVL149
 3190 080c 0100     		.2byte	0x1
 3191 080e 54       		.byte	0x54
 3192 080f 00000000 		.4byte	0x0
 3193 0813 00000000 		.4byte	0x0
 3194              	.LLST87:
 3195 0817 02000000 		.4byte	.LVL145
 3196 081b 10000000 		.4byte	.LVL147
 3197 081f 0100     		.2byte	0x1
 3198 0821 51       		.byte	0x51
 3199 0822 10000000 		.4byte	.LVL147
 3200 0826 36000000 		.4byte	.LVL151
 3201 082a 0100     		.2byte	0x1
 3202 082c 55       		.byte	0x55
 3203 082d 00000000 		.4byte	0x0
 3204 0831 00000000 		.4byte	0x0
 3205              	.LLST88:
 3206 0835 2E000000 		.4byte	.LVL150
 3207 0839 3A000000 		.4byte	.LVL152
 3208 083d 0100     		.2byte	0x1
 3209 083f 51       		.byte	0x51
 3210 0840 3A000000 		.4byte	.LVL152
 3211 0844 40000000 		.4byte	.LVL153
 3212 0848 0100     		.2byte	0x1
 3213 084a 54       		.byte	0x54
 3214 084b 00000000 		.4byte	0x0
 3215 084f 00000000 		.4byte	0x0
 3216              	.LLST89:
 3217 0853 00000000 		.4byte	.LFB24
 3218 0857 02000000 		.4byte	.LCFI22
 3219 085b 0100     		.2byte	0x1
 3220 085d 5D       		.byte	0x5d
 3221 085e 02000000 		.4byte	.LCFI22
 3222 0862 80000000 		.4byte	.LFE24
ARM GAS  C:\Users\kees\AppData\Local\Temp\ccxzCKRQ.s 			page 86


 3223 0866 0200     		.2byte	0x2
 3224 0868 7D       		.byte	0x7d
 3225 0869 10       		.sleb128 16
 3226 086a 00000000 		.4byte	0x0
 3227 086e 00000000 		.4byte	0x0
 3228              	.LLST90:
 3229 0872 02000000 		.4byte	.LVL154
 3230 0876 08000000 		.4byte	.LVL155
 3231 087a 0100     		.2byte	0x1
 3232 087c 50       		.byte	0x50
 3233 087d 08000000 		.4byte	.LVL155
 3234 0881 4C000000 		.4byte	.LVL159
 3235 0885 0100     		.2byte	0x1
 3236 0887 54       		.byte	0x54
 3237 0888 00000000 		.4byte	0x0
 3238 088c 00000000 		.4byte	0x0
 3239              	.LLST91:
 3240 0890 26000000 		.4byte	.LVL156
 3241 0894 28000000 		.4byte	.LVL157
 3242 0898 0100     		.2byte	0x1
 3243 089a 53       		.byte	0x53
 3244 089b 44000000 		.4byte	.LVL158
 3245 089f 5C000000 		.4byte	.LVL160
 3246 08a3 0100     		.2byte	0x1
 3247 08a5 53       		.byte	0x53
 3248 08a6 62000000 		.4byte	.LVL161
 3249 08aa 68000000 		.4byte	.LVL162
 3250 08ae 0100     		.2byte	0x1
 3251 08b0 53       		.byte	0x53
 3252 08b1 00000000 		.4byte	0x0
 3253 08b5 00000000 		.4byte	0x0
 3254              	.LLST92:
 3255 08b9 00000000 		.4byte	.LFB8
 3256 08bd 02000000 		.4byte	.LCFI23
 3257 08c1 0100     		.2byte	0x1
 3258 08c3 5D       		.byte	0x5d
 3259 08c4 02000000 		.4byte	.LCFI23
 3260 08c8 44000000 		.4byte	.LFE8
 3261 08cc 0200     		.2byte	0x2
 3262 08ce 7D       		.byte	0x7d
 3263 08cf 08       		.sleb128 8
 3264 08d0 00000000 		.4byte	0x0
 3265 08d4 00000000 		.4byte	0x0
 3266              	.LLST93:
 3267 08d8 00000000 		.4byte	.LFB7
 3268 08dc 02000000 		.4byte	.LCFI24
 3269 08e0 0100     		.2byte	0x1
 3270 08e2 5D       		.byte	0x5d
 3271 08e3 02000000 		.4byte	.LCFI24
 3272 08e7 30000000 		.4byte	.LFE7
 3273 08eb 0200     		.2byte	0x2
 3274 08ed 7D       		.byte	0x7d
 3275 08ee 08       		.sleb128 8
 3276 08ef 00000000 		.4byte	0x0
 3277 08f3 00000000 		.4byte	0x0
 3278              	.LLST94:
 3279 08f7 00000000 		.4byte	.LFB6
ARM GAS  C:\Users\kees\AppData\Local\Temp\ccxzCKRQ.s 			page 87


 3280 08fb 02000000 		.4byte	.LCFI25
 3281 08ff 0100     		.2byte	0x1
 3282 0901 5D       		.byte	0x5d
 3283 0902 02000000 		.4byte	.LCFI25
 3284 0906 06000000 		.4byte	.LCFI26
 3285 090a 0200     		.2byte	0x2
 3286 090c 7D       		.byte	0x7d
 3287 090d 14       		.sleb128 20
 3288 090e 06000000 		.4byte	.LCFI26
 3289 0912 18010000 		.4byte	.LFE6
 3290 0916 0200     		.2byte	0x2
 3291 0918 7D       		.byte	0x7d
 3292 0919 20       		.sleb128 32
 3293 091a 00000000 		.4byte	0x0
 3294 091e 00000000 		.4byte	0x0
 3295              	.LLST95:
 3296 0922 02000000 		.4byte	.LVL163
 3297 0926 0C000000 		.4byte	.LVL164
 3298 092a 0100     		.2byte	0x1
 3299 092c 50       		.byte	0x50
 3300 092d 0C000000 		.4byte	.LVL164
 3301 0931 88000000 		.4byte	.LVL172
 3302 0935 0100     		.2byte	0x1
 3303 0937 54       		.byte	0x54
 3304 0938 AA000000 		.4byte	.LVL175
 3305 093c BE000000 		.4byte	.LVL177
 3306 0940 0100     		.2byte	0x1
 3307 0942 54       		.byte	0x54
 3308 0943 D8000000 		.4byte	.LVL180
 3309 0947 E0000000 		.4byte	.LVL182
 3310 094b 0100     		.2byte	0x1
 3311 094d 54       		.byte	0x54
 3312 094e 00000000 		.4byte	0x0
 3313 0952 00000000 		.4byte	0x0
 3314              	.LLST96:
 3315 0956 92000000 		.4byte	.LVL173
 3316 095a AA000000 		.4byte	.LVL175
 3317 095e 0100     		.2byte	0x1
 3318 0960 55       		.byte	0x55
 3319 0961 C8000000 		.4byte	.LVL178
 3320 0965 D8000000 		.4byte	.LVL180
 3321 0969 0100     		.2byte	0x1
 3322 096b 55       		.byte	0x55
 3323 096c DE000000 		.4byte	.LVL181
 3324 0970 E0000000 		.4byte	.LVL183
 3325 0974 0100     		.2byte	0x1
 3326 0976 55       		.byte	0x55
 3327 0977 00000000 		.4byte	0x0
 3328 097b 00000000 		.4byte	0x0
 3329              	.LLST97:
 3330 097f 96000000 		.4byte	.LVL174
 3331 0983 AA000000 		.4byte	.LVL175
 3332 0987 0100     		.2byte	0x1
 3333 0989 56       		.byte	0x56
 3334 098a CC000000 		.4byte	.LVL179
 3335 098e D8000000 		.4byte	.LVL180
 3336 0992 0100     		.2byte	0x1
ARM GAS  C:\Users\kees\AppData\Local\Temp\ccxzCKRQ.s 			page 88


 3337 0994 56       		.byte	0x56
 3338 0995 DE000000 		.4byte	.LVL181
 3339 0999 E0000000 		.4byte	.LVL184
 3340 099d 0100     		.2byte	0x1
 3341 099f 56       		.byte	0x56
 3342 09a0 00000000 		.4byte	0x0
 3343 09a4 00000000 		.4byte	0x0
 3344              	.LLST98:
 3345 09a8 26000000 		.4byte	.LVL166
 3346 09ac 28000000 		.4byte	.LVL167
 3347 09b0 0100     		.2byte	0x1
 3348 09b2 53       		.byte	0x53
 3349 09b3 30000000 		.4byte	.LVL168
 3350 09b7 72000000 		.4byte	.LVL169
 3351 09bb 0100     		.2byte	0x1
 3352 09bd 53       		.byte	0x53
 3353 09be 7E000000 		.4byte	.LVL170
 3354 09c2 84000000 		.4byte	.LVL171
 3355 09c6 0100     		.2byte	0x1
 3356 09c8 53       		.byte	0x53
 3357 09c9 AA000000 		.4byte	.LVL175
 3358 09cd AC000000 		.4byte	.LVL176
 3359 09d1 0100     		.2byte	0x1
 3360 09d3 53       		.byte	0x53
 3361 09d4 00000000 		.4byte	0x0
 3362 09d8 00000000 		.4byte	0x0
 3363              	.LLST99:
 3364 09dc 12000000 		.4byte	.LVL165
 3365 09e0 26000000 		.4byte	.LVL166
 3366 09e4 0100     		.2byte	0x1
 3367 09e6 53       		.byte	0x53
 3368 09e7 28000000 		.4byte	.LVL167
 3369 09eb 30000000 		.4byte	.LVL168
 3370 09ef 0100     		.2byte	0x1
 3371 09f1 53       		.byte	0x53
 3372 09f2 00000000 		.4byte	0x0
 3373 09f6 00000000 		.4byte	0x0
 3374              		.file 2 ".\\Generated_Source\\PSoC4\\/cytypes.h"
 3375              		.section	.debug_info
 3376 0000 F4090000 		.4byte	0x9f4
 3377 0004 0200     		.2byte	0x2
 3378 0006 00000000 		.4byte	.Ldebug_abbrev0
 3379 000a 04       		.byte	0x4
 3380 000b 01       		.uleb128 0x1
 3381 000c 99000000 		.4byte	.LASF101
 3382 0010 01       		.byte	0x1
 3383 0011 AD020000 		.4byte	.LASF102
 3384 0015 6E030000 		.4byte	.LASF103
 3385 0019 00000000 		.4byte	0x0
 3386 001d 00000000 		.4byte	0x0
 3387 0021 00000000 		.4byte	.Ldebug_ranges0+0x0
 3388 0025 00000000 		.4byte	.Ldebug_line0
 3389 0029 02       		.uleb128 0x2
 3390 002a 01       		.byte	0x1
 3391 002b 06       		.byte	0x6
 3392 002c D1000000 		.4byte	.LASF0
 3393 0030 02       		.uleb128 0x2
ARM GAS  C:\Users\kees\AppData\Local\Temp\ccxzCKRQ.s 			page 89


 3394 0031 01       		.byte	0x1
 3395 0032 08       		.byte	0x8
 3396 0033 7D040000 		.4byte	.LASF1
 3397 0037 02       		.uleb128 0x2
 3398 0038 02       		.byte	0x2
 3399 0039 05       		.byte	0x5
 3400 003a 8B040000 		.4byte	.LASF2
 3401 003e 02       		.uleb128 0x2
 3402 003f 02       		.byte	0x2
 3403 0040 07       		.byte	0x7
 3404 0041 8B020000 		.4byte	.LASF3
 3405 0045 02       		.uleb128 0x2
 3406 0046 04       		.byte	0x4
 3407 0047 05       		.byte	0x5
 3408 0048 3D010000 		.4byte	.LASF4
 3409 004c 02       		.uleb128 0x2
 3410 004d 04       		.byte	0x4
 3411 004e 07       		.byte	0x7
 3412 004f 3E020000 		.4byte	.LASF5
 3413 0053 02       		.uleb128 0x2
 3414 0054 08       		.byte	0x8
 3415 0055 05       		.byte	0x5
 3416 0056 C3000000 		.4byte	.LASF6
 3417 005a 02       		.uleb128 0x2
 3418 005b 08       		.byte	0x8
 3419 005c 07       		.byte	0x7
 3420 005d 82000000 		.4byte	.LASF7
 3421 0061 03       		.uleb128 0x3
 3422 0062 04       		.byte	0x4
 3423 0063 05       		.byte	0x5
 3424 0064 696E7400 		.ascii	"int\000"
 3425 0068 02       		.uleb128 0x2
 3426 0069 04       		.byte	0x4
 3427 006a 07       		.byte	0x7
 3428 006b 31020000 		.4byte	.LASF8
 3429 006f 04       		.uleb128 0x4
 3430 0070 53010000 		.4byte	.LASF9
 3431 0074 02       		.byte	0x2
 3432 0075 4C       		.byte	0x4c
 3433 0076 30000000 		.4byte	0x30
 3434 007a 04       		.uleb128 0x4
 3435 007b 17000000 		.4byte	.LASF10
 3436 007f 02       		.byte	0x2
 3437 0080 4D       		.byte	0x4d
 3438 0081 3E000000 		.4byte	0x3e
 3439 0085 04       		.uleb128 0x4
 3440 0086 C5010000 		.4byte	.LASF11
 3441 008a 02       		.byte	0x2
 3442 008b 4E       		.byte	0x4e
 3443 008c 4C000000 		.4byte	0x4c
 3444 0090 02       		.uleb128 0x2
 3445 0091 04       		.byte	0x4
 3446 0092 04       		.byte	0x4
 3447 0093 34040000 		.4byte	.LASF12
 3448 0097 02       		.uleb128 0x2
 3449 0098 08       		.byte	0x8
 3450 0099 04       		.byte	0x4
ARM GAS  C:\Users\kees\AppData\Local\Temp\ccxzCKRQ.s 			page 90


 3451 009a 6F010000 		.4byte	.LASF13
 3452 009e 02       		.uleb128 0x2
 3453 009f 01       		.byte	0x1
 3454 00a0 08       		.byte	0x8
 3455 00a1 27050000 		.4byte	.LASF14
 3456 00a5 04       		.uleb128 0x4
 3457 00a6 3A050000 		.4byte	.LASF15
 3458 00aa 02       		.byte	0x2
 3459 00ab EB       		.byte	0xeb
 3460 00ac B0000000 		.4byte	0xb0
 3461 00b0 05       		.uleb128 0x5
 3462 00b1 04       		.byte	0x4
 3463 00b2 B6000000 		.4byte	0xb6
 3464 00b6 06       		.uleb128 0x6
 3465 00b7 01       		.byte	0x1
 3466 00b8 07       		.uleb128 0x7
 3467 00b9 04       		.byte	0x4
 3468 00ba 07       		.byte	0x7
 3469 00bb 08       		.uleb128 0x8
 3470 00bc 01       		.byte	0x1
 3471 00bd C6050000 		.4byte	.LASF16
 3472 00c1 01       		.byte	0x1
 3473 00c2 2C       		.byte	0x2c
 3474 00c3 01       		.byte	0x1
 3475 00c4 00000000 		.4byte	.LFB0
 3476 00c8 14000000 		.4byte	.LFE0
 3477 00cc 01       		.byte	0x1
 3478 00cd 5D       		.byte	0x5d
 3479 00ce 08       		.uleb128 0x8
 3480 00cf 01       		.byte	0x1
 3481 00d0 6B020000 		.4byte	.LASF17
 3482 00d4 01       		.byte	0x1
 3483 00d5 40       		.byte	0x40
 3484 00d6 01       		.byte	0x1
 3485 00d7 00000000 		.4byte	.LFB1
 3486 00db 14000000 		.4byte	.LFE1
 3487 00df 01       		.byte	0x1
 3488 00e0 5D       		.byte	0x5d
 3489 00e1 08       		.uleb128 0x8
 3490 00e2 01       		.byte	0x1
 3491 00e3 CE020000 		.4byte	.LASF18
 3492 00e7 01       		.byte	0x1
 3493 00e8 54       		.byte	0x54
 3494 00e9 01       		.byte	0x1
 3495 00ea 00000000 		.4byte	.LFB2
 3496 00ee 14000000 		.4byte	.LFE2
 3497 00f2 01       		.byte	0x1
 3498 00f3 5D       		.byte	0x5d
 3499 00f4 08       		.uleb128 0x8
 3500 00f5 01       		.byte	0x1
 3501 00f6 76010000 		.4byte	.LASF19
 3502 00fa 01       		.byte	0x1
 3503 00fb 6D       		.byte	0x6d
 3504 00fc 01       		.byte	0x1
 3505 00fd 00000000 		.4byte	.LFB3
 3506 0101 14000000 		.4byte	.LFE3
 3507 0105 01       		.byte	0x1
ARM GAS  C:\Users\kees\AppData\Local\Temp\ccxzCKRQ.s 			page 91


 3508 0106 5D       		.byte	0x5d
 3509 0107 09       		.uleb128 0x9
 3510 0108 01       		.byte	0x1
 3511 0109 2D000000 		.4byte	.LASF20
 3512 010d 01       		.byte	0x1
 3513 010e 8F       		.byte	0x8f
 3514 010f 01       		.byte	0x1
 3515 0110 00000000 		.4byte	.LFB4
 3516 0114 18000000 		.4byte	.LFE4
 3517 0118 01       		.byte	0x1
 3518 0119 5D       		.byte	0x5d
 3519 011a 2E010000 		.4byte	0x12e
 3520 011e 0A       		.uleb128 0xa
 3521 011f E9040000 		.4byte	.LASF22
 3522 0123 01       		.byte	0x1
 3523 0124 8F       		.byte	0x8f
 3524 0125 85000000 		.4byte	0x85
 3525 0129 00000000 		.4byte	.LLST5
 3526 012d 00       		.byte	0x0
 3527 012e 0B       		.uleb128 0xb
 3528 012f 01       		.byte	0x1
 3529 0130 60050000 		.4byte	.LASF21
 3530 0134 01       		.byte	0x1
 3531 0135 B6       		.byte	0xb6
 3532 0136 01       		.byte	0x1
 3533 0137 00000000 		.4byte	.LFB5
 3534 013b 20000000 		.4byte	.LFE5
 3535 013f 13000000 		.4byte	.LLST6
 3536 0143 57010000 		.4byte	0x157
 3537 0147 0A       		.uleb128 0xa
 3538 0148 BE050000 		.4byte	.LASF23
 3539 014c 01       		.byte	0x1
 3540 014d B6       		.byte	0xb6
 3541 014e 85000000 		.4byte	0x85
 3542 0152 32000000 		.4byte	.LLST7
 3543 0156 00       		.byte	0x0
 3544 0157 0C       		.uleb128 0xc
 3545 0158 01       		.byte	0x1
 3546 0159 DD000000 		.4byte	.LASF38
 3547 015d 01       		.byte	0x1
 3548 015e 0102     		.2byte	0x201
 3549 0160 01       		.byte	0x1
 3550 0161 85000000 		.4byte	0x85
 3551 0165 00000000 		.4byte	.LFB11
 3552 0169 14000000 		.4byte	.LFE11
 3553 016d 01       		.byte	0x1
 3554 016e 5D       		.byte	0x5d
 3555 016f 84010000 		.4byte	0x184
 3556 0173 0D       		.uleb128 0xd
 3557 0174 5C000000 		.4byte	.LASF24
 3558 0178 01       		.byte	0x1
 3559 0179 0102     		.2byte	0x201
 3560 017b 85000000 		.4byte	0x85
 3561 017f 45000000 		.4byte	.LLST9
 3562 0183 00       		.byte	0x0
 3563 0184 0E       		.uleb128 0xe
 3564 0185 01       		.byte	0x1
ARM GAS  C:\Users\kees\AppData\Local\Temp\ccxzCKRQ.s 			page 92


 3565 0186 16020000 		.4byte	.LASF25
 3566 018a 01       		.byte	0x1
 3567 018b 6702     		.2byte	0x267
 3568 018d 01       		.byte	0x1
 3569 018e 00000000 		.4byte	.LFB14
 3570 0192 24000000 		.4byte	.LFE14
 3571 0196 58000000 		.4byte	.LLST10
 3572 019a AF010000 		.4byte	0x1af
 3573 019e 0D       		.uleb128 0xd
 3574 019f 25020000 		.4byte	.LASF26
 3575 01a3 01       		.byte	0x1
 3576 01a4 6702     		.2byte	0x267
 3577 01a6 85000000 		.4byte	0x85
 3578 01aa 77000000 		.4byte	.LLST11
 3579 01ae 00       		.byte	0x0
 3580 01af 0E       		.uleb128 0xe
 3581 01b0 01       		.byte	0x1
 3582 01b1 A9040000 		.4byte	.LASF27
 3583 01b5 01       		.byte	0x1
 3584 01b6 8C02     		.2byte	0x28c
 3585 01b8 01       		.byte	0x1
 3586 01b9 00000000 		.4byte	.LFB15
 3587 01bd 24000000 		.4byte	.LFE15
 3588 01c1 A0000000 		.4byte	.LLST12
 3589 01c5 DA010000 		.4byte	0x1da
 3590 01c9 0D       		.uleb128 0xd
 3591 01ca 25020000 		.4byte	.LASF26
 3592 01ce 01       		.byte	0x1
 3593 01cf 8C02     		.2byte	0x28c
 3594 01d1 85000000 		.4byte	0x85
 3595 01d5 BF000000 		.4byte	.LLST13
 3596 01d9 00       		.byte	0x0
 3597 01da 0F       		.uleb128 0xf
 3598 01db 01       		.byte	0x1
 3599 01dc 95040000 		.4byte	.LASF28
 3600 01e0 01       		.byte	0x1
 3601 01e1 E002     		.2byte	0x2e0
 3602 01e3 01       		.byte	0x1
 3603 01e4 85000000 		.4byte	0x85
 3604 01e8 00000000 		.4byte	.LFB17
 3605 01ec 14000000 		.4byte	.LFE17
 3606 01f0 01       		.byte	0x1
 3607 01f1 5D       		.byte	0x5d
 3608 01f2 0F       		.uleb128 0xf
 3609 01f3 01       		.byte	0x1
 3610 01f4 56040000 		.4byte	.LASF29
 3611 01f8 01       		.byte	0x1
 3612 01f9 4E03     		.2byte	0x34e
 3613 01fb 01       		.byte	0x1
 3614 01fc 85000000 		.4byte	0x85
 3615 0200 00000000 		.4byte	.LFB20
 3616 0204 10000000 		.4byte	.LFE20
 3617 0208 01       		.byte	0x1
 3618 0209 5D       		.byte	0x5d
 3619 020a 0F       		.uleb128 0xf
 3620 020b 01       		.byte	0x1
 3621 020c 05050000 		.4byte	.LASF30
ARM GAS  C:\Users\kees\AppData\Local\Temp\ccxzCKRQ.s 			page 93


 3622 0210 01       		.byte	0x1
 3623 0211 AC03     		.2byte	0x3ac
 3624 0213 01       		.byte	0x1
 3625 0214 85000000 		.4byte	0x85
 3626 0218 00000000 		.4byte	.LFB23
 3627 021c 14000000 		.4byte	.LFE23
 3628 0220 01       		.byte	0x1
 3629 0221 5D       		.byte	0x5d
 3630 0222 0E       		.uleb128 0xe
 3631 0223 01       		.byte	0x1
 3632 0224 F6030000 		.4byte	.LASF31
 3633 0228 01       		.byte	0x1
 3634 0229 1104     		.2byte	0x411
 3635 022b 01       		.byte	0x1
 3636 022c 00000000 		.4byte	.LFB25
 3637 0230 2C000000 		.4byte	.LFE25
 3638 0234 E8000000 		.4byte	.LLST17
 3639 0238 4D020000 		.4byte	0x24d
 3640 023c 0D       		.uleb128 0xd
 3641 023d A1010000 		.4byte	.LASF32
 3642 0241 01       		.byte	0x1
 3643 0242 1104     		.2byte	0x411
 3644 0244 85000000 		.4byte	0x85
 3645 0248 07010000 		.4byte	.LLST18
 3646 024c 00       		.byte	0x0
 3647 024d 10       		.uleb128 0x10
 3648 024e 01       		.byte	0x1
 3649 024f E1010000 		.4byte	.LASF33
 3650 0253 01       		.byte	0x1
 3651 0254 4304     		.2byte	0x443
 3652 0256 01       		.byte	0x1
 3653 0257 00000000 		.4byte	.LFB26
 3654 025b 2C000000 		.4byte	.LFE26
 3655 025f 01       		.byte	0x1
 3656 0260 5D       		.byte	0x5d
 3657 0261 76020000 		.4byte	0x276
 3658 0265 0D       		.uleb128 0xd
 3659 0266 6C040000 		.4byte	.LASF34
 3660 026a 01       		.byte	0x1
 3661 026b 4304     		.2byte	0x443
 3662 026d 85000000 		.4byte	0x85
 3663 0271 30010000 		.4byte	.LLST20
 3664 0275 00       		.byte	0x0
 3665 0276 11       		.uleb128 0x11
 3666 0277 01       		.byte	0x1
 3667 0278 7F050000 		.4byte	.LASF35
 3668 027c 01       		.byte	0x1
 3669 027d 5C04     		.2byte	0x45c
 3670 027f 01       		.byte	0x1
 3671 0280 00000000 		.4byte	.LFB27
 3672 0284 1C000000 		.4byte	.LFE27
 3673 0288 01       		.byte	0x1
 3674 0289 5D       		.byte	0x5d
 3675 028a 0F       		.uleb128 0xf
 3676 028b 01       		.byte	0x1
 3677 028c 50020000 		.4byte	.LASF36
 3678 0290 01       		.byte	0x1
ARM GAS  C:\Users\kees\AppData\Local\Temp\ccxzCKRQ.s 			page 94


 3679 0291 7204     		.2byte	0x472
 3680 0293 01       		.byte	0x1
 3681 0294 85000000 		.4byte	0x85
 3682 0298 00000000 		.4byte	.LFB28
 3683 029c 10000000 		.4byte	.LFE28
 3684 02a0 01       		.byte	0x1
 3685 02a1 5D       		.byte	0x5d
 3686 02a2 11       		.uleb128 0x11
 3687 02a3 01       		.byte	0x1
 3688 02a4 AE010000 		.4byte	.LASF37
 3689 02a8 01       		.byte	0x1
 3690 02a9 8604     		.2byte	0x486
 3691 02ab 01       		.byte	0x1
 3692 02ac 00000000 		.4byte	.LFB29
 3693 02b0 0C000000 		.4byte	.LFE29
 3694 02b4 01       		.byte	0x1
 3695 02b5 5D       		.byte	0x5d
 3696 02b6 0C       		.uleb128 0xc
 3697 02b7 01       		.byte	0x1
 3698 02b8 67000000 		.4byte	.LASF39
 3699 02bc 01       		.byte	0x1
 3700 02bd 9A04     		.2byte	0x49a
 3701 02bf 01       		.byte	0x1
 3702 02c0 85000000 		.4byte	0x85
 3703 02c4 00000000 		.4byte	.LFB30
 3704 02c8 10000000 		.4byte	.LFE30
 3705 02cc 01       		.byte	0x1
 3706 02cd 5D       		.byte	0x5d
 3707 02ce E3020000 		.4byte	0x2e3
 3708 02d2 12       		.uleb128 0x12
 3709 02d3 1E000000 		.4byte	.LASF56
 3710 02d7 01       		.byte	0x1
 3711 02d8 9C04     		.2byte	0x49c
 3712 02da 85000000 		.4byte	0x85
 3713 02de 43010000 		.4byte	.LLST25
 3714 02e2 00       		.byte	0x0
 3715 02e3 10       		.uleb128 0x10
 3716 02e4 01       		.byte	0x1
 3717 02e5 DF020000 		.4byte	.LASF40
 3718 02e9 01       		.byte	0x1
 3719 02ea B604     		.2byte	0x4b6
 3720 02ec 01       		.byte	0x1
 3721 02ed 00000000 		.4byte	.LFB31
 3722 02f1 0C000000 		.4byte	.LFE31
 3723 02f5 01       		.byte	0x1
 3724 02f6 5D       		.byte	0x5d
 3725 02f7 0A030000 		.4byte	0x30a
 3726 02fb 13       		.uleb128 0x13
 3727 02fc D3010000 		.4byte	.LASF41
 3728 0300 01       		.byte	0x1
 3729 0301 B604     		.2byte	0x4b6
 3730 0303 85000000 		.4byte	0x85
 3731 0307 01       		.byte	0x1
 3732 0308 50       		.byte	0x50
 3733 0309 00       		.byte	0x0
 3734 030a 10       		.uleb128 0x10
 3735 030b 01       		.byte	0x1
ARM GAS  C:\Users\kees\AppData\Local\Temp\ccxzCKRQ.s 			page 95


 3736 030c B9040000 		.4byte	.LASF42
 3737 0310 01       		.byte	0x1
 3738 0311 7A05     		.2byte	0x57a
 3739 0313 01       		.byte	0x1
 3740 0314 00000000 		.4byte	.LFB38
 3741 0318 14000000 		.4byte	.LFE38
 3742 031c 01       		.byte	0x1
 3743 031d 5D       		.byte	0x5d
 3744 031e 33030000 		.4byte	0x333
 3745 0322 0D       		.uleb128 0xd
 3746 0323 CC010000 		.4byte	.LASF43
 3747 0327 01       		.byte	0x1
 3748 0328 7A05     		.2byte	0x57a
 3749 032a 6F000000 		.4byte	0x6f
 3750 032e 56010000 		.4byte	.LLST28
 3751 0332 00       		.byte	0x0
 3752 0333 0C       		.uleb128 0xc
 3753 0334 01       		.byte	0x1
 3754 0335 B5000000 		.4byte	.LASF44
 3755 0339 01       		.byte	0x1
 3756 033a 8E05     		.2byte	0x58e
 3757 033c 01       		.byte	0x1
 3758 033d 6F000000 		.4byte	0x6f
 3759 0341 00000000 		.4byte	.LFB39
 3760 0345 18000000 		.4byte	.LFE39
 3761 0349 01       		.byte	0x1
 3762 034a 5D       		.byte	0x5d
 3763 034b 60030000 		.4byte	0x360
 3764 034f 0D       		.uleb128 0xd
 3765 0350 CC010000 		.4byte	.LASF43
 3766 0354 01       		.byte	0x1
 3767 0355 8E05     		.2byte	0x58e
 3768 0357 6F000000 		.4byte	0x6f
 3769 035b 69010000 		.4byte	.LLST30
 3770 035f 00       		.byte	0x0
 3771 0360 10       		.uleb128 0x10
 3772 0361 01       		.byte	0x1
 3773 0362 46010000 		.4byte	.LASF45
 3774 0366 01       		.byte	0x1
 3775 0367 A305     		.2byte	0x5a3
 3776 0369 01       		.byte	0x1
 3777 036a 00000000 		.4byte	.LFB40
 3778 036e 14000000 		.4byte	.LFE40
 3779 0372 01       		.byte	0x1
 3780 0373 5D       		.byte	0x5d
 3781 0374 89030000 		.4byte	0x389
 3782 0378 0D       		.uleb128 0xd
 3783 0379 CC010000 		.4byte	.LASF43
 3784 037d 01       		.byte	0x1
 3785 037e A305     		.2byte	0x5a3
 3786 0380 6F000000 		.4byte	0x6f
 3787 0384 7C010000 		.4byte	.LLST32
 3788 0388 00       		.byte	0x0
 3789 0389 10       		.uleb128 0x10
 3790 038a 01       		.byte	0x1
 3791 038b 7B020000 		.4byte	.LASF46
 3792 038f 01       		.byte	0x1
ARM GAS  C:\Users\kees\AppData\Local\Temp\ccxzCKRQ.s 			page 96


 3793 0390 B605     		.2byte	0x5b6
 3794 0392 01       		.byte	0x1
 3795 0393 00000000 		.4byte	.LFB41
 3796 0397 14000000 		.4byte	.LFE41
 3797 039b 01       		.byte	0x1
 3798 039c 5D       		.byte	0x5d
 3799 039d B2030000 		.4byte	0x3b2
 3800 03a1 0D       		.uleb128 0xd
 3801 03a2 CC010000 		.4byte	.LASF43
 3802 03a6 01       		.byte	0x1
 3803 03a7 B605     		.2byte	0x5b6
 3804 03a9 6F000000 		.4byte	0x6f
 3805 03ad 8F010000 		.4byte	.LLST34
 3806 03b1 00       		.byte	0x0
 3807 03b2 10       		.uleb128 0x10
 3808 03b3 01       		.byte	0x1
 3809 03b4 54030000 		.4byte	.LASF47
 3810 03b8 01       		.byte	0x1
 3811 03b9 CA05     		.2byte	0x5ca
 3812 03bb 01       		.byte	0x1
 3813 03bc 00000000 		.4byte	.LFB42
 3814 03c0 14000000 		.4byte	.LFE42
 3815 03c4 01       		.byte	0x1
 3816 03c5 5D       		.byte	0x5d
 3817 03c6 DB030000 		.4byte	0x3db
 3818 03ca 0D       		.uleb128 0xd
 3819 03cb CC010000 		.4byte	.LASF43
 3820 03cf 01       		.byte	0x1
 3821 03d0 CA05     		.2byte	0x5ca
 3822 03d2 6F000000 		.4byte	0x6f
 3823 03d6 A2010000 		.4byte	.LLST36
 3824 03da 00       		.byte	0x0
 3825 03db 10       		.uleb128 0x10
 3826 03dc 01       		.byte	0x1
 3827 03dd 76040000 		.4byte	.LASF48
 3828 03e1 01       		.byte	0x1
 3829 03e2 DE05     		.2byte	0x5de
 3830 03e4 01       		.byte	0x1
 3831 03e5 00000000 		.4byte	.LFB43
 3832 03e9 04000000 		.4byte	.LFE43
 3833 03ed 01       		.byte	0x1
 3834 03ee 5D       		.byte	0x5d
 3835 03ef 02040000 		.4byte	0x402
 3836 03f3 13       		.uleb128 0x13
 3837 03f4 20050000 		.4byte	.LASF49
 3838 03f8 01       		.byte	0x1
 3839 03f9 DE05     		.2byte	0x5de
 3840 03fb 6F000000 		.4byte	0x6f
 3841 03ff 01       		.byte	0x1
 3842 0400 50       		.byte	0x50
 3843 0401 00       		.byte	0x0
 3844 0402 14       		.uleb128 0x14
 3845 0403 01       		.byte	0x1
 3846 0404 F0010000 		.4byte	.LASF50
 3847 0408 01       		.byte	0x1
 3848 0409 6005     		.2byte	0x560
 3849 040b 01       		.byte	0x1
ARM GAS  C:\Users\kees\AppData\Local\Temp\ccxzCKRQ.s 			page 97


 3850 040c 6F000000 		.4byte	0x6f
 3851 0410 00000000 		.4byte	.LFB37
 3852 0414 2C000000 		.4byte	.LFE37
 3853 0418 B5010000 		.4byte	.LLST38
 3854 041c 3D040000 		.4byte	0x43d
 3855 0420 0D       		.uleb128 0xd
 3856 0421 CC010000 		.4byte	.LASF43
 3857 0425 01       		.byte	0x1
 3858 0426 6005     		.2byte	0x560
 3859 0428 6F000000 		.4byte	0x6f
 3860 042c D4010000 		.4byte	.LLST39
 3861 0430 15       		.uleb128 0x15
 3862 0431 2C050000 		.4byte	.LASF52
 3863 0435 01       		.byte	0x1
 3864 0436 6205     		.2byte	0x562
 3865 0438 6F000000 		.4byte	0x6f
 3866 043c 00       		.byte	0x0
 3867 043d 14       		.uleb128 0x14
 3868 043e 01       		.byte	0x1
 3869 043f 3A040000 		.4byte	.LASF51
 3870 0443 01       		.byte	0x1
 3871 0444 2405     		.2byte	0x524
 3872 0446 01       		.byte	0x1
 3873 0447 A5000000 		.4byte	0xa5
 3874 044b 00000000 		.4byte	.LFB35
 3875 044f 1C000000 		.4byte	.LFE35
 3876 0453 F2010000 		.4byte	.LLST40
 3877 0457 78040000 		.4byte	0x478
 3878 045b 0D       		.uleb128 0xd
 3879 045c CC010000 		.4byte	.LASF43
 3880 0460 01       		.byte	0x1
 3881 0461 2405     		.2byte	0x524
 3882 0463 6F000000 		.4byte	0x6f
 3883 0467 11020000 		.4byte	.LLST41
 3884 046b 15       		.uleb128 0x15
 3885 046c 00000000 		.4byte	.LASF53
 3886 0470 01       		.byte	0x1
 3887 0471 2605     		.2byte	0x526
 3888 0473 78040000 		.4byte	0x478
 3889 0477 00       		.byte	0x0
 3890 0478 05       		.uleb128 0x5
 3891 0479 04       		.byte	0x4
 3892 047a A5000000 		.4byte	0xa5
 3893 047e 14       		.uleb128 0x14
 3894 047f 01       		.byte	0x1
 3895 0480 9E020000 		.4byte	.LASF54
 3896 0484 01       		.byte	0x1
 3897 0485 0505     		.2byte	0x505
 3898 0487 01       		.byte	0x1
 3899 0488 A5000000 		.4byte	0xa5
 3900 048c 00000000 		.4byte	.LFB34
 3901 0490 20000000 		.4byte	.LFE34
 3902 0494 3A020000 		.4byte	.LLST42
 3903 0498 D9040000 		.4byte	0x4d9
 3904 049c 0D       		.uleb128 0xd
 3905 049d CC010000 		.4byte	.LASF43
 3906 04a1 01       		.byte	0x1
ARM GAS  C:\Users\kees\AppData\Local\Temp\ccxzCKRQ.s 			page 98


 3907 04a2 0505     		.2byte	0x505
 3908 04a4 6F000000 		.4byte	0x6f
 3909 04a8 59020000 		.4byte	.LLST43
 3910 04ac 0D       		.uleb128 0xd
 3911 04ad 66030000 		.4byte	.LASF55
 3912 04b1 01       		.byte	0x1
 3913 04b2 0505     		.2byte	0x505
 3914 04b4 A5000000 		.4byte	0xa5
 3915 04b8 82020000 		.4byte	.LLST44
 3916 04bc 12       		.uleb128 0x12
 3917 04bd 55000000 		.4byte	.LASF57
 3918 04c1 01       		.byte	0x1
 3919 04c2 0705     		.2byte	0x507
 3920 04c4 A5000000 		.4byte	0xa5
 3921 04c8 AB020000 		.4byte	.LLST45
 3922 04cc 15       		.uleb128 0x15
 3923 04cd 00000000 		.4byte	.LASF53
 3924 04d1 01       		.byte	0x1
 3925 04d2 0805     		.2byte	0x508
 3926 04d4 78040000 		.4byte	0x478
 3927 04d8 00       		.byte	0x0
 3928 04d9 14       		.uleb128 0x14
 3929 04da 01       		.byte	0x1
 3930 04db C5040000 		.4byte	.LASF58
 3931 04df 01       		.byte	0x1
 3932 04e0 EC04     		.2byte	0x4ec
 3933 04e2 01       		.byte	0x1
 3934 04e3 A5000000 		.4byte	0xa5
 3935 04e7 00000000 		.4byte	.LFB33
 3936 04eb 1A000000 		.4byte	.LFE33
 3937 04ef BE020000 		.4byte	.LLST46
 3938 04f3 14050000 		.4byte	0x514
 3939 04f7 0D       		.uleb128 0xd
 3940 04f8 CC010000 		.4byte	.LASF43
 3941 04fc 01       		.byte	0x1
 3942 04fd EC04     		.2byte	0x4ec
 3943 04ff 6F000000 		.4byte	0x6f
 3944 0503 DD020000 		.4byte	.LLST47
 3945 0507 15       		.uleb128 0x15
 3946 0508 00000000 		.4byte	.LASF53
 3947 050c 01       		.byte	0x1
 3948 050d EE04     		.2byte	0x4ee
 3949 050f 78040000 		.4byte	0x478
 3950 0513 00       		.byte	0x0
 3951 0514 14       		.uleb128 0x14
 3952 0515 01       		.byte	0x1
 3953 0516 01030000 		.4byte	.LASF59
 3954 051a 01       		.byte	0x1
 3955 051b CC04     		.2byte	0x4cc
 3956 051d 01       		.byte	0x1
 3957 051e A5000000 		.4byte	0xa5
 3958 0522 00000000 		.4byte	.LFB32
 3959 0526 1E000000 		.4byte	.LFE32
 3960 052a 06030000 		.4byte	.LLST48
 3961 052e 6F050000 		.4byte	0x56f
 3962 0532 0D       		.uleb128 0xd
 3963 0533 CC010000 		.4byte	.LASF43
ARM GAS  C:\Users\kees\AppData\Local\Temp\ccxzCKRQ.s 			page 99


 3964 0537 01       		.byte	0x1
 3965 0538 CC04     		.2byte	0x4cc
 3966 053a 6F000000 		.4byte	0x6f
 3967 053e 25030000 		.4byte	.LLST49
 3968 0542 0D       		.uleb128 0xd
 3969 0543 66030000 		.4byte	.LASF55
 3970 0547 01       		.byte	0x1
 3971 0548 CC04     		.2byte	0x4cc
 3972 054a A5000000 		.4byte	0xa5
 3973 054e 4E030000 		.4byte	.LLST50
 3974 0552 12       		.uleb128 0x12
 3975 0553 55000000 		.4byte	.LASF57
 3976 0557 01       		.byte	0x1
 3977 0558 CE04     		.2byte	0x4ce
 3978 055a A5000000 		.4byte	0xa5
 3979 055e 77030000 		.4byte	.LLST51
 3980 0562 15       		.uleb128 0x15
 3981 0563 00000000 		.4byte	.LASF53
 3982 0567 01       		.byte	0x1
 3983 0568 CF04     		.2byte	0x4cf
 3984 056a 78040000 		.4byte	0x478
 3985 056e 00       		.byte	0x0
 3986 056f 14       		.uleb128 0x14
 3987 0570 01       		.byte	0x1
 3988 0571 EE000000 		.4byte	.LASF60
 3989 0575 01       		.byte	0x1
 3990 0576 7B03     		.2byte	0x37b
 3991 0578 01       		.byte	0x1
 3992 0579 85000000 		.4byte	0x85
 3993 057d 00000000 		.4byte	.LFB22
 3994 0581 38000000 		.4byte	.LFE22
 3995 0585 8A030000 		.4byte	.LLST52
 3996 0589 AE050000 		.4byte	0x5ae
 3997 058d 0D       		.uleb128 0xd
 3998 058e 5C000000 		.4byte	.LASF24
 3999 0592 01       		.byte	0x1
 4000 0593 7B03     		.2byte	0x37b
 4001 0595 85000000 		.4byte	0x85
 4002 0599 A9030000 		.4byte	.LLST53
 4003 059d 12       		.uleb128 0x12
 4004 059e D8010000 		.4byte	.LASF61
 4005 05a2 01       		.byte	0x1
 4006 05a3 7D03     		.2byte	0x37d
 4007 05a5 85000000 		.4byte	0x85
 4008 05a9 DD030000 		.4byte	.LLST54
 4009 05ad 00       		.byte	0x0
 4010 05ae 14       		.uleb128 0x14
 4011 05af 01       		.byte	0x1
 4012 05b0 D7040000 		.4byte	.LASF62
 4013 05b4 01       		.byte	0x1
 4014 05b5 6303     		.2byte	0x363
 4015 05b7 01       		.byte	0x1
 4016 05b8 85000000 		.4byte	0x85
 4017 05bc 00000000 		.4byte	.LFB21
 4018 05c0 20000000 		.4byte	.LFE21
 4019 05c4 11040000 		.4byte	.LLST55
 4020 05c8 DD050000 		.4byte	0x5dd
ARM GAS  C:\Users\kees\AppData\Local\Temp\ccxzCKRQ.s 			page 100


 4021 05cc 0D       		.uleb128 0xd
 4022 05cd 5C000000 		.4byte	.LASF24
 4023 05d1 01       		.byte	0x1
 4024 05d2 6303     		.2byte	0x363
 4025 05d4 85000000 		.4byte	0x85
 4026 05d8 30040000 		.4byte	.LLST56
 4027 05dc 00       		.byte	0x0
 4028 05dd 14       		.uleb128 0x14
 4029 05de 01       		.byte	0x1
 4030 05df 2D030000 		.4byte	.LASF63
 4031 05e3 01       		.byte	0x1
 4032 05e4 4602     		.2byte	0x246
 4033 05e6 01       		.byte	0x1
 4034 05e7 85000000 		.4byte	0x85
 4035 05eb 00000000 		.4byte	.LFB13
 4036 05ef 24000000 		.4byte	.LFE13
 4037 05f3 59040000 		.4byte	.LLST57
 4038 05f7 0C060000 		.4byte	0x60c
 4039 05fb 0D       		.uleb128 0xd
 4040 05fc 5C000000 		.4byte	.LASF24
 4041 0600 01       		.byte	0x1
 4042 0601 4602     		.2byte	0x246
 4043 0603 85000000 		.4byte	0x85
 4044 0607 78040000 		.4byte	.LLST58
 4045 060b 00       		.byte	0x0
 4046 060c 14       		.uleb128 0x14
 4047 060d 01       		.byte	0x1
 4048 060e D7050000 		.4byte	.LASF64
 4049 0612 01       		.byte	0x1
 4050 0613 B601     		.2byte	0x1b6
 4051 0615 01       		.byte	0x1
 4052 0616 85000000 		.4byte	0x85
 4053 061a 00000000 		.4byte	.LFB9
 4054 061e 24000000 		.4byte	.LFE9
 4055 0622 A1040000 		.4byte	.LLST59
 4056 0626 3B060000 		.4byte	0x63b
 4057 062a 0D       		.uleb128 0xd
 4058 062b 5C000000 		.4byte	.LASF24
 4059 062f 01       		.byte	0x1
 4060 0630 B601     		.2byte	0x1b6
 4061 0632 85000000 		.4byte	0x85
 4062 0636 C0040000 		.4byte	.LLST60
 4063 063a 00       		.byte	0x0
 4064 063b 0E       		.uleb128 0xe
 4065 063c 01       		.byte	0x1
 4066 063d FE050000 		.4byte	.LASF65
 4067 0641 01       		.byte	0x1
 4068 0642 2A03     		.2byte	0x32a
 4069 0644 01       		.byte	0x1
 4070 0645 00000000 		.4byte	.LFB19
 4071 0649 3C000000 		.4byte	.LFE19
 4072 064d E9040000 		.4byte	.LLST61
 4073 0651 76060000 		.4byte	0x676
 4074 0655 0D       		.uleb128 0xd
 4075 0656 38010000 		.4byte	.LASF66
 4076 065a 01       		.byte	0x1
 4077 065b 2A03     		.2byte	0x32a
ARM GAS  C:\Users\kees\AppData\Local\Temp\ccxzCKRQ.s 			page 101


 4078 065d 85000000 		.4byte	0x85
 4079 0661 08050000 		.4byte	.LLST62
 4080 0665 12       		.uleb128 0x12
 4081 0666 8F050000 		.4byte	.LASF67
 4082 066a 01       		.byte	0x1
 4083 066b 2C03     		.2byte	0x32c
 4084 066d 85000000 		.4byte	0x85
 4085 0671 31050000 		.4byte	.LLST63
 4086 0675 00       		.byte	0x0
 4087 0676 0E       		.uleb128 0xe
 4088 0677 01       		.byte	0x1
 4089 0678 86010000 		.4byte	.LASF68
 4090 067c 01       		.byte	0x1
 4091 067d B302     		.2byte	0x2b3
 4092 067f 01       		.byte	0x1
 4093 0680 00000000 		.4byte	.LFB16
 4094 0684 4C000000 		.4byte	.LFE16
 4095 0688 5A050000 		.4byte	.LLST64
 4096 068c BD060000 		.4byte	0x6bd
 4097 0690 0D       		.uleb128 0xd
 4098 0691 B2050000 		.4byte	.LASF69
 4099 0695 01       		.byte	0x1
 4100 0696 B302     		.2byte	0x2b3
 4101 0698 85000000 		.4byte	0x85
 4102 069c 79050000 		.4byte	.LLST65
 4103 06a0 12       		.uleb128 0x12
 4104 06a1 8F050000 		.4byte	.LASF67
 4105 06a5 01       		.byte	0x1
 4106 06a6 B502     		.2byte	0x2b5
 4107 06a8 85000000 		.4byte	0x85
 4108 06ac A2050000 		.4byte	.LLST66
 4109 06b0 15       		.uleb128 0x15
 4110 06b1 01020000 		.4byte	.LASF70
 4111 06b5 01       		.byte	0x1
 4112 06b6 B602     		.2byte	0x2b6
 4113 06b8 85000000 		.4byte	0x85
 4114 06bc 00       		.byte	0x0
 4115 06bd 0E       		.uleb128 0xe
 4116 06be 01       		.byte	0x1
 4117 06bf 13030000 		.4byte	.LASF71
 4118 06c3 01       		.byte	0x1
 4119 06c4 2202     		.2byte	0x222
 4120 06c6 01       		.byte	0x1
 4121 06c7 00000000 		.4byte	.LFB12
 4122 06cb 40000000 		.4byte	.LFE12
 4123 06cf CB050000 		.4byte	.LLST67
 4124 06d3 F8060000 		.4byte	0x6f8
 4125 06d7 0D       		.uleb128 0xd
 4126 06d8 5C000000 		.4byte	.LASF24
 4127 06dc 01       		.byte	0x1
 4128 06dd 2202     		.2byte	0x222
 4129 06df 85000000 		.4byte	0x85
 4130 06e3 EA050000 		.4byte	.LLST68
 4131 06e7 0D       		.uleb128 0xd
 4132 06e8 68010000 		.4byte	.LASF72
 4133 06ec 01       		.byte	0x1
 4134 06ed 2202     		.2byte	0x222
ARM GAS  C:\Users\kees\AppData\Local\Temp\ccxzCKRQ.s 			page 102


 4135 06ef 85000000 		.4byte	0x85
 4136 06f3 13060000 		.4byte	.LLST69
 4137 06f7 00       		.byte	0x0
 4138 06f8 0E       		.uleb128 0xe
 4139 06f9 01       		.byte	0x1
 4140 06fa F3040000 		.4byte	.LASF73
 4141 06fe 01       		.byte	0x1
 4142 06ff DA01     		.2byte	0x1da
 4143 0701 01       		.byte	0x1
 4144 0702 00000000 		.4byte	.LFB10
 4145 0706 48000000 		.4byte	.LFE10
 4146 070a 3C060000 		.4byte	.LLST70
 4147 070e 43070000 		.4byte	0x743
 4148 0712 0D       		.uleb128 0xd
 4149 0713 5C000000 		.4byte	.LASF24
 4150 0717 01       		.byte	0x1
 4151 0718 DA01     		.2byte	0x1da
 4152 071a 85000000 		.4byte	0x85
 4153 071e 5B060000 		.4byte	.LLST71
 4154 0722 0D       		.uleb128 0xd
 4155 0723 35050000 		.4byte	.LASF74
 4156 0727 01       		.byte	0x1
 4157 0728 DA01     		.2byte	0x1da
 4158 072a 85000000 		.4byte	0x85
 4159 072e 84060000 		.4byte	.LLST72
 4160 0732 12       		.uleb128 0x12
 4161 0733 8F050000 		.4byte	.LASF67
 4162 0737 01       		.byte	0x1
 4163 0738 DC01     		.2byte	0x1dc
 4164 073a 85000000 		.4byte	0x85
 4165 073e AD060000 		.4byte	.LLST73
 4166 0742 00       		.byte	0x0
 4167 0743 11       		.uleb128 0x11
 4168 0744 01       		.byte	0x1
 4169 0745 A5000000 		.4byte	.LASF75
 4170 0749 01       		.byte	0x1
 4171 074a FD05     		.2byte	0x5fd
 4172 074c 01       		.byte	0x1
 4173 074d 00000000 		.4byte	.LFB44
 4174 0751 18000000 		.4byte	.LFE44
 4175 0755 01       		.byte	0x1
 4176 0756 5D       		.byte	0x5d
 4177 0757 0E       		.uleb128 0xe
 4178 0758 01       		.byte	0x1
 4179 0759 00010000 		.4byte	.LASF76
 4180 075d 01       		.byte	0x1
 4181 075e 4506     		.2byte	0x645
 4182 0760 01       		.byte	0x1
 4183 0761 00000000 		.4byte	.LFB47
 4184 0765 48000000 		.4byte	.LFE47
 4185 0769 CB060000 		.4byte	.LLST75
 4186 076d 82070000 		.4byte	0x782
 4187 0771 0D       		.uleb128 0xd
 4188 0772 AD050000 		.4byte	.LASF77
 4189 0776 01       		.byte	0x1
 4190 0777 4506     		.2byte	0x645
 4191 0779 85000000 		.4byte	0x85
ARM GAS  C:\Users\kees\AppData\Local\Temp\ccxzCKRQ.s 			page 103


 4192 077d EA060000 		.4byte	.LLST76
 4193 0781 00       		.byte	0x0
 4194 0782 0E       		.uleb128 0xe
 4195 0783 01       		.byte	0x1
 4196 0784 1B010000 		.4byte	.LASF78
 4197 0788 01       		.byte	0x1
 4198 0789 3206     		.2byte	0x632
 4199 078b 01       		.byte	0x1
 4200 078c 00000000 		.4byte	.LFB46
 4201 0790 14000000 		.4byte	.LFE46
 4202 0794 FD060000 		.4byte	.LLST77
 4203 0798 AD070000 		.4byte	0x7ad
 4204 079c 0D       		.uleb128 0xd
 4205 079d F1050000 		.4byte	.LASF79
 4206 07a1 01       		.byte	0x1
 4207 07a2 3206     		.2byte	0x632
 4208 07a4 7A000000 		.4byte	0x7a
 4209 07a8 1C070000 		.4byte	.LLST78
 4210 07ac 00       		.byte	0x0
 4211 07ad 0E       		.uleb128 0xe
 4212 07ae 01       		.byte	0x1
 4213 07af 25010000 		.4byte	.LASF80
 4214 07b3 01       		.byte	0x1
 4215 07b4 FC02     		.2byte	0x2fc
 4216 07b6 01       		.byte	0x1
 4217 07b7 00000000 		.4byte	.LFB18
 4218 07bb 44000000 		.4byte	.LFE18
 4219 07bf 2F070000 		.4byte	.LLST79
 4220 07c3 F8070000 		.4byte	0x7f8
 4221 07c7 0D       		.uleb128 0xd
 4222 07c8 5C000000 		.4byte	.LASF24
 4223 07cc 01       		.byte	0x1
 4224 07cd FC02     		.2byte	0x2fc
 4225 07cf 85000000 		.4byte	0x85
 4226 07d3 4E070000 		.4byte	.LLST80
 4227 07d7 0D       		.uleb128 0xd
 4228 07d8 D2030000 		.4byte	.LASF81
 4229 07dc 01       		.byte	0x1
 4230 07dd FC02     		.2byte	0x2fc
 4231 07df 85000000 		.4byte	0x85
 4232 07e3 6C070000 		.4byte	.LLST81
 4233 07e7 12       		.uleb128 0x12
 4234 07e8 D8010000 		.4byte	.LASF61
 4235 07ec 01       		.byte	0x1
 4236 07ed FE02     		.2byte	0x2fe
 4237 07ef 85000000 		.4byte	0x85
 4238 07f3 8A070000 		.4byte	.LLST82
 4239 07f7 00       		.byte	0x0
 4240 07f8 0E       		.uleb128 0xe
 4241 07f9 01       		.byte	0x1
 4242 07fa 77050000 		.4byte	.LASF82
 4243 07fe 01       		.byte	0x1
 4244 07ff 1606     		.2byte	0x616
 4245 0801 01       		.byte	0x1
 4246 0802 00000000 		.4byte	.LFB45
 4247 0806 2C000000 		.4byte	.LFE45
 4248 080a 9D070000 		.4byte	.LLST83
ARM GAS  C:\Users\kees\AppData\Local\Temp\ccxzCKRQ.s 			page 104


 4249 080e 23080000 		.4byte	0x823
 4250 0812 0D       		.uleb128 0xd
 4251 0813 49040000 		.4byte	.LASF83
 4252 0817 01       		.byte	0x1
 4253 0818 1606     		.2byte	0x616
 4254 081a 85000000 		.4byte	0x85
 4255 081e BC070000 		.4byte	.LLST84
 4256 0822 00       		.byte	0x0
 4257 0823 0E       		.uleb128 0xe
 4258 0824 01       		.byte	0x1
 4259 0825 0C040000 		.4byte	.LASF84
 4260 0829 01       		.byte	0x1
 4261 082a 3C05     		.2byte	0x53c
 4262 082c 01       		.byte	0x1
 4263 082d 00000000 		.4byte	.LFB36
 4264 0831 48000000 		.4byte	.LFE36
 4265 0835 DA070000 		.4byte	.LLST85
 4266 0839 86080000 		.4byte	0x886
 4267 083d 0D       		.uleb128 0xd
 4268 083e CC010000 		.4byte	.LASF43
 4269 0842 01       		.byte	0x1
 4270 0843 3C05     		.2byte	0x53c
 4271 0845 6F000000 		.4byte	0x6f
 4272 0849 F9070000 		.4byte	.LLST86
 4273 084d 0D       		.uleb128 0xd
 4274 084e 2C050000 		.4byte	.LASF52
 4275 0852 01       		.byte	0x1
 4276 0853 3C05     		.2byte	0x53c
 4277 0855 6F000000 		.4byte	0x6f
 4278 0859 17080000 		.4byte	.LLST87
 4279 085d 15       		.uleb128 0x15
 4280 085e 0C010000 		.4byte	.LASF85
 4281 0862 01       		.byte	0x1
 4282 0863 3E05     		.2byte	0x53e
 4283 0865 6F000000 		.4byte	0x6f
 4284 0869 15       		.uleb128 0x15
 4285 086a 9B010000 		.4byte	.LASF86
 4286 086e 01       		.byte	0x1
 4287 086f 3F05     		.2byte	0x53f
 4288 0871 85000000 		.4byte	0x85
 4289 0875 12       		.uleb128 0x12
 4290 0876 27000000 		.4byte	.LASF87
 4291 087a 01       		.byte	0x1
 4292 087b 4005     		.2byte	0x540
 4293 087d 85000000 		.4byte	0x85
 4294 0881 35080000 		.4byte	.LLST88
 4295 0885 00       		.byte	0x0
 4296 0886 0E       		.uleb128 0xe
 4297 0887 01       		.byte	0x1
 4298 0888 1D040000 		.4byte	.LASF88
 4299 088c 01       		.byte	0x1
 4300 088d CD03     		.2byte	0x3cd
 4301 088f 01       		.byte	0x1
 4302 0890 00000000 		.4byte	.LFB24
 4303 0894 80000000 		.4byte	.LFE24
 4304 0898 53080000 		.4byte	.LLST89
 4305 089c CD080000 		.4byte	0x8cd
ARM GAS  C:\Users\kees\AppData\Local\Temp\ccxzCKRQ.s 			page 105


 4306 08a0 0D       		.uleb128 0xd
 4307 08a1 25020000 		.4byte	.LASF26
 4308 08a5 01       		.byte	0x1
 4309 08a6 CD03     		.2byte	0x3cd
 4310 08a8 85000000 		.4byte	0x85
 4311 08ac 72080000 		.4byte	.LLST90
 4312 08b0 15       		.uleb128 0x15
 4313 08b1 0C010000 		.4byte	.LASF85
 4314 08b5 01       		.byte	0x1
 4315 08b6 CF03     		.2byte	0x3cf
 4316 08b8 6F000000 		.4byte	0x6f
 4317 08bc 12       		.uleb128 0x12
 4318 08bd E9030000 		.4byte	.LASF89
 4319 08c1 01       		.byte	0x1
 4320 08c2 D003     		.2byte	0x3d0
 4321 08c4 85000000 		.4byte	0x85
 4322 08c8 90080000 		.4byte	.LLST91
 4323 08cc 00       		.byte	0x0
 4324 08cd 0E       		.uleb128 0xe
 4325 08ce 01       		.byte	0x1
 4326 08cf 46000000 		.4byte	.LASF90
 4327 08d3 01       		.byte	0x1
 4328 08d4 8901     		.2byte	0x189
 4329 08d6 01       		.byte	0x1
 4330 08d7 00000000 		.4byte	.LFB8
 4331 08db 44000000 		.4byte	.LFE8
 4332 08df B9080000 		.4byte	.LLST92
 4333 08e3 F4080000 		.4byte	0x8f4
 4334 08e7 15       		.uleb128 0x15
 4335 08e8 0C010000 		.4byte	.LASF85
 4336 08ec 01       		.byte	0x1
 4337 08ed 8B01     		.2byte	0x18b
 4338 08ef 6F000000 		.4byte	0x6f
 4339 08f3 00       		.byte	0x0
 4340 08f4 0E       		.uleb128 0xe
 4341 08f5 01       		.byte	0x1
 4342 08f6 47050000 		.4byte	.LASF91
 4343 08fa 01       		.byte	0x1
 4344 08fb 6301     		.2byte	0x163
 4345 08fd 01       		.byte	0x1
 4346 08fe 00000000 		.4byte	.LFB7
 4347 0902 30000000 		.4byte	.LFE7
 4348 0906 D8080000 		.4byte	.LLST93
 4349 090a 1B090000 		.4byte	0x91b
 4350 090e 15       		.uleb128 0x15
 4351 090f 0C010000 		.4byte	.LASF85
 4352 0913 01       		.byte	0x1
 4353 0914 6501     		.2byte	0x165
 4354 0916 6F000000 		.4byte	0x6f
 4355 091a 00       		.byte	0x0
 4356 091b 0B       		.uleb128 0xb
 4357 091c 01       		.byte	0x1
 4358 091d EC020000 		.4byte	.LASF92
 4359 0921 01       		.byte	0x1
 4360 0922 D6       		.byte	0xd6
 4361 0923 01       		.byte	0x1
 4362 0924 00000000 		.4byte	.LFB6
ARM GAS  C:\Users\kees\AppData\Local\Temp\ccxzCKRQ.s 			page 106


 4363 0928 18010000 		.4byte	.LFE6
 4364 092c F7080000 		.4byte	.LLST94
 4365 0930 9A090000 		.4byte	0x99a
 4366 0934 0A       		.uleb128 0xa
 4367 0935 AD050000 		.4byte	.LASF77
 4368 0939 01       		.byte	0x1
 4369 093a D6       		.byte	0xd6
 4370 093b 85000000 		.4byte	0x85
 4371 093f 22090000 		.4byte	.LLST95
 4372 0943 16       		.uleb128 0x16
 4373 0944 0F000000 		.4byte	.LASF93
 4374 0948 01       		.byte	0x1
 4375 0949 D8       		.byte	0xd8
 4376 094a 6F000000 		.4byte	0x6f
 4377 094e 56090000 		.4byte	.LLST96
 4378 0952 16       		.uleb128 0x16
 4379 0953 CA030000 		.4byte	.LASF94
 4380 0957 01       		.byte	0x1
 4381 0958 D9       		.byte	0xd9
 4382 0959 6F000000 		.4byte	0x6f
 4383 095d 7F090000 		.4byte	.LLST97
 4384 0961 16       		.uleb128 0x16
 4385 0962 54050000 		.4byte	.LASF95
 4386 0966 01       		.byte	0x1
 4387 0967 DA       		.byte	0xda
 4388 0968 85000000 		.4byte	0x85
 4389 096c A8090000 		.4byte	.LLST98
 4390 0970 17       		.uleb128 0x17
 4391 0971 0C010000 		.4byte	.LASF85
 4392 0975 01       		.byte	0x1
 4393 0976 DB       		.byte	0xdb
 4394 0977 6F000000 		.4byte	0x6f
 4395 097b 18       		.uleb128 0x18
 4396 097c 6900     		.ascii	"i\000"
 4397 097e 01       		.byte	0x1
 4398 097f DC       		.byte	0xdc
 4399 0980 85000000 		.4byte	0x85
 4400 0984 DC090000 		.4byte	.LLST99
 4401 0988 19       		.uleb128 0x19
 4402 0989 D8030000 		.4byte	.LASF96
 4403 098d 01       		.byte	0x1
 4404 098e DF       		.byte	0xdf
 4405 098f AA090000 		.4byte	0x9aa
 4406 0993 05       		.byte	0x5
 4407 0994 03       		.byte	0x3
 4408 0995 00000000 		.4byte	cyImoFreqMhz2Reg.1839
 4409 0999 00       		.byte	0x0
 4410 099a 1A       		.uleb128 0x1a
 4411 099b 6F000000 		.4byte	0x6f
 4412 099f AA090000 		.4byte	0x9aa
 4413 09a3 1B       		.uleb128 0x1b
 4414 09a4 B8000000 		.4byte	0xb8
 4415 09a8 2D       		.byte	0x2d
 4416 09a9 00       		.byte	0x0
 4417 09aa 1C       		.uleb128 0x1c
 4418 09ab 9A090000 		.4byte	0x99a
 4419 09af 1D       		.uleb128 0x1d
ARM GAS  C:\Users\kees\AppData\Local\Temp\ccxzCKRQ.s 			page 107


 4420 09b0 46030000 		.4byte	.LASF97
 4421 09b4 01       		.byte	0x1
 4422 09b5 17       		.byte	0x17
 4423 09b6 85000000 		.4byte	0x85
 4424 09ba 01       		.byte	0x1
 4425 09bb 05       		.byte	0x5
 4426 09bc 03       		.byte	0x3
 4427 09bd 00000000 		.4byte	cydelayFreqHz
 4428 09c1 1D       		.uleb128 0x1d
 4429 09c2 59010000 		.4byte	.LASF98
 4430 09c6 01       		.byte	0x1
 4431 09c7 18       		.byte	0x18
 4432 09c8 85000000 		.4byte	0x85
 4433 09cc 01       		.byte	0x1
 4434 09cd 05       		.byte	0x5
 4435 09ce 03       		.byte	0x3
 4436 09cf 00000000 		.4byte	cydelayFreqKhz
 4437 09d3 1D       		.uleb128 0x1d
 4438 09d4 9E050000 		.4byte	.LASF99
 4439 09d8 01       		.byte	0x1
 4440 09d9 19       		.byte	0x19
 4441 09da 6F000000 		.4byte	0x6f
 4442 09de 01       		.byte	0x1
 4443 09df 05       		.byte	0x5
 4444 09e0 03       		.byte	0x3
 4445 09e1 00000000 		.4byte	cydelayFreqMhz
 4446 09e5 1D       		.uleb128 0x1d
 4447 09e6 75000000 		.4byte	.LASF100
 4448 09ea 01       		.byte	0x1
 4449 09eb 1A       		.byte	0x1a
 4450 09ec 85000000 		.4byte	0x85
 4451 09f0 01       		.byte	0x1
 4452 09f1 05       		.byte	0x5
 4453 09f2 03       		.byte	0x3
 4454 09f3 00000000 		.4byte	cydelay32kMs
 4455 09f7 00       		.byte	0x0
 4456              		.section	.debug_abbrev
 4457 0000 01       		.uleb128 0x1
 4458 0001 11       		.uleb128 0x11
 4459 0002 01       		.byte	0x1
 4460 0003 25       		.uleb128 0x25
 4461 0004 0E       		.uleb128 0xe
 4462 0005 13       		.uleb128 0x13
 4463 0006 0B       		.uleb128 0xb
 4464 0007 03       		.uleb128 0x3
 4465 0008 0E       		.uleb128 0xe
 4466 0009 1B       		.uleb128 0x1b
 4467 000a 0E       		.uleb128 0xe
 4468 000b 11       		.uleb128 0x11
 4469 000c 01       		.uleb128 0x1
 4470 000d 52       		.uleb128 0x52
 4471 000e 01       		.uleb128 0x1
 4472 000f 55       		.uleb128 0x55
 4473 0010 06       		.uleb128 0x6
 4474 0011 10       		.uleb128 0x10
 4475 0012 06       		.uleb128 0x6
 4476 0013 00       		.byte	0x0
ARM GAS  C:\Users\kees\AppData\Local\Temp\ccxzCKRQ.s 			page 108


 4477 0014 00       		.byte	0x0
 4478 0015 02       		.uleb128 0x2
 4479 0016 24       		.uleb128 0x24
 4480 0017 00       		.byte	0x0
 4481 0018 0B       		.uleb128 0xb
 4482 0019 0B       		.uleb128 0xb
 4483 001a 3E       		.uleb128 0x3e
 4484 001b 0B       		.uleb128 0xb
 4485 001c 03       		.uleb128 0x3
 4486 001d 0E       		.uleb128 0xe
 4487 001e 00       		.byte	0x0
 4488 001f 00       		.byte	0x0
 4489 0020 03       		.uleb128 0x3
 4490 0021 24       		.uleb128 0x24
 4491 0022 00       		.byte	0x0
 4492 0023 0B       		.uleb128 0xb
 4493 0024 0B       		.uleb128 0xb
 4494 0025 3E       		.uleb128 0x3e
 4495 0026 0B       		.uleb128 0xb
 4496 0027 03       		.uleb128 0x3
 4497 0028 08       		.uleb128 0x8
 4498 0029 00       		.byte	0x0
 4499 002a 00       		.byte	0x0
 4500 002b 04       		.uleb128 0x4
 4501 002c 16       		.uleb128 0x16
 4502 002d 00       		.byte	0x0
 4503 002e 03       		.uleb128 0x3
 4504 002f 0E       		.uleb128 0xe
 4505 0030 3A       		.uleb128 0x3a
 4506 0031 0B       		.uleb128 0xb
 4507 0032 3B       		.uleb128 0x3b
 4508 0033 0B       		.uleb128 0xb
 4509 0034 49       		.uleb128 0x49
 4510 0035 13       		.uleb128 0x13
 4511 0036 00       		.byte	0x0
 4512 0037 00       		.byte	0x0
 4513 0038 05       		.uleb128 0x5
 4514 0039 0F       		.uleb128 0xf
 4515 003a 00       		.byte	0x0
 4516 003b 0B       		.uleb128 0xb
 4517 003c 0B       		.uleb128 0xb
 4518 003d 49       		.uleb128 0x49
 4519 003e 13       		.uleb128 0x13
 4520 003f 00       		.byte	0x0
 4521 0040 00       		.byte	0x0
 4522 0041 06       		.uleb128 0x6
 4523 0042 15       		.uleb128 0x15
 4524 0043 00       		.byte	0x0
 4525 0044 27       		.uleb128 0x27
 4526 0045 0C       		.uleb128 0xc
 4527 0046 00       		.byte	0x0
 4528 0047 00       		.byte	0x0
 4529 0048 07       		.uleb128 0x7
 4530 0049 24       		.uleb128 0x24
 4531 004a 00       		.byte	0x0
 4532 004b 0B       		.uleb128 0xb
 4533 004c 0B       		.uleb128 0xb
ARM GAS  C:\Users\kees\AppData\Local\Temp\ccxzCKRQ.s 			page 109


 4534 004d 3E       		.uleb128 0x3e
 4535 004e 0B       		.uleb128 0xb
 4536 004f 00       		.byte	0x0
 4537 0050 00       		.byte	0x0
 4538 0051 08       		.uleb128 0x8
 4539 0052 2E       		.uleb128 0x2e
 4540 0053 00       		.byte	0x0
 4541 0054 3F       		.uleb128 0x3f
 4542 0055 0C       		.uleb128 0xc
 4543 0056 03       		.uleb128 0x3
 4544 0057 0E       		.uleb128 0xe
 4545 0058 3A       		.uleb128 0x3a
 4546 0059 0B       		.uleb128 0xb
 4547 005a 3B       		.uleb128 0x3b
 4548 005b 0B       		.uleb128 0xb
 4549 005c 27       		.uleb128 0x27
 4550 005d 0C       		.uleb128 0xc
 4551 005e 11       		.uleb128 0x11
 4552 005f 01       		.uleb128 0x1
 4553 0060 12       		.uleb128 0x12
 4554 0061 01       		.uleb128 0x1
 4555 0062 40       		.uleb128 0x40
 4556 0063 0A       		.uleb128 0xa
 4557 0064 00       		.byte	0x0
 4558 0065 00       		.byte	0x0
 4559 0066 09       		.uleb128 0x9
 4560 0067 2E       		.uleb128 0x2e
 4561 0068 01       		.byte	0x1
 4562 0069 3F       		.uleb128 0x3f
 4563 006a 0C       		.uleb128 0xc
 4564 006b 03       		.uleb128 0x3
 4565 006c 0E       		.uleb128 0xe
 4566 006d 3A       		.uleb128 0x3a
 4567 006e 0B       		.uleb128 0xb
 4568 006f 3B       		.uleb128 0x3b
 4569 0070 0B       		.uleb128 0xb
 4570 0071 27       		.uleb128 0x27
 4571 0072 0C       		.uleb128 0xc
 4572 0073 11       		.uleb128 0x11
 4573 0074 01       		.uleb128 0x1
 4574 0075 12       		.uleb128 0x12
 4575 0076 01       		.uleb128 0x1
 4576 0077 40       		.uleb128 0x40
 4577 0078 0A       		.uleb128 0xa
 4578 0079 01       		.uleb128 0x1
 4579 007a 13       		.uleb128 0x13
 4580 007b 00       		.byte	0x0
 4581 007c 00       		.byte	0x0
 4582 007d 0A       		.uleb128 0xa
 4583 007e 05       		.uleb128 0x5
 4584 007f 00       		.byte	0x0
 4585 0080 03       		.uleb128 0x3
 4586 0081 0E       		.uleb128 0xe
 4587 0082 3A       		.uleb128 0x3a
 4588 0083 0B       		.uleb128 0xb
 4589 0084 3B       		.uleb128 0x3b
 4590 0085 0B       		.uleb128 0xb
ARM GAS  C:\Users\kees\AppData\Local\Temp\ccxzCKRQ.s 			page 110


 4591 0086 49       		.uleb128 0x49
 4592 0087 13       		.uleb128 0x13
 4593 0088 02       		.uleb128 0x2
 4594 0089 06       		.uleb128 0x6
 4595 008a 00       		.byte	0x0
 4596 008b 00       		.byte	0x0
 4597 008c 0B       		.uleb128 0xb
 4598 008d 2E       		.uleb128 0x2e
 4599 008e 01       		.byte	0x1
 4600 008f 3F       		.uleb128 0x3f
 4601 0090 0C       		.uleb128 0xc
 4602 0091 03       		.uleb128 0x3
 4603 0092 0E       		.uleb128 0xe
 4604 0093 3A       		.uleb128 0x3a
 4605 0094 0B       		.uleb128 0xb
 4606 0095 3B       		.uleb128 0x3b
 4607 0096 0B       		.uleb128 0xb
 4608 0097 27       		.uleb128 0x27
 4609 0098 0C       		.uleb128 0xc
 4610 0099 11       		.uleb128 0x11
 4611 009a 01       		.uleb128 0x1
 4612 009b 12       		.uleb128 0x12
 4613 009c 01       		.uleb128 0x1
 4614 009d 40       		.uleb128 0x40
 4615 009e 06       		.uleb128 0x6
 4616 009f 01       		.uleb128 0x1
 4617 00a0 13       		.uleb128 0x13
 4618 00a1 00       		.byte	0x0
 4619 00a2 00       		.byte	0x0
 4620 00a3 0C       		.uleb128 0xc
 4621 00a4 2E       		.uleb128 0x2e
 4622 00a5 01       		.byte	0x1
 4623 00a6 3F       		.uleb128 0x3f
 4624 00a7 0C       		.uleb128 0xc
 4625 00a8 03       		.uleb128 0x3
 4626 00a9 0E       		.uleb128 0xe
 4627 00aa 3A       		.uleb128 0x3a
 4628 00ab 0B       		.uleb128 0xb
 4629 00ac 3B       		.uleb128 0x3b
 4630 00ad 05       		.uleb128 0x5
 4631 00ae 27       		.uleb128 0x27
 4632 00af 0C       		.uleb128 0xc
 4633 00b0 49       		.uleb128 0x49
 4634 00b1 13       		.uleb128 0x13
 4635 00b2 11       		.uleb128 0x11
 4636 00b3 01       		.uleb128 0x1
 4637 00b4 12       		.uleb128 0x12
 4638 00b5 01       		.uleb128 0x1
 4639 00b6 40       		.uleb128 0x40
 4640 00b7 0A       		.uleb128 0xa
 4641 00b8 01       		.uleb128 0x1
 4642 00b9 13       		.uleb128 0x13
 4643 00ba 00       		.byte	0x0
 4644 00bb 00       		.byte	0x0
 4645 00bc 0D       		.uleb128 0xd
 4646 00bd 05       		.uleb128 0x5
 4647 00be 00       		.byte	0x0
ARM GAS  C:\Users\kees\AppData\Local\Temp\ccxzCKRQ.s 			page 111


 4648 00bf 03       		.uleb128 0x3
 4649 00c0 0E       		.uleb128 0xe
 4650 00c1 3A       		.uleb128 0x3a
 4651 00c2 0B       		.uleb128 0xb
 4652 00c3 3B       		.uleb128 0x3b
 4653 00c4 05       		.uleb128 0x5
 4654 00c5 49       		.uleb128 0x49
 4655 00c6 13       		.uleb128 0x13
 4656 00c7 02       		.uleb128 0x2
 4657 00c8 06       		.uleb128 0x6
 4658 00c9 00       		.byte	0x0
 4659 00ca 00       		.byte	0x0
 4660 00cb 0E       		.uleb128 0xe
 4661 00cc 2E       		.uleb128 0x2e
 4662 00cd 01       		.byte	0x1
 4663 00ce 3F       		.uleb128 0x3f
 4664 00cf 0C       		.uleb128 0xc
 4665 00d0 03       		.uleb128 0x3
 4666 00d1 0E       		.uleb128 0xe
 4667 00d2 3A       		.uleb128 0x3a
 4668 00d3 0B       		.uleb128 0xb
 4669 00d4 3B       		.uleb128 0x3b
 4670 00d5 05       		.uleb128 0x5
 4671 00d6 27       		.uleb128 0x27
 4672 00d7 0C       		.uleb128 0xc
 4673 00d8 11       		.uleb128 0x11
 4674 00d9 01       		.uleb128 0x1
 4675 00da 12       		.uleb128 0x12
 4676 00db 01       		.uleb128 0x1
 4677 00dc 40       		.uleb128 0x40
 4678 00dd 06       		.uleb128 0x6
 4679 00de 01       		.uleb128 0x1
 4680 00df 13       		.uleb128 0x13
 4681 00e0 00       		.byte	0x0
 4682 00e1 00       		.byte	0x0
 4683 00e2 0F       		.uleb128 0xf
 4684 00e3 2E       		.uleb128 0x2e
 4685 00e4 00       		.byte	0x0
 4686 00e5 3F       		.uleb128 0x3f
 4687 00e6 0C       		.uleb128 0xc
 4688 00e7 03       		.uleb128 0x3
 4689 00e8 0E       		.uleb128 0xe
 4690 00e9 3A       		.uleb128 0x3a
 4691 00ea 0B       		.uleb128 0xb
 4692 00eb 3B       		.uleb128 0x3b
 4693 00ec 05       		.uleb128 0x5
 4694 00ed 27       		.uleb128 0x27
 4695 00ee 0C       		.uleb128 0xc
 4696 00ef 49       		.uleb128 0x49
 4697 00f0 13       		.uleb128 0x13
 4698 00f1 11       		.uleb128 0x11
 4699 00f2 01       		.uleb128 0x1
 4700 00f3 12       		.uleb128 0x12
 4701 00f4 01       		.uleb128 0x1
 4702 00f5 40       		.uleb128 0x40
 4703 00f6 0A       		.uleb128 0xa
 4704 00f7 00       		.byte	0x0
ARM GAS  C:\Users\kees\AppData\Local\Temp\ccxzCKRQ.s 			page 112


 4705 00f8 00       		.byte	0x0
 4706 00f9 10       		.uleb128 0x10
 4707 00fa 2E       		.uleb128 0x2e
 4708 00fb 01       		.byte	0x1
 4709 00fc 3F       		.uleb128 0x3f
 4710 00fd 0C       		.uleb128 0xc
 4711 00fe 03       		.uleb128 0x3
 4712 00ff 0E       		.uleb128 0xe
 4713 0100 3A       		.uleb128 0x3a
 4714 0101 0B       		.uleb128 0xb
 4715 0102 3B       		.uleb128 0x3b
 4716 0103 05       		.uleb128 0x5
 4717 0104 27       		.uleb128 0x27
 4718 0105 0C       		.uleb128 0xc
 4719 0106 11       		.uleb128 0x11
 4720 0107 01       		.uleb128 0x1
 4721 0108 12       		.uleb128 0x12
 4722 0109 01       		.uleb128 0x1
 4723 010a 40       		.uleb128 0x40
 4724 010b 0A       		.uleb128 0xa
 4725 010c 01       		.uleb128 0x1
 4726 010d 13       		.uleb128 0x13
 4727 010e 00       		.byte	0x0
 4728 010f 00       		.byte	0x0
 4729 0110 11       		.uleb128 0x11
 4730 0111 2E       		.uleb128 0x2e
 4731 0112 00       		.byte	0x0
 4732 0113 3F       		.uleb128 0x3f
 4733 0114 0C       		.uleb128 0xc
 4734 0115 03       		.uleb128 0x3
 4735 0116 0E       		.uleb128 0xe
 4736 0117 3A       		.uleb128 0x3a
 4737 0118 0B       		.uleb128 0xb
 4738 0119 3B       		.uleb128 0x3b
 4739 011a 05       		.uleb128 0x5
 4740 011b 27       		.uleb128 0x27
 4741 011c 0C       		.uleb128 0xc
 4742 011d 11       		.uleb128 0x11
 4743 011e 01       		.uleb128 0x1
 4744 011f 12       		.uleb128 0x12
 4745 0120 01       		.uleb128 0x1
 4746 0121 40       		.uleb128 0x40
 4747 0122 0A       		.uleb128 0xa
 4748 0123 00       		.byte	0x0
 4749 0124 00       		.byte	0x0
 4750 0125 12       		.uleb128 0x12
 4751 0126 34       		.uleb128 0x34
 4752 0127 00       		.byte	0x0
 4753 0128 03       		.uleb128 0x3
 4754 0129 0E       		.uleb128 0xe
 4755 012a 3A       		.uleb128 0x3a
 4756 012b 0B       		.uleb128 0xb
 4757 012c 3B       		.uleb128 0x3b
 4758 012d 05       		.uleb128 0x5
 4759 012e 49       		.uleb128 0x49
 4760 012f 13       		.uleb128 0x13
 4761 0130 02       		.uleb128 0x2
ARM GAS  C:\Users\kees\AppData\Local\Temp\ccxzCKRQ.s 			page 113


 4762 0131 06       		.uleb128 0x6
 4763 0132 00       		.byte	0x0
 4764 0133 00       		.byte	0x0
 4765 0134 13       		.uleb128 0x13
 4766 0135 05       		.uleb128 0x5
 4767 0136 00       		.byte	0x0
 4768 0137 03       		.uleb128 0x3
 4769 0138 0E       		.uleb128 0xe
 4770 0139 3A       		.uleb128 0x3a
 4771 013a 0B       		.uleb128 0xb
 4772 013b 3B       		.uleb128 0x3b
 4773 013c 05       		.uleb128 0x5
 4774 013d 49       		.uleb128 0x49
 4775 013e 13       		.uleb128 0x13
 4776 013f 02       		.uleb128 0x2
 4777 0140 0A       		.uleb128 0xa
 4778 0141 00       		.byte	0x0
 4779 0142 00       		.byte	0x0
 4780 0143 14       		.uleb128 0x14
 4781 0144 2E       		.uleb128 0x2e
 4782 0145 01       		.byte	0x1
 4783 0146 3F       		.uleb128 0x3f
 4784 0147 0C       		.uleb128 0xc
 4785 0148 03       		.uleb128 0x3
 4786 0149 0E       		.uleb128 0xe
 4787 014a 3A       		.uleb128 0x3a
 4788 014b 0B       		.uleb128 0xb
 4789 014c 3B       		.uleb128 0x3b
 4790 014d 05       		.uleb128 0x5
 4791 014e 27       		.uleb128 0x27
 4792 014f 0C       		.uleb128 0xc
 4793 0150 49       		.uleb128 0x49
 4794 0151 13       		.uleb128 0x13
 4795 0152 11       		.uleb128 0x11
 4796 0153 01       		.uleb128 0x1
 4797 0154 12       		.uleb128 0x12
 4798 0155 01       		.uleb128 0x1
 4799 0156 40       		.uleb128 0x40
 4800 0157 06       		.uleb128 0x6
 4801 0158 01       		.uleb128 0x1
 4802 0159 13       		.uleb128 0x13
 4803 015a 00       		.byte	0x0
 4804 015b 00       		.byte	0x0
 4805 015c 15       		.uleb128 0x15
 4806 015d 34       		.uleb128 0x34
 4807 015e 00       		.byte	0x0
 4808 015f 03       		.uleb128 0x3
 4809 0160 0E       		.uleb128 0xe
 4810 0161 3A       		.uleb128 0x3a
 4811 0162 0B       		.uleb128 0xb
 4812 0163 3B       		.uleb128 0x3b
 4813 0164 05       		.uleb128 0x5
 4814 0165 49       		.uleb128 0x49
 4815 0166 13       		.uleb128 0x13
 4816 0167 00       		.byte	0x0
 4817 0168 00       		.byte	0x0
 4818 0169 16       		.uleb128 0x16
ARM GAS  C:\Users\kees\AppData\Local\Temp\ccxzCKRQ.s 			page 114


 4819 016a 34       		.uleb128 0x34
 4820 016b 00       		.byte	0x0
 4821 016c 03       		.uleb128 0x3
 4822 016d 0E       		.uleb128 0xe
 4823 016e 3A       		.uleb128 0x3a
 4824 016f 0B       		.uleb128 0xb
 4825 0170 3B       		.uleb128 0x3b
 4826 0171 0B       		.uleb128 0xb
 4827 0172 49       		.uleb128 0x49
 4828 0173 13       		.uleb128 0x13
 4829 0174 02       		.uleb128 0x2
 4830 0175 06       		.uleb128 0x6
 4831 0176 00       		.byte	0x0
 4832 0177 00       		.byte	0x0
 4833 0178 17       		.uleb128 0x17
 4834 0179 34       		.uleb128 0x34
 4835 017a 00       		.byte	0x0
 4836 017b 03       		.uleb128 0x3
 4837 017c 0E       		.uleb128 0xe
 4838 017d 3A       		.uleb128 0x3a
 4839 017e 0B       		.uleb128 0xb
 4840 017f 3B       		.uleb128 0x3b
 4841 0180 0B       		.uleb128 0xb
 4842 0181 49       		.uleb128 0x49
 4843 0182 13       		.uleb128 0x13
 4844 0183 00       		.byte	0x0
 4845 0184 00       		.byte	0x0
 4846 0185 18       		.uleb128 0x18
 4847 0186 34       		.uleb128 0x34
 4848 0187 00       		.byte	0x0
 4849 0188 03       		.uleb128 0x3
 4850 0189 08       		.uleb128 0x8
 4851 018a 3A       		.uleb128 0x3a
 4852 018b 0B       		.uleb128 0xb
 4853 018c 3B       		.uleb128 0x3b
 4854 018d 0B       		.uleb128 0xb
 4855 018e 49       		.uleb128 0x49
 4856 018f 13       		.uleb128 0x13
 4857 0190 02       		.uleb128 0x2
 4858 0191 06       		.uleb128 0x6
 4859 0192 00       		.byte	0x0
 4860 0193 00       		.byte	0x0
 4861 0194 19       		.uleb128 0x19
 4862 0195 34       		.uleb128 0x34
 4863 0196 00       		.byte	0x0
 4864 0197 03       		.uleb128 0x3
 4865 0198 0E       		.uleb128 0xe
 4866 0199 3A       		.uleb128 0x3a
 4867 019a 0B       		.uleb128 0xb
 4868 019b 3B       		.uleb128 0x3b
 4869 019c 0B       		.uleb128 0xb
 4870 019d 49       		.uleb128 0x49
 4871 019e 13       		.uleb128 0x13
 4872 019f 02       		.uleb128 0x2
 4873 01a0 0A       		.uleb128 0xa
 4874 01a1 00       		.byte	0x0
 4875 01a2 00       		.byte	0x0
ARM GAS  C:\Users\kees\AppData\Local\Temp\ccxzCKRQ.s 			page 115


 4876 01a3 1A       		.uleb128 0x1a
 4877 01a4 01       		.uleb128 0x1
 4878 01a5 01       		.byte	0x1
 4879 01a6 49       		.uleb128 0x49
 4880 01a7 13       		.uleb128 0x13
 4881 01a8 01       		.uleb128 0x1
 4882 01a9 13       		.uleb128 0x13
 4883 01aa 00       		.byte	0x0
 4884 01ab 00       		.byte	0x0
 4885 01ac 1B       		.uleb128 0x1b
 4886 01ad 21       		.uleb128 0x21
 4887 01ae 00       		.byte	0x0
 4888 01af 49       		.uleb128 0x49
 4889 01b0 13       		.uleb128 0x13
 4890 01b1 2F       		.uleb128 0x2f
 4891 01b2 0B       		.uleb128 0xb
 4892 01b3 00       		.byte	0x0
 4893 01b4 00       		.byte	0x0
 4894 01b5 1C       		.uleb128 0x1c
 4895 01b6 26       		.uleb128 0x26
 4896 01b7 00       		.byte	0x0
 4897 01b8 49       		.uleb128 0x49
 4898 01b9 13       		.uleb128 0x13
 4899 01ba 00       		.byte	0x0
 4900 01bb 00       		.byte	0x0
 4901 01bc 1D       		.uleb128 0x1d
 4902 01bd 34       		.uleb128 0x34
 4903 01be 00       		.byte	0x0
 4904 01bf 03       		.uleb128 0x3
 4905 01c0 0E       		.uleb128 0xe
 4906 01c1 3A       		.uleb128 0x3a
 4907 01c2 0B       		.uleb128 0xb
 4908 01c3 3B       		.uleb128 0x3b
 4909 01c4 0B       		.uleb128 0xb
 4910 01c5 49       		.uleb128 0x49
 4911 01c6 13       		.uleb128 0x13
 4912 01c7 3F       		.uleb128 0x3f
 4913 01c8 0C       		.uleb128 0xc
 4914 01c9 02       		.uleb128 0x2
 4915 01ca 0A       		.uleb128 0xa
 4916 01cb 00       		.byte	0x0
 4917 01cc 00       		.byte	0x0
 4918 01cd 00       		.byte	0x0
 4919              		.section	.debug_pubnames,"",%progbits
 4920 0000 6C040000 		.4byte	0x46c
 4921 0004 0200     		.2byte	0x2
 4922 0006 00000000 		.4byte	.Ldebug_info0
 4923 000a F8090000 		.4byte	0x9f8
 4924 000e BB000000 		.4byte	0xbb
 4925 0012 43795379 		.ascii	"CySysClkImoStart\000"
 4925      73436C6B 
 4925      496D6F53 
 4925      74617274 
 4925      00
 4926 0023 CE000000 		.4byte	0xce
 4927 0027 43795379 		.ascii	"CySysClkImoStop\000"
 4927      73436C6B 
ARM GAS  C:\Users\kees\AppData\Local\Temp\ccxzCKRQ.s 			page 116


 4927      496D6F53 
 4927      746F7000 
 4928 0037 E1000000 		.4byte	0xe1
 4929 003b 43795379 		.ascii	"CySysClkIloStart\000"
 4929      73436C6B 
 4929      496C6F53 
 4929      74617274 
 4929      00
 4930 004c F4000000 		.4byte	0xf4
 4931 0050 43795379 		.ascii	"CySysClkIloStop\000"
 4931      73436C6B 
 4931      496C6F53 
 4931      746F7000 
 4932 0060 07010000 		.4byte	0x107
 4933 0064 43795379 		.ascii	"CySysClkWriteHfclkDirect\000"
 4933      73436C6B 
 4933      57726974 
 4933      65486663 
 4933      6C6B4469 
 4934 007d 2E010000 		.4byte	0x12e
 4935 0081 43795379 		.ascii	"CySysClkWriteSysclkDiv\000"
 4935      73436C6B 
 4935      57726974 
 4935      65537973 
 4935      636C6B44 
 4936 0098 57010000 		.4byte	0x157
 4937 009c 43795379 		.ascii	"CySysWdtReadMode\000"
 4937      73576474 
 4937      52656164 
 4937      4D6F6465 
 4937      00
 4938 00ad 84010000 		.4byte	0x184
 4939 00b1 43795379 		.ascii	"CySysWdtEnable\000"
 4939      73576474 
 4939      456E6162 
 4939      6C6500
 4940 00c0 AF010000 		.4byte	0x1af
 4941 00c4 43795379 		.ascii	"CySysWdtDisable\000"
 4941      73576474 
 4941      44697361 
 4941      626C6500 
 4942 00d4 DA010000 		.4byte	0x1da
 4943 00d8 43795379 		.ascii	"CySysWdtReadCascade\000"
 4943      73576474 
 4943      52656164 
 4943      43617363 
 4943      61646500 
 4944 00ec F2010000 		.4byte	0x1f2
 4945 00f0 43795379 		.ascii	"CySysWdtReadToggleBit\000"
 4945      73576474 
 4945      52656164 
 4945      546F6767 
 4945      6C654269 
 4946 0106 0A020000 		.4byte	0x20a
 4947 010a 43795379 		.ascii	"CySysWdtGetInterruptSource\000"
 4947      73576474 
 4947      47657449 
ARM GAS  C:\Users\kees\AppData\Local\Temp\ccxzCKRQ.s 			page 117


 4947      6E746572 
 4947      72757074 
 4948 0125 22020000 		.4byte	0x222
 4949 0129 43795379 		.ascii	"CySysWdtResetCounters\000"
 4949      73576474 
 4949      52657365 
 4949      74436F75 
 4949      6E746572 
 4950 013f 4D020000 		.4byte	0x24d
 4951 0143 43795379 		.ascii	"CySysLvdEnable\000"
 4951      734C7664 
 4951      456E6162 
 4951      6C6500
 4952 0152 76020000 		.4byte	0x276
 4953 0156 43795379 		.ascii	"CySysLvdDisable\000"
 4953      734C7664 
 4953      44697361 
 4953      626C6500 
 4954 0166 8A020000 		.4byte	0x28a
 4955 016a 43795379 		.ascii	"CySysLvdGetInterruptSource\000"
 4955      734C7664 
 4955      47657449 
 4955      6E746572 
 4955      72757074 
 4956 0185 A2020000 		.4byte	0x2a2
 4957 0189 43795379 		.ascii	"CySysLvdClearInterrupt\000"
 4957      734C7664 
 4957      436C6561 
 4957      72496E74 
 4957      65727275 
 4958 01a0 B6020000 		.4byte	0x2b6
 4959 01a4 43794469 		.ascii	"CyDisableInts\000"
 4959      7361626C 
 4959      65496E74 
 4959      7300
 4960 01b2 E3020000 		.4byte	0x2e3
 4961 01b6 4379456E 		.ascii	"CyEnableInts\000"
 4961      61626C65 
 4961      496E7473 
 4961      00
 4962 01c3 0A030000 		.4byte	0x30a
 4963 01c7 4379496E 		.ascii	"CyIntEnable\000"
 4963      74456E61 
 4963      626C6500 
 4964 01d3 33030000 		.4byte	0x333
 4965 01d7 4379496E 		.ascii	"CyIntGetState\000"
 4965      74476574 
 4965      53746174 
 4965      6500
 4966 01e5 60030000 		.4byte	0x360
 4967 01e9 4379496E 		.ascii	"CyIntDisable\000"
 4967      74446973 
 4967      61626C65 
 4967      00
 4968 01f6 89030000 		.4byte	0x389
 4969 01fa 4379496E 		.ascii	"CyIntSetPending\000"
 4969      74536574 
ARM GAS  C:\Users\kees\AppData\Local\Temp\ccxzCKRQ.s 			page 118


 4969      50656E64 
 4969      696E6700 
 4970 020a B2030000 		.4byte	0x3b2
 4971 020e 4379496E 		.ascii	"CyIntClearPending\000"
 4971      74436C65 
 4971      61725065 
 4971      6E64696E 
 4971      6700
 4972 0220 DB030000 		.4byte	0x3db
 4973 0224 43794861 		.ascii	"CyHalt\000"
 4973      6C7400
 4974 022b 02040000 		.4byte	0x402
 4975 022f 4379496E 		.ascii	"CyIntGetPriority\000"
 4975      74476574 
 4975      5072696F 
 4975      72697479 
 4975      00
 4976 0240 3D040000 		.4byte	0x43d
 4977 0244 4379496E 		.ascii	"CyIntGetVector\000"
 4977      74476574 
 4977      56656374 
 4977      6F7200
 4978 0253 7E040000 		.4byte	0x47e
 4979 0257 4379496E 		.ascii	"CyIntSetVector\000"
 4979      74536574 
 4979      56656374 
 4979      6F7200
 4980 0266 D9040000 		.4byte	0x4d9
 4981 026a 4379496E 		.ascii	"CyIntGetSysVector\000"
 4981      74476574 
 4981      53797356 
 4981      6563746F 
 4981      7200
 4982 027c 14050000 		.4byte	0x514
 4983 0280 4379496E 		.ascii	"CyIntSetSysVector\000"
 4983      74536574 
 4983      53797356 
 4983      6563746F 
 4983      7200
 4984 0292 6F050000 		.4byte	0x56f
 4985 0296 43795379 		.ascii	"CySysWdtReadCount\000"
 4985      73576474 
 4985      52656164 
 4985      436F756E 
 4985      7400
 4986 02a8 AE050000 		.4byte	0x5ae
 4987 02ac 43795379 		.ascii	"CySysWdtReadMatch\000"
 4987      73576474 
 4987      52656164 
 4987      4D617463 
 4987      6800
 4988 02be DD050000 		.4byte	0x5dd
 4989 02c2 43795379 		.ascii	"CySysWdtReadClearOnMatch\000"
 4989      73576474 
 4989      52656164 
 4989      436C6561 
 4989      724F6E4D 
ARM GAS  C:\Users\kees\AppData\Local\Temp\ccxzCKRQ.s 			page 119


 4990 02db 0C060000 		.4byte	0x60c
 4991 02df 43795379 		.ascii	"CySysWdtReadEnabledStatus\000"
 4991      73576474 
 4991      52656164 
 4991      456E6162 
 4991      6C656453 
 4992 02f9 3B060000 		.4byte	0x63b
 4993 02fd 43795379 		.ascii	"CySysWdtWriteToggleBit\000"
 4993      73576474 
 4993      57726974 
 4993      65546F67 
 4993      676C6542 
 4994 0314 76060000 		.4byte	0x676
 4995 0318 43795379 		.ascii	"CySysWdtWriteCascade\000"
 4995      73576474 
 4995      57726974 
 4995      65436173 
 4995      63616465 
 4996 032d BD060000 		.4byte	0x6bd
 4997 0331 43795379 		.ascii	"CySysWdtWriteClearOnMatch\000"
 4997      73576474 
 4997      57726974 
 4997      65436C65 
 4997      61724F6E 
 4998 034b F8060000 		.4byte	0x6f8
 4999 034f 43795379 		.ascii	"CySysWdtWriteMode\000"
 4999      73576474 
 4999      57726974 
 4999      654D6F64 
 4999      6500
 5000 0361 43070000 		.4byte	0x743
 5001 0365 4379536F 		.ascii	"CySoftwareReset\000"
 5001      66747761 
 5001      72655265 
 5001      73657400 
 5002 0375 57070000 		.4byte	0x757
 5003 0379 43794465 		.ascii	"CyDelayFreq\000"
 5003      6C617946 
 5003      72657100 
 5004 0385 82070000 		.4byte	0x782
 5005 0389 43794465 		.ascii	"CyDelayUs\000"
 5005      6C617955 
 5005      7300
 5006 0393 AD070000 		.4byte	0x7ad
 5007 0397 43795379 		.ascii	"CySysWdtWriteMatch\000"
 5007      73576474 
 5007      57726974 
 5007      654D6174 
 5007      636800
 5008 03aa F8070000 		.4byte	0x7f8
 5009 03ae 43794465 		.ascii	"CyDelay\000"
 5009      6C617900 
 5010 03b6 23080000 		.4byte	0x823
 5011 03ba 4379496E 		.ascii	"CyIntSetPriority\000"
 5011      74536574 
 5011      5072696F 
 5011      72697479 
ARM GAS  C:\Users\kees\AppData\Local\Temp\ccxzCKRQ.s 			page 120


 5011      00
 5012 03cb 86080000 		.4byte	0x886
 5013 03cf 43795379 		.ascii	"CySysWdtClearInterrupt\000"
 5013      73576474 
 5013      436C6561 
 5013      72496E74 
 5013      65727275 
 5014 03e6 CD080000 		.4byte	0x8cd
 5015 03ea 43795379 		.ascii	"CySysWdtUnlock\000"
 5015      73576474 
 5015      556E6C6F 
 5015      636B00
 5016 03f9 F4080000 		.4byte	0x8f4
 5017 03fd 43795379 		.ascii	"CySysWdtLock\000"
 5017      73576474 
 5017      4C6F636B 
 5017      00
 5018 040a 1B090000 		.4byte	0x91b
 5019 040e 43795379 		.ascii	"CySysClkWriteImoFreq\000"
 5019      73436C6B 
 5019      57726974 
 5019      65496D6F 
 5019      46726571 
 5020 0423 AF090000 		.4byte	0x9af
 5021 0427 63796465 		.ascii	"cydelayFreqHz\000"
 5021      6C617946 
 5021      72657148 
 5021      7A00
 5022 0435 C1090000 		.4byte	0x9c1
 5023 0439 63796465 		.ascii	"cydelayFreqKhz\000"
 5023      6C617946 
 5023      7265714B 
 5023      687A00
 5024 0448 D3090000 		.4byte	0x9d3
 5025 044c 63796465 		.ascii	"cydelayFreqMhz\000"
 5025      6C617946 
 5025      7265714D 
 5025      687A00
 5026 045b E5090000 		.4byte	0x9e5
 5027 045f 63796465 		.ascii	"cydelay32kMs\000"
 5027      6C617933 
 5027      326B4D73 
 5027      00
 5028 046c 00000000 		.4byte	0x0
 5029              		.section	.debug_aranges,"",%progbits
 5030 0000 94010000 		.4byte	0x194
 5031 0004 0200     		.2byte	0x2
 5032 0006 00000000 		.4byte	.Ldebug_info0
 5033 000a 04       		.byte	0x4
 5034 000b 00       		.byte	0x0
 5035 000c 0000     		.2byte	0x0
 5036 000e 0000     		.2byte	0x0
 5037 0010 00000000 		.4byte	.LFB0
 5038 0014 14000000 		.4byte	.LFE0-.LFB0
 5039 0018 00000000 		.4byte	.LFB1
 5040 001c 14000000 		.4byte	.LFE1-.LFB1
 5041 0020 00000000 		.4byte	.LFB2
ARM GAS  C:\Users\kees\AppData\Local\Temp\ccxzCKRQ.s 			page 121


 5042 0024 14000000 		.4byte	.LFE2-.LFB2
 5043 0028 00000000 		.4byte	.LFB3
 5044 002c 14000000 		.4byte	.LFE3-.LFB3
 5045 0030 00000000 		.4byte	.LFB4
 5046 0034 18000000 		.4byte	.LFE4-.LFB4
 5047 0038 00000000 		.4byte	.LFB5
 5048 003c 20000000 		.4byte	.LFE5-.LFB5
 5049 0040 00000000 		.4byte	.LFB11
 5050 0044 14000000 		.4byte	.LFE11-.LFB11
 5051 0048 00000000 		.4byte	.LFB14
 5052 004c 24000000 		.4byte	.LFE14-.LFB14
 5053 0050 00000000 		.4byte	.LFB15
 5054 0054 24000000 		.4byte	.LFE15-.LFB15
 5055 0058 00000000 		.4byte	.LFB17
 5056 005c 14000000 		.4byte	.LFE17-.LFB17
 5057 0060 00000000 		.4byte	.LFB20
 5058 0064 10000000 		.4byte	.LFE20-.LFB20
 5059 0068 00000000 		.4byte	.LFB23
 5060 006c 14000000 		.4byte	.LFE23-.LFB23
 5061 0070 00000000 		.4byte	.LFB25
 5062 0074 2C000000 		.4byte	.LFE25-.LFB25
 5063 0078 00000000 		.4byte	.LFB26
 5064 007c 2C000000 		.4byte	.LFE26-.LFB26
 5065 0080 00000000 		.4byte	.LFB27
 5066 0084 1C000000 		.4byte	.LFE27-.LFB27
 5067 0088 00000000 		.4byte	.LFB28
 5068 008c 10000000 		.4byte	.LFE28-.LFB28
 5069 0090 00000000 		.4byte	.LFB29
 5070 0094 0C000000 		.4byte	.LFE29-.LFB29
 5071 0098 00000000 		.4byte	.LFB30
 5072 009c 10000000 		.4byte	.LFE30-.LFB30
 5073 00a0 00000000 		.4byte	.LFB31
 5074 00a4 0C000000 		.4byte	.LFE31-.LFB31
 5075 00a8 00000000 		.4byte	.LFB38
 5076 00ac 14000000 		.4byte	.LFE38-.LFB38
 5077 00b0 00000000 		.4byte	.LFB39
 5078 00b4 18000000 		.4byte	.LFE39-.LFB39
 5079 00b8 00000000 		.4byte	.LFB40
 5080 00bc 14000000 		.4byte	.LFE40-.LFB40
 5081 00c0 00000000 		.4byte	.LFB41
 5082 00c4 14000000 		.4byte	.LFE41-.LFB41
 5083 00c8 00000000 		.4byte	.LFB42
 5084 00cc 14000000 		.4byte	.LFE42-.LFB42
 5085 00d0 00000000 		.4byte	.LFB43
 5086 00d4 04000000 		.4byte	.LFE43-.LFB43
 5087 00d8 00000000 		.4byte	.LFB37
 5088 00dc 2C000000 		.4byte	.LFE37-.LFB37
 5089 00e0 00000000 		.4byte	.LFB35
 5090 00e4 1C000000 		.4byte	.LFE35-.LFB35
 5091 00e8 00000000 		.4byte	.LFB34
 5092 00ec 20000000 		.4byte	.LFE34-.LFB34
 5093 00f0 00000000 		.4byte	.LFB33
 5094 00f4 1A000000 		.4byte	.LFE33-.LFB33
 5095 00f8 00000000 		.4byte	.LFB32
 5096 00fc 1E000000 		.4byte	.LFE32-.LFB32
 5097 0100 00000000 		.4byte	.LFB22
 5098 0104 38000000 		.4byte	.LFE22-.LFB22
ARM GAS  C:\Users\kees\AppData\Local\Temp\ccxzCKRQ.s 			page 122


 5099 0108 00000000 		.4byte	.LFB21
 5100 010c 20000000 		.4byte	.LFE21-.LFB21
 5101 0110 00000000 		.4byte	.LFB13
 5102 0114 24000000 		.4byte	.LFE13-.LFB13
 5103 0118 00000000 		.4byte	.LFB9
 5104 011c 24000000 		.4byte	.LFE9-.LFB9
 5105 0120 00000000 		.4byte	.LFB19
 5106 0124 3C000000 		.4byte	.LFE19-.LFB19
 5107 0128 00000000 		.4byte	.LFB16
 5108 012c 4C000000 		.4byte	.LFE16-.LFB16
 5109 0130 00000000 		.4byte	.LFB12
 5110 0134 40000000 		.4byte	.LFE12-.LFB12
 5111 0138 00000000 		.4byte	.LFB10
 5112 013c 48000000 		.4byte	.LFE10-.LFB10
 5113 0140 00000000 		.4byte	.LFB44
 5114 0144 18000000 		.4byte	.LFE44-.LFB44
 5115 0148 00000000 		.4byte	.LFB47
 5116 014c 48000000 		.4byte	.LFE47-.LFB47
 5117 0150 00000000 		.4byte	.LFB46
 5118 0154 14000000 		.4byte	.LFE46-.LFB46
 5119 0158 00000000 		.4byte	.LFB18
 5120 015c 44000000 		.4byte	.LFE18-.LFB18
 5121 0160 00000000 		.4byte	.LFB45
 5122 0164 2C000000 		.4byte	.LFE45-.LFB45
 5123 0168 00000000 		.4byte	.LFB36
 5124 016c 48000000 		.4byte	.LFE36-.LFB36
 5125 0170 00000000 		.4byte	.LFB24
 5126 0174 80000000 		.4byte	.LFE24-.LFB24
 5127 0178 00000000 		.4byte	.LFB8
 5128 017c 44000000 		.4byte	.LFE8-.LFB8
 5129 0180 00000000 		.4byte	.LFB7
 5130 0184 30000000 		.4byte	.LFE7-.LFB7
 5131 0188 00000000 		.4byte	.LFB6
 5132 018c 18010000 		.4byte	.LFE6-.LFB6
 5133 0190 00000000 		.4byte	0x0
 5134 0194 00000000 		.4byte	0x0
 5135              		.section	.debug_ranges,"",%progbits
 5136              	.Ldebug_ranges0:
 5137 0000 00000000 		.4byte	.Ltext0
 5138 0004 00000000 		.4byte	.Letext0
 5139 0008 00000000 		.4byte	.LFB0
 5140 000c 14000000 		.4byte	.LFE0
 5141 0010 00000000 		.4byte	.LFB1
 5142 0014 14000000 		.4byte	.LFE1
 5143 0018 00000000 		.4byte	.LFB2
 5144 001c 14000000 		.4byte	.LFE2
 5145 0020 00000000 		.4byte	.LFB3
 5146 0024 14000000 		.4byte	.LFE3
 5147 0028 00000000 		.4byte	.LFB4
 5148 002c 18000000 		.4byte	.LFE4
 5149 0030 00000000 		.4byte	.LFB5
 5150 0034 20000000 		.4byte	.LFE5
 5151 0038 00000000 		.4byte	.LFB11
 5152 003c 14000000 		.4byte	.LFE11
 5153 0040 00000000 		.4byte	.LFB14
 5154 0044 24000000 		.4byte	.LFE14
 5155 0048 00000000 		.4byte	.LFB15
ARM GAS  C:\Users\kees\AppData\Local\Temp\ccxzCKRQ.s 			page 123


 5156 004c 24000000 		.4byte	.LFE15
 5157 0050 00000000 		.4byte	.LFB17
 5158 0054 14000000 		.4byte	.LFE17
 5159 0058 00000000 		.4byte	.LFB20
 5160 005c 10000000 		.4byte	.LFE20
 5161 0060 00000000 		.4byte	.LFB23
 5162 0064 14000000 		.4byte	.LFE23
 5163 0068 00000000 		.4byte	.LFB25
 5164 006c 2C000000 		.4byte	.LFE25
 5165 0070 00000000 		.4byte	.LFB26
 5166 0074 2C000000 		.4byte	.LFE26
 5167 0078 00000000 		.4byte	.LFB27
 5168 007c 1C000000 		.4byte	.LFE27
 5169 0080 00000000 		.4byte	.LFB28
 5170 0084 10000000 		.4byte	.LFE28
 5171 0088 00000000 		.4byte	.LFB29
 5172 008c 0C000000 		.4byte	.LFE29
 5173 0090 00000000 		.4byte	.LFB30
 5174 0094 10000000 		.4byte	.LFE30
 5175 0098 00000000 		.4byte	.LFB31
 5176 009c 0C000000 		.4byte	.LFE31
 5177 00a0 00000000 		.4byte	.LFB38
 5178 00a4 14000000 		.4byte	.LFE38
 5179 00a8 00000000 		.4byte	.LFB39
 5180 00ac 18000000 		.4byte	.LFE39
 5181 00b0 00000000 		.4byte	.LFB40
 5182 00b4 14000000 		.4byte	.LFE40
 5183 00b8 00000000 		.4byte	.LFB41
 5184 00bc 14000000 		.4byte	.LFE41
 5185 00c0 00000000 		.4byte	.LFB42
 5186 00c4 14000000 		.4byte	.LFE42
 5187 00c8 00000000 		.4byte	.LFB43
 5188 00cc 04000000 		.4byte	.LFE43
 5189 00d0 00000000 		.4byte	.LFB37
 5190 00d4 2C000000 		.4byte	.LFE37
 5191 00d8 00000000 		.4byte	.LFB35
 5192 00dc 1C000000 		.4byte	.LFE35
 5193 00e0 00000000 		.4byte	.LFB34
 5194 00e4 20000000 		.4byte	.LFE34
 5195 00e8 00000000 		.4byte	.LFB33
 5196 00ec 1A000000 		.4byte	.LFE33
 5197 00f0 00000000 		.4byte	.LFB32
 5198 00f4 1E000000 		.4byte	.LFE32
 5199 00f8 00000000 		.4byte	.LFB22
 5200 00fc 38000000 		.4byte	.LFE22
 5201 0100 00000000 		.4byte	.LFB21
 5202 0104 20000000 		.4byte	.LFE21
 5203 0108 00000000 		.4byte	.LFB13
 5204 010c 24000000 		.4byte	.LFE13
 5205 0110 00000000 		.4byte	.LFB9
 5206 0114 24000000 		.4byte	.LFE9
 5207 0118 00000000 		.4byte	.LFB19
 5208 011c 3C000000 		.4byte	.LFE19
 5209 0120 00000000 		.4byte	.LFB16
 5210 0124 4C000000 		.4byte	.LFE16
 5211 0128 00000000 		.4byte	.LFB12
 5212 012c 40000000 		.4byte	.LFE12
ARM GAS  C:\Users\kees\AppData\Local\Temp\ccxzCKRQ.s 			page 124


 5213 0130 00000000 		.4byte	.LFB10
 5214 0134 48000000 		.4byte	.LFE10
 5215 0138 00000000 		.4byte	.LFB44
 5216 013c 18000000 		.4byte	.LFE44
 5217 0140 00000000 		.4byte	.LFB47
 5218 0144 48000000 		.4byte	.LFE47
 5219 0148 00000000 		.4byte	.LFB46
 5220 014c 14000000 		.4byte	.LFE46
 5221 0150 00000000 		.4byte	.LFB18
 5222 0154 44000000 		.4byte	.LFE18
 5223 0158 00000000 		.4byte	.LFB45
 5224 015c 2C000000 		.4byte	.LFE45
 5225 0160 00000000 		.4byte	.LFB36
 5226 0164 48000000 		.4byte	.LFE36
 5227 0168 00000000 		.4byte	.LFB24
 5228 016c 80000000 		.4byte	.LFE24
 5229 0170 00000000 		.4byte	.LFB8
 5230 0174 44000000 		.4byte	.LFE8
 5231 0178 00000000 		.4byte	.LFB7
 5232 017c 30000000 		.4byte	.LFE7
 5233 0180 00000000 		.4byte	.LFB6
 5234 0184 18010000 		.4byte	.LFE6
 5235 0188 00000000 		.4byte	0x0
 5236 018c 00000000 		.4byte	0x0
 5237              		.section	.debug_str,"MS",%progbits,1
 5238              	.LASF53:
 5239 0000 72616D56 		.ascii	"ramVectorTable\000"
 5239      6563746F 
 5239      72546162 
 5239      6C6500
 5240              	.LASF93:
 5241 000f 62675472 		.ascii	"bgTrim4\000"
 5241      696D3400 
 5242              	.LASF10:
 5243 0017 75696E74 		.ascii	"uint16\000"
 5243      313600
 5244              	.LASF56:
 5245 001e 696E7453 		.ascii	"intState\000"
 5245      74617465 
 5245      00
 5246              	.LASF87:
 5247 0027 76616C75 		.ascii	"value\000"
 5247      6500
 5248              	.LASF20:
 5249 002d 43795379 		.ascii	"CySysClkWriteHfclkDirect\000"
 5249      73436C6B 
 5249      57726974 
 5249      65486663 
 5249      6C6B4469 
 5250              	.LASF90:
 5251 0046 43795379 		.ascii	"CySysWdtUnlock\000"
 5251      73576474 
 5251      556E6C6F 
 5251      636B00
 5252              	.LASF57:
 5253 0055 6F6C6449 		.ascii	"oldIsr\000"
 5253      737200
ARM GAS  C:\Users\kees\AppData\Local\Temp\ccxzCKRQ.s 			page 125


 5254              	.LASF24:
 5255 005c 636F756E 		.ascii	"counterNum\000"
 5255      7465724E 
 5255      756D00
 5256              	.LASF39:
 5257 0067 43794469 		.ascii	"CyDisableInts\000"
 5257      7361626C 
 5257      65496E74 
 5257      7300
 5258              	.LASF100:
 5259 0075 63796465 		.ascii	"cydelay32kMs\000"
 5259      6C617933 
 5259      326B4D73 
 5259      00
 5260              	.LASF7:
 5261 0082 6C6F6E67 		.ascii	"long long unsigned int\000"
 5261      206C6F6E 
 5261      6720756E 
 5261      7369676E 
 5261      65642069 
 5262              	.LASF101:
 5263 0099 474E5520 		.ascii	"GNU C 4.4.1\000"
 5263      4320342E 
 5263      342E3100 
 5264              	.LASF75:
 5265 00a5 4379536F 		.ascii	"CySoftwareReset\000"
 5265      66747761 
 5265      72655265 
 5265      73657400 
 5266              	.LASF44:
 5267 00b5 4379496E 		.ascii	"CyIntGetState\000"
 5267      74476574 
 5267      53746174 
 5267      6500
 5268              	.LASF6:
 5269 00c3 6C6F6E67 		.ascii	"long long int\000"
 5269      206C6F6E 
 5269      6720696E 
 5269      7400
 5270              	.LASF0:
 5271 00d1 7369676E 		.ascii	"signed char\000"
 5271      65642063 
 5271      68617200 
 5272              	.LASF38:
 5273 00dd 43795379 		.ascii	"CySysWdtReadMode\000"
 5273      73576474 
 5273      52656164 
 5273      4D6F6465 
 5273      00
 5274              	.LASF60:
 5275 00ee 43795379 		.ascii	"CySysWdtReadCount\000"
 5275      73576474 
 5275      52656164 
 5275      436F756E 
 5275      7400
 5276              	.LASF76:
 5277 0100 43794465 		.ascii	"CyDelayFreq\000"
ARM GAS  C:\Users\kees\AppData\Local\Temp\ccxzCKRQ.s 			page 126


 5277      6C617946 
 5277      72657100 
 5278              	.LASF85:
 5279 010c 696E7465 		.ascii	"interruptState\000"
 5279      72727570 
 5279      74537461 
 5279      746500
 5280              	.LASF78:
 5281 011b 43794465 		.ascii	"CyDelayUs\000"
 5281      6C617955 
 5281      7300
 5282              	.LASF80:
 5283 0125 43795379 		.ascii	"CySysWdtWriteMatch\000"
 5283      73576474 
 5283      57726974 
 5283      654D6174 
 5283      636800
 5284              	.LASF66:
 5285 0138 62697473 		.ascii	"bits\000"
 5285      00
 5286              	.LASF4:
 5287 013d 6C6F6E67 		.ascii	"long int\000"
 5287      20696E74 
 5287      00
 5288              	.LASF45:
 5289 0146 4379496E 		.ascii	"CyIntDisable\000"
 5289      74446973 
 5289      61626C65 
 5289      00
 5290              	.LASF9:
 5291 0153 75696E74 		.ascii	"uint8\000"
 5291      3800
 5292              	.LASF98:
 5293 0159 63796465 		.ascii	"cydelayFreqKhz\000"
 5293      6C617946 
 5293      7265714B 
 5293      687A00
 5294              	.LASF72:
 5295 0168 656E6162 		.ascii	"enable\000"
 5295      6C6500
 5296              	.LASF13:
 5297 016f 646F7562 		.ascii	"double\000"
 5297      6C6500
 5298              	.LASF19:
 5299 0176 43795379 		.ascii	"CySysClkIloStop\000"
 5299      73436C6B 
 5299      496C6F53 
 5299      746F7000 
 5300              	.LASF68:
 5301 0186 43795379 		.ascii	"CySysWdtWriteCascade\000"
 5301      73576474 
 5301      57726974 
 5301      65436173 
 5301      63616465 
 5302              	.LASF86:
 5303 019b 73686966 		.ascii	"shift\000"
 5303      7400
ARM GAS  C:\Users\kees\AppData\Local\Temp\ccxzCKRQ.s 			page 127


 5304              	.LASF32:
 5305 01a1 636F756E 		.ascii	"countersMask\000"
 5305      74657273 
 5305      4D61736B 
 5305      00
 5306              	.LASF37:
 5307 01ae 43795379 		.ascii	"CySysLvdClearInterrupt\000"
 5307      734C7664 
 5307      436C6561 
 5307      72496E74 
 5307      65727275 
 5308              	.LASF11:
 5309 01c5 75696E74 		.ascii	"uint32\000"
 5309      333200
 5310              	.LASF43:
 5311 01cc 6E756D62 		.ascii	"number\000"
 5311      657200
 5312              	.LASF41:
 5313 01d3 6D61736B 		.ascii	"mask\000"
 5313      00
 5314              	.LASF61:
 5315 01d8 72656756 		.ascii	"regValue\000"
 5315      616C7565 
 5315      00
 5316              	.LASF33:
 5317 01e1 43795379 		.ascii	"CySysLvdEnable\000"
 5317      734C7664 
 5317      456E6162 
 5317      6C6500
 5318              	.LASF50:
 5319 01f0 4379496E 		.ascii	"CyIntGetPriority\000"
 5319      74476574 
 5319      5072696F 
 5319      72697479 
 5319      00
 5320              	.LASF70:
 5321 0201 636F756E 		.ascii	"countersEnableStatus\000"
 5321      74657273 
 5321      456E6162 
 5321      6C655374 
 5321      61747573 
 5322              	.LASF25:
 5323 0216 43795379 		.ascii	"CySysWdtEnable\000"
 5323      73576474 
 5323      456E6162 
 5323      6C6500
 5324              	.LASF26:
 5325 0225 636F756E 		.ascii	"counterMask\000"
 5325      7465724D 
 5325      61736B00 
 5326              	.LASF8:
 5327 0231 756E7369 		.ascii	"unsigned int\000"
 5327      676E6564 
 5327      20696E74 
 5327      00
 5328              	.LASF5:
 5329 023e 6C6F6E67 		.ascii	"long unsigned int\000"
ARM GAS  C:\Users\kees\AppData\Local\Temp\ccxzCKRQ.s 			page 128


 5329      20756E73 
 5329      69676E65 
 5329      6420696E 
 5329      7400
 5330              	.LASF36:
 5331 0250 43795379 		.ascii	"CySysLvdGetInterruptSource\000"
 5331      734C7664 
 5331      47657449 
 5331      6E746572 
 5331      72757074 
 5332              	.LASF17:
 5333 026b 43795379 		.ascii	"CySysClkImoStop\000"
 5333      73436C6B 
 5333      496D6F53 
 5333      746F7000 
 5334              	.LASF46:
 5335 027b 4379496E 		.ascii	"CyIntSetPending\000"
 5335      74536574 
 5335      50656E64 
 5335      696E6700 
 5336              	.LASF3:
 5337 028b 73686F72 		.ascii	"short unsigned int\000"
 5337      7420756E 
 5337      7369676E 
 5337      65642069 
 5337      6E7400
 5338              	.LASF54:
 5339 029e 4379496E 		.ascii	"CyIntSetVector\000"
 5339      74536574 
 5339      56656374 
 5339      6F7200
 5340              	.LASF102:
 5341 02ad 2E5C4765 		.ascii	".\\Generated_Source\\PSoC4\\CyLib.c\000"
 5341      6E657261 
 5341      7465645F 
 5341      536F7572 
 5341      63655C50 
 5342              	.LASF18:
 5343 02ce 43795379 		.ascii	"CySysClkIloStart\000"
 5343      73436C6B 
 5343      496C6F53 
 5343      74617274 
 5343      00
 5344              	.LASF40:
 5345 02df 4379456E 		.ascii	"CyEnableInts\000"
 5345      61626C65 
 5345      496E7473 
 5345      00
 5346              	.LASF92:
 5347 02ec 43795379 		.ascii	"CySysClkWriteImoFreq\000"
 5347      73436C6B 
 5347      57726974 
 5347      65496D6F 
 5347      46726571 
 5348              	.LASF59:
 5349 0301 4379496E 		.ascii	"CyIntSetSysVector\000"
 5349      74536574 
ARM GAS  C:\Users\kees\AppData\Local\Temp\ccxzCKRQ.s 			page 129


 5349      53797356 
 5349      6563746F 
 5349      7200
 5350              	.LASF71:
 5351 0313 43795379 		.ascii	"CySysWdtWriteClearOnMatch\000"
 5351      73576474 
 5351      57726974 
 5351      65436C65 
 5351      61724F6E 
 5352              	.LASF63:
 5353 032d 43795379 		.ascii	"CySysWdtReadClearOnMatch\000"
 5353      73576474 
 5353      52656164 
 5353      436C6561 
 5353      724F6E4D 
 5354              	.LASF97:
 5355 0346 63796465 		.ascii	"cydelayFreqHz\000"
 5355      6C617946 
 5355      72657148 
 5355      7A00
 5356              	.LASF47:
 5357 0354 4379496E 		.ascii	"CyIntClearPending\000"
 5357      74436C65 
 5357      61725065 
 5357      6E64696E 
 5357      6700
 5358              	.LASF55:
 5359 0366 61646472 		.ascii	"address\000"
 5359      65737300 
 5360              	.LASF103:
 5361 036e 433A5C55 		.ascii	"C:\\Users\\kees\\Documents\\test_projects\\My fun s"
 5361      73657273 
 5361      5C6B6565 
 5361      735C446F 
 5361      63756D65 
 5362 039c 74756666 		.ascii	"tuff\\3d_cube\\3d_cube.Bundle01\\Design137.cydsn\000"
 5362      5C33645F 
 5362      63756265 
 5362      5C33645F 
 5362      63756265 
 5363              	.LASF94:
 5364 03ca 62675472 		.ascii	"bgTrim5\000"
 5364      696D3500 
 5365              	.LASF81:
 5366 03d2 6D617463 		.ascii	"match\000"
 5366      6800
 5367              	.LASF96:
 5368 03d8 6379496D 		.ascii	"cyImoFreqMhz2Reg\000"
 5368      6F467265 
 5368      714D687A 
 5368      32526567 
 5368      00
 5369              	.LASF89:
 5370 03e9 7764744C 		.ascii	"wdtLockState\000"
 5370      6F636B53 
 5370      74617465 
 5370      00
ARM GAS  C:\Users\kees\AppData\Local\Temp\ccxzCKRQ.s 			page 130


 5371              	.LASF31:
 5372 03f6 43795379 		.ascii	"CySysWdtResetCounters\000"
 5372      73576474 
 5372      52657365 
 5372      74436F75 
 5372      6E746572 
 5373              	.LASF84:
 5374 040c 4379496E 		.ascii	"CyIntSetPriority\000"
 5374      74536574 
 5374      5072696F 
 5374      72697479 
 5374      00
 5375              	.LASF88:
 5376 041d 43795379 		.ascii	"CySysWdtClearInterrupt\000"
 5376      73576474 
 5376      436C6561 
 5376      72496E74 
 5376      65727275 
 5377              	.LASF12:
 5378 0434 666C6F61 		.ascii	"float\000"
 5378      7400
 5379              	.LASF51:
 5380 043a 4379496E 		.ascii	"CyIntGetVector\000"
 5380      74476574 
 5380      56656374 
 5380      6F7200
 5381              	.LASF83:
 5382 0449 6D696C6C 		.ascii	"milliseconds\000"
 5382      69736563 
 5382      6F6E6473 
 5382      00
 5383              	.LASF29:
 5384 0456 43795379 		.ascii	"CySysWdtReadToggleBit\000"
 5384      73576474 
 5384      52656164 
 5384      546F6767 
 5384      6C654269 
 5385              	.LASF34:
 5386 046c 74687265 		.ascii	"threshold\000"
 5386      73686F6C 
 5386      6400
 5387              	.LASF48:
 5388 0476 43794861 		.ascii	"CyHalt\000"
 5388      6C7400
 5389              	.LASF1:
 5390 047d 756E7369 		.ascii	"unsigned char\000"
 5390      676E6564 
 5390      20636861 
 5390      7200
 5391              	.LASF2:
 5392 048b 73686F72 		.ascii	"short int\000"
 5392      7420696E 
 5392      7400
 5393              	.LASF28:
 5394 0495 43795379 		.ascii	"CySysWdtReadCascade\000"
 5394      73576474 
 5394      52656164 
ARM GAS  C:\Users\kees\AppData\Local\Temp\ccxzCKRQ.s 			page 131


 5394      43617363 
 5394      61646500 
 5395              	.LASF27:
 5396 04a9 43795379 		.ascii	"CySysWdtDisable\000"
 5396      73576474 
 5396      44697361 
 5396      626C6500 
 5397              	.LASF42:
 5398 04b9 4379496E 		.ascii	"CyIntEnable\000"
 5398      74456E61 
 5398      626C6500 
 5399              	.LASF58:
 5400 04c5 4379496E 		.ascii	"CyIntGetSysVector\000"
 5400      74476574 
 5400      53797356 
 5400      6563746F 
 5400      7200
 5401              	.LASF62:
 5402 04d7 43795379 		.ascii	"CySysWdtReadMatch\000"
 5402      73576474 
 5402      52656164 
 5402      4D617463 
 5402      6800
 5403              	.LASF22:
 5404 04e9 636C6B53 		.ascii	"clkSelect\000"
 5404      656C6563 
 5404      7400
 5405              	.LASF73:
 5406 04f3 43795379 		.ascii	"CySysWdtWriteMode\000"
 5406      73576474 
 5406      57726974 
 5406      654D6F64 
 5406      6500
 5407              	.LASF30:
 5408 0505 43795379 		.ascii	"CySysWdtGetInterruptSource\000"
 5408      73576474 
 5408      47657449 
 5408      6E746572 
 5408      72757074 
 5409              	.LASF49:
 5410 0520 72656173 		.ascii	"reason\000"
 5410      6F6E00
 5411              	.LASF14:
 5412 0527 63686172 		.ascii	"char\000"
 5412      00
 5413              	.LASF52:
 5414 052c 7072696F 		.ascii	"priority\000"
 5414      72697479 
 5414      00
 5415              	.LASF74:
 5416 0535 6D6F6465 		.ascii	"mode\000"
 5416      00
 5417              	.LASF15:
 5418 053a 63796973 		.ascii	"cyisraddress\000"
 5418      72616464 
 5418      72657373 
 5418      00
ARM GAS  C:\Users\kees\AppData\Local\Temp\ccxzCKRQ.s 			page 132


 5419              	.LASF91:
 5420 0547 43795379 		.ascii	"CySysWdtLock\000"
 5420      73576474 
 5420      4C6F636B 
 5420      00
 5421              	.LASF95:
 5422 0554 63757272 		.ascii	"currentFreq\000"
 5422      656E7446 
 5422      72657100 
 5423              	.LASF21:
 5424 0560 43795379 		.ascii	"CySysClkWriteSysclkDiv\000"
 5424      73436C6B 
 5424      57726974 
 5424      65537973 
 5424      636C6B44 
 5425              	.LASF82:
 5426 0577 43794465 		.ascii	"CyDelay\000"
 5426      6C617900 
 5427              	.LASF35:
 5428 057f 43795379 		.ascii	"CySysLvdDisable\000"
 5428      734C7664 
 5428      44697361 
 5428      626C6500 
 5429              	.LASF67:
 5430 058f 636F6E66 		.ascii	"configRegValue\000"
 5430      69675265 
 5430      6756616C 
 5430      756500
 5431              	.LASF99:
 5432 059e 63796465 		.ascii	"cydelayFreqMhz\000"
 5432      6C617946 
 5432      7265714D 
 5432      687A00
 5433              	.LASF77:
 5434 05ad 66726571 		.ascii	"freq\000"
 5434      00
 5435              	.LASF69:
 5436 05b2 63617363 		.ascii	"cascadeMask\000"
 5436      6164654D 
 5436      61736B00 
 5437              	.LASF23:
 5438 05be 64697669 		.ascii	"divider\000"
 5438      64657200 
 5439              	.LASF16:
 5440 05c6 43795379 		.ascii	"CySysClkImoStart\000"
 5440      73436C6B 
 5440      496D6F53 
 5440      74617274 
 5440      00
 5441              	.LASF64:
 5442 05d7 43795379 		.ascii	"CySysWdtReadEnabledStatus\000"
 5442      73576474 
 5442      52656164 
 5442      456E6162 
 5442      6C656453 
 5443              	.LASF79:
 5444 05f1 6D696372 		.ascii	"microseconds\000"
ARM GAS  C:\Users\kees\AppData\Local\Temp\ccxzCKRQ.s 			page 133


 5444      6F736563 
 5444      6F6E6473 
 5444      00
 5445              	.LASF65:
 5446 05fe 43795379 		.ascii	"CySysWdtWriteToggleBit\000"
 5446      73576474 
 5446      57726974 
 5446      65546F67 
 5446      676C6542 
 5447              		.ident	"GCC: (Sourcery G++ Lite 2010q1-188) 4.4.1"
