ARM GAS  C:\Users\kees\AppData\Local\Temp\cck8dVvn.s 			page 1


   1              		.cpu cortex-m0
   2              		.fpu softvfp
   3              		.eabi_attribute 20, 1
   4              		.eabi_attribute 21, 1
   5              		.eabi_attribute 23, 3
   6              		.eabi_attribute 24, 1
   7              		.eabi_attribute 25, 1
   8              		.eabi_attribute 26, 1
   9              		.eabi_attribute 30, 4
  10              		.eabi_attribute 18, 4
  11              		.code	16
  12              		.file	"LCD.c"
  19 0000 A6020000 		.text
  19      02006500 
  19      00000201 
  19      FB0E0D00 
  19      01010101 
  20              	.Ltext0:
  21              		.cfi_sections	.debug_frame
  22              		.section	.text.LCD_SwapColors,"ax",%progbits
  23              		.align	1
  24              		.global	LCD_SwapColors
  25              		.code	16
  26              		.thumb_func
  27              		.type	LCD_SwapColors, %function
  28              	LCD_SwapColors:
  29              	.LFB6:
  30              		.file 1 ".\\Generated_Source\\PSoC4\\LCD.c"
   1:.\Generated_Source\PSoC4/LCD.c **** /*******************************************************************************
   2:.\Generated_Source\PSoC4/LCD.c **** * File Name: LCD.c  
   3:.\Generated_Source\PSoC4/LCD.c **** * Version 0.3
   4:.\Generated_Source\PSoC4/LCD.c **** *
   5:.\Generated_Source\PSoC4/LCD.c **** *  Description:
   6:.\Generated_Source\PSoC4/LCD.c **** *    This file contains all the API for the SparkFun Color Graphics
   7:.\Generated_Source\PSoC4/LCD.c **** *    Arduino Shield board which uses a Nokia 6100 LCD.
   8:.\Generated_Source\PSoC4/LCD.c **** *
   9:.\Generated_Source\PSoC4/LCD.c **** * Note:  This code has been tested with the Philips PCF8833 controller, but not
  10:.\Generated_Source\PSoC4/LCD.c **** *        the EPSON S115D10 controller as of release 0.3.
  11:.\Generated_Source\PSoC4/LCD.c **** *
  12:.\Generated_Source\PSoC4/LCD.c **** *        Code has been optimized for a 32-bit processor such as the Cortex
  13:.\Generated_Source\PSoC4/LCD.c **** *        M0 or M3.
  14:.\Generated_Source\PSoC4/LCD.c **** *******************************************************************************
  15:.\Generated_Source\PSoC4/LCD.c **** * The following firmware was developed by Cypress Semiconductor
  16:.\Generated_Source\PSoC4/LCD.c **** * This work is licensed under a Creative Commons Attribution 3.0 Unported License.
  17:.\Generated_Source\PSoC4/LCD.c **** *
  18:.\Generated_Source\PSoC4/LCD.c **** * http://creativecommons.org/licenses/by/3.0/deed.en_US
  19:.\Generated_Source\PSoC4/LCD.c **** * 
  20:.\Generated_Source\PSoC4/LCD.c **** * You are free to:
  21:.\Generated_Source\PSoC4/LCD.c **** * -To Share — to copy, distribute and transmit the work 
  22:.\Generated_Source\PSoC4/LCD.c **** * -To Remix — to adapt the work 
  23:.\Generated_Source\PSoC4/LCD.c **** * -To make commercial use of the work
ARM GAS  C:\Users\kees\AppData\Local\Temp\cck8dVvn.s 			page 2


  24:.\Generated_Source\PSoC4/LCD.c **** *
  25:.\Generated_Source\PSoC4/LCD.c **** * Much of this code was ported from the LCD_driver code by Mark Sproul
  26:.\Generated_Source\PSoC4/LCD.c **** * and Peter DavenPort.  Also the tutorial by James P. Lynch
  27:.\Generated_Source\PSoC4/LCD.c **** * on how the controller works was invaluable.
  28:.\Generated_Source\PSoC4/LCD.c **** ********************************************************************************/
  29:.\Generated_Source\PSoC4/LCD.c **** #include "cytypes.h"
  30:.\Generated_Source\PSoC4/LCD.c **** #include "LCD.h"
  31:.\Generated_Source\PSoC4/LCD.c **** #include "LCD_SPIM_UDB.h"
  32:.\Generated_Source\PSoC4/LCD.c **** #include "LCD_Reset.h"
  33:.\Generated_Source\PSoC4/LCD.c **** #include "cyfitter.h"
  34:.\Generated_Source\PSoC4/LCD.c **** 
  35:.\Generated_Source\PSoC4/LCD.c **** #if (LCD_SPIM_TYPE == LCD_SPIM_SCB_TYPE)
  36:.\Generated_Source\PSoC4/LCD.c **** #include "LCD_SPIM_UDB_SPI_UART.h"
  37:.\Generated_Source\PSoC4/LCD.c **** #endif
  38:.\Generated_Source\PSoC4/LCD.c **** 
  39:.\Generated_Source\PSoC4/LCD.c **** uint8 LCD_driver;
  40:.\Generated_Source\PSoC4/LCD.c **** 				
  41:.\Generated_Source\PSoC4/LCD.c **** static int32 LCD_x_offset = 0;
  42:.\Generated_Source\PSoC4/LCD.c **** static int32 LCD_y_offset = 0;
  43:.\Generated_Source\PSoC4/LCD.c **** 
  44:.\Generated_Source\PSoC4/LCD.c **** /*******************************************************************************
  45:.\Generated_Source\PSoC4/LCD.c **** * Function Name: LCD_Command
  46:.\Generated_Source\PSoC4/LCD.c **** ********************************************************************************
  47:.\Generated_Source\PSoC4/LCD.c **** *
  48:.\Generated_Source\PSoC4/LCD.c **** * Summary:
  49:.\Generated_Source\PSoC4/LCD.c **** *  This function sends a command to the LCD controller.  
  50:.\Generated_Source\PSoC4/LCD.c **** *
  51:.\Generated_Source\PSoC4/LCD.c **** * Parameters:  
  52:.\Generated_Source\PSoC4/LCD.c **** *  cmdData:  This is the command to be sent to the LCD controller  
  53:.\Generated_Source\PSoC4/LCD.c **** *
  54:.\Generated_Source\PSoC4/LCD.c **** * Return: 
  55:.\Generated_Source\PSoC4/LCD.c **** *  None 
  56:.\Generated_Source\PSoC4/LCD.c **** *  
  57:.\Generated_Source\PSoC4/LCD.c **** *******************************************************************************/
  58:.\Generated_Source\PSoC4/LCD.c **** void LCD_Command(uint32 cmdData)
  59:.\Generated_Source\PSoC4/LCD.c **** {
  60:.\Generated_Source\PSoC4/LCD.c **** #if (LCD_SPIM_TYPE == LCD_SPIM_UDB_TYPE)
  61:.\Generated_Source\PSoC4/LCD.c ****   while((LCD_SPIM_UDB_ReadTxStatus() & (LCD_SPIM_UDB_STS_SPI_DONE | LCD_SPIM_UDB_STS_SPI_IDLE) )== 
  62:.\Generated_Source\PSoC4/LCD.c ****   LCD_SPIM_UDB_WriteTxData((uint16)cmdData);
  63:.\Generated_Source\PSoC4/LCD.c **** #endif
  64:.\Generated_Source\PSoC4/LCD.c **** 
  65:.\Generated_Source\PSoC4/LCD.c **** #if (LCD_SPIM_TYPE == LCD_SPIM_SCB_TYPE)
  66:.\Generated_Source\PSoC4/LCD.c ****     LCD_SPIM_UDB_SpiUartWriteTxData(cmdData);
  67:.\Generated_Source\PSoC4/LCD.c **** #endif
  68:.\Generated_Source\PSoC4/LCD.c **** }
  69:.\Generated_Source\PSoC4/LCD.c **** 
  70:.\Generated_Source\PSoC4/LCD.c **** /*******************************************************************************
  71:.\Generated_Source\PSoC4/LCD.c **** * Function Name: LCD_Data
  72:.\Generated_Source\PSoC4/LCD.c **** ********************************************************************************
  73:.\Generated_Source\PSoC4/LCD.c **** *
  74:.\Generated_Source\PSoC4/LCD.c **** * Summary:
  75:.\Generated_Source\PSoC4/LCD.c **** *  This function sends raw data to the controller.  The 9th bit is set to signal
  76:.\Generated_Source\PSoC4/LCD.c **** *  the controller that it information is data and not a command.
  77:.\Generated_Source\PSoC4/LCD.c **** *
  78:.\Generated_Source\PSoC4/LCD.c **** * Parameters:  
  79:.\Generated_Source\PSoC4/LCD.c **** *  rawData:  The data to be sent to the controller. 
  80:.\Generated_Source\PSoC4/LCD.c **** *
ARM GAS  C:\Users\kees\AppData\Local\Temp\cck8dVvn.s 			page 3


  81:.\Generated_Source\PSoC4/LCD.c **** * Return: 
  82:.\Generated_Source\PSoC4/LCD.c **** *  None 
  83:.\Generated_Source\PSoC4/LCD.c **** *  
  84:.\Generated_Source\PSoC4/LCD.c **** *******************************************************************************/
  85:.\Generated_Source\PSoC4/LCD.c **** void LCD_Data(uint32 rawData)
  86:.\Generated_Source\PSoC4/LCD.c **** {	
  87:.\Generated_Source\PSoC4/LCD.c **** #if (LCD_SPIM_TYPE == LCD_SPIM_UDB_TYPE)
  88:.\Generated_Source\PSoC4/LCD.c ****     uint16 data16;
  89:.\Generated_Source\PSoC4/LCD.c ****     data16 = (uint16)rawData | 0x0100;
  90:.\Generated_Source\PSoC4/LCD.c **** 	
  91:.\Generated_Source\PSoC4/LCD.c ****     while((LCD_SPIM_UDB_ReadTxStatus() & (LCD_SPIM_UDB_STS_SPI_DONE | LCD_SPIM_UDB_STS_SPI_IDLE) )=
  92:.\Generated_Source\PSoC4/LCD.c ****     LCD_SPIM_UDB_WriteTxData(data16);
  93:.\Generated_Source\PSoC4/LCD.c **** #endif
  94:.\Generated_Source\PSoC4/LCD.c **** 
  95:.\Generated_Source\PSoC4/LCD.c **** #if (LCD_SPIM_TYPE == LCD_SPIM_SCB_TYPE)
  96:.\Generated_Source\PSoC4/LCD.c **** 
  97:.\Generated_Source\PSoC4/LCD.c ****     rawData = rawData | 0x00000100;
  98:.\Generated_Source\PSoC4/LCD.c ****     LCD_SPIM_UDB_SpiUartWriteTxData(rawData);
  99:.\Generated_Source\PSoC4/LCD.c **** #endif
 100:.\Generated_Source\PSoC4/LCD.c **** 
 101:.\Generated_Source\PSoC4/LCD.c **** }
 102:.\Generated_Source\PSoC4/LCD.c **** 
 103:.\Generated_Source\PSoC4/LCD.c **** /*******************************************************************************
 104:.\Generated_Source\PSoC4/LCD.c **** * Function Name: LCD_Start
 105:.\Generated_Source\PSoC4/LCD.c **** ********************************************************************************
 106:.\Generated_Source\PSoC4/LCD.c **** *
 107:.\Generated_Source\PSoC4/LCD.c **** * Summary:
 108:.\Generated_Source\PSoC4/LCD.c **** *  This function initializes the SPI interface and the LCD controller.  
 109:.\Generated_Source\PSoC4/LCD.c **** *
 110:.\Generated_Source\PSoC4/LCD.c **** * Parameters:  
 111:.\Generated_Source\PSoC4/LCD.c **** *  None:   
 112:.\Generated_Source\PSoC4/LCD.c **** *
 113:.\Generated_Source\PSoC4/LCD.c **** * Return: 
 114:.\Generated_Source\PSoC4/LCD.c **** *  None 
 115:.\Generated_Source\PSoC4/LCD.c **** *  
 116:.\Generated_Source\PSoC4/LCD.c **** *******************************************************************************/
 117:.\Generated_Source\PSoC4/LCD.c **** void LCD_Start(void)
 118:.\Generated_Source\PSoC4/LCD.c **** {
 119:.\Generated_Source\PSoC4/LCD.c **** 	
 120:.\Generated_Source\PSoC4/LCD.c **** 	LCD_SPIM_UDB_Start();
 121:.\Generated_Source\PSoC4/LCD.c **** #if (LCD_SPIM_TYPE == LCD_SPIM_SCB_TYPE)
 122:.\Generated_Source\PSoC4/LCD.c ****     LCD_SPIM_UDB_SpiSetActiveSlaveSelect(3u);
 123:.\Generated_Source\PSoC4/LCD.c **** #endif
 124:.\Generated_Source\PSoC4/LCD.c **** 
 125:.\Generated_Source\PSoC4/LCD.c **** 	CyDelayUs(20);			            /* 20us delay    */
 126:.\Generated_Source\PSoC4/LCD.c **** 	LCD_Reset_Write(0x00);	/* Display Reset */
 127:.\Generated_Source\PSoC4/LCD.c **** 	CyDelay(200);			            /* 200ms delay   */
 128:.\Generated_Source\PSoC4/LCD.c **** 	LCD_Reset_Write(0xFF);	/* Release Reset */
 129:.\Generated_Source\PSoC4/LCD.c **** 	CyDelay(200);			            /* 200ms delay   */
 130:.\Generated_Source\PSoC4/LCD.c **** 	
 131:.\Generated_Source\PSoC4/LCD.c **** #if(LCD_Controller == LCD_EPSON)
 132:.\Generated_Source\PSoC4/LCD.c **** 	LCD_Command(LCD_DISCTL);	/*  Display control (0xCA)         */
 133:.\Generated_Source\PSoC4/LCD.c **** 	LCD_Data(0x0C);		/* 12 = 1100 - CL dividing ratio [don't divide] switching period 8H (default) */
 134:.\Generated_Source\PSoC4/LCD.c **** 	LCD_Data(0x20);		/* nlines/4 - 1 = 132/4 - 1 = 32 duty              */
 135:.\Generated_Source\PSoC4/LCD.c **** 	LCD_Data(0x00);		/* No inversely highlighted lines                  */
 136:.\Generated_Source\PSoC4/LCD.c **** 	
 137:.\Generated_Source\PSoC4/LCD.c **** 	LCD_Command(LCD_COMSCN);	  /* common scanning direction     */
ARM GAS  C:\Users\kees\AppData\Local\Temp\cck8dVvn.s 			page 4


 138:.\Generated_Source\PSoC4/LCD.c **** 	LCD_Data(0x01);		                  /* 1->68, 132<-69 scan direction */
 139:.\Generated_Source\PSoC4/LCD.c **** 	
 140:.\Generated_Source\PSoC4/LCD.c **** 	LCD_Command(LCD_OSCON);	  /* internal oscialltor ON        */
 141:.\Generated_Source\PSoC4/LCD.c **** 	LCD_Command(LCD_SLEEPOUT);  /* sleep out                     */    
 142:.\Generated_Source\PSoC4/LCD.c **** 	
 143:.\Generated_Source\PSoC4/LCD.c **** 	LCD_Command(LCD_PWRCTR);	  /* Power ctrl                    */
 144:.\Generated_Source\PSoC4/LCD.c **** 	LCD_Data(0x0F);	                      /* everything on, no external reference  resistors  */
 145:.\Generated_Source\PSoC4/LCD.c **** 	
 146:.\Generated_Source\PSoC4/LCD.c **** 	LCD_Command(LCD_DINVON);	  /* invert display mode           */
 147:.\Generated_Source\PSoC4/LCD.c **** 	
 148:.\Generated_Source\PSoC4/LCD.c **** 	LCD_Command(LCD_DATCTL);	  /* data control                  */
 149:.\Generated_Source\PSoC4/LCD.c **** 	LCD_Data(0x03);		/* Inverse page address, reverse rotation column address, column scan-direction	*
 150:.\Generated_Source\PSoC4/LCD.c **** 	LCD_Data(0x00);		                  /* normal RGB arrangement                 */
 151:.\Generated_Source\PSoC4/LCD.c **** 	LCD_Data(0x02);		                  /* 16-bit Grayscale Type A (12-bit color) */
 152:.\Generated_Source\PSoC4/LCD.c **** 	
 153:.\Generated_Source\PSoC4/LCD.c **** 	LCD_Command(LCD_SETCONST);	/* Electronic volume, this is the contrast/brightness        */
 154:.\Generated_Source\PSoC4/LCD.c **** 	LCD_Data(LCD_CONST_DEFAULT);  /* Volume (contrast) setting - fine tuning, original (0-63)  */
 155:.\Generated_Source\PSoC4/LCD.c **** 	LCD_Data(3);			                    /* Internal resistor ratio - coarse adjustment (0-7)         */
 156:.\Generated_Source\PSoC4/LCD.c **** 	
 157:.\Generated_Source\PSoC4/LCD.c **** 	LCD_Command(LCD_NOP);	        /* nop */
 158:.\Generated_Source\PSoC4/LCD.c **** 
 159:.\Generated_Source\PSoC4/LCD.c **** 	CyDelay(100);
 160:.\Generated_Source\PSoC4/LCD.c **** 
 161:.\Generated_Source\PSoC4/LCD.c **** 	LCD_Command(LCD_DISPON);	     /*  Display on */
 162:.\Generated_Source\PSoC4/LCD.c **** #endif
 163:.\Generated_Source\PSoC4/LCD.c **** 
 164:.\Generated_Source\PSoC4/LCD.c **** #if(LCD_Controller == LCD_PHILIPS) /* Driver is Philips */
 165:.\Generated_Source\PSoC4/LCD.c **** 
 166:.\Generated_Source\PSoC4/LCD.c **** 	LCD_Command(LCD_SLEEPOUT);	 /* Sleep Out          */
 167:.\Generated_Source\PSoC4/LCD.c **** 	LCD_Command(LCD_BSTRON);       /* Booster voltage on */
 168:.\Generated_Source\PSoC4/LCD.c **** 	LCD_Command(LCD_DISPON);		 /* Display on         */
 169:.\Generated_Source\PSoC4/LCD.c **** 	
 170:.\Generated_Source\PSoC4/LCD.c **** 	/* 12-bit color pixel format:  */
 171:.\Generated_Source\PSoC4/LCD.c **** 	LCD_Command(LCD_COLMOD);		 /* Color interface format     */
 172:.\Generated_Source\PSoC4/LCD.c **** 	LCD_Data(0x03);			                 /* 0b011 is 12-bit/pixel mode */
 173:.\Generated_Source\PSoC4/LCD.c **** 	
 174:.\Generated_Source\PSoC4/LCD.c **** 	LCD_Command(LCD_MADCTL);		 /* Memory Access Control      */
 175:.\Generated_Source\PSoC4/LCD.c **** 	LCD_Command(LCD_SETCONST);     /* Set Contrast               */          
 176:.\Generated_Source\PSoC4/LCD.c **** 	LCD_Data(LCD_CONST_DEFAULT);
 177:.\Generated_Source\PSoC4/LCD.c **** 	
 178:.\Generated_Source\PSoC4/LCD.c **** 	LCD_Command(LCD_NOP);	
 179:.\Generated_Source\PSoC4/LCD.c **** #endif
 180:.\Generated_Source\PSoC4/LCD.c **** 
 181:.\Generated_Source\PSoC4/LCD.c ****   	LCD_Contrast(60);                           /* Set default contrast  */
 182:.\Generated_Source\PSoC4/LCD.c ****   	LCD_Clear(LCD_BLACK);          /* Clear screen to black */
 183:.\Generated_Source\PSoC4/LCD.c **** }
 184:.\Generated_Source\PSoC4/LCD.c **** 
 185:.\Generated_Source\PSoC4/LCD.c **** /*******************************************************************************
 186:.\Generated_Source\PSoC4/LCD.c **** * Function Name: LCD_Stop
 187:.\Generated_Source\PSoC4/LCD.c **** ********************************************************************************
 188:.\Generated_Source\PSoC4/LCD.c **** *
 189:.\Generated_Source\PSoC4/LCD.c **** * Summary:
 190:.\Generated_Source\PSoC4/LCD.c **** *  This function clears the LCD to black and turns off the display.  
 191:.\Generated_Source\PSoC4/LCD.c **** *
 192:.\Generated_Source\PSoC4/LCD.c **** * Parameters:  
 193:.\Generated_Source\PSoC4/LCD.c **** *   None:   
 194:.\Generated_Source\PSoC4/LCD.c **** *
ARM GAS  C:\Users\kees\AppData\Local\Temp\cck8dVvn.s 			page 5


 195:.\Generated_Source\PSoC4/LCD.c **** * Return: 
 196:.\Generated_Source\PSoC4/LCD.c **** *  None 
 197:.\Generated_Source\PSoC4/LCD.c **** *  
 198:.\Generated_Source\PSoC4/LCD.c **** *******************************************************************************/
 199:.\Generated_Source\PSoC4/LCD.c **** void LCD_Stop(void)
 200:.\Generated_Source\PSoC4/LCD.c **** {
 201:.\Generated_Source\PSoC4/LCD.c ****    LCD_Clear(LCD_BLACK);
 202:.\Generated_Source\PSoC4/LCD.c ****    LCD_Command(LCD_DISPOFF);
 203:.\Generated_Source\PSoC4/LCD.c **** }
 204:.\Generated_Source\PSoC4/LCD.c **** 
 205:.\Generated_Source\PSoC4/LCD.c **** /*******************************************************************************
 206:.\Generated_Source\PSoC4/LCD.c **** * Function Name: LCD_Clear
 207:.\Generated_Source\PSoC4/LCD.c **** ********************************************************************************
 208:.\Generated_Source\PSoC4/LCD.c **** *
 209:.\Generated_Source\PSoC4/LCD.c **** * Summary:
 210:.\Generated_Source\PSoC4/LCD.c **** *  Clear the display.  
 211:.\Generated_Source\PSoC4/LCD.c **** *
 212:.\Generated_Source\PSoC4/LCD.c **** * Parameters:  
 213:.\Generated_Source\PSoC4/LCD.c **** *  color: Color to clear display with. 
 214:.\Generated_Source\PSoC4/LCD.c **** *
 215:.\Generated_Source\PSoC4/LCD.c **** * Return: 
 216:.\Generated_Source\PSoC4/LCD.c **** *  None 
 217:.\Generated_Source\PSoC4/LCD.c **** *  
 218:.\Generated_Source\PSoC4/LCD.c **** *******************************************************************************/
 219:.\Generated_Source\PSoC4/LCD.c **** void LCD_Clear(int32 color)
 220:.\Generated_Source\PSoC4/LCD.c **** {
 221:.\Generated_Source\PSoC4/LCD.c ****     int32 i;
 222:.\Generated_Source\PSoC4/LCD.c **** 
 223:.\Generated_Source\PSoC4/LCD.c **** 	LCD_Command(LCD_PAGEADDR);
 224:.\Generated_Source\PSoC4/LCD.c **** 	LCD_Data(LCD_MINX);
 225:.\Generated_Source\PSoC4/LCD.c **** 	LCD_Data(LCD_MAXX);
 226:.\Generated_Source\PSoC4/LCD.c **** 
 227:.\Generated_Source\PSoC4/LCD.c **** 	LCD_Command(LCD_COLADDR);
 228:.\Generated_Source\PSoC4/LCD.c **** 	LCD_Data(LCD_MINY);
 229:.\Generated_Source\PSoC4/LCD.c **** 	LCD_Data(LCD_MAXY);
 230:.\Generated_Source\PSoC4/LCD.c **** 
 231:.\Generated_Source\PSoC4/LCD.c **** 	LCD_Command(LCD_RAMWR);
 232:.\Generated_Source\PSoC4/LCD.c **** 
 233:.\Generated_Source\PSoC4/LCD.c **** 
 234:.\Generated_Source\PSoC4/LCD.c **** 	for( i=0; i < (LCD_MAXX*LCD_MAXY)/2; i++)
 235:.\Generated_Source\PSoC4/LCD.c **** 	{
 236:.\Generated_Source\PSoC4/LCD.c **** 		LCD_Data((color>>4)&0x00FF);
 237:.\Generated_Source\PSoC4/LCD.c **** 		LCD_Data(((color&0x0F)<<4)|(color>>8));
 238:.\Generated_Source\PSoC4/LCD.c **** 		LCD_Data(color&0x0FF);
 239:.\Generated_Source\PSoC4/LCD.c **** 	}
 240:.\Generated_Source\PSoC4/LCD.c **** 
 241:.\Generated_Source\PSoC4/LCD.c **** 	LCD_x_offset = 0;
 242:.\Generated_Source\PSoC4/LCD.c **** 	LCD_y_offset = 0;
 243:.\Generated_Source\PSoC4/LCD.c **** }
 244:.\Generated_Source\PSoC4/LCD.c **** 
 245:.\Generated_Source\PSoC4/LCD.c **** 
 246:.\Generated_Source\PSoC4/LCD.c **** /*******************************************************************************
 247:.\Generated_Source\PSoC4/LCD.c **** * Function Name: LCD_Contrast
 248:.\Generated_Source\PSoC4/LCD.c **** ********************************************************************************
 249:.\Generated_Source\PSoC4/LCD.c **** *
 250:.\Generated_Source\PSoC4/LCD.c **** * Summary:
 251:.\Generated_Source\PSoC4/LCD.c **** *  Set color contrast  
ARM GAS  C:\Users\kees\AppData\Local\Temp\cck8dVvn.s 			page 6


 252:.\Generated_Source\PSoC4/LCD.c **** *
 253:.\Generated_Source\PSoC4/LCD.c **** * Parameters:  
 254:.\Generated_Source\PSoC4/LCD.c **** *  setting: Contrast value.  
 255:.\Generated_Source\PSoC4/LCD.c **** *
 256:.\Generated_Source\PSoC4/LCD.c **** * Return: 
 257:.\Generated_Source\PSoC4/LCD.c **** *  None 
 258:.\Generated_Source\PSoC4/LCD.c **** *  
 259:.\Generated_Source\PSoC4/LCD.c **** *******************************************************************************/
 260:.\Generated_Source\PSoC4/LCD.c **** void LCD_Contrast(int32 setting)
 261:.\Generated_Source\PSoC4/LCD.c **** {
 262:.\Generated_Source\PSoC4/LCD.c ****     setting &= LCD_CONST_MASK;	                /* Mask off contrast value */
 263:.\Generated_Source\PSoC4/LCD.c ****     LCD_Command(LCD_SETCONST);	/* Set Contrast            */
 264:.\Generated_Source\PSoC4/LCD.c ****     LCD_Data(setting);	                    
 265:.\Generated_Source\PSoC4/LCD.c **** 
 266:.\Generated_Source\PSoC4/LCD.c **** #if(LCD_Controller == LCD_EPSON)  /* Only required for Epson */
 267:.\Generated_Source\PSoC4/LCD.c ****     LCD_Data(3);			
 268:.\Generated_Source\PSoC4/LCD.c **** #endif
 269:.\Generated_Source\PSoC4/LCD.c **** 
 270:.\Generated_Source\PSoC4/LCD.c **** }
 271:.\Generated_Source\PSoC4/LCD.c **** 
 272:.\Generated_Source\PSoC4/LCD.c **** /*******************************************************************************
 273:.\Generated_Source\PSoC4/LCD.c **** * Function Name: LCD_SwapColors
 274:.\Generated_Source\PSoC4/LCD.c **** ********************************************************************************
 275:.\Generated_Source\PSoC4/LCD.c **** *
 276:.\Generated_Source\PSoC4/LCD.c **** * Summary:
 277:.\Generated_Source\PSoC4/LCD.c **** *   Swaps colors between Epson and Philips mode.  
 278:.\Generated_Source\PSoC4/LCD.c **** *
 279:.\Generated_Source\PSoC4/LCD.c **** * Parameters:  
 280:.\Generated_Source\PSoC4/LCD.c **** *  prtValue:  The value  
 281:.\Generated_Source\PSoC4/LCD.c **** *
 282:.\Generated_Source\PSoC4/LCD.c **** * Return: 
 283:.\Generated_Source\PSoC4/LCD.c **** *  None 
 284:.\Generated_Source\PSoC4/LCD.c **** *  Added by Steve Sparks @ Big Nerd Ranch.
 285:.\Generated_Source\PSoC4/LCD.c **** *  This swaps the Epson RGB order into the Philips RGB order. (Or, vice versa, I suppose.)
 286:.\Generated_Source\PSoC4/LCD.c **** *******************************************************************************/
 287:.\Generated_Source\PSoC4/LCD.c **** int32 LCD_SwapColors(int32 in)
 288:.\Generated_Source\PSoC4/LCD.c **** {
  31              		.loc 1 288 0
  32              		.cfi_startproc
  33              	.LVL0:
  34              		.loc 1 288 0
  35 0000 0F23     		mov	r3, #15
  36 0002 0340     		and	r3, r3, r0
  37 0004 0205     		lsl	r2, r0, #20
  38 0006 120F     		lsr	r2, r2, #28
  39 0008 1B02     		lsl	r3, r3, #8
  40 000a 1343     		orr	r3, r3, r2
  41 000c F022     		mov	r2, #240
  42 000e 1040     		and	r0, r0, r2
  43              	.LVL1:
  44 0010 1843     		orr	r0, r0, r3
 289:.\Generated_Source\PSoC4/LCD.c ****     return ((in & 0x000F)<<8)|(in & 0x00F0)|((in & 0x0F00)>>8);
 290:.\Generated_Source\PSoC4/LCD.c **** }
  45              		.loc 1 290 0
  46              		@ sp needed for prologue
  47 0012 7047     		bx	lr
  48              		.cfi_endproc
ARM GAS  C:\Users\kees\AppData\Local\Temp\cck8dVvn.s 			page 7


  49              	.LFE6:
  50              		.size	LCD_SwapColors, .-LCD_SwapColors
  51              		.section	.text.LCD_Data,"ax",%progbits
  52              		.align	1
  53              		.global	LCD_Data
  54              		.code	16
  55              		.thumb_func
  56              		.type	LCD_Data, %function
  57              	LCD_Data:
  58              	.LFB1:
  59              		.loc 1 86 0
  60              		.cfi_startproc
  61 0000 10B5     		push	{r4, lr}
  62              	.LCFI0:
  63              		.cfi_def_cfa_offset 8
  64              		.cfi_offset 4, -8
  65              		.cfi_offset 14, -4
  66              	.LVL2:
  67 0002 041C     		mov	r4, r0
  68              	.LVL3:
  69              	.L4:
  70              		.loc 1 91 0
  71 0004 FFF7FEFF 		bl	LCD_SPIM_UDB_ReadTxStatus
  72 0008 1123     		mov	r3, #17
  73 000a 1842     		tst	r0, r3
  74 000c FAD0     		beq	.L4
  75              		.loc 1 92 0
  76 000e 8020     		mov	r0, #128
  77 0010 4000     		lsl	r0, r0, #1
  78 0012 2043     		orr	r0, r0, r4
  79 0014 80B2     		uxth	r0, r0
  80 0016 FFF7FEFF 		bl	LCD_SPIM_UDB_WriteTxData
  81              		.loc 1 101 0
  82              		@ sp needed for prologue
  83              	.LVL4:
  84 001a 10BD     		pop	{r4, pc}
  85              		.cfi_endproc
  86              	.LFE1:
  87              		.size	LCD_Data, .-LCD_Data
  88              		.section	.text.LCD_Command,"ax",%progbits
  89              		.align	1
  90              		.global	LCD_Command
  91              		.code	16
  92              		.thumb_func
  93              		.type	LCD_Command, %function
  94              	LCD_Command:
  95              	.LFB0:
  96              		.loc 1 59 0
  97              		.cfi_startproc
  98 0000 10B5     		push	{r4, lr}
  99              	.LCFI1:
 100              		.cfi_def_cfa_offset 8
 101              		.cfi_offset 4, -8
 102              		.cfi_offset 14, -4
 103              	.LVL5:
 104 0002 041C     		mov	r4, r0
 105              	.LVL6:
ARM GAS  C:\Users\kees\AppData\Local\Temp\cck8dVvn.s 			page 8


 106              	.L8:
 107              		.loc 1 61 0
 108 0004 FFF7FEFF 		bl	LCD_SPIM_UDB_ReadTxStatus
 109 0008 1123     		mov	r3, #17
 110 000a 1842     		tst	r0, r3
 111 000c FAD0     		beq	.L8
 112              		.loc 1 62 0
 113 000e A0B2     		uxth	r0, r4
 114              	.LVL7:
 115 0010 FFF7FEFF 		bl	LCD_SPIM_UDB_WriteTxData
 116              	.LVL8:
 117              		.loc 1 68 0
 118              		@ sp needed for prologue
 119 0014 10BD     		pop	{r4, pc}
 120              		.cfi_endproc
 121              	.LFE0:
 122              		.size	LCD_Command, .-LCD_Command
 123              		.section	.text.LCD_On,"ax",%progbits
 124              		.align	1
 125              		.global	LCD_On
 126              		.code	16
 127              		.thumb_func
 128              		.type	LCD_On, %function
 129              	LCD_On:
 130              	.LFB14:
 291:.\Generated_Source\PSoC4/LCD.c **** /*******************************************************************************
 292:.\Generated_Source\PSoC4/LCD.c **** * Function Name: LCD_Pixel
 293:.\Generated_Source\PSoC4/LCD.c **** ********************************************************************************
 294:.\Generated_Source\PSoC4/LCD.c **** *
 295:.\Generated_Source\PSoC4/LCD.c **** * Summary:
 296:.\Generated_Source\PSoC4/LCD.c **** *  Draw Pixel  
 297:.\Generated_Source\PSoC4/LCD.c **** *
 298:.\Generated_Source\PSoC4/LCD.c **** * Parameters:  
 299:.\Generated_Source\PSoC4/LCD.c **** *  x,y:    Location to draw the pixel
 300:.\Generated_Source\PSoC4/LCD.c **** *  color:  Color of the pixel
 301:.\Generated_Source\PSoC4/LCD.c **** *
 302:.\Generated_Source\PSoC4/LCD.c **** * Return: 
 303:.\Generated_Source\PSoC4/LCD.c **** *  None 
 304:.\Generated_Source\PSoC4/LCD.c **** *******************************************************************************/
 305:.\Generated_Source\PSoC4/LCD.c **** void LCD_Pixel(int32 x, int32 y, int32 color)
 306:.\Generated_Source\PSoC4/LCD.c **** {
 307:.\Generated_Source\PSoC4/LCD.c ****     y =	(LCD_COL_HEIGHT - 1) - y;
 308:.\Generated_Source\PSoC4/LCD.c ****     x = (LCD_ROW_LENGTH - 1) - x;
 309:.\Generated_Source\PSoC4/LCD.c **** 
 310:.\Generated_Source\PSoC4/LCD.c **** #if (LCD_Controller == LCD_EPSON) /* EPSON     */
 311:.\Generated_Source\PSoC4/LCD.c **** 	LCD_Command(LCD_PAGEADDR);    /* Set page  */
 312:.\Generated_Source\PSoC4/LCD.c **** 	LCD_Data(x);
 313:.\Generated_Source\PSoC4/LCD.c **** 	LCD_Data(LCD_ENDPAGE);
 314:.\Generated_Source\PSoC4/LCD.c **** 
 315:.\Generated_Source\PSoC4/LCD.c **** 	LCD_Command(LCD_COLADDR);     /* Set column */
 316:.\Generated_Source\PSoC4/LCD.c **** 	LCD_Data(y);
 317:.\Generated_Source\PSoC4/LCD.c **** 	LCD_Data(LCD_ENDCOL);
 318:.\Generated_Source\PSoC4/LCD.c **** 
 319:.\Generated_Source\PSoC4/LCD.c **** 	LCD_Command(LCD_RAMWR);       /* Write color data */
 320:.\Generated_Source\PSoC4/LCD.c **** 	LCD_Data((color>>4)&0x00FF);
 321:.\Generated_Source\PSoC4/LCD.c **** 	LCD_Data(((color&0x0F)<<4)|(color>>8));
 322:.\Generated_Source\PSoC4/LCD.c **** 	LCD_Data(color&0x0FF);
ARM GAS  C:\Users\kees\AppData\Local\Temp\cck8dVvn.s 			page 9


 323:.\Generated_Source\PSoC4/LCD.c **** #endif
 324:.\Generated_Source\PSoC4/LCD.c **** 
 325:.\Generated_Source\PSoC4/LCD.c **** #if (LCD_Controller == LCD_PHILIPS) /* PHILIPS   */
 326:.\Generated_Source\PSoC4/LCD.c **** 	LCD_Command(LCD_PAGEADDR);      /* Set page  */
 327:.\Generated_Source\PSoC4/LCD.c **** 	LCD_Data((uint8)x);
 328:.\Generated_Source\PSoC4/LCD.c **** 	LCD_Data((uint8)x);
 329:.\Generated_Source\PSoC4/LCD.c **** 
 330:.\Generated_Source\PSoC4/LCD.c **** 	LCD_Command(LCD_COLADDR);       /* Set column */
 331:.\Generated_Source\PSoC4/LCD.c **** 	LCD_Data((uint8)y);
 332:.\Generated_Source\PSoC4/LCD.c **** 	LCD_Data((uint8)y);
 333:.\Generated_Source\PSoC4/LCD.c **** 
 334:.\Generated_Source\PSoC4/LCD.c **** 	LCD_Command(LCD_RAMWR);         /* Write color data */
 335:.\Generated_Source\PSoC4/LCD.c **** 	LCD_Data((uint8)((color>>4)&0x00FF));
 336:.\Generated_Source\PSoC4/LCD.c **** 	LCD_Data((uint8)(((color&0x0F)<<4)|0x00));
 337:.\Generated_Source\PSoC4/LCD.c **** #endif
 338:.\Generated_Source\PSoC4/LCD.c **** }
 339:.\Generated_Source\PSoC4/LCD.c **** 
 340:.\Generated_Source\PSoC4/LCD.c **** /*******************************************************************************
 341:.\Generated_Source\PSoC4/LCD.c **** * Function Name: LCD_DrawCircle
 342:.\Generated_Source\PSoC4/LCD.c **** ********************************************************************************
 343:.\Generated_Source\PSoC4/LCD.c **** *
 344:.\Generated_Source\PSoC4/LCD.c **** * Summary:
 345:.\Generated_Source\PSoC4/LCD.c **** *  Draw a circle on the display given a start point and radius.  
 346:.\Generated_Source\PSoC4/LCD.c **** *
 347:.\Generated_Source\PSoC4/LCD.c **** *  This code uses Bresenham's Circle Algorithm. 
 348:.\Generated_Source\PSoC4/LCD.c **** *
 349:.\Generated_Source\PSoC4/LCD.c **** * Parameters:  
 350:.\Generated_Source\PSoC4/LCD.c **** *  x0, y0: Center of circle
 351:.\Generated_Source\PSoC4/LCD.c **** *  radius: Radius of circle
 352:.\Generated_Source\PSoC4/LCD.c **** *  color:  Color of circle
 353:.\Generated_Source\PSoC4/LCD.c **** *
 354:.\Generated_Source\PSoC4/LCD.c **** * Return: 
 355:.\Generated_Source\PSoC4/LCD.c **** *  None 
 356:.\Generated_Source\PSoC4/LCD.c **** *  
 357:.\Generated_Source\PSoC4/LCD.c **** *******************************************************************************/
 358:.\Generated_Source\PSoC4/LCD.c **** void LCD_DrawCircle (int32 x0, int32 y0, int32 radius, int32 color)
 359:.\Generated_Source\PSoC4/LCD.c **** {
 360:.\Generated_Source\PSoC4/LCD.c **** 	int32 f = 1 - radius;
 361:.\Generated_Source\PSoC4/LCD.c **** 	int32 ddF_x = 0;
 362:.\Generated_Source\PSoC4/LCD.c **** 	int32 ddF_y = -2 * radius;
 363:.\Generated_Source\PSoC4/LCD.c **** 	int32 x = 0;
 364:.\Generated_Source\PSoC4/LCD.c **** 	int32 y = radius;
 365:.\Generated_Source\PSoC4/LCD.c **** 
 366:.\Generated_Source\PSoC4/LCD.c **** 	LCD_Pixel(x0, y0 + radius, color);
 367:.\Generated_Source\PSoC4/LCD.c **** 	LCD_Pixel(x0, y0 - radius, color);
 368:.\Generated_Source\PSoC4/LCD.c **** 	LCD_Pixel( x0 + radius, y0, color);
 369:.\Generated_Source\PSoC4/LCD.c **** 	LCD_Pixel( x0 - radius, y0, color);
 370:.\Generated_Source\PSoC4/LCD.c **** 
 371:.\Generated_Source\PSoC4/LCD.c **** 	while(x < y)
 372:.\Generated_Source\PSoC4/LCD.c **** 	{
 373:.\Generated_Source\PSoC4/LCD.c **** 		if(f >= 0)
 374:.\Generated_Source\PSoC4/LCD.c **** 		{
 375:.\Generated_Source\PSoC4/LCD.c **** 			y--;
 376:.\Generated_Source\PSoC4/LCD.c **** 			ddF_y += 2;
 377:.\Generated_Source\PSoC4/LCD.c **** 			f += ddF_y;
 378:.\Generated_Source\PSoC4/LCD.c **** 		}
 379:.\Generated_Source\PSoC4/LCD.c **** 		x++;
ARM GAS  C:\Users\kees\AppData\Local\Temp\cck8dVvn.s 			page 10


 380:.\Generated_Source\PSoC4/LCD.c **** 		ddF_x += 2;
 381:.\Generated_Source\PSoC4/LCD.c **** 		f += ddF_x + 1;
 382:.\Generated_Source\PSoC4/LCD.c **** 
 383:.\Generated_Source\PSoC4/LCD.c **** 		LCD_Pixel(x0 + x, y0 + y, color);
 384:.\Generated_Source\PSoC4/LCD.c **** 		LCD_Pixel(x0 - x, y0 + y, color);
 385:.\Generated_Source\PSoC4/LCD.c **** 		LCD_Pixel( x0 + x, y0 - y, color);
 386:.\Generated_Source\PSoC4/LCD.c **** 		LCD_Pixel( x0 - x, y0 - y, color);
 387:.\Generated_Source\PSoC4/LCD.c **** 		LCD_Pixel( x0 + y, y0 + x, color);
 388:.\Generated_Source\PSoC4/LCD.c **** 		LCD_Pixel( x0 - y, y0 + x, color);
 389:.\Generated_Source\PSoC4/LCD.c **** 		LCD_Pixel( x0 + y, y0 - x, color);
 390:.\Generated_Source\PSoC4/LCD.c **** 		LCD_Pixel( x0 - y, y0 - x, color);
 391:.\Generated_Source\PSoC4/LCD.c **** 	}
 392:.\Generated_Source\PSoC4/LCD.c **** }
 393:.\Generated_Source\PSoC4/LCD.c **** 
 394:.\Generated_Source\PSoC4/LCD.c **** /*******************************************************************************
 395:.\Generated_Source\PSoC4/LCD.c **** * Function Name: LCD_PrintChar
 396:.\Generated_Source\PSoC4/LCD.c **** ********************************************************************************
 397:.\Generated_Source\PSoC4/LCD.c **** *
 398:.\Generated_Source\PSoC4/LCD.c **** * Summary:
 399:.\Generated_Source\PSoC4/LCD.c **** *  Print a character on the display.  
 400:.\Generated_Source\PSoC4/LCD.c **** *
 401:.\Generated_Source\PSoC4/LCD.c **** * Parameters:  
 402:.\Generated_Source\PSoC4/LCD.c **** *  c:       ASCII character to be printed
 403:.\Generated_Source\PSoC4/LCD.c **** *  x,y:     Location where character will be printed.
 404:.\Generated_Source\PSoC4/LCD.c **** *  fColor:  Foreground color
 405:.\Generated_Source\PSoC4/LCD.c **** *  bColor:  Background color
 406:.\Generated_Source\PSoC4/LCD.c **** *
 407:.\Generated_Source\PSoC4/LCD.c **** * Return: 
 408:.\Generated_Source\PSoC4/LCD.c **** *  None 
 409:.\Generated_Source\PSoC4/LCD.c **** *  
 410:.\Generated_Source\PSoC4/LCD.c **** *******************************************************************************/
 411:.\Generated_Source\PSoC4/LCD.c **** void LCD_PrintChar(uint8 c, int32 x, int32 y, int32 fColor, int32 bColor)
 412:.\Generated_Source\PSoC4/LCD.c **** {
 413:.\Generated_Source\PSoC4/LCD.c **** 	y	=	(LCD_COL_HEIGHT - 1) - y; /* make display "right" side up */
 414:.\Generated_Source\PSoC4/LCD.c **** 	x	=	(LCD_ROW_LENGTH - 2) - x;
 415:.\Generated_Source\PSoC4/LCD.c **** 
 416:.\Generated_Source\PSoC4/LCD.c **** 	int32             i,j;
 417:.\Generated_Source\PSoC4/LCD.c **** 	int32    nCols;
 418:.\Generated_Source\PSoC4/LCD.c **** 	int32    nRows;
 419:.\Generated_Source\PSoC4/LCD.c **** 	int32    nBytes;
 420:.\Generated_Source\PSoC4/LCD.c **** 	uint8    PixelRow;
 421:.\Generated_Source\PSoC4/LCD.c **** 	uint8    Mask;
 422:.\Generated_Source\PSoC4/LCD.c **** 	int32    Word0;
 423:.\Generated_Source\PSoC4/LCD.c **** 	int32    Word1;
 424:.\Generated_Source\PSoC4/LCD.c **** 	uint8   *pFont;
 425:.\Generated_Source\PSoC4/LCD.c **** 	uint8   *pChar;
 426:.\Generated_Source\PSoC4/LCD.c **** 
 427:.\Generated_Source\PSoC4/LCD.c **** 	/* Get pointer to the beginning of the selected font table  */
 428:.\Generated_Source\PSoC4/LCD.c **** 	pFont = (uint8 *)LCD_FONT8x16;
 429:.\Generated_Source\PSoC4/LCD.c **** 	
 430:.\Generated_Source\PSoC4/LCD.c **** 	/* Get the nColumns, nRows and nBytes.                      */
 431:.\Generated_Source\PSoC4/LCD.c **** 	nCols = *pFont;
 432:.\Generated_Source\PSoC4/LCD.c **** 	nRows = *(pFont + 1);
 433:.\Generated_Source\PSoC4/LCD.c **** 	nBytes = *(pFont + 2);
 434:.\Generated_Source\PSoC4/LCD.c **** 	
 435:.\Generated_Source\PSoC4/LCD.c **** 	/* Get pointer to the last byte of the desired character    */
 436:.\Generated_Source\PSoC4/LCD.c **** 	pChar = pFont + (nBytes * (c - 0x1F)) + nBytes - 1;
ARM GAS  C:\Users\kees\AppData\Local\Temp\cck8dVvn.s 			page 11


 437:.\Generated_Source\PSoC4/LCD.c **** 
 438:.\Generated_Source\PSoC4/LCD.c **** #if (LCD_Controller == LCD_EPSON)
 439:.\Generated_Source\PSoC4/LCD.c **** 	/* Row address set */
 440:.\Generated_Source\PSoC4/LCD.c **** 	LCD_Command(LCD_PAGEADDR);
 441:.\Generated_Source\PSoC4/LCD.c **** 	LCD_Data(x);
 442:.\Generated_Source\PSoC4/LCD.c **** 	LCD_Data((x + nRows - 1));
 443:.\Generated_Source\PSoC4/LCD.c **** 	/* Column address set */
 444:.\Generated_Source\PSoC4/LCD.c **** 	LCD_Command(LCD_COLADDR);
 445:.\Generated_Source\PSoC4/LCD.c **** 	LCD_Data(y);
 446:.\Generated_Source\PSoC4/LCD.c **** 	LCD_Data((y + nCols - 1));
 447:.\Generated_Source\PSoC4/LCD.c **** 
 448:.\Generated_Source\PSoC4/LCD.c **** 	/* Write Memory */
 449:.\Generated_Source\PSoC4/LCD.c **** 	LCD_Command(LCD_RAMWR);
 450:.\Generated_Source\PSoC4/LCD.c **** 	/* Loop on each row, working backwards from the bottom to the top  */
 451:.\Generated_Source\PSoC4/LCD.c **** 	for (i = nRows - 1; i >= 0; i--) {
 452:.\Generated_Source\PSoC4/LCD.c **** 		/* Copy pixel row from font table and then decrement row       */
 453:.\Generated_Source\PSoC4/LCD.c **** 		PixelRow = *pChar++;
 454:.\Generated_Source\PSoC4/LCD.c **** 		/* Loop on each pixel in the row (left to right)               */
 455:.\Generated_Source\PSoC4/LCD.c **** 		/* Note: we do two pixels each loop                            */
 456:.\Generated_Source\PSoC4/LCD.c **** 		Mask = 0x80;
 457:.\Generated_Source\PSoC4/LCD.c **** 		for (j = 0; j < nCols; j += 2) 
 458:.\Generated_Source\PSoC4/LCD.c **** 		{
 459:.\Generated_Source\PSoC4/LCD.c **** 			/* If pixel bit set, use foreground color; else use the background color. */
 460:.\Generated_Source\PSoC4/LCD.c **** 			/* Now get the pixel color for two successive pixels                      */
 461:.\Generated_Source\PSoC4/LCD.c **** 			if ((PixelRow & Mask) == 0)
 462:.\Generated_Source\PSoC4/LCD.c **** 			{
 463:.\Generated_Source\PSoC4/LCD.c **** 				Word0 = bColor;
 464:.\Generated_Source\PSoC4/LCD.c **** 			}
 465:.\Generated_Source\PSoC4/LCD.c **** 			else
 466:.\Generated_Source\PSoC4/LCD.c **** 			{
 467:.\Generated_Source\PSoC4/LCD.c **** 				Word0 = fColor;
 468:.\Generated_Source\PSoC4/LCD.c **** 			}
 469:.\Generated_Source\PSoC4/LCD.c **** 			
 470:.\Generated_Source\PSoC4/LCD.c **** 			Mask = Mask >> 1;
 471:.\Generated_Source\PSoC4/LCD.c **** 			if ((PixelRow & Mask) == 0)
 472:.\Generated_Source\PSoC4/LCD.c **** 			{
 473:.\Generated_Source\PSoC4/LCD.c **** 				Word1 = bColor;
 474:.\Generated_Source\PSoC4/LCD.c **** 			}
 475:.\Generated_Source\PSoC4/LCD.c **** 			else
 476:.\Generated_Source\PSoC4/LCD.c **** 			{
 477:.\Generated_Source\PSoC4/LCD.c **** 				Word1 = fColor;
 478:.\Generated_Source\PSoC4/LCD.c **** 			}
 479:.\Generated_Source\PSoC4/LCD.c **** 			Mask = Mask >> 1;
 480:.\Generated_Source\PSoC4/LCD.c **** 			/* Use this information to output three data bytes  */
 481:.\Generated_Source\PSoC4/LCD.c **** 			LCD_Data((uint8)((Word0 >> 4) & 0xFF));
 482:.\Generated_Source\PSoC4/LCD.c **** 			LCD_Data((uint8)(((Word0 & 0xF) << 4) | ((Word1 >> 8) & 0xF)));
 483:.\Generated_Source\PSoC4/LCD.c **** 			LCD_Data((uint8)(Word1 & 0xFF));
 484:.\Generated_Source\PSoC4/LCD.c **** 		}
 485:.\Generated_Source\PSoC4/LCD.c **** 	}
 486:.\Generated_Source\PSoC4/LCD.c **** #endif
 487:.\Generated_Source\PSoC4/LCD.c **** 
 488:.\Generated_Source\PSoC4/LCD.c **** #if (LCD_Controller == LCD_PHILIPS)
 489:.\Generated_Source\PSoC4/LCD.c **** 
 490:.\Generated_Source\PSoC4/LCD.c **** 	/* Set row address     */
 491:.\Generated_Source\PSoC4/LCD.c **** 	LCD_Command(LCD_PAGEADDR);
 492:.\Generated_Source\PSoC4/LCD.c **** 	LCD_Data((uint8)x);
 493:.\Generated_Source\PSoC4/LCD.c **** 	LCD_Data((uint8)(x + nRows - 1));
ARM GAS  C:\Users\kees\AppData\Local\Temp\cck8dVvn.s 			page 12


 494:.\Generated_Source\PSoC4/LCD.c ****     /* Set column address  */
 495:.\Generated_Source\PSoC4/LCD.c **** 	LCD_Command(LCD_COLADDR);
 496:.\Generated_Source\PSoC4/LCD.c **** 	LCD_Data((uint8)y);
 497:.\Generated_Source\PSoC4/LCD.c **** 	LCD_Data((uint8)(y + nCols - 1));
 498:.\Generated_Source\PSoC4/LCD.c **** 
 499:.\Generated_Source\PSoC4/LCD.c **** 	/* Write to display memory */
 500:.\Generated_Source\PSoC4/LCD.c **** 	LCD_Command(LCD_RAMWR);
 501:.\Generated_Source\PSoC4/LCD.c **** 	/* loop on each row, working backwards from the bottom to the top.  */
 502:.\Generated_Source\PSoC4/LCD.c **** 	pChar+=nBytes-1;  /* Stick pChar at the end of the row, need to reverse print on phillips */
 503:.\Generated_Source\PSoC4/LCD.c **** 	for (i = nRows - 1; i >= 0; i--) {
 504:.\Generated_Source\PSoC4/LCD.c **** 		/* copy pixel row from font table and then decrement row.  */
 505:.\Generated_Source\PSoC4/LCD.c **** 		PixelRow = *pChar--;
 506:.\Generated_Source\PSoC4/LCD.c **** 		/* Loop on each pixel in the row (left to right)  */
 507:.\Generated_Source\PSoC4/LCD.c **** 		/* Note: we do two pixels each loop               */
 508:.\Generated_Source\PSoC4/LCD.c **** 		Mask = 0x01;  
 509:.\Generated_Source\PSoC4/LCD.c **** 		for (j = 0; j < nCols; j += 2) 
 510:.\Generated_Source\PSoC4/LCD.c **** 		{
 511:.\Generated_Source\PSoC4/LCD.c **** 			/* If pixel bit set, use foreground color; else use the background color  */
 512:.\Generated_Source\PSoC4/LCD.c **** 			/* Get the pixel color for two successive pixels                          */
 513:.\Generated_Source\PSoC4/LCD.c **** 			if ((PixelRow & Mask) == 0)
 514:.\Generated_Source\PSoC4/LCD.c **** 				Word0 = bColor;
 515:.\Generated_Source\PSoC4/LCD.c **** 			else
 516:.\Generated_Source\PSoC4/LCD.c **** 				Word0 = fColor;
 517:.\Generated_Source\PSoC4/LCD.c **** 			Mask = Mask << 1; 
 518:.\Generated_Source\PSoC4/LCD.c **** 			if ((PixelRow & Mask) == 0)
 519:.\Generated_Source\PSoC4/LCD.c **** 				Word1 = bColor;
 520:.\Generated_Source\PSoC4/LCD.c **** 			else
 521:.\Generated_Source\PSoC4/LCD.c **** 				Word1 = fColor;
 522:.\Generated_Source\PSoC4/LCD.c **** 			Mask = Mask << 1; 
 523:.\Generated_Source\PSoC4/LCD.c **** 			/* use this information to output three data bytes */
 524:.\Generated_Source\PSoC4/LCD.c **** 			LCD_Data((Word0 >> 4) & 0xFF);
 525:.\Generated_Source\PSoC4/LCD.c **** 			LCD_Data(((Word0 & 0xF) << 4) | ((Word1 >> 8) & 0xF));
 526:.\Generated_Source\PSoC4/LCD.c **** 			LCD_Data(Word1 & 0xFF);
 527:.\Generated_Source\PSoC4/LCD.c **** 		}
 528:.\Generated_Source\PSoC4/LCD.c **** 	}
 529:.\Generated_Source\PSoC4/LCD.c **** #endif
 530:.\Generated_Source\PSoC4/LCD.c **** }
 531:.\Generated_Source\PSoC4/LCD.c **** 
 532:.\Generated_Source\PSoC4/LCD.c **** /*******************************************************************************
 533:.\Generated_Source\PSoC4/LCD.c **** * Function Name: LCD_PrintString
 534:.\Generated_Source\PSoC4/LCD.c **** ********************************************************************************
 535:.\Generated_Source\PSoC4/LCD.c **** *
 536:.\Generated_Source\PSoC4/LCD.c **** * Summary:
 537:.\Generated_Source\PSoC4/LCD.c **** *  Print a string horizontally on the display.  
 538:.\Generated_Source\PSoC4/LCD.c **** *
 539:.\Generated_Source\PSoC4/LCD.c **** * Parameters:  
 540:.\Generated_Source\PSoC4/LCD.c **** *  pString:  Pointer to null terminated string to be displayed.
 541:.\Generated_Source\PSoC4/LCD.c **** *  x,y:      Location where string is to be printed
 542:.\Generated_Source\PSoC4/LCD.c **** *  fColor:   Forground Color
 543:.\Generated_Source\PSoC4/LCD.c **** *  bColor:   Background Color
 544:.\Generated_Source\PSoC4/LCD.c **** *
 545:.\Generated_Source\PSoC4/LCD.c **** * Return: 
 546:.\Generated_Source\PSoC4/LCD.c **** *  None 
 547:.\Generated_Source\PSoC4/LCD.c **** *  
 548:.\Generated_Source\PSoC4/LCD.c **** *******************************************************************************/
 549:.\Generated_Source\PSoC4/LCD.c **** void LCD_PrintString(char *pString, int32 x, int32 y, int32 fColor, int32 bColor)
 550:.\Generated_Source\PSoC4/LCD.c **** {
ARM GAS  C:\Users\kees\AppData\Local\Temp\cck8dVvn.s 			page 13


 551:.\Generated_Source\PSoC4/LCD.c **** 	x = x + 16;
 552:.\Generated_Source\PSoC4/LCD.c **** 	y = y + 8;
 553:.\Generated_Source\PSoC4/LCD.c ****     int32 originalY = y;
 554:.\Generated_Source\PSoC4/LCD.c **** 
 555:.\Generated_Source\PSoC4/LCD.c **** 	/* Loop until null-terminator is found */
 556:.\Generated_Source\PSoC4/LCD.c **** 	while (*pString != 0x00) 
 557:.\Generated_Source\PSoC4/LCD.c **** 	{
 558:.\Generated_Source\PSoC4/LCD.c **** 		/* Draw the character        */
 559:.\Generated_Source\PSoC4/LCD.c **** 		LCD_PrintChar(*pString++, x, y, fColor, bColor);
 560:.\Generated_Source\PSoC4/LCD.c **** 		/* Advance the y position    */
 561:.\Generated_Source\PSoC4/LCD.c **** 		y = y + 8;
 562:.\Generated_Source\PSoC4/LCD.c **** 		/* Bail out if y exceeds 131 */
 563:.\Generated_Source\PSoC4/LCD.c **** 		if (y > 131) 
 564:.\Generated_Source\PSoC4/LCD.c **** 		{
 565:.\Generated_Source\PSoC4/LCD.c ****             x = x + 16;
 566:.\Generated_Source\PSoC4/LCD.c ****             y = originalY;
 567:.\Generated_Source\PSoC4/LCD.c ****         }
 568:.\Generated_Source\PSoC4/LCD.c ****         if (x > 131) break;
 569:.\Generated_Source\PSoC4/LCD.c **** 	}
 570:.\Generated_Source\PSoC4/LCD.c **** }
 571:.\Generated_Source\PSoC4/LCD.c **** 
 572:.\Generated_Source\PSoC4/LCD.c **** /*******************************************************************************
 573:.\Generated_Source\PSoC4/LCD.c **** * Function Name: LCD_DrawLine
 574:.\Generated_Source\PSoC4/LCD.c **** ********************************************************************************
 575:.\Generated_Source\PSoC4/LCD.c **** *
 576:.\Generated_Source\PSoC4/LCD.c **** * Summary:
 577:.\Generated_Source\PSoC4/LCD.c **** *  Draw a line on the display.  
 578:.\Generated_Source\PSoC4/LCD.c **** *
 579:.\Generated_Source\PSoC4/LCD.c **** * Parameters:  
 580:.\Generated_Source\PSoC4/LCD.c **** *  x0, y0:  The beginning endpoint
 581:.\Generated_Source\PSoC4/LCD.c **** *  x1, y1:  The end endpoint.
 582:.\Generated_Source\PSoC4/LCD.c **** *  color:   Color of the line.
 583:.\Generated_Source\PSoC4/LCD.c **** *
 584:.\Generated_Source\PSoC4/LCD.c **** * Return: 
 585:.\Generated_Source\PSoC4/LCD.c **** *  None 
 586:.\Generated_Source\PSoC4/LCD.c **** *  
 587:.\Generated_Source\PSoC4/LCD.c **** *******************************************************************************/
 588:.\Generated_Source\PSoC4/LCD.c **** void LCD_DrawLine(int32 x0, int32 y0, int32 x1, int32 y1, int32 color)
 589:.\Generated_Source\PSoC4/LCD.c **** {
 590:.\Generated_Source\PSoC4/LCD.c **** 	int32 dy = y1 - y0; /* Difference between y0 and y1 */
 591:.\Generated_Source\PSoC4/LCD.c **** 	int32 dx = x1 - x0; /* Difference between x0 and x1 */
 592:.\Generated_Source\PSoC4/LCD.c **** 	int32 stepx, stepy;
 593:.\Generated_Source\PSoC4/LCD.c **** 
 594:.\Generated_Source\PSoC4/LCD.c **** 	if (dy < 0)
 595:.\Generated_Source\PSoC4/LCD.c **** 	{
 596:.\Generated_Source\PSoC4/LCD.c **** 		dy = -dy;
 597:.\Generated_Source\PSoC4/LCD.c **** 		stepy = -1;
 598:.\Generated_Source\PSoC4/LCD.c **** 	}
 599:.\Generated_Source\PSoC4/LCD.c **** 	else
 600:.\Generated_Source\PSoC4/LCD.c **** 	{
 601:.\Generated_Source\PSoC4/LCD.c **** 		stepy = 1;
 602:.\Generated_Source\PSoC4/LCD.c **** 	}
 603:.\Generated_Source\PSoC4/LCD.c **** 
 604:.\Generated_Source\PSoC4/LCD.c **** 	if (dx < 0)
 605:.\Generated_Source\PSoC4/LCD.c **** 	{
 606:.\Generated_Source\PSoC4/LCD.c **** 		dx = -dx;
 607:.\Generated_Source\PSoC4/LCD.c **** 		stepx = -1;
ARM GAS  C:\Users\kees\AppData\Local\Temp\cck8dVvn.s 			page 14


 608:.\Generated_Source\PSoC4/LCD.c **** 	}
 609:.\Generated_Source\PSoC4/LCD.c **** 	else
 610:.\Generated_Source\PSoC4/LCD.c **** 	{
 611:.\Generated_Source\PSoC4/LCD.c **** 		stepx = 1;
 612:.\Generated_Source\PSoC4/LCD.c **** 	}
 613:.\Generated_Source\PSoC4/LCD.c **** 
 614:.\Generated_Source\PSoC4/LCD.c **** 	dy <<= 1; /* dy is now 2*dy  */
 615:.\Generated_Source\PSoC4/LCD.c **** 	dx <<= 1; /* dx is now 2*dx  */
 616:.\Generated_Source\PSoC4/LCD.c **** 	LCD_Pixel(x0, y0, color);
 617:.\Generated_Source\PSoC4/LCD.c **** 
 618:.\Generated_Source\PSoC4/LCD.c **** 	if (dx > dy) 
 619:.\Generated_Source\PSoC4/LCD.c **** 	{
 620:.\Generated_Source\PSoC4/LCD.c **** 		int fraction = dy - (dx >> 1);
 621:.\Generated_Source\PSoC4/LCD.c **** 		while (x0 != x1)
 622:.\Generated_Source\PSoC4/LCD.c **** 		{
 623:.\Generated_Source\PSoC4/LCD.c **** 			if (fraction >= 0)
 624:.\Generated_Source\PSoC4/LCD.c **** 			{
 625:.\Generated_Source\PSoC4/LCD.c **** 				y0 += stepy;
 626:.\Generated_Source\PSoC4/LCD.c **** 				fraction -= dx;
 627:.\Generated_Source\PSoC4/LCD.c **** 			}
 628:.\Generated_Source\PSoC4/LCD.c **** 			x0 += stepx;
 629:.\Generated_Source\PSoC4/LCD.c **** 			fraction += dy;
 630:.\Generated_Source\PSoC4/LCD.c **** 			LCD_Pixel(x0, y0, color);
 631:.\Generated_Source\PSoC4/LCD.c **** 		}
 632:.\Generated_Source\PSoC4/LCD.c **** 	}
 633:.\Generated_Source\PSoC4/LCD.c **** 	else
 634:.\Generated_Source\PSoC4/LCD.c **** 	{
 635:.\Generated_Source\PSoC4/LCD.c **** 		int fraction = dx - (dy >> 1);
 636:.\Generated_Source\PSoC4/LCD.c **** 		while (y0 != y1)
 637:.\Generated_Source\PSoC4/LCD.c **** 		{
 638:.\Generated_Source\PSoC4/LCD.c **** 			if (fraction >= 0)
 639:.\Generated_Source\PSoC4/LCD.c **** 			{
 640:.\Generated_Source\PSoC4/LCD.c **** 				x0 += stepx;
 641:.\Generated_Source\PSoC4/LCD.c **** 				fraction -= dy;
 642:.\Generated_Source\PSoC4/LCD.c **** 			}
 643:.\Generated_Source\PSoC4/LCD.c **** 			y0 += stepy;
 644:.\Generated_Source\PSoC4/LCD.c **** 			fraction += dx;
 645:.\Generated_Source\PSoC4/LCD.c **** 			LCD_Pixel( x0, y0, color);
 646:.\Generated_Source\PSoC4/LCD.c **** 		}
 647:.\Generated_Source\PSoC4/LCD.c **** 	}
 648:.\Generated_Source\PSoC4/LCD.c **** }
 649:.\Generated_Source\PSoC4/LCD.c **** 
 650:.\Generated_Source\PSoC4/LCD.c **** /*******************************************************************************
 651:.\Generated_Source\PSoC4/LCD.c **** * Function Name: LCD_DrawRect
 652:.\Generated_Source\PSoC4/LCD.c **** ********************************************************************************
 653:.\Generated_Source\PSoC4/LCD.c **** *
 654:.\Generated_Source\PSoC4/LCD.c **** * Summary:
 655:.\Generated_Source\PSoC4/LCD.c **** *  Draw a rectangle, filled or not.  
 656:.\Generated_Source\PSoC4/LCD.c **** *
 657:.\Generated_Source\PSoC4/LCD.c **** * Parameters:  
 658:.\Generated_Source\PSoC4/LCD.c **** *  x0, y0:  The upper lefthand corner.
 659:.\Generated_Source\PSoC4/LCD.c **** *  x1, y1:  The lower right corner.
 660:.\Generated_Source\PSoC4/LCD.c **** *  fill:    Non-Zero if retangle is to be filled.
 661:.\Generated_Source\PSoC4/LCD.c **** *  color:   Color for rectangle, border and fill.
 662:.\Generated_Source\PSoC4/LCD.c **** *
 663:.\Generated_Source\PSoC4/LCD.c **** * Return: 
 664:.\Generated_Source\PSoC4/LCD.c **** *  None 
ARM GAS  C:\Users\kees\AppData\Local\Temp\cck8dVvn.s 			page 15


 665:.\Generated_Source\PSoC4/LCD.c **** *  
 666:.\Generated_Source\PSoC4/LCD.c **** *******************************************************************************/
 667:.\Generated_Source\PSoC4/LCD.c **** void LCD_DrawRect(int32 x0, int32 y0, int32 x1, int32 y1, int32 fill, int32 color)
 668:.\Generated_Source\PSoC4/LCD.c **** {	
 669:.\Generated_Source\PSoC4/LCD.c ****      int xDiff;
 670:.\Generated_Source\PSoC4/LCD.c **** 	/* Check if the rectangle is to be filled    */
 671:.\Generated_Source\PSoC4/LCD.c **** 	if (fill != 0)
 672:.\Generated_Source\PSoC4/LCD.c **** 	{	
 673:.\Generated_Source\PSoC4/LCD.c ****         /* Find the difference between the x vars */
 674:.\Generated_Source\PSoC4/LCD.c **** 		if(x0 > x1)
 675:.\Generated_Source\PSoC4/LCD.c **** 		{
 676:.\Generated_Source\PSoC4/LCD.c **** 			xDiff = x0 - x1; 
 677:.\Generated_Source\PSoC4/LCD.c **** 		}
 678:.\Generated_Source\PSoC4/LCD.c **** 		else
 679:.\Generated_Source\PSoC4/LCD.c **** 		{
 680:.\Generated_Source\PSoC4/LCD.c **** 			xDiff = x1 - x0;
 681:.\Generated_Source\PSoC4/LCD.c **** 		}
 682:.\Generated_Source\PSoC4/LCD.c **** 	
 683:.\Generated_Source\PSoC4/LCD.c **** 	    /* Fill it with lines  */
 684:.\Generated_Source\PSoC4/LCD.c **** 		while(xDiff >= 0)
 685:.\Generated_Source\PSoC4/LCD.c **** 		{
 686:.\Generated_Source\PSoC4/LCD.c **** 			LCD_DrawLine(x0, y0, x0, y1, color);
 687:.\Generated_Source\PSoC4/LCD.c **** 		
 688:.\Generated_Source\PSoC4/LCD.c **** 			if(x0 > x1)
 689:.\Generated_Source\PSoC4/LCD.c **** 				x0--;
 690:.\Generated_Source\PSoC4/LCD.c **** 			else
 691:.\Generated_Source\PSoC4/LCD.c **** 				x0++;
 692:.\Generated_Source\PSoC4/LCD.c **** 		
 693:.\Generated_Source\PSoC4/LCD.c **** 			xDiff--;
 694:.\Generated_Source\PSoC4/LCD.c **** 		}
 695:.\Generated_Source\PSoC4/LCD.c **** 
 696:.\Generated_Source\PSoC4/LCD.c **** 	}
 697:.\Generated_Source\PSoC4/LCD.c **** 	else 
 698:.\Generated_Source\PSoC4/LCD.c **** 	{
 699:.\Generated_Source\PSoC4/LCD.c **** 		/* Draw the four sides of the rectangle */
 700:.\Generated_Source\PSoC4/LCD.c **** 		LCD_DrawLine(x0, y0, x1, y0, color);
 701:.\Generated_Source\PSoC4/LCD.c **** 		LCD_DrawLine(x0, y1, x1, y1, color);
 702:.\Generated_Source\PSoC4/LCD.c **** 		LCD_DrawLine(x0, y0, x0, y1, color);
 703:.\Generated_Source\PSoC4/LCD.c **** 		LCD_DrawLine(x1, y0, x1, y1, color);
 704:.\Generated_Source\PSoC4/LCD.c **** 	}
 705:.\Generated_Source\PSoC4/LCD.c **** }
 706:.\Generated_Source\PSoC4/LCD.c **** 
 707:.\Generated_Source\PSoC4/LCD.c **** 
 708:.\Generated_Source\PSoC4/LCD.c **** /*******************************************************************************
 709:.\Generated_Source\PSoC4/LCD.c **** * Function Name: LCD_Off
 710:.\Generated_Source\PSoC4/LCD.c **** ********************************************************************************
 711:.\Generated_Source\PSoC4/LCD.c **** *
 712:.\Generated_Source\PSoC4/LCD.c **** * Summary:
 713:.\Generated_Source\PSoC4/LCD.c **** *  Turn off display
 714:.\Generated_Source\PSoC4/LCD.c **** *
 715:.\Generated_Source\PSoC4/LCD.c **** * Parameters:  
 716:.\Generated_Source\PSoC4/LCD.c **** *  None 
 717:.\Generated_Source\PSoC4/LCD.c **** *
 718:.\Generated_Source\PSoC4/LCD.c **** * Return: 
 719:.\Generated_Source\PSoC4/LCD.c **** *  None 
 720:.\Generated_Source\PSoC4/LCD.c **** *  
 721:.\Generated_Source\PSoC4/LCD.c **** *******************************************************************************/
ARM GAS  C:\Users\kees\AppData\Local\Temp\cck8dVvn.s 			page 16


 722:.\Generated_Source\PSoC4/LCD.c **** void LCD_Off(void)		/* Turn off the display  */
 723:.\Generated_Source\PSoC4/LCD.c **** {
 724:.\Generated_Source\PSoC4/LCD.c ****     LCD_Command(LCD_DISPOFF);
 725:.\Generated_Source\PSoC4/LCD.c **** }
 726:.\Generated_Source\PSoC4/LCD.c **** 
 727:.\Generated_Source\PSoC4/LCD.c **** /*******************************************************************************
 728:.\Generated_Source\PSoC4/LCD.c **** * Function Name: LCD_On
 729:.\Generated_Source\PSoC4/LCD.c **** ********************************************************************************
 730:.\Generated_Source\PSoC4/LCD.c **** *
 731:.\Generated_Source\PSoC4/LCD.c **** * Summary:
 732:.\Generated_Source\PSoC4/LCD.c **** *  Turn on display
 733:.\Generated_Source\PSoC4/LCD.c **** *
 734:.\Generated_Source\PSoC4/LCD.c **** * Parameters:  
 735:.\Generated_Source\PSoC4/LCD.c **** *  None 
 736:.\Generated_Source\PSoC4/LCD.c **** *
 737:.\Generated_Source\PSoC4/LCD.c **** * Return: 
 738:.\Generated_Source\PSoC4/LCD.c **** *  None 
 739:.\Generated_Source\PSoC4/LCD.c **** *  
 740:.\Generated_Source\PSoC4/LCD.c **** *******************************************************************************/
 741:.\Generated_Source\PSoC4/LCD.c **** void LCD_On(void)		/* Turn on the display */
 742:.\Generated_Source\PSoC4/LCD.c **** {
 131              		.loc 1 742 0
 132              		.cfi_startproc
 133 0000 08B5     		push	{r3, lr}
 134              	.LCFI2:
 135              		.cfi_def_cfa_offset 8
 136              		.cfi_offset 3, -8
 137              		.cfi_offset 14, -4
 743:.\Generated_Source\PSoC4/LCD.c ****     LCD_Command(LCD_DISPON);
 138              		.loc 1 743 0
 139 0002 2920     		mov	r0, #41
 140 0004 FFF7FEFF 		bl	LCD_Command
 744:.\Generated_Source\PSoC4/LCD.c **** }
 141              		.loc 1 744 0
 142              		@ sp needed for prologue
 143 0008 08BD     		pop	{r3, pc}
 144              		.cfi_endproc
 145              	.LFE14:
 146              		.size	LCD_On, .-LCD_On
 147              		.section	.text.LCD_Off,"ax",%progbits
 148              		.align	1
 149              		.global	LCD_Off
 150              		.code	16
 151              		.thumb_func
 152              		.type	LCD_Off, %function
 153              	LCD_Off:
 154              	.LFB13:
 155              		.loc 1 723 0
 156              		.cfi_startproc
 157 0000 08B5     		push	{r3, lr}
 158              	.LCFI3:
 159              		.cfi_def_cfa_offset 8
 160              		.cfi_offset 3, -8
 161              		.cfi_offset 14, -4
 162              		.loc 1 724 0
 163 0002 2820     		mov	r0, #40
 164 0004 FFF7FEFF 		bl	LCD_Command
ARM GAS  C:\Users\kees\AppData\Local\Temp\cck8dVvn.s 			page 17


 165              		.loc 1 725 0
 166              		@ sp needed for prologue
 167 0008 08BD     		pop	{r3, pc}
 168              		.cfi_endproc
 169              	.LFE13:
 170              		.size	LCD_Off, .-LCD_Off
 171              		.section	.text.LCD_PrintChar,"ax",%progbits
 172              		.align	1
 173              		.global	LCD_PrintChar
 174              		.code	16
 175              		.thumb_func
 176              		.type	LCD_PrintChar, %function
 177              	LCD_PrintChar:
 178              	.LFB9:
 179              		.loc 1 412 0
 180              		.cfi_startproc
 181 0000 F0B5     		push	{r4, r5, r6, r7, lr}
 182              	.LCFI4:
 183              		.cfi_def_cfa_offset 20
 184              		.cfi_offset 4, -20
 185              		.cfi_offset 5, -16
 186              		.cfi_offset 6, -12
 187              		.cfi_offset 7, -8
 188              		.cfi_offset 14, -4
 189              	.LVL9:
 190 0002 89B0     		sub	sp, sp, #36
 191              	.LCFI5:
 192              		.cfi_def_cfa_offset 56
 193              		.loc 1 412 0
 194 0004 0793     		str	r3, [sp, #28]
 195              		.loc 1 428 0
 196 0006 364B     		ldr	r3, .L26
 197              	.LVL10:
 198              		.loc 1 412 0
 199 0008 0C1C     		mov	r4, r1
 200              		.loc 1 431 0
 201 000a 1978     		ldrb	r1, [r3]
 202              	.LVL11:
 203              		.loc 1 412 0
 204 000c 161C     		mov	r6, r2
 205              		.loc 1 431 0
 206 000e 0591     		str	r1, [sp, #20]
 207              		.loc 1 432 0
 208 0010 5A78     		ldrb	r2, [r3, #1]
 209              	.LVL12:
 210              		.loc 1 436 0
 211 0012 071C     		mov	r7, r0
 212              		.loc 1 432 0
 213 0014 0692     		str	r2, [sp, #24]
 214              		.loc 1 436 0
 215 0016 9D78     		ldrb	r5, [r3, #2]
 216 0018 1E3F     		sub	r7, r7, #30
 217 001a 6F43     		mul	r7, r5
 218              		.loc 1 491 0
 219 001c 2B20     		mov	r0, #43
 220              	.LVL13:
 221              		.loc 1 436 0
ARM GAS  C:\Users\kees\AppData\Local\Temp\cck8dVvn.s 			page 18


 222 001e 013F     		sub	r7, r7, #1
 223 0020 DF19     		add	r7, r3, r7
 224              	.LVL14:
 225              		.loc 1 491 0
 226 0022 FFF7FEFF 		bl	LCD_Command
 227              	.LVL15:
 228              		.loc 1 492 0
 229 0026 8223     		mov	r3, #130
 230 0028 1C1B     		sub	r4, r3, r4
 231              	.LVL16:
 232 002a E4B2     		uxtb	r4, r4
 233 002c 201C     		mov	r0, r4
 234 002e FFF7FEFF 		bl	LCD_Data
 235              		.loc 1 493 0
 236 0032 0698     		ldr	r0, [sp, #24]
 237              		.loc 1 502 0
 238 0034 013D     		sub	r5, r5, #1
 239              		.loc 1 493 0
 240 0036 0138     		sub	r0, r0, #1
 241 0038 2418     		add	r4, r4, r0
 242 003a E0B2     		uxtb	r0, r4
 243              		.loc 1 496 0
 244 003c 8324     		mov	r4, #131
 245 003e A41B     		sub	r4, r4, r6
 246              		.loc 1 493 0
 247 0040 FFF7FEFF 		bl	LCD_Data
 248              		.loc 1 496 0
 249 0044 E4B2     		uxtb	r4, r4
 250              		.loc 1 495 0
 251 0046 2A20     		mov	r0, #42
 252 0048 FFF7FEFF 		bl	LCD_Command
 253              		.loc 1 496 0
 254 004c 201C     		mov	r0, r4
 255 004e FFF7FEFF 		bl	LCD_Data
 256              		.loc 1 497 0
 257 0052 0598     		ldr	r0, [sp, #20]
 258              		.loc 1 502 0
 259 0054 7D19     		add	r5, r7, r5
 260              		.loc 1 497 0
 261 0056 0138     		sub	r0, r0, #1
 262 0058 2418     		add	r4, r4, r0
 263 005a E0B2     		uxtb	r0, r4
 264 005c FFF7FEFF 		bl	LCD_Data
 265              		.loc 1 500 0
 266 0060 2C20     		mov	r0, #44
 267 0062 FFF7FEFF 		bl	LCD_Command
 268              		.loc 1 502 0
 269 0066 2C1C     		mov	r4, r5
 270 0068 0395     		str	r5, [sp, #12]
 271 006a 30E0     		b	.L25
 272              	.LVL17:
 273              	.L22:
 274              		.loc 1 505 0
 275 006c 6378     		ldrb	r3, [r4, #1]
 276 006e 0121     		mov	r1, #1
 277 0070 0493     		str	r3, [sp, #16]
 278 0072 0191     		str	r1, [sp, #4]
ARM GAS  C:\Users\kees\AppData\Local\Temp\cck8dVvn.s 			page 19


 279 0074 0022     		mov	r2, #0
 280 0076 25E0     		b	.L24
 281              	.L21:
 282              		.loc 1 513 0
 283 0078 019B     		ldr	r3, [sp, #4]
 284 007a 0499     		ldr	r1, [sp, #16]
 285 007c 0B42     		tst	r3, r1
 286 007e 01D1     		bne	.L17
 287 0080 0E9D     		ldr	r5, [sp, #56]
 288              	.LVL18:
 289 0082 00E0     		b	.L18
 290              	.LVL19:
 291              	.L17:
 292 0084 079D     		ldr	r5, [sp, #28]
 293              	.LVL20:
 294              	.L18:
 295              		.loc 1 517 0
 296 0086 019A     		ldr	r2, [sp, #4]
 297              		.loc 1 518 0
 298 0088 0499     		ldr	r1, [sp, #16]
 299              		.loc 1 517 0
 300 008a 5300     		lsl	r3, r2, #1
 301 008c DBB2     		uxtb	r3, r3
 302              	.LVL21:
 303              		.loc 1 518 0
 304 008e 0B42     		tst	r3, r1
 305 0090 01D1     		bne	.L19
 306 0092 0E9E     		ldr	r6, [sp, #56]
 307              	.LVL22:
 308 0094 00E0     		b	.L20
 309              	.LVL23:
 310              	.L19:
 311 0096 079E     		ldr	r6, [sp, #28]
 312              	.LVL24:
 313              	.L20:
 314              		.loc 1 524 0
 315 0098 FF27     		mov	r7, #255
 316              	.LVL25:
 317 009a 2811     		asr	r0, r5, #4
 318              		.loc 1 522 0
 319 009c 5B00     		lsl	r3, r3, #1
 320              	.LVL26:
 321 009e DBB2     		uxtb	r3, r3
 322              		.loc 1 524 0
 323 00a0 3840     		and	r0, r0, r7
 324              		.loc 1 522 0
 325 00a2 0193     		str	r3, [sp, #4]
 326              		.loc 1 524 0
 327 00a4 FFF7FEFF 		bl	LCD_Data
 328              		.loc 1 525 0
 329 00a8 3305     		lsl	r3, r6, #20
 330 00aa 1B0F     		lsr	r3, r3, #28
 331 00ac 2D01     		lsl	r5, r5, #4
 332              	.LVL27:
 333 00ae 181C     		mov	r0, r3
 334 00b0 3D40     		and	r5, r5, r7
 335 00b2 2843     		orr	r0, r0, r5
ARM GAS  C:\Users\kees\AppData\Local\Temp\cck8dVvn.s 			page 20


 336 00b4 FFF7FEFF 		bl	LCD_Data
 337              		.loc 1 526 0
 338 00b8 301C     		mov	r0, r6
 339 00ba 3840     		and	r0, r0, r7
 340 00bc FFF7FEFF 		bl	LCD_Data
 341              		.loc 1 509 0
 342 00c0 029A     		ldr	r2, [sp, #8]
 343 00c2 0232     		add	r2, r2, #2
 344              	.LVL28:
 345              	.L24:
 346 00c4 0292     		str	r2, [sp, #8]
 347 00c6 029B     		ldr	r3, [sp, #8]
 348 00c8 0599     		ldr	r1, [sp, #20]
 349 00ca 8B42     		cmp	r3, r1
 350 00cc D4DB     		blt	.L21
 351              	.L25:
 352              		.loc 1 503 0
 353 00ce 069A     		ldr	r2, [sp, #24]
 354 00d0 0399     		ldr	r1, [sp, #12]
 355              		.loc 1 509 0
 356 00d2 013C     		sub	r4, r4, #1
 357              		.loc 1 503 0
 358 00d4 531A     		sub	r3, r2, r1
 359 00d6 1B19     		add	r3, r3, r4
 360 00d8 0133     		add	r3, r3, #1
 361 00da C7D1     		bne	.L22
 362              		.loc 1 530 0
 363 00dc 09B0     		add	sp, sp, #36
 364              		@ sp needed for prologue
 365              	.LVL29:
 366              	.LVL30:
 367 00de F0BD     		pop	{r4, r5, r6, r7, pc}
 368              	.L27:
 369              		.align	2
 370              	.L26:
 371 00e0 00000000 		.word	LCD_FONT8x16
 372              		.cfi_endproc
 373              	.LFE9:
 374              		.size	LCD_PrintChar, .-LCD_PrintChar
 375              		.section	.text.LCD_PrintString,"ax",%progbits
 376              		.align	1
 377              		.global	LCD_PrintString
 378              		.code	16
 379              		.thumb_func
 380              		.type	LCD_PrintString, %function
 381              	LCD_PrintString:
 382              	.LFB10:
 383              		.loc 1 550 0
 384              		.cfi_startproc
 385 0000 F0B5     		push	{r4, r5, r6, r7, lr}
 386              	.LCFI6:
 387              		.cfi_def_cfa_offset 20
 388              		.cfi_offset 4, -20
 389              		.cfi_offset 5, -16
 390              		.cfi_offset 6, -12
 391              		.cfi_offset 7, -8
 392              		.cfi_offset 14, -4
ARM GAS  C:\Users\kees\AppData\Local\Temp\cck8dVvn.s 			page 21


 393              	.LVL31:
 394              		.loc 1 552 0
 395 0002 171C     		mov	r7, r2
 396              		.loc 1 550 0
 397 0004 85B0     		sub	sp, sp, #20
 398              	.LCFI7:
 399              		.cfi_def_cfa_offset 40
 400              		.loc 1 551 0
 401 0006 0D1C     		mov	r5, r1
 402              		.loc 1 552 0
 403 0008 0837     		add	r7, r7, #8
 404              	.LVL32:
 405              		.loc 1 550 0
 406 000a 061C     		mov	r6, r0
 407 000c 0393     		str	r3, [sp, #12]
 408              		.loc 1 551 0
 409 000e 1035     		add	r5, r5, #16
 410              	.LVL33:
 411              		.loc 1 552 0
 412 0010 3C1C     		mov	r4, r7
 413              		.loc 1 556 0
 414 0012 0EE0     		b	.L29
 415              	.LVL34:
 416              	.L32:
 417              		.loc 1 559 0
 418 0014 0A9B     		ldr	r3, [sp, #40]
 419              	.LVL35:
 420 0016 221C     		mov	r2, r4
 421 0018 0093     		str	r3, [sp]
 422 001a 291C     		mov	r1, r5
 423 001c 039B     		ldr	r3, [sp, #12]
 424              		.loc 1 561 0
 425 001e 0834     		add	r4, r4, #8
 426              		.loc 1 559 0
 427 0020 FFF7FEFF 		bl	LCD_PrintChar
 428              		.loc 1 563 0
 429 0024 832C     		cmp	r4, #131
 430 0026 01DD     		ble	.L30
 431              	.LVL36:
 432              		.loc 1 565 0
 433 0028 1035     		add	r5, r5, #16
 434              	.LVL37:
 435 002a 3C1C     		mov	r4, r7
 436              	.L30:
 437              		.loc 1 568 0
 438 002c 832D     		cmp	r5, #131
 439 002e 03DC     		bgt	.L33
 440              		.loc 1 559 0
 441 0030 0136     		add	r6, r6, #1
 442              	.LVL38:
 443              	.L29:
 444              		.loc 1 556 0
 445 0032 3078     		ldrb	r0, [r6]
 446 0034 0028     		cmp	r0, #0
 447 0036 EDD1     		bne	.L32
 448              	.L33:
 449              		.loc 1 570 0
ARM GAS  C:\Users\kees\AppData\Local\Temp\cck8dVvn.s 			page 22


 450 0038 05B0     		add	sp, sp, #20
 451              		@ sp needed for prologue
 452              	.LVL39:
 453              	.LVL40:
 454              	.LVL41:
 455              	.LVL42:
 456 003a F0BD     		pop	{r4, r5, r6, r7, pc}
 457              		.cfi_endproc
 458              	.LFE10:
 459              		.size	LCD_PrintString, .-LCD_PrintString
 460              		.section	.text.LCD_Pixel,"ax",%progbits
 461              		.align	1
 462              		.global	LCD_Pixel
 463              		.code	16
 464              		.thumb_func
 465              		.type	LCD_Pixel, %function
 466              	LCD_Pixel:
 467              	.LFB7:
 468              		.loc 1 306 0
 469              		.cfi_startproc
 470 0000 F8B5     		push	{r3, r4, r5, r6, r7, lr}
 471              	.LCFI8:
 472              		.cfi_def_cfa_offset 24
 473              		.cfi_offset 3, -24
 474              		.cfi_offset 4, -20
 475              		.cfi_offset 5, -16
 476              		.cfi_offset 6, -12
 477              		.cfi_offset 7, -8
 478              		.cfi_offset 14, -4
 479              	.LVL43:
 480              		.loc 1 327 0
 481 0002 8325     		mov	r5, #131
 482              		.loc 1 306 0
 483 0004 041C     		mov	r4, r0
 484              		.loc 1 327 0
 485 0006 2C1B     		sub	r4, r5, r4
 486 0008 E4B2     		uxtb	r4, r4
 487              		.loc 1 326 0
 488 000a 2B20     		mov	r0, #43
 489              	.LVL44:
 490              		.loc 1 306 0
 491 000c 0F1C     		mov	r7, r1
 492 000e 161C     		mov	r6, r2
 493              		.loc 1 326 0
 494 0010 FFF7FEFF 		bl	LCD_Command
 495              	.LVL45:
 496              		.loc 1 327 0
 497 0014 201C     		mov	r0, r4
 498 0016 FFF7FEFF 		bl	LCD_Data
 499              		.loc 1 328 0
 500 001a 201C     		mov	r0, r4
 501              		.loc 1 331 0
 502 001c EC1B     		sub	r4, r5, r7
 503              		.loc 1 328 0
 504 001e FFF7FEFF 		bl	LCD_Data
 505              		.loc 1 331 0
 506 0022 E4B2     		uxtb	r4, r4
ARM GAS  C:\Users\kees\AppData\Local\Temp\cck8dVvn.s 			page 23


 507              		.loc 1 330 0
 508 0024 2A20     		mov	r0, #42
 509 0026 FFF7FEFF 		bl	LCD_Command
 510              		.loc 1 331 0
 511 002a 201C     		mov	r0, r4
 512 002c FFF7FEFF 		bl	LCD_Data
 513              		.loc 1 332 0
 514 0030 201C     		mov	r0, r4
 515 0032 FFF7FEFF 		bl	LCD_Data
 516              		.loc 1 334 0
 517 0036 2C20     		mov	r0, #44
 518 0038 FFF7FEFF 		bl	LCD_Command
 519              		.loc 1 335 0
 520 003c 3011     		asr	r0, r6, #4
 521 003e C0B2     		uxtb	r0, r0
 522              		.loc 1 336 0
 523 0040 3601     		lsl	r6, r6, #4
 524              	.LVL46:
 525              		.loc 1 335 0
 526 0042 FFF7FEFF 		bl	LCD_Data
 527              		.loc 1 336 0
 528 0046 F0B2     		uxtb	r0, r6
 529 0048 FFF7FEFF 		bl	LCD_Data
 530              		.loc 1 338 0
 531              		@ sp needed for prologue
 532              	.LVL47:
 533 004c F8BD     		pop	{r3, r4, r5, r6, r7, pc}
 534              		.cfi_endproc
 535              	.LFE7:
 536              		.size	LCD_Pixel, .-LCD_Pixel
 537              		.section	.text.LCD_DrawLine,"ax",%progbits
 538              		.align	1
 539              		.global	LCD_DrawLine
 540              		.code	16
 541              		.thumb_func
 542              		.type	LCD_DrawLine, %function
 543              	LCD_DrawLine:
 544              	.LFB11:
 545              		.loc 1 589 0
 546              		.cfi_startproc
 547 0000 F0B5     		push	{r4, r5, r6, r7, lr}
 548              	.LCFI9:
 549              		.cfi_def_cfa_offset 20
 550              		.cfi_offset 4, -20
 551              		.cfi_offset 5, -16
 552              		.cfi_offset 6, -12
 553              		.cfi_offset 7, -8
 554              		.cfi_offset 14, -4
 555              	.LVL48:
 556 0002 87B0     		sub	sp, sp, #28
 557              	.LCFI10:
 558              		.cfi_def_cfa_offset 48
 559              		.loc 1 589 0
 560 0004 0493     		str	r3, [sp, #16]
 561 0006 0D1C     		mov	r5, r1
 562              		.loc 1 594 0
 563 0008 0499     		ldr	r1, [sp, #16]
ARM GAS  C:\Users\kees\AppData\Local\Temp\cck8dVvn.s 			page 24


 564              	.LVL49:
 565              		.loc 1 589 0
 566 000a 061C     		mov	r6, r0
 567 000c 0592     		str	r2, [sp, #20]
 568              		.loc 1 591 0
 569 000e 131A     		sub	r3, r2, r0
 570              	.LVL50:
 571              		.loc 1 594 0
 572 0010 4A1B     		sub	r2, r1, r5
 573 0012 01D4     		bmi	.L37
 574              	.LVL51:
 575 0014 0121     		mov	r1, #1
 576 0016 02E0     		b	.L50
 577              	.L37:
 578              		.loc 1 596 0
 579 0018 0121     		mov	r1, #1
 580 001a 5242     		neg	r2, r2
 581 001c 4942     		neg	r1, r1
 582              	.L50:
 583 001e 0391     		str	r1, [sp, #12]
 584              		.loc 1 604 0
 585 0020 002B     		cmp	r3, #0
 586 0022 01DB     		blt	.L39
 587 0024 0127     		mov	r7, #1
 588              	.LVL52:
 589 0026 02E0     		b	.L40
 590              	.LVL53:
 591              	.L39:
 592              		.loc 1 606 0
 593 0028 0127     		mov	r7, #1
 594              	.LVL54:
 595 002a 5B42     		neg	r3, r3
 596 002c 7F42     		neg	r7, r7
 597              	.L40:
 598              		.loc 1 614 0
 599 002e 5200     		lsl	r2, r2, #1
 600              	.LVL55:
 601              		.loc 1 615 0
 602 0030 5B00     		lsl	r3, r3, #1
 603              	.LVL56:
 604              		.loc 1 614 0
 605 0032 0292     		str	r2, [sp, #8]
 606              		.loc 1 616 0
 607 0034 301C     		mov	r0, r6
 608              	.LVL57:
 609 0036 0C9A     		ldr	r2, [sp, #48]
 610 0038 291C     		mov	r1, r5
 611              		.loc 1 615 0
 612 003a 0193     		str	r3, [sp, #4]
 613              		.loc 1 616 0
 614 003c FFF7FEFF 		bl	LCD_Pixel
 615              		.loc 1 618 0
 616 0040 019A     		ldr	r2, [sp, #4]
 617 0042 029B     		ldr	r3, [sp, #8]
 618 0044 9A42     		cmp	r2, r3
 619 0046 14DD     		ble	.L41
 620              	.LVL58:
ARM GAS  C:\Users\kees\AppData\Local\Temp\cck8dVvn.s 			page 25


 621              	.LBB2:
 622              		.loc 1 620 0
 623 0048 5410     		asr	r4, r2, #1
 624 004a 1C1B     		sub	r4, r3, r4
 625              	.LVL59:
 626              		.loc 1 621 0
 627 004c 0DE0     		b	.L42
 628              	.L44:
 629              		.loc 1 623 0
 630 004e 002C     		cmp	r4, #0
 631 0050 03DB     		blt	.L43
 632              		.loc 1 625 0
 633 0052 0399     		ldr	r1, [sp, #12]
 634              		.loc 1 626 0
 635 0054 019A     		ldr	r2, [sp, #4]
 636              		.loc 1 625 0
 637 0056 6D18     		add	r5, r5, r1
 638              	.LVL60:
 639              		.loc 1 626 0
 640 0058 A41A     		sub	r4, r4, r2
 641              	.LVL61:
 642              	.L43:
 643              		.loc 1 588 0
 644 005a F619     		add	r6, r6, r7
 645              	.LVL62:
 646              		.loc 1 629 0
 647 005c 029B     		ldr	r3, [sp, #8]
 648              		.loc 1 630 0
 649 005e 301C     		mov	r0, r6
 650 0060 291C     		mov	r1, r5
 651 0062 0C9A     		ldr	r2, [sp, #48]
 652              		.loc 1 629 0
 653 0064 E418     		add	r4, r4, r3
 654              	.LVL63:
 655              		.loc 1 630 0
 656 0066 FFF7FEFF 		bl	LCD_Pixel
 657              	.L42:
 658              		.loc 1 621 0
 659 006a 0599     		ldr	r1, [sp, #20]
 660 006c 8E42     		cmp	r6, r1
 661 006e EED1     		bne	.L44
 662 0070 15E0     		b	.L49
 663              	.LVL64:
 664              	.L41:
 665              	.LBE2:
 666              	.LBB3:
 667              		.loc 1 635 0
 668 0072 029A     		ldr	r2, [sp, #8]
 669 0074 019B     		ldr	r3, [sp, #4]
 670 0076 5410     		asr	r4, r2, #1
 671 0078 1C1B     		sub	r4, r3, r4
 672              	.LVL65:
 673              		.loc 1 636 0
 674 007a 0DE0     		b	.L46
 675              	.L48:
 676              		.loc 1 638 0
 677 007c 002C     		cmp	r4, #0
ARM GAS  C:\Users\kees\AppData\Local\Temp\cck8dVvn.s 			page 26


 678 007e 02DB     		blt	.L47
 679              		.loc 1 641 0
 680 0080 0299     		ldr	r1, [sp, #8]
 681              		.loc 1 640 0
 682 0082 F619     		add	r6, r6, r7
 683              	.LVL66:
 684              		.loc 1 641 0
 685 0084 641A     		sub	r4, r4, r1
 686              	.LVL67:
 687              	.L47:
 688              		.loc 1 588 0
 689 0086 039A     		ldr	r2, [sp, #12]
 690              		.loc 1 644 0
 691 0088 019B     		ldr	r3, [sp, #4]
 692              		.loc 1 588 0
 693 008a AD18     		add	r5, r5, r2
 694              	.LVL68:
 695              		.loc 1 645 0
 696 008c 301C     		mov	r0, r6
 697 008e 291C     		mov	r1, r5
 698 0090 0C9A     		ldr	r2, [sp, #48]
 699              		.loc 1 644 0
 700 0092 E418     		add	r4, r4, r3
 701              	.LVL69:
 702              		.loc 1 645 0
 703 0094 FFF7FEFF 		bl	LCD_Pixel
 704              	.L46:
 705              		.loc 1 636 0
 706 0098 0499     		ldr	r1, [sp, #16]
 707 009a 8D42     		cmp	r5, r1
 708 009c EED1     		bne	.L48
 709              	.LVL70:
 710              	.L49:
 711              	.LBE3:
 712              		.loc 1 648 0
 713 009e 07B0     		add	sp, sp, #28
 714              		@ sp needed for prologue
 715              	.LVL71:
 716              	.LVL72:
 717              	.LVL73:
 718              	.LVL74:
 719 00a0 F0BD     		pop	{r4, r5, r6, r7, pc}
 720              		.cfi_endproc
 721              	.LFE11:
 722              		.size	LCD_DrawLine, .-LCD_DrawLine
 723              		.section	.text.LCD_DrawRect,"ax",%progbits
 724              		.align	1
 725              		.global	LCD_DrawRect
 726              		.code	16
 727              		.thumb_func
 728              		.type	LCD_DrawRect, %function
 729              	LCD_DrawRect:
 730              	.LFB12:
 731              		.loc 1 668 0
 732              		.cfi_startproc
 733 0000 F0B5     		push	{r4, r5, r6, r7, lr}
 734              	.LCFI11:
ARM GAS  C:\Users\kees\AppData\Local\Temp\cck8dVvn.s 			page 27


 735              		.cfi_def_cfa_offset 20
 736              		.cfi_offset 4, -20
 737              		.cfi_offset 5, -16
 738              		.cfi_offset 6, -12
 739              		.cfi_offset 7, -8
 740              		.cfi_offset 14, -4
 741              	.LVL75:
 742 0002 85B0     		sub	sp, sp, #20
 743              	.LCFI12:
 744              		.cfi_def_cfa_offset 40
 745              		.loc 1 668 0
 746 0004 0393     		str	r3, [sp, #12]
 747              		.loc 1 671 0
 748 0006 0A9B     		ldr	r3, [sp, #40]
 749              	.LVL76:
 750              		.loc 1 668 0
 751 0008 051C     		mov	r5, r0
 752 000a 0F1C     		mov	r7, r1
 753 000c 161C     		mov	r6, r2
 754              		.loc 1 671 0
 755 000e 002B     		cmp	r3, #0
 756 0010 16D0     		beq	.L52
 757              	.LVL77:
 758              		.loc 1 674 0
 759 0012 B042     		cmp	r0, r6
 760 0014 01DD     		ble	.L53
 761              	.LVL78:
 762              		.loc 1 676 0
 763 0016 841A     		sub	r4, r0, r2
 764              	.LVL79:
 765 0018 0FE0     		b	.L54
 766              	.LVL80:
 767              	.L53:
 768              		.loc 1 680 0
 769 001a 141A     		sub	r4, r2, r0
 770              	.LVL81:
 771 001c 0DE0     		b	.L54
 772              	.LVL82:
 773              	.L57:
 774              		.loc 1 686 0
 775 001e 0B9B     		ldr	r3, [sp, #44]
 776 0020 281C     		mov	r0, r5
 777 0022 0093     		str	r3, [sp]
 778 0024 391C     		mov	r1, r7
 779 0026 2A1C     		mov	r2, r5
 780 0028 039B     		ldr	r3, [sp, #12]
 781 002a FFF7FEFF 		bl	LCD_DrawLine
 782              		.loc 1 688 0
 783 002e B542     		cmp	r5, r6
 784 0030 01DD     		ble	.L55
 785              	.LVL83:
 786              		.loc 1 689 0
 787 0032 013D     		sub	r5, r5, #1
 788 0034 00E0     		b	.L56
 789              	.L55:
 790              		.loc 1 691 0
 791 0036 0135     		add	r5, r5, #1
ARM GAS  C:\Users\kees\AppData\Local\Temp\cck8dVvn.s 			page 28


 792              	.L56:
 793              		.loc 1 693 0
 794 0038 013C     		sub	r4, r4, #1
 795              	.LVL84:
 796              	.L54:
 797              		.loc 1 684 0
 798 003a 002C     		cmp	r4, #0
 799 003c EFDA     		bge	.L57
 800 003e 1CE0     		b	.L59
 801              	.LVL85:
 802              	.L52:
 803              		.loc 1 700 0
 804 0040 0B9B     		ldr	r3, [sp, #44]
 805              	.LVL86:
 806 0042 0093     		str	r3, [sp]
 807 0044 3B1C     		mov	r3, r7
 808 0046 FFF7FEFF 		bl	LCD_DrawLine
 809              		.loc 1 701 0
 810 004a 0B9B     		ldr	r3, [sp, #44]
 811 004c 0399     		ldr	r1, [sp, #12]
 812 004e 0093     		str	r3, [sp]
 813 0050 281C     		mov	r0, r5
 814 0052 0B1C     		mov	r3, r1
 815 0054 321C     		mov	r2, r6
 816 0056 FFF7FEFF 		bl	LCD_DrawLine
 817              		.loc 1 702 0
 818 005a 0B9B     		ldr	r3, [sp, #44]
 819 005c 281C     		mov	r0, r5
 820 005e 0093     		str	r3, [sp]
 821 0060 391C     		mov	r1, r7
 822 0062 2A1C     		mov	r2, r5
 823 0064 039B     		ldr	r3, [sp, #12]
 824 0066 FFF7FEFF 		bl	LCD_DrawLine
 825              		.loc 1 703 0
 826 006a 0B9B     		ldr	r3, [sp, #44]
 827 006c 301C     		mov	r0, r6
 828 006e 0093     		str	r3, [sp]
 829 0070 391C     		mov	r1, r7
 830 0072 321C     		mov	r2, r6
 831 0074 039B     		ldr	r3, [sp, #12]
 832 0076 FFF7FEFF 		bl	LCD_DrawLine
 833              	.LVL87:
 834              	.L59:
 835              		.loc 1 705 0
 836 007a 05B0     		add	sp, sp, #20
 837              		@ sp needed for prologue
 838              	.LVL88:
 839              	.LVL89:
 840              	.LVL90:
 841              	.LVL91:
 842 007c F0BD     		pop	{r4, r5, r6, r7, pc}
 843              		.cfi_endproc
 844              	.LFE12:
 845              		.size	LCD_DrawRect, .-LCD_DrawRect
 846              		.section	.text.LCD_DrawCircle,"ax",%progbits
 847              		.align	1
 848              		.global	LCD_DrawCircle
ARM GAS  C:\Users\kees\AppData\Local\Temp\cck8dVvn.s 			page 29


 849              		.code	16
 850              		.thumb_func
 851              		.type	LCD_DrawCircle, %function
 852              	LCD_DrawCircle:
 853              	.LFB8:
 854              		.loc 1 359 0
 855              		.cfi_startproc
 856 0000 F0B5     		push	{r4, r5, r6, r7, lr}
 857              	.LCFI13:
 858              		.cfi_def_cfa_offset 20
 859              		.cfi_offset 4, -20
 860              		.cfi_offset 5, -16
 861              		.cfi_offset 6, -12
 862              		.cfi_offset 7, -8
 863              		.cfi_offset 14, -4
 864              	.LVL92:
 865 0002 1D1C     		mov	r5, r3
 866              		.loc 1 360 0
 867 0004 0123     		mov	r3, #1
 868              	.LVL93:
 869              		.loc 1 359 0
 870 0006 87B0     		sub	sp, sp, #28
 871              	.LCFI14:
 872              		.cfi_def_cfa_offset 48
 873              		.loc 1 360 0
 874 0008 9B1A     		sub	r3, r3, r2
 875 000a 0293     		str	r3, [sp, #8]
 876              		.loc 1 362 0
 877 000c 5300     		lsl	r3, r2, #1
 878              		.loc 1 359 0
 879 000e 141C     		mov	r4, r2
 880              		.loc 1 362 0
 881 0010 5B42     		neg	r3, r3
 882              		.loc 1 359 0
 883 0012 0091     		str	r1, [sp]
 884              		.loc 1 366 0
 885 0014 5118     		add	r1, r2, r1
 886              	.LVL94:
 887 0016 2A1C     		mov	r2, r5
 888              	.LVL95:
 889              		.loc 1 359 0
 890 0018 071C     		mov	r7, r0
 891              		.loc 1 362 0
 892 001a 0593     		str	r3, [sp, #20]
 893              		.loc 1 366 0
 894 001c FFF7FEFF 		bl	LCD_Pixel
 895              	.LVL96:
 896              		.loc 1 367 0
 897 0020 009A     		ldr	r2, [sp]
 898 0022 381C     		mov	r0, r7
 899 0024 111B     		sub	r1, r2, r4
 900 0026 2A1C     		mov	r2, r5
 901 0028 FFF7FEFF 		bl	LCD_Pixel
 902              		.loc 1 368 0
 903 002c E019     		add	r0, r4, r7
 904 002e 0099     		ldr	r1, [sp]
 905 0030 2A1C     		mov	r2, r5
ARM GAS  C:\Users\kees\AppData\Local\Temp\cck8dVvn.s 			page 30


 906 0032 FFF7FEFF 		bl	LCD_Pixel
 907              		.loc 1 369 0
 908 0036 381B     		sub	r0, r7, r4
 909 0038 0099     		ldr	r1, [sp]
 910 003a 2A1C     		mov	r2, r5
 911 003c FFF7FEFF 		bl	LCD_Pixel
 912 0040 0026     		mov	r6, #0
 913              	.LVL97:
 914 0042 0194     		str	r4, [sp, #4]
 915              		.loc 1 371 0
 916 0044 4DE0     		b	.L61
 917              	.L63:
 918              		.loc 1 373 0
 919 0046 029B     		ldr	r3, [sp, #8]
 920 0048 002B     		cmp	r3, #0
 921 004a 08DB     		blt	.L62
 922              		.loc 1 375 0
 923 004c 019A     		ldr	r2, [sp, #4]
 924              		.loc 1 376 0
 925 004e 059B     		ldr	r3, [sp, #20]
 926              		.loc 1 375 0
 927 0050 013A     		sub	r2, r2, #1
 928 0052 0192     		str	r2, [sp, #4]
 929              		.loc 1 377 0
 930 0054 029A     		ldr	r2, [sp, #8]
 931              		.loc 1 376 0
 932 0056 0233     		add	r3, r3, #2
 933              		.loc 1 377 0
 934 0058 D218     		add	r2, r2, r3
 935              		.loc 1 376 0
 936 005a 0593     		str	r3, [sp, #20]
 937              		.loc 1 377 0
 938 005c 0292     		str	r2, [sp, #8]
 939              	.L62:
 940              		.loc 1 379 0
 941 005e 0136     		add	r6, r6, #1
 942              	.LVL98:
 943              		.loc 1 381 0
 944 0060 029A     		ldr	r2, [sp, #8]
 945 0062 7300     		lsl	r3, r6, #1
 946 0064 0133     		add	r3, r3, #1
 947 0066 D218     		add	r2, r2, r3
 948              		.loc 1 358 0
 949 0068 F319     		add	r3, r6, r7
 950 006a 0493     		str	r3, [sp, #16]
 951              		.loc 1 381 0
 952 006c 0292     		str	r2, [sp, #8]
 953              		.loc 1 383 0
 954 006e 009B     		ldr	r3, [sp]
 955 0070 019A     		ldr	r2, [sp, #4]
 956 0072 0498     		ldr	r0, [sp, #16]
 957 0074 D418     		add	r4, r2, r3
 958              	.LVL99:
 959 0076 211C     		mov	r1, r4
 960 0078 2A1C     		mov	r2, r5
 961 007a FFF7FEFF 		bl	LCD_Pixel
 962 007e BA1B     		sub	r2, r7, r6
ARM GAS  C:\Users\kees\AppData\Local\Temp\cck8dVvn.s 			page 31


 963              		.loc 1 384 0
 964 0080 101C     		mov	r0, r2
 965 0082 211C     		mov	r1, r4
 966              		.loc 1 383 0
 967 0084 0392     		str	r2, [sp, #12]
 968              		.loc 1 384 0
 969 0086 2A1C     		mov	r2, r5
 970 0088 FFF7FEFF 		bl	LCD_Pixel
 971              		.loc 1 385 0
 972 008c 009B     		ldr	r3, [sp]
 973 008e 019A     		ldr	r2, [sp, #4]
 974 0090 0498     		ldr	r0, [sp, #16]
 975 0092 9C1A     		sub	r4, r3, r2
 976 0094 211C     		mov	r1, r4
 977 0096 2A1C     		mov	r2, r5
 978 0098 FFF7FEFF 		bl	LCD_Pixel
 979              		.loc 1 386 0
 980 009c 211C     		mov	r1, r4
 981 009e 0398     		ldr	r0, [sp, #12]
 982 00a0 2A1C     		mov	r2, r5
 983 00a2 FFF7FEFF 		bl	LCD_Pixel
 984              		.loc 1 358 0
 985 00a6 009A     		ldr	r2, [sp]
 986              		.loc 1 387 0
 987 00a8 019B     		ldr	r3, [sp, #4]
 988              		.loc 1 358 0
 989 00aa B418     		add	r4, r6, r2
 990              		.loc 1 387 0
 991 00ac DB19     		add	r3, r3, r7
 992 00ae 181C     		mov	r0, r3
 993 00b0 211C     		mov	r1, r4
 994 00b2 2A1C     		mov	r2, r5
 995 00b4 0493     		str	r3, [sp, #16]
 996 00b6 FFF7FEFF 		bl	LCD_Pixel
 997              		.loc 1 388 0
 998 00ba 019B     		ldr	r3, [sp, #4]
 999 00bc 211C     		mov	r1, r4
 1000 00be FB1A     		sub	r3, r7, r3
 1001 00c0 181C     		mov	r0, r3
 1002 00c2 2A1C     		mov	r2, r5
 1003 00c4 0393     		str	r3, [sp, #12]
 1004 00c6 FFF7FEFF 		bl	LCD_Pixel
 1005 00ca 009A     		ldr	r2, [sp]
 1006              		.loc 1 389 0
 1007 00cc 0498     		ldr	r0, [sp, #16]
 1008              		.loc 1 388 0
 1009 00ce 941B     		sub	r4, r2, r6
 1010              		.loc 1 389 0
 1011 00d0 211C     		mov	r1, r4
 1012 00d2 2A1C     		mov	r2, r5
 1013 00d4 FFF7FEFF 		bl	LCD_Pixel
 1014              		.loc 1 390 0
 1015 00d8 0398     		ldr	r0, [sp, #12]
 1016 00da 211C     		mov	r1, r4
 1017 00dc 2A1C     		mov	r2, r5
 1018 00de FFF7FEFF 		bl	LCD_Pixel
 1019              	.LVL100:
ARM GAS  C:\Users\kees\AppData\Local\Temp\cck8dVvn.s 			page 32


 1020              	.L61:
 1021              		.loc 1 371 0
 1022 00e2 019B     		ldr	r3, [sp, #4]
 1023 00e4 9E42     		cmp	r6, r3
 1024 00e6 AEDB     		blt	.L63
 1025              		.loc 1 392 0
 1026 00e8 07B0     		add	sp, sp, #28
 1027              		@ sp needed for prologue
 1028              	.LVL101:
 1029              	.LVL102:
 1030              	.LVL103:
 1031              	.LVL104:
 1032 00ea F0BD     		pop	{r4, r5, r6, r7, pc}
 1033              		.cfi_endproc
 1034              	.LFE8:
 1035              		.size	LCD_DrawCircle, .-LCD_DrawCircle
 1036              		.section	.text.LCD_Contrast,"ax",%progbits
 1037              		.align	1
 1038              		.global	LCD_Contrast
 1039              		.code	16
 1040              		.thumb_func
 1041              		.type	LCD_Contrast, %function
 1042              	LCD_Contrast:
 1043              	.LFB5:
 1044              		.loc 1 261 0
 1045              		.cfi_startproc
 1046 0000 10B5     		push	{r4, lr}
 1047              	.LCFI15:
 1048              		.cfi_def_cfa_offset 8
 1049              		.cfi_offset 4, -8
 1050              		.cfi_offset 14, -4
 1051              	.LVL105:
 1052              		.loc 1 261 0
 1053 0002 041C     		mov	r4, r0
 1054              		.loc 1 263 0
 1055 0004 2520     		mov	r0, #37
 1056              	.LVL106:
 1057 0006 FFF7FEFF 		bl	LCD_Command
 1058              		.loc 1 264 0
 1059 000a 7F20     		mov	r0, #127
 1060 000c 2040     		and	r0, r0, r4
 1061 000e FFF7FEFF 		bl	LCD_Data
 1062              		.loc 1 270 0
 1063              		@ sp needed for prologue
 1064              	.LVL107:
 1065 0012 10BD     		pop	{r4, pc}
 1066              		.cfi_endproc
 1067              	.LFE5:
 1068              		.size	LCD_Contrast, .-LCD_Contrast
 1069              		.section	.text.LCD_Clear,"ax",%progbits
 1070              		.align	1
 1071              		.global	LCD_Clear
 1072              		.code	16
 1073              		.thumb_func
 1074              		.type	LCD_Clear, %function
 1075              	LCD_Clear:
 1076              	.LFB4:
ARM GAS  C:\Users\kees\AppData\Local\Temp\cck8dVvn.s 			page 33


 1077              		.loc 1 220 0
 1078              		.cfi_startproc
 1079 0000 F8B5     		push	{r3, r4, r5, r6, r7, lr}
 1080              	.LCFI16:
 1081              		.cfi_def_cfa_offset 24
 1082              		.cfi_offset 3, -24
 1083              		.cfi_offset 4, -20
 1084              		.cfi_offset 5, -16
 1085              		.cfi_offset 6, -12
 1086              		.cfi_offset 7, -8
 1087              		.cfi_offset 14, -4
 1088              	.LVL108:
 1089              		.loc 1 220 0
 1090 0002 041C     		mov	r4, r0
 1091              		.loc 1 223 0
 1092 0004 2B20     		mov	r0, #43
 1093              	.LVL109:
 1094 0006 FFF7FEFF 		bl	LCD_Command
 1095              		.loc 1 224 0
 1096 000a 0020     		mov	r0, #0
 1097 000c FFF7FEFF 		bl	LCD_Data
 1098              		.loc 1 225 0
 1099 0010 8320     		mov	r0, #131
 1100 0012 FFF7FEFF 		bl	LCD_Data
 1101              		.loc 1 227 0
 1102 0016 2A20     		mov	r0, #42
 1103 0018 FFF7FEFF 		bl	LCD_Command
 1104              		.loc 1 228 0
 1105 001c 0020     		mov	r0, #0
 1106 001e FFF7FEFF 		bl	LCD_Data
 1107              		.loc 1 229 0
 1108 0022 8320     		mov	r0, #131
 1109 0024 FFF7FEFF 		bl	LCD_Data
 1110              		.loc 1 231 0
 1111 0028 2C20     		mov	r0, #44
 1112 002a FFF7FEFF 		bl	LCD_Command
 1113              		.loc 1 237 0
 1114 002e 2701     		lsl	r7, r4, #4
 1115              		.loc 1 236 0
 1116 0030 FF23     		mov	r3, #255
 1117 0032 2611     		asr	r6, r4, #4
 1118              		.loc 1 237 0
 1119 0034 1F40     		and	r7, r7, r3
 1120 0036 2212     		asr	r2, r4, #8
 1121              		.loc 1 236 0
 1122 0038 1E40     		and	r6, r6, r3
 1123              		.loc 1 237 0
 1124 003a 1743     		orr	r7, r7, r2
 1125 003c 0025     		mov	r5, #0
 1126              	.LVL110:
 1127              	.L68:
 1128              		.loc 1 236 0
 1129 003e 301C     		mov	r0, r6
 1130 0040 FFF7FEFF 		bl	LCD_Data
 1131              		.loc 1 237 0
 1132 0044 381C     		mov	r0, r7
 1133 0046 FFF7FEFF 		bl	LCD_Data
ARM GAS  C:\Users\kees\AppData\Local\Temp\cck8dVvn.s 			page 34


 1134              		.loc 1 238 0
 1135 004a E0B2     		uxtb	r0, r4
 1136 004c FFF7FEFF 		bl	LCD_Data
 1137              		.loc 1 234 0
 1138 0050 044B     		ldr	r3, .L70
 1139 0052 0135     		add	r5, r5, #1
 1140 0054 9D42     		cmp	r5, r3
 1141 0056 F2D1     		bne	.L68
 1142              		.loc 1 241 0
 1143 0058 034B     		ldr	r3, .L70+4
 1144 005a 0022     		mov	r2, #0
 1145 005c 1A60     		str	r2, [r3]
 1146              		.loc 1 242 0
 1147 005e 5A60     		str	r2, [r3, #4]
 1148              		.loc 1 243 0
 1149              		@ sp needed for prologue
 1150              	.LVL111:
 1151              	.LVL112:
 1152 0060 F8BD     		pop	{r3, r4, r5, r6, r7, pc}
 1153              	.L71:
 1154 0062 C046     		.align	2
 1155              	.L70:
 1156 0064 84210000 		.word	8580
 1157 0068 00000000 		.word	.LANCHOR0
 1158              		.cfi_endproc
 1159              	.LFE4:
 1160              		.size	LCD_Clear, .-LCD_Clear
 1161              		.section	.text.LCD_Stop,"ax",%progbits
 1162              		.align	1
 1163              		.global	LCD_Stop
 1164              		.code	16
 1165              		.thumb_func
 1166              		.type	LCD_Stop, %function
 1167              	LCD_Stop:
 1168              	.LFB3:
 1169              		.loc 1 200 0
 1170              		.cfi_startproc
 1171 0000 08B5     		push	{r3, lr}
 1172              	.LCFI17:
 1173              		.cfi_def_cfa_offset 8
 1174              		.cfi_offset 3, -8
 1175              		.cfi_offset 14, -4
 1176              		.loc 1 201 0
 1177 0002 0020     		mov	r0, #0
 1178 0004 FFF7FEFF 		bl	LCD_Clear
 1179              		.loc 1 202 0
 1180 0008 2820     		mov	r0, #40
 1181 000a FFF7FEFF 		bl	LCD_Command
 1182              		.loc 1 203 0
 1183              		@ sp needed for prologue
 1184 000e 08BD     		pop	{r3, pc}
 1185              		.cfi_endproc
 1186              	.LFE3:
 1187              		.size	LCD_Stop, .-LCD_Stop
 1188              		.section	.text.LCD_Start,"ax",%progbits
 1189              		.align	1
 1190              		.global	LCD_Start
ARM GAS  C:\Users\kees\AppData\Local\Temp\cck8dVvn.s 			page 35


 1191              		.code	16
 1192              		.thumb_func
 1193              		.type	LCD_Start, %function
 1194              	LCD_Start:
 1195              	.LFB2:
 1196              		.loc 1 118 0
 1197              		.cfi_startproc
 1198 0000 08B5     		push	{r3, lr}
 1199              	.LCFI18:
 1200              		.cfi_def_cfa_offset 8
 1201              		.cfi_offset 3, -8
 1202              		.cfi_offset 14, -4
 1203              		.loc 1 120 0
 1204 0002 FFF7FEFF 		bl	LCD_SPIM_UDB_Start
 1205              		.loc 1 125 0
 1206 0006 1420     		mov	r0, #20
 1207 0008 FFF7FEFF 		bl	CyDelayUs
 1208              		.loc 1 126 0
 1209 000c 0020     		mov	r0, #0
 1210 000e FFF7FEFF 		bl	LCD_Reset_Write
 1211              		.loc 1 127 0
 1212 0012 C820     		mov	r0, #200
 1213 0014 FFF7FEFF 		bl	CyDelay
 1214              		.loc 1 128 0
 1215 0018 FF20     		mov	r0, #255
 1216 001a FFF7FEFF 		bl	LCD_Reset_Write
 1217              		.loc 1 129 0
 1218 001e C820     		mov	r0, #200
 1219 0020 FFF7FEFF 		bl	CyDelay
 1220              		.loc 1 166 0
 1221 0024 1120     		mov	r0, #17
 1222 0026 FFF7FEFF 		bl	LCD_Command
 1223              		.loc 1 167 0
 1224 002a 0320     		mov	r0, #3
 1225 002c FFF7FEFF 		bl	LCD_Command
 1226              		.loc 1 168 0
 1227 0030 2920     		mov	r0, #41
 1228 0032 FFF7FEFF 		bl	LCD_Command
 1229              		.loc 1 171 0
 1230 0036 3A20     		mov	r0, #58
 1231 0038 FFF7FEFF 		bl	LCD_Command
 1232              		.loc 1 172 0
 1233 003c 0320     		mov	r0, #3
 1234 003e FFF7FEFF 		bl	LCD_Data
 1235              		.loc 1 174 0
 1236 0042 3620     		mov	r0, #54
 1237 0044 FFF7FEFF 		bl	LCD_Command
 1238              		.loc 1 175 0
 1239 0048 2520     		mov	r0, #37
 1240 004a FFF7FEFF 		bl	LCD_Command
 1241              		.loc 1 176 0
 1242 004e 3020     		mov	r0, #48
 1243 0050 FFF7FEFF 		bl	LCD_Data
 1244              		.loc 1 178 0
 1245 0054 0020     		mov	r0, #0
 1246 0056 FFF7FEFF 		bl	LCD_Command
 1247              		.loc 1 181 0
ARM GAS  C:\Users\kees\AppData\Local\Temp\cck8dVvn.s 			page 36


 1248 005a 3C20     		mov	r0, #60
 1249 005c FFF7FEFF 		bl	LCD_Contrast
 1250              		.loc 1 182 0
 1251 0060 0020     		mov	r0, #0
 1252 0062 FFF7FEFF 		bl	LCD_Clear
 1253              		.loc 1 183 0
 1254              		@ sp needed for prologue
 1255 0066 08BD     		pop	{r3, pc}
 1256              		.cfi_endproc
 1257              	.LFE2:
 1258              		.size	LCD_Start, .-LCD_Start
 1259              		.comm	LCD_FONT8x16,1552,4
 1260              		.comm	LCD_driver,1,1
 1261              		.bss
 1262              		.align	2
 1263              		.set	.LANCHOR0,. + 0
 1264              		.type	LCD_x_offset, %object
 1265              		.size	LCD_x_offset, 4
 1266              	LCD_x_offset:
 1267 0000 00000000 		.space	4
 1268              		.type	LCD_y_offset, %object
 1269              		.size	LCD_y_offset, 4
 1270              	LCD_y_offset:
 1271 0004 00000000 		.space	4
 1272              		.text
 1273              	.Letext0: