ARM GAS  C:\Users\kees\AppData\Local\Temp\ccjXjOyJ.s 			page 1


   1              		.cpu cortex-m0
   2              		.fpu softvfp
   3              		.eabi_attribute 20, 1
   4              		.eabi_attribute 21, 1
   5              		.eabi_attribute 23, 3
   6              		.eabi_attribute 24, 1
   7              		.eabi_attribute 25, 1
   8              		.eabi_attribute 26, 1
   9              		.eabi_attribute 30, 4
  10              		.eabi_attribute 18, 4
  11              		.code	16
  12              		.file	"LCD_SPIM_UDB_PM.c"
  19 0000 CC000000 		.text
  19      02007A00 
  19      00000201 
  19      FB0E0D00 
  19      01010101 
  20              	.Ltext0:
  21              		.cfi_sections	.debug_frame
  22              		.section	.text.LCD_SPIM_UDB_SaveConfig,"ax",%progbits
  23              		.align	1
  24              		.global	LCD_SPIM_UDB_SaveConfig
  25              		.code	16
  26              		.thumb_func
  27              		.type	LCD_SPIM_UDB_SaveConfig, %function
  28              	LCD_SPIM_UDB_SaveConfig:
  29              	.LFB0:
  30              		.file 1 ".\\Generated_Source\\PSoC4\\LCD_SPIM_UDB_PM.c"
   1:.\Generated_Source\PSoC4/LCD_SPIM_UDB_PM.c **** /*******************************************************************************
   2:.\Generated_Source\PSoC4/LCD_SPIM_UDB_PM.c **** * File Name: LCD_SPIM_UDB_PM.c
   3:.\Generated_Source\PSoC4/LCD_SPIM_UDB_PM.c **** * Version 2.40
   4:.\Generated_Source\PSoC4/LCD_SPIM_UDB_PM.c **** *
   5:.\Generated_Source\PSoC4/LCD_SPIM_UDB_PM.c **** * Description:
   6:.\Generated_Source\PSoC4/LCD_SPIM_UDB_PM.c **** *  This file contains the setup, control and status commands to support
   7:.\Generated_Source\PSoC4/LCD_SPIM_UDB_PM.c **** *  component operations in low power mode.
   8:.\Generated_Source\PSoC4/LCD_SPIM_UDB_PM.c **** *
   9:.\Generated_Source\PSoC4/LCD_SPIM_UDB_PM.c **** * Note:
  10:.\Generated_Source\PSoC4/LCD_SPIM_UDB_PM.c **** *
  11:.\Generated_Source\PSoC4/LCD_SPIM_UDB_PM.c **** ********************************************************************************
  12:.\Generated_Source\PSoC4/LCD_SPIM_UDB_PM.c **** * Copyright 2008-2012, Cypress Semiconductor Corporation.  All rights reserved.
  13:.\Generated_Source\PSoC4/LCD_SPIM_UDB_PM.c **** * You may use this file only in accordance with the license, terms, conditions,
  14:.\Generated_Source\PSoC4/LCD_SPIM_UDB_PM.c **** * disclaimers, and limitations in the end user license agreement accompanying
  15:.\Generated_Source\PSoC4/LCD_SPIM_UDB_PM.c **** * the software package with which this file was provided.
  16:.\Generated_Source\PSoC4/LCD_SPIM_UDB_PM.c **** *******************************************************************************/
  17:.\Generated_Source\PSoC4/LCD_SPIM_UDB_PM.c **** 
  18:.\Generated_Source\PSoC4/LCD_SPIM_UDB_PM.c **** #include "LCD_SPIM_UDB_PVT.h"
  19:.\Generated_Source\PSoC4/LCD_SPIM_UDB_PM.c **** 
  20:.\Generated_Source\PSoC4/LCD_SPIM_UDB_PM.c **** static LCD_SPIM_UDB_BACKUP_STRUCT LCD_SPIM_UDB_backup =
  21:.\Generated_Source\PSoC4/LCD_SPIM_UDB_PM.c **** {
  22:.\Generated_Source\PSoC4/LCD_SPIM_UDB_PM.c ****     LCD_SPIM_UDB_DISABLED,
  23:.\Generated_Source\PSoC4/LCD_SPIM_UDB_PM.c ****     LCD_SPIM_UDB_BITCTR_INIT,
ARM GAS  C:\Users\kees\AppData\Local\Temp\ccjXjOyJ.s 			page 2


  24:.\Generated_Source\PSoC4/LCD_SPIM_UDB_PM.c ****     #if(CY_UDB_V0)
  25:.\Generated_Source\PSoC4/LCD_SPIM_UDB_PM.c ****         LCD_SPIM_UDB_TX_INIT_INTERRUPTS_MASK,
  26:.\Generated_Source\PSoC4/LCD_SPIM_UDB_PM.c ****         LCD_SPIM_UDB_RX_INIT_INTERRUPTS_MASK
  27:.\Generated_Source\PSoC4/LCD_SPIM_UDB_PM.c ****     #endif /* CY_UDB_V0 */
  28:.\Generated_Source\PSoC4/LCD_SPIM_UDB_PM.c **** };
  29:.\Generated_Source\PSoC4/LCD_SPIM_UDB_PM.c **** 
  30:.\Generated_Source\PSoC4/LCD_SPIM_UDB_PM.c **** 
  31:.\Generated_Source\PSoC4/LCD_SPIM_UDB_PM.c **** /*******************************************************************************
  32:.\Generated_Source\PSoC4/LCD_SPIM_UDB_PM.c **** * Function Name: LCD_SPIM_UDB_SaveConfig
  33:.\Generated_Source\PSoC4/LCD_SPIM_UDB_PM.c **** ********************************************************************************
  34:.\Generated_Source\PSoC4/LCD_SPIM_UDB_PM.c **** *
  35:.\Generated_Source\PSoC4/LCD_SPIM_UDB_PM.c **** * Summary:
  36:.\Generated_Source\PSoC4/LCD_SPIM_UDB_PM.c **** *  Saves SPIM configuration.
  37:.\Generated_Source\PSoC4/LCD_SPIM_UDB_PM.c **** *
  38:.\Generated_Source\PSoC4/LCD_SPIM_UDB_PM.c **** * Parameters:
  39:.\Generated_Source\PSoC4/LCD_SPIM_UDB_PM.c **** *  None.
  40:.\Generated_Source\PSoC4/LCD_SPIM_UDB_PM.c **** *
  41:.\Generated_Source\PSoC4/LCD_SPIM_UDB_PM.c **** * Return:
  42:.\Generated_Source\PSoC4/LCD_SPIM_UDB_PM.c **** *  None.
  43:.\Generated_Source\PSoC4/LCD_SPIM_UDB_PM.c **** *
  44:.\Generated_Source\PSoC4/LCD_SPIM_UDB_PM.c **** * Global Variables:
  45:.\Generated_Source\PSoC4/LCD_SPIM_UDB_PM.c **** *  LCD_SPIM_UDB_backup - modified when non-retention registers are saved.
  46:.\Generated_Source\PSoC4/LCD_SPIM_UDB_PM.c **** *
  47:.\Generated_Source\PSoC4/LCD_SPIM_UDB_PM.c **** * Reentrant:
  48:.\Generated_Source\PSoC4/LCD_SPIM_UDB_PM.c **** *  No.
  49:.\Generated_Source\PSoC4/LCD_SPIM_UDB_PM.c **** *
  50:.\Generated_Source\PSoC4/LCD_SPIM_UDB_PM.c **** *******************************************************************************/
  51:.\Generated_Source\PSoC4/LCD_SPIM_UDB_PM.c **** void LCD_SPIM_UDB_SaveConfig(void) 
  52:.\Generated_Source\PSoC4/LCD_SPIM_UDB_PM.c **** {
  31              		.loc 1 52 0
  32              		.cfi_startproc
  53:.\Generated_Source\PSoC4/LCD_SPIM_UDB_PM.c ****     /* Store Status Mask registers */
  54:.\Generated_Source\PSoC4/LCD_SPIM_UDB_PM.c ****     #if(CY_UDB_V0)
  55:.\Generated_Source\PSoC4/LCD_SPIM_UDB_PM.c ****        LCD_SPIM_UDB_backup.cntrPeriod      = LCD_SPIM_UDB_COUNTER_PERIOD_REG;
  56:.\Generated_Source\PSoC4/LCD_SPIM_UDB_PM.c ****        LCD_SPIM_UDB_backup.saveSrTxIntMask = LCD_SPIM_UDB_TX_STATUS_MASK_REG;
  57:.\Generated_Source\PSoC4/LCD_SPIM_UDB_PM.c ****        LCD_SPIM_UDB_backup.saveSrRxIntMask = LCD_SPIM_UDB_RX_STATUS_MASK_REG;
  58:.\Generated_Source\PSoC4/LCD_SPIM_UDB_PM.c ****     #endif /* (CY_UDB_V0) */
  59:.\Generated_Source\PSoC4/LCD_SPIM_UDB_PM.c **** }
  33              		.loc 1 59 0
  34              		@ sp needed for prologue
  35 0000 7047     		bx	lr
  36              		.cfi_endproc
  37              	.LFE0:
  38              		.size	LCD_SPIM_UDB_SaveConfig, .-LCD_SPIM_UDB_SaveConfig
  39              		.section	.text.LCD_SPIM_UDB_RestoreConfig,"ax",%progbits
  40              		.align	1
  41              		.global	LCD_SPIM_UDB_RestoreConfig
  42              		.code	16
  43              		.thumb_func
  44              		.type	LCD_SPIM_UDB_RestoreConfig, %function
  45              	LCD_SPIM_UDB_RestoreConfig:
  46              	.LFB1:
  60:.\Generated_Source\PSoC4/LCD_SPIM_UDB_PM.c **** 
  61:.\Generated_Source\PSoC4/LCD_SPIM_UDB_PM.c **** 
  62:.\Generated_Source\PSoC4/LCD_SPIM_UDB_PM.c **** /*******************************************************************************
  63:.\Generated_Source\PSoC4/LCD_SPIM_UDB_PM.c **** * Function Name: LCD_SPIM_UDB_RestoreConfig
  64:.\Generated_Source\PSoC4/LCD_SPIM_UDB_PM.c **** ********************************************************************************
ARM GAS  C:\Users\kees\AppData\Local\Temp\ccjXjOyJ.s 			page 3


  65:.\Generated_Source\PSoC4/LCD_SPIM_UDB_PM.c **** *
  66:.\Generated_Source\PSoC4/LCD_SPIM_UDB_PM.c **** * Summary:
  67:.\Generated_Source\PSoC4/LCD_SPIM_UDB_PM.c **** *  Restores SPIM configuration.
  68:.\Generated_Source\PSoC4/LCD_SPIM_UDB_PM.c **** *
  69:.\Generated_Source\PSoC4/LCD_SPIM_UDB_PM.c **** * Parameters:
  70:.\Generated_Source\PSoC4/LCD_SPIM_UDB_PM.c **** *  None.
  71:.\Generated_Source\PSoC4/LCD_SPIM_UDB_PM.c **** *
  72:.\Generated_Source\PSoC4/LCD_SPIM_UDB_PM.c **** * Return:
  73:.\Generated_Source\PSoC4/LCD_SPIM_UDB_PM.c **** *  None.
  74:.\Generated_Source\PSoC4/LCD_SPIM_UDB_PM.c **** *
  75:.\Generated_Source\PSoC4/LCD_SPIM_UDB_PM.c **** * Global Variables:
  76:.\Generated_Source\PSoC4/LCD_SPIM_UDB_PM.c **** *  LCD_SPIM_UDB_backup - used when non-retention registers are restored.
  77:.\Generated_Source\PSoC4/LCD_SPIM_UDB_PM.c **** *
  78:.\Generated_Source\PSoC4/LCD_SPIM_UDB_PM.c **** * Side Effects:
  79:.\Generated_Source\PSoC4/LCD_SPIM_UDB_PM.c **** *  If this API is called without first calling SaveConfig then in the following
  80:.\Generated_Source\PSoC4/LCD_SPIM_UDB_PM.c **** *  registers will be default values from Customizer:
  81:.\Generated_Source\PSoC4/LCD_SPIM_UDB_PM.c **** *  LCD_SPIM_UDB_STATUS_MASK_REG and LCD_SPIM_UDB_COUNTER_PERIOD_REG.
  82:.\Generated_Source\PSoC4/LCD_SPIM_UDB_PM.c **** *
  83:.\Generated_Source\PSoC4/LCD_SPIM_UDB_PM.c **** *******************************************************************************/
  84:.\Generated_Source\PSoC4/LCD_SPIM_UDB_PM.c **** void LCD_SPIM_UDB_RestoreConfig(void) 
  85:.\Generated_Source\PSoC4/LCD_SPIM_UDB_PM.c **** {
  47              		.loc 1 85 0
  48              		.cfi_startproc
  86:.\Generated_Source\PSoC4/LCD_SPIM_UDB_PM.c ****     /* Restore the data, saved by SaveConfig() function */
  87:.\Generated_Source\PSoC4/LCD_SPIM_UDB_PM.c ****     #if(CY_UDB_V0)
  88:.\Generated_Source\PSoC4/LCD_SPIM_UDB_PM.c ****         LCD_SPIM_UDB_COUNTER_PERIOD_REG = LCD_SPIM_UDB_backup.cntrPeriod;
  89:.\Generated_Source\PSoC4/LCD_SPIM_UDB_PM.c ****         LCD_SPIM_UDB_TX_STATUS_MASK_REG = ((uint8) LCD_SPIM_UDB_backup.saveSrTxIntMask);
  90:.\Generated_Source\PSoC4/LCD_SPIM_UDB_PM.c ****         LCD_SPIM_UDB_RX_STATUS_MASK_REG = ((uint8) LCD_SPIM_UDB_backup.saveSrRxIntMask);
  91:.\Generated_Source\PSoC4/LCD_SPIM_UDB_PM.c ****     #endif /* (CY_UDB_V0) */
  92:.\Generated_Source\PSoC4/LCD_SPIM_UDB_PM.c **** }
  49              		.loc 1 92 0
  50              		@ sp needed for prologue
  51 0000 7047     		bx	lr
  52              		.cfi_endproc
  53              	.LFE1:
  54              		.size	LCD_SPIM_UDB_RestoreConfig, .-LCD_SPIM_UDB_RestoreConfig
  55              		.section	.text.LCD_SPIM_UDB_Wakeup,"ax",%progbits
  56              		.align	1
  57              		.global	LCD_SPIM_UDB_Wakeup
  58              		.code	16
  59              		.thumb_func
  60              		.type	LCD_SPIM_UDB_Wakeup, %function
  61              	LCD_SPIM_UDB_Wakeup:
  62              	.LFB3:
  93:.\Generated_Source\PSoC4/LCD_SPIM_UDB_PM.c **** 
  94:.\Generated_Source\PSoC4/LCD_SPIM_UDB_PM.c **** 
  95:.\Generated_Source\PSoC4/LCD_SPIM_UDB_PM.c **** /*******************************************************************************
  96:.\Generated_Source\PSoC4/LCD_SPIM_UDB_PM.c **** * Function Name: LCD_SPIM_UDB_Sleep
  97:.\Generated_Source\PSoC4/LCD_SPIM_UDB_PM.c **** ********************************************************************************
  98:.\Generated_Source\PSoC4/LCD_SPIM_UDB_PM.c **** *
  99:.\Generated_Source\PSoC4/LCD_SPIM_UDB_PM.c **** * Summary:
 100:.\Generated_Source\PSoC4/LCD_SPIM_UDB_PM.c **** *  Prepare SPIM Component goes to sleep.
 101:.\Generated_Source\PSoC4/LCD_SPIM_UDB_PM.c **** *
 102:.\Generated_Source\PSoC4/LCD_SPIM_UDB_PM.c **** * Parameters:
 103:.\Generated_Source\PSoC4/LCD_SPIM_UDB_PM.c **** *  None.
 104:.\Generated_Source\PSoC4/LCD_SPIM_UDB_PM.c **** *
 105:.\Generated_Source\PSoC4/LCD_SPIM_UDB_PM.c **** * Return:
ARM GAS  C:\Users\kees\AppData\Local\Temp\ccjXjOyJ.s 			page 4


 106:.\Generated_Source\PSoC4/LCD_SPIM_UDB_PM.c **** *  None.
 107:.\Generated_Source\PSoC4/LCD_SPIM_UDB_PM.c **** *
 108:.\Generated_Source\PSoC4/LCD_SPIM_UDB_PM.c **** * Global Variables:
 109:.\Generated_Source\PSoC4/LCD_SPIM_UDB_PM.c **** *  LCD_SPIM_UDB_backup - modified when non-retention registers are saved.
 110:.\Generated_Source\PSoC4/LCD_SPIM_UDB_PM.c **** *
 111:.\Generated_Source\PSoC4/LCD_SPIM_UDB_PM.c **** * Reentrant:
 112:.\Generated_Source\PSoC4/LCD_SPIM_UDB_PM.c **** *  No.
 113:.\Generated_Source\PSoC4/LCD_SPIM_UDB_PM.c **** *
 114:.\Generated_Source\PSoC4/LCD_SPIM_UDB_PM.c **** *******************************************************************************/
 115:.\Generated_Source\PSoC4/LCD_SPIM_UDB_PM.c **** void LCD_SPIM_UDB_Sleep(void) 
 116:.\Generated_Source\PSoC4/LCD_SPIM_UDB_PM.c **** {
 117:.\Generated_Source\PSoC4/LCD_SPIM_UDB_PM.c ****     /* Save components enable state */
 118:.\Generated_Source\PSoC4/LCD_SPIM_UDB_PM.c ****     LCD_SPIM_UDB_backup.enableState = ((uint8) LCD_SPIM_UDB_IS_ENABLED);
 119:.\Generated_Source\PSoC4/LCD_SPIM_UDB_PM.c **** 
 120:.\Generated_Source\PSoC4/LCD_SPIM_UDB_PM.c ****     LCD_SPIM_UDB_Stop();
 121:.\Generated_Source\PSoC4/LCD_SPIM_UDB_PM.c ****     LCD_SPIM_UDB_SaveConfig();
 122:.\Generated_Source\PSoC4/LCD_SPIM_UDB_PM.c **** }
 123:.\Generated_Source\PSoC4/LCD_SPIM_UDB_PM.c **** 
 124:.\Generated_Source\PSoC4/LCD_SPIM_UDB_PM.c **** 
 125:.\Generated_Source\PSoC4/LCD_SPIM_UDB_PM.c **** /*******************************************************************************
 126:.\Generated_Source\PSoC4/LCD_SPIM_UDB_PM.c **** * Function Name: LCD_SPIM_UDB_Wakeup
 127:.\Generated_Source\PSoC4/LCD_SPIM_UDB_PM.c **** ********************************************************************************
 128:.\Generated_Source\PSoC4/LCD_SPIM_UDB_PM.c **** *
 129:.\Generated_Source\PSoC4/LCD_SPIM_UDB_PM.c **** * Summary:
 130:.\Generated_Source\PSoC4/LCD_SPIM_UDB_PM.c **** *  Prepare SPIM Component to wake up.
 131:.\Generated_Source\PSoC4/LCD_SPIM_UDB_PM.c **** *
 132:.\Generated_Source\PSoC4/LCD_SPIM_UDB_PM.c **** * Parameters:
 133:.\Generated_Source\PSoC4/LCD_SPIM_UDB_PM.c **** *  None.
 134:.\Generated_Source\PSoC4/LCD_SPIM_UDB_PM.c **** *
 135:.\Generated_Source\PSoC4/LCD_SPIM_UDB_PM.c **** * Return:
 136:.\Generated_Source\PSoC4/LCD_SPIM_UDB_PM.c **** *  None.
 137:.\Generated_Source\PSoC4/LCD_SPIM_UDB_PM.c **** *
 138:.\Generated_Source\PSoC4/LCD_SPIM_UDB_PM.c **** * Global Variables:
 139:.\Generated_Source\PSoC4/LCD_SPIM_UDB_PM.c **** *  LCD_SPIM_UDB_backup - used when non-retention registers are restored.
 140:.\Generated_Source\PSoC4/LCD_SPIM_UDB_PM.c **** *  LCD_SPIM_UDB_txBufferWrite - modified every function call - resets to
 141:.\Generated_Source\PSoC4/LCD_SPIM_UDB_PM.c **** *  zero.
 142:.\Generated_Source\PSoC4/LCD_SPIM_UDB_PM.c **** *  LCD_SPIM_UDB_txBufferRead - modified every function call - resets to
 143:.\Generated_Source\PSoC4/LCD_SPIM_UDB_PM.c **** *  zero.
 144:.\Generated_Source\PSoC4/LCD_SPIM_UDB_PM.c **** *  LCD_SPIM_UDB_rxBufferWrite - modified every function call - resets to
 145:.\Generated_Source\PSoC4/LCD_SPIM_UDB_PM.c **** *  zero.
 146:.\Generated_Source\PSoC4/LCD_SPIM_UDB_PM.c **** *  LCD_SPIM_UDB_rxBufferRead - modified every function call - resets to
 147:.\Generated_Source\PSoC4/LCD_SPIM_UDB_PM.c **** *  zero.
 148:.\Generated_Source\PSoC4/LCD_SPIM_UDB_PM.c **** *
 149:.\Generated_Source\PSoC4/LCD_SPIM_UDB_PM.c **** * Reentrant:
 150:.\Generated_Source\PSoC4/LCD_SPIM_UDB_PM.c **** *  No.
 151:.\Generated_Source\PSoC4/LCD_SPIM_UDB_PM.c **** *
 152:.\Generated_Source\PSoC4/LCD_SPIM_UDB_PM.c **** *******************************************************************************/
 153:.\Generated_Source\PSoC4/LCD_SPIM_UDB_PM.c **** void LCD_SPIM_UDB_Wakeup(void) 
 154:.\Generated_Source\PSoC4/LCD_SPIM_UDB_PM.c **** {
  63              		.loc 1 154 0
  64              		.cfi_startproc
  65 0000 08B5     		push	{r3, lr}
  66              	.LCFI0:
  67              		.cfi_def_cfa_offset 8
  68              		.cfi_offset 3, -8
  69              		.cfi_offset 14, -4
 155:.\Generated_Source\PSoC4/LCD_SPIM_UDB_PM.c ****     LCD_SPIM_UDB_RestoreConfig();
ARM GAS  C:\Users\kees\AppData\Local\Temp\ccjXjOyJ.s 			page 5


 156:.\Generated_Source\PSoC4/LCD_SPIM_UDB_PM.c **** 
 157:.\Generated_Source\PSoC4/LCD_SPIM_UDB_PM.c ****     #if(LCD_SPIM_UDB_RX_SOFTWARE_BUF_ENABLED)
 158:.\Generated_Source\PSoC4/LCD_SPIM_UDB_PM.c ****         LCD_SPIM_UDB_rxBufferFull  = 0u;
 159:.\Generated_Source\PSoC4/LCD_SPIM_UDB_PM.c ****         LCD_SPIM_UDB_rxBufferRead  = 0u;
 160:.\Generated_Source\PSoC4/LCD_SPIM_UDB_PM.c ****         LCD_SPIM_UDB_rxBufferWrite = 0u;
 161:.\Generated_Source\PSoC4/LCD_SPIM_UDB_PM.c ****     #endif /* (LCD_SPIM_UDB_RX_SOFTWARE_BUF_ENABLED) */
 162:.\Generated_Source\PSoC4/LCD_SPIM_UDB_PM.c **** 
 163:.\Generated_Source\PSoC4/LCD_SPIM_UDB_PM.c ****     #if(LCD_SPIM_UDB_TX_SOFTWARE_BUF_ENABLED)
 164:.\Generated_Source\PSoC4/LCD_SPIM_UDB_PM.c ****         LCD_SPIM_UDB_txBufferFull  = 0u;
 165:.\Generated_Source\PSoC4/LCD_SPIM_UDB_PM.c ****         LCD_SPIM_UDB_txBufferRead  = 0u;
 166:.\Generated_Source\PSoC4/LCD_SPIM_UDB_PM.c ****         LCD_SPIM_UDB_txBufferWrite = 0u;
 167:.\Generated_Source\PSoC4/LCD_SPIM_UDB_PM.c ****     #endif /* (LCD_SPIM_UDB_TX_SOFTWARE_BUF_ENABLED) */
 168:.\Generated_Source\PSoC4/LCD_SPIM_UDB_PM.c **** 
 169:.\Generated_Source\PSoC4/LCD_SPIM_UDB_PM.c ****     /* Clear any data from the RX and TX FIFO */
 170:.\Generated_Source\PSoC4/LCD_SPIM_UDB_PM.c ****     LCD_SPIM_UDB_ClearFIFO();
  70              		.loc 1 170 0
  71 0002 FFF7FEFF 		bl	LCD_SPIM_UDB_ClearFIFO
 171:.\Generated_Source\PSoC4/LCD_SPIM_UDB_PM.c **** 
 172:.\Generated_Source\PSoC4/LCD_SPIM_UDB_PM.c ****     /* Restore components block enable state */
 173:.\Generated_Source\PSoC4/LCD_SPIM_UDB_PM.c ****     if(0u != LCD_SPIM_UDB_backup.enableState)
  72              		.loc 1 173 0
  73 0006 034B     		ldr	r3, .L9
  74 0008 1B78     		ldrb	r3, [r3]
  75 000a 002B     		cmp	r3, #0
  76 000c 01D0     		beq	.L7
 174:.\Generated_Source\PSoC4/LCD_SPIM_UDB_PM.c ****     {
 175:.\Generated_Source\PSoC4/LCD_SPIM_UDB_PM.c ****         LCD_SPIM_UDB_Enable();
  77              		.loc 1 175 0
  78 000e FFF7FEFF 		bl	LCD_SPIM_UDB_Enable
  79              	.L7:
 176:.\Generated_Source\PSoC4/LCD_SPIM_UDB_PM.c ****     }
 177:.\Generated_Source\PSoC4/LCD_SPIM_UDB_PM.c **** }
  80              		.loc 1 177 0
  81              		@ sp needed for prologue
  82 0012 08BD     		pop	{r3, pc}
  83              	.L10:
  84              		.align	2
  85              	.L9:
  86 0014 00000000 		.word	.LANCHOR0
  87              		.cfi_endproc
  88              	.LFE3:
  89              		.size	LCD_SPIM_UDB_Wakeup, .-LCD_SPIM_UDB_Wakeup
  90              		.section	.text.LCD_SPIM_UDB_Sleep,"ax",%progbits
  91              		.align	1
  92              		.global	LCD_SPIM_UDB_Sleep
  93              		.code	16
  94              		.thumb_func
  95              		.type	LCD_SPIM_UDB_Sleep, %function
  96              	LCD_SPIM_UDB_Sleep:
  97              	.LFB2:
  98              		.loc 1 116 0
  99              		.cfi_startproc
 100 0000 08B5     		push	{r3, lr}
 101              	.LCFI1:
 102              		.cfi_def_cfa_offset 8
 103              		.cfi_offset 3, -8
 104              		.cfi_offset 14, -4
ARM GAS  C:\Users\kees\AppData\Local\Temp\ccjXjOyJ.s 			page 6


 105              		.loc 1 118 0
 106 0002 044B     		ldr	r3, .L13
 107              		.loc 1 122 0
 108              		@ sp needed for prologue
 109              		.loc 1 118 0
 110 0004 1A78     		ldrb	r2, [r3]
 111 0006 044B     		ldr	r3, .L13+4
 112 0008 D206     		lsl	r2, r2, #27
 113 000a D20F     		lsr	r2, r2, #31
 114 000c 1A70     		strb	r2, [r3]
 115              		.loc 1 120 0
 116 000e FFF7FEFF 		bl	LCD_SPIM_UDB_Stop
 117              		.loc 1 122 0
 118 0012 08BD     		pop	{r3, pc}
 119              	.L14:
 120              		.align	2
 121              	.L13:
 122 0014 92000F40 		.word	1074725010
 123 0018 00000000 		.word	.LANCHOR0
 124              		.cfi_endproc
 125              	.LFE2:
 126              		.size	LCD_SPIM_UDB_Sleep, .-LCD_SPIM_UDB_Sleep
 127              		.data
 128              		.align	2
 129              		.set	.LANCHOR0,. + 0
 130              		.type	LCD_SPIM_UDB_backup, %object
 131              		.size	LCD_SPIM_UDB_backup, 2
 132              	LCD_SPIM_UDB_backup:
 133 0000 00       		.byte	0
 134 0001 11       		.byte	17
 135 0002 0000     		.text
 136              	.Letext0: