ARM GAS  C:\Users\kees\AppData\Local\Temp\ccUP3zdC.s 			page 1


   1              		.cpu cortex-m0
   2              		.fpu softvfp
   3              		.eabi_attribute 20, 1
   4              		.eabi_attribute 21, 1
   5              		.eabi_attribute 23, 3
   6              		.eabi_attribute 24, 1
   7              		.eabi_attribute 25, 1
   8              		.eabi_attribute 26, 1
   9              		.eabi_attribute 30, 4
  10              		.eabi_attribute 18, 4
  11              		.code	16
  12              		.file	"LCD_SPIM_SCB_PM.c"
  19 0000 B0000000 		.text
  19      02007A00 
  19      00000201 
  19      FB0E0D00 
  19      01010101 
  20              	.Ltext0:
  21              		.cfi_sections	.debug_frame
  22              		.section	.text.LCD_SPIM_SCB_Wakeup,"ax",%progbits
  23              		.align	1
  24              		.global	LCD_SPIM_SCB_Wakeup
  25              		.code	16
  26              		.thumb_func
  27              		.type	LCD_SPIM_SCB_Wakeup, %function
  28              	LCD_SPIM_SCB_Wakeup:
  29              	.LFB1:
  30              		.file 1 ".\\Generated_Source\\PSoC4\\LCD_SPIM_SCB_PM.c"
   1:.\Generated_Source\PSoC4/LCD_SPIM_SCB_PM.c **** /*******************************************************************************
   2:.\Generated_Source\PSoC4/LCD_SPIM_SCB_PM.c **** * File Name: LCD_SPIM_SCB_PM.c
   3:.\Generated_Source\PSoC4/LCD_SPIM_SCB_PM.c **** * Version 1.0
   4:.\Generated_Source\PSoC4/LCD_SPIM_SCB_PM.c **** *
   5:.\Generated_Source\PSoC4/LCD_SPIM_SCB_PM.c **** * Description:
   6:.\Generated_Source\PSoC4/LCD_SPIM_SCB_PM.c **** *  This file provides the source code to the Power Management support for
   7:.\Generated_Source\PSoC4/LCD_SPIM_SCB_PM.c **** *  the SCB Component.
   8:.\Generated_Source\PSoC4/LCD_SPIM_SCB_PM.c **** *
   9:.\Generated_Source\PSoC4/LCD_SPIM_SCB_PM.c **** * Note:
  10:.\Generated_Source\PSoC4/LCD_SPIM_SCB_PM.c **** *
  11:.\Generated_Source\PSoC4/LCD_SPIM_SCB_PM.c **** ********************************************************************************
  12:.\Generated_Source\PSoC4/LCD_SPIM_SCB_PM.c **** * Copyright 2013, Cypress Semiconductor Corporation.  All rights reserved.
  13:.\Generated_Source\PSoC4/LCD_SPIM_SCB_PM.c **** * You may use this file only in accordance with the license, terms, conditions,
  14:.\Generated_Source\PSoC4/LCD_SPIM_SCB_PM.c **** * disclaimers, and limitations in the end user license agreement accompanying
  15:.\Generated_Source\PSoC4/LCD_SPIM_SCB_PM.c **** * the software package with which this file was provided.
  16:.\Generated_Source\PSoC4/LCD_SPIM_SCB_PM.c **** *******************************************************************************/
  17:.\Generated_Source\PSoC4/LCD_SPIM_SCB_PM.c **** 
  18:.\Generated_Source\PSoC4/LCD_SPIM_SCB_PM.c **** #include "LCD_SPIM_SCB.h"
  19:.\Generated_Source\PSoC4/LCD_SPIM_SCB_PM.c **** 
  20:.\Generated_Source\PSoC4/LCD_SPIM_SCB_PM.c **** #if(LCD_SPIM_SCB_SCB_MODE_I2C_INC)
  21:.\Generated_Source\PSoC4/LCD_SPIM_SCB_PM.c ****     #include "LCD_SPIM_SCB_I2C_PVT.h"
  22:.\Generated_Source\PSoC4/LCD_SPIM_SCB_PM.c **** #endif /* (LCD_SPIM_SCB_SCB_MODE_I2C_INC) */
  23:.\Generated_Source\PSoC4/LCD_SPIM_SCB_PM.c **** 
ARM GAS  C:\Users\kees\AppData\Local\Temp\ccUP3zdC.s 			page 2


  24:.\Generated_Source\PSoC4/LCD_SPIM_SCB_PM.c **** #if(LCD_SPIM_SCB_SCB_MODE_SPI_INC || LCD_SPIM_SCB_SCB_MODE_UART_INC)
  25:.\Generated_Source\PSoC4/LCD_SPIM_SCB_PM.c ****     #include "LCD_SPIM_SCB_SPI_UART_PVT.h"
  26:.\Generated_Source\PSoC4/LCD_SPIM_SCB_PM.c **** #endif /* (LCD_SPIM_SCB_SCB_MODE_SPI_INC || LCD_SPIM_SCB_SCB_MODE_UART_INC) */
  27:.\Generated_Source\PSoC4/LCD_SPIM_SCB_PM.c **** 
  28:.\Generated_Source\PSoC4/LCD_SPIM_SCB_PM.c **** 
  29:.\Generated_Source\PSoC4/LCD_SPIM_SCB_PM.c **** /***************************************
  30:.\Generated_Source\PSoC4/LCD_SPIM_SCB_PM.c **** *   Backup Structure declaration
  31:.\Generated_Source\PSoC4/LCD_SPIM_SCB_PM.c **** ***************************************/
  32:.\Generated_Source\PSoC4/LCD_SPIM_SCB_PM.c **** 
  33:.\Generated_Source\PSoC4/LCD_SPIM_SCB_PM.c **** LCD_SPIM_SCB_BACKUP_STRUCT LCD_SPIM_SCB_backup =
  34:.\Generated_Source\PSoC4/LCD_SPIM_SCB_PM.c **** {
  35:.\Generated_Source\PSoC4/LCD_SPIM_SCB_PM.c ****     0u, /* enableState */
  36:.\Generated_Source\PSoC4/LCD_SPIM_SCB_PM.c **** };
  37:.\Generated_Source\PSoC4/LCD_SPIM_SCB_PM.c **** 
  38:.\Generated_Source\PSoC4/LCD_SPIM_SCB_PM.c **** 
  39:.\Generated_Source\PSoC4/LCD_SPIM_SCB_PM.c **** /*******************************************************************************
  40:.\Generated_Source\PSoC4/LCD_SPIM_SCB_PM.c **** * Function Name: LCD_SPIM_SCB_Sleep
  41:.\Generated_Source\PSoC4/LCD_SPIM_SCB_PM.c **** ********************************************************************************
  42:.\Generated_Source\PSoC4/LCD_SPIM_SCB_PM.c **** *
  43:.\Generated_Source\PSoC4/LCD_SPIM_SCB_PM.c **** * Summary:
  44:.\Generated_Source\PSoC4/LCD_SPIM_SCB_PM.c **** *  Calls SaveConfig function fucntion for selected mode.
  45:.\Generated_Source\PSoC4/LCD_SPIM_SCB_PM.c **** *
  46:.\Generated_Source\PSoC4/LCD_SPIM_SCB_PM.c **** * Parameters:
  47:.\Generated_Source\PSoC4/LCD_SPIM_SCB_PM.c **** *  None
  48:.\Generated_Source\PSoC4/LCD_SPIM_SCB_PM.c **** *
  49:.\Generated_Source\PSoC4/LCD_SPIM_SCB_PM.c **** * Return:
  50:.\Generated_Source\PSoC4/LCD_SPIM_SCB_PM.c **** *  None
  51:.\Generated_Source\PSoC4/LCD_SPIM_SCB_PM.c **** *
  52:.\Generated_Source\PSoC4/LCD_SPIM_SCB_PM.c **** *******************************************************************************/
  53:.\Generated_Source\PSoC4/LCD_SPIM_SCB_PM.c **** void LCD_SPIM_SCB_Sleep(void)
  54:.\Generated_Source\PSoC4/LCD_SPIM_SCB_PM.c **** {
  55:.\Generated_Source\PSoC4/LCD_SPIM_SCB_PM.c ****     LCD_SPIM_SCB_backup.enableState = (uint8) LCD_SPIM_SCB_GET_CTRL_ENABLED;
  56:.\Generated_Source\PSoC4/LCD_SPIM_SCB_PM.c **** 
  57:.\Generated_Source\PSoC4/LCD_SPIM_SCB_PM.c ****     #if(LCD_SPIM_SCB_SCB_MODE_UNCONFIG_CONST_CFG)
  58:.\Generated_Source\PSoC4/LCD_SPIM_SCB_PM.c **** 
  59:.\Generated_Source\PSoC4/LCD_SPIM_SCB_PM.c ****         if(LCD_SPIM_SCB_SCB_MODE_I2C_RUNTM_CFG)
  60:.\Generated_Source\PSoC4/LCD_SPIM_SCB_PM.c ****         {
  61:.\Generated_Source\PSoC4/LCD_SPIM_SCB_PM.c ****             LCD_SPIM_SCB_I2CSaveConfig();
  62:.\Generated_Source\PSoC4/LCD_SPIM_SCB_PM.c ****         }
  63:.\Generated_Source\PSoC4/LCD_SPIM_SCB_PM.c ****         else if(LCD_SPIM_SCB_SCB_MODE_SPI_RUNTM_CFG)
  64:.\Generated_Source\PSoC4/LCD_SPIM_SCB_PM.c ****         {
  65:.\Generated_Source\PSoC4/LCD_SPIM_SCB_PM.c ****             LCD_SPIM_SCB_SpiSaveConfig();
  66:.\Generated_Source\PSoC4/LCD_SPIM_SCB_PM.c ****         }
  67:.\Generated_Source\PSoC4/LCD_SPIM_SCB_PM.c ****         else if(LCD_SPIM_SCB_SCB_MODE_UART_RUNTM_CFG)
  68:.\Generated_Source\PSoC4/LCD_SPIM_SCB_PM.c ****         {
  69:.\Generated_Source\PSoC4/LCD_SPIM_SCB_PM.c ****             LCD_SPIM_SCB_UartSaveConfig();
  70:.\Generated_Source\PSoC4/LCD_SPIM_SCB_PM.c ****         }
  71:.\Generated_Source\PSoC4/LCD_SPIM_SCB_PM.c ****         else
  72:.\Generated_Source\PSoC4/LCD_SPIM_SCB_PM.c ****         {
  73:.\Generated_Source\PSoC4/LCD_SPIM_SCB_PM.c ****             /* Unknown mode: do nothing */
  74:.\Generated_Source\PSoC4/LCD_SPIM_SCB_PM.c ****         }
  75:.\Generated_Source\PSoC4/LCD_SPIM_SCB_PM.c **** 
  76:.\Generated_Source\PSoC4/LCD_SPIM_SCB_PM.c ****     #elif(LCD_SPIM_SCB_SCB_MODE_I2C_CONST_CFG)
  77:.\Generated_Source\PSoC4/LCD_SPIM_SCB_PM.c ****         LCD_SPIM_SCB_I2CSaveConfig();
  78:.\Generated_Source\PSoC4/LCD_SPIM_SCB_PM.c **** 
  79:.\Generated_Source\PSoC4/LCD_SPIM_SCB_PM.c ****     #elif(LCD_SPIM_SCB_SCB_MODE_SPI_CONST_CFG)
  80:.\Generated_Source\PSoC4/LCD_SPIM_SCB_PM.c ****         LCD_SPIM_SCB_SpiSaveConfig();
ARM GAS  C:\Users\kees\AppData\Local\Temp\ccUP3zdC.s 			page 3


  81:.\Generated_Source\PSoC4/LCD_SPIM_SCB_PM.c **** 
  82:.\Generated_Source\PSoC4/LCD_SPIM_SCB_PM.c ****     #elif(LCD_SPIM_SCB_SCB_MODE_UART_CONST_CFG)
  83:.\Generated_Source\PSoC4/LCD_SPIM_SCB_PM.c ****         LCD_SPIM_SCB_UartSaveConfig();
  84:.\Generated_Source\PSoC4/LCD_SPIM_SCB_PM.c **** 
  85:.\Generated_Source\PSoC4/LCD_SPIM_SCB_PM.c ****     #else
  86:.\Generated_Source\PSoC4/LCD_SPIM_SCB_PM.c ****         /* Do nothing */
  87:.\Generated_Source\PSoC4/LCD_SPIM_SCB_PM.c **** 
  88:.\Generated_Source\PSoC4/LCD_SPIM_SCB_PM.c ****     #endif /* (LCD_SPIM_SCB_SCB_MODE_UNCONFIG_CONST_CFG) */
  89:.\Generated_Source\PSoC4/LCD_SPIM_SCB_PM.c **** 
  90:.\Generated_Source\PSoC4/LCD_SPIM_SCB_PM.c ****     if(0u != LCD_SPIM_SCB_backup.enableState)
  91:.\Generated_Source\PSoC4/LCD_SPIM_SCB_PM.c ****     {
  92:.\Generated_Source\PSoC4/LCD_SPIM_SCB_PM.c ****         LCD_SPIM_SCB_Stop();
  93:.\Generated_Source\PSoC4/LCD_SPIM_SCB_PM.c ****     }
  94:.\Generated_Source\PSoC4/LCD_SPIM_SCB_PM.c **** }
  95:.\Generated_Source\PSoC4/LCD_SPIM_SCB_PM.c **** 
  96:.\Generated_Source\PSoC4/LCD_SPIM_SCB_PM.c **** 
  97:.\Generated_Source\PSoC4/LCD_SPIM_SCB_PM.c **** /*******************************************************************************
  98:.\Generated_Source\PSoC4/LCD_SPIM_SCB_PM.c **** * Function Name: LCD_SPIM_SCB_Wakeup
  99:.\Generated_Source\PSoC4/LCD_SPIM_SCB_PM.c **** ********************************************************************************
 100:.\Generated_Source\PSoC4/LCD_SPIM_SCB_PM.c **** *
 101:.\Generated_Source\PSoC4/LCD_SPIM_SCB_PM.c **** * Summary:
 102:.\Generated_Source\PSoC4/LCD_SPIM_SCB_PM.c **** *  Calls RestoreConfig function fucntion for selected mode.
 103:.\Generated_Source\PSoC4/LCD_SPIM_SCB_PM.c **** *
 104:.\Generated_Source\PSoC4/LCD_SPIM_SCB_PM.c **** * Parameters:
 105:.\Generated_Source\PSoC4/LCD_SPIM_SCB_PM.c **** *  None
 106:.\Generated_Source\PSoC4/LCD_SPIM_SCB_PM.c **** *
 107:.\Generated_Source\PSoC4/LCD_SPIM_SCB_PM.c **** * Return:
 108:.\Generated_Source\PSoC4/LCD_SPIM_SCB_PM.c **** *  None
 109:.\Generated_Source\PSoC4/LCD_SPIM_SCB_PM.c **** *
 110:.\Generated_Source\PSoC4/LCD_SPIM_SCB_PM.c **** *******************************************************************************/
 111:.\Generated_Source\PSoC4/LCD_SPIM_SCB_PM.c **** void LCD_SPIM_SCB_Wakeup(void)
 112:.\Generated_Source\PSoC4/LCD_SPIM_SCB_PM.c **** {
  31              		.loc 1 112 0
  32              		.cfi_startproc
  33 0000 08B5     		push	{r3, lr}
  34              	.LCFI0:
  35              		.cfi_def_cfa_offset 8
  36              		.cfi_offset 3, -8
  37              		.cfi_offset 14, -4
 113:.\Generated_Source\PSoC4/LCD_SPIM_SCB_PM.c ****     #if(LCD_SPIM_SCB_SCB_MODE_UNCONFIG_CONST_CFG)
 114:.\Generated_Source\PSoC4/LCD_SPIM_SCB_PM.c **** 
 115:.\Generated_Source\PSoC4/LCD_SPIM_SCB_PM.c ****         if(LCD_SPIM_SCB_SCB_MODE_I2C_RUNTM_CFG)
 116:.\Generated_Source\PSoC4/LCD_SPIM_SCB_PM.c ****         {
 117:.\Generated_Source\PSoC4/LCD_SPIM_SCB_PM.c ****             LCD_SPIM_SCB_I2CRestoreConfig();
 118:.\Generated_Source\PSoC4/LCD_SPIM_SCB_PM.c ****         }
 119:.\Generated_Source\PSoC4/LCD_SPIM_SCB_PM.c ****         else if(LCD_SPIM_SCB_SCB_MODE_SPI_RUNTM_CFG)
 120:.\Generated_Source\PSoC4/LCD_SPIM_SCB_PM.c ****         {
 121:.\Generated_Source\PSoC4/LCD_SPIM_SCB_PM.c ****             LCD_SPIM_SCB_SpiRestoreConfig();
 122:.\Generated_Source\PSoC4/LCD_SPIM_SCB_PM.c ****         }
 123:.\Generated_Source\PSoC4/LCD_SPIM_SCB_PM.c ****         else if(LCD_SPIM_SCB_SCB_MODE_UART_RUNTM_CFG)
 124:.\Generated_Source\PSoC4/LCD_SPIM_SCB_PM.c ****         {
 125:.\Generated_Source\PSoC4/LCD_SPIM_SCB_PM.c ****             LCD_SPIM_SCB_UartRestoreConfig();
 126:.\Generated_Source\PSoC4/LCD_SPIM_SCB_PM.c ****         }
 127:.\Generated_Source\PSoC4/LCD_SPIM_SCB_PM.c ****         else
 128:.\Generated_Source\PSoC4/LCD_SPIM_SCB_PM.c ****         {
 129:.\Generated_Source\PSoC4/LCD_SPIM_SCB_PM.c ****             /* Unknown mode: do nothing */
 130:.\Generated_Source\PSoC4/LCD_SPIM_SCB_PM.c ****         }
ARM GAS  C:\Users\kees\AppData\Local\Temp\ccUP3zdC.s 			page 4


 131:.\Generated_Source\PSoC4/LCD_SPIM_SCB_PM.c **** 
 132:.\Generated_Source\PSoC4/LCD_SPIM_SCB_PM.c ****     #elif(LCD_SPIM_SCB_SCB_MODE_I2C_CONST_CFG)
 133:.\Generated_Source\PSoC4/LCD_SPIM_SCB_PM.c ****         LCD_SPIM_SCB_I2CRestoreConfig();
 134:.\Generated_Source\PSoC4/LCD_SPIM_SCB_PM.c **** 
 135:.\Generated_Source\PSoC4/LCD_SPIM_SCB_PM.c ****     #elif(LCD_SPIM_SCB_SCB_MODE_SPI_CONST_CFG)
 136:.\Generated_Source\PSoC4/LCD_SPIM_SCB_PM.c ****         LCD_SPIM_SCB_SpiRestoreConfig();
  38              		.loc 1 136 0
  39 0002 FFF7FEFF 		bl	LCD_SPIM_SCB_SpiRestoreConfig
 137:.\Generated_Source\PSoC4/LCD_SPIM_SCB_PM.c **** 
 138:.\Generated_Source\PSoC4/LCD_SPIM_SCB_PM.c ****     #elif(LCD_SPIM_SCB_SCB_MODE_UART_CONST_CFG)
 139:.\Generated_Source\PSoC4/LCD_SPIM_SCB_PM.c ****         LCD_SPIM_SCB_UartRestoreConfig();
 140:.\Generated_Source\PSoC4/LCD_SPIM_SCB_PM.c **** 
 141:.\Generated_Source\PSoC4/LCD_SPIM_SCB_PM.c ****     #else
 142:.\Generated_Source\PSoC4/LCD_SPIM_SCB_PM.c ****         /* Do nothing */
 143:.\Generated_Source\PSoC4/LCD_SPIM_SCB_PM.c **** 
 144:.\Generated_Source\PSoC4/LCD_SPIM_SCB_PM.c ****     #endif /* (LCD_SPIM_SCB_SCB_MODE_UNCONFIG_CONST_CFG) */
 145:.\Generated_Source\PSoC4/LCD_SPIM_SCB_PM.c **** 
 146:.\Generated_Source\PSoC4/LCD_SPIM_SCB_PM.c ****     if(0u != LCD_SPIM_SCB_backup.enableState)
  40              		.loc 1 146 0
  41 0006 034B     		ldr	r3, .L5
  42 0008 1B78     		ldrb	r3, [r3]
  43 000a 002B     		cmp	r3, #0
  44 000c 01D0     		beq	.L3
 147:.\Generated_Source\PSoC4/LCD_SPIM_SCB_PM.c ****     {
 148:.\Generated_Source\PSoC4/LCD_SPIM_SCB_PM.c ****         LCD_SPIM_SCB_Enable();
  45              		.loc 1 148 0
  46 000e FFF7FEFF 		bl	LCD_SPIM_SCB_Enable
  47              	.L3:
 149:.\Generated_Source\PSoC4/LCD_SPIM_SCB_PM.c ****     }
 150:.\Generated_Source\PSoC4/LCD_SPIM_SCB_PM.c **** }
  48              		.loc 1 150 0
  49              		@ sp needed for prologue
  50 0012 08BD     		pop	{r3, pc}
  51              	.L6:
  52              		.align	2
  53              	.L5:
  54 0014 00000000 		.word	.LANCHOR0
  55              		.cfi_endproc
  56              	.LFE1:
  57              		.size	LCD_SPIM_SCB_Wakeup, .-LCD_SPIM_SCB_Wakeup
  58              		.section	.text.LCD_SPIM_SCB_Sleep,"ax",%progbits
  59              		.align	1
  60              		.global	LCD_SPIM_SCB_Sleep
  61              		.code	16
  62              		.thumb_func
  63              		.type	LCD_SPIM_SCB_Sleep, %function
  64              	LCD_SPIM_SCB_Sleep:
  65              	.LFB0:
  66              		.loc 1 54 0
  67              		.cfi_startproc
  68 0000 10B5     		push	{r4, lr}
  69              	.LCFI1:
  70              		.cfi_def_cfa_offset 8
  71              		.cfi_offset 4, -8
  72              		.cfi_offset 14, -4
  73              		.loc 1 55 0
  74 0002 064B     		ldr	r3, .L10
ARM GAS  C:\Users\kees\AppData\Local\Temp\ccUP3zdC.s 			page 5


  75 0004 064C     		ldr	r4, .L10+4
  76 0006 1B68     		ldr	r3, [r3]
  77 0008 DB0F     		lsr	r3, r3, #31
  78 000a 2370     		strb	r3, [r4]
  79              		.loc 1 80 0
  80 000c FFF7FEFF 		bl	LCD_SPIM_SCB_SpiSaveConfig
  81              		.loc 1 90 0
  82 0010 2378     		ldrb	r3, [r4]
  83 0012 002B     		cmp	r3, #0
  84 0014 01D0     		beq	.L9
  85              		.loc 1 92 0
  86 0016 FFF7FEFF 		bl	LCD_SPIM_SCB_Stop
  87              	.L9:
  88              		.loc 1 94 0
  89              		@ sp needed for prologue
  90 001a 10BD     		pop	{r4, pc}
  91              	.L11:
  92              		.align	2
  93              	.L10:
  94 001c 00000740 		.word	1074200576
  95 0020 00000000 		.word	.LANCHOR0
  96              		.cfi_endproc
  97              	.LFE0:
  98              		.size	LCD_SPIM_SCB_Sleep, .-LCD_SPIM_SCB_Sleep
  99              		.global	LCD_SPIM_SCB_backup
 100              		.bss
 101              		.align	2
 102              		.set	.LANCHOR0,. + 0
 103              		.type	LCD_SPIM_SCB_backup, %object
 104              		.size	LCD_SPIM_SCB_backup, 1
 105              	LCD_SPIM_SCB_backup:
 106 0000 00       		.space	1
 107 0001 000000   		.text
 108              	.Letext0: