ARM GAS  C:\Users\kees\AppData\Local\Temp\cckzdCcV.s 			page 1


   1              		.cpu cortex-m0
   2              		.fpu softvfp
   3              		.eabi_attribute 20, 1
   4              		.eabi_attribute 21, 1
   5              		.eabi_attribute 23, 3
   6              		.eabi_attribute 24, 1
   7              		.eabi_attribute 25, 1
   8              		.eabi_attribute 26, 1
   9              		.eabi_attribute 30, 4
  10              		.eabi_attribute 18, 4
  11              		.code	16
  12              		.file	"LCD_SPIM.c"
  19 0000 92020000 		.text
  19      02006100 
  19      00000201 
  19      FB0E0D00 
  19      01010101 
  20              	.Ltext0:
  21              		.cfi_sections	.debug_frame
  22              		.section	.text.LCD_SPIM_EnableTxInt,"ax",%progbits
  23              		.align	1
  24              		.global	LCD_SPIM_EnableTxInt
  25              		.code	16
  26              		.thumb_func
  27              		.type	LCD_SPIM_EnableTxInt, %function
  28              	LCD_SPIM_EnableTxInt:
  29              	.LFB4:
  30              		.file 1 ".\\Generated_Source\\PSoC4\\LCD_SPIM.c"
   1:.\Generated_Source\PSoC4/LCD_SPIM.c **** /*******************************************************************************
   2:.\Generated_Source\PSoC4/LCD_SPIM.c **** * File Name: LCD_SPIM.c
   3:.\Generated_Source\PSoC4/LCD_SPIM.c **** * Version 2.40
   4:.\Generated_Source\PSoC4/LCD_SPIM.c **** *
   5:.\Generated_Source\PSoC4/LCD_SPIM.c **** * Description:
   6:.\Generated_Source\PSoC4/LCD_SPIM.c **** *  This file provides all API functionality of the SPI Master component.
   7:.\Generated_Source\PSoC4/LCD_SPIM.c **** *
   8:.\Generated_Source\PSoC4/LCD_SPIM.c **** * Note:
   9:.\Generated_Source\PSoC4/LCD_SPIM.c **** *  None.
  10:.\Generated_Source\PSoC4/LCD_SPIM.c **** *
  11:.\Generated_Source\PSoC4/LCD_SPIM.c **** ********************************************************************************
  12:.\Generated_Source\PSoC4/LCD_SPIM.c **** * Copyright 2008-2012, Cypress Semiconductor Corporation.  All rights reserved.
  13:.\Generated_Source\PSoC4/LCD_SPIM.c **** * You may use this file only in accordance with the license, terms, conditions,
  14:.\Generated_Source\PSoC4/LCD_SPIM.c **** * disclaimers, and limitations in the end user license agreement accompanying
  15:.\Generated_Source\PSoC4/LCD_SPIM.c **** * the software package with which this file was provided.
  16:.\Generated_Source\PSoC4/LCD_SPIM.c **** *******************************************************************************/
  17:.\Generated_Source\PSoC4/LCD_SPIM.c **** 
  18:.\Generated_Source\PSoC4/LCD_SPIM.c **** #include "LCD_SPIM_PVT.h"
  19:.\Generated_Source\PSoC4/LCD_SPIM.c **** 
  20:.\Generated_Source\PSoC4/LCD_SPIM.c **** #if(LCD_SPIM_TX_SOFTWARE_BUF_ENABLED)
  21:.\Generated_Source\PSoC4/LCD_SPIM.c ****     volatile uint16 LCD_SPIM_txBuffer[LCD_SPIM_TX_BUFFER_SIZE] = {0u};
  22:.\Generated_Source\PSoC4/LCD_SPIM.c ****     volatile uint8 LCD_SPIM_txBufferFull;
  23:.\Generated_Source\PSoC4/LCD_SPIM.c ****     volatile uint8 LCD_SPIM_txBufferRead;
ARM GAS  C:\Users\kees\AppData\Local\Temp\cckzdCcV.s 			page 2


  24:.\Generated_Source\PSoC4/LCD_SPIM.c ****     volatile uint8 LCD_SPIM_txBufferWrite;
  25:.\Generated_Source\PSoC4/LCD_SPIM.c **** #endif /* (LCD_SPIM_TX_SOFTWARE_BUF_ENABLED) */
  26:.\Generated_Source\PSoC4/LCD_SPIM.c **** 
  27:.\Generated_Source\PSoC4/LCD_SPIM.c **** #if(LCD_SPIM_RX_SOFTWARE_BUF_ENABLED)
  28:.\Generated_Source\PSoC4/LCD_SPIM.c ****     volatile uint16 LCD_SPIM_rxBuffer[LCD_SPIM_RX_BUFFER_SIZE] = {0u};
  29:.\Generated_Source\PSoC4/LCD_SPIM.c ****     volatile uint8 LCD_SPIM_rxBufferFull;
  30:.\Generated_Source\PSoC4/LCD_SPIM.c ****     volatile uint8 LCD_SPIM_rxBufferRead;
  31:.\Generated_Source\PSoC4/LCD_SPIM.c ****     volatile uint8 LCD_SPIM_rxBufferWrite;
  32:.\Generated_Source\PSoC4/LCD_SPIM.c **** #endif /* (LCD_SPIM_RX_SOFTWARE_BUF_ENABLED) */
  33:.\Generated_Source\PSoC4/LCD_SPIM.c **** 
  34:.\Generated_Source\PSoC4/LCD_SPIM.c **** uint8 LCD_SPIM_initVar = 0u;
  35:.\Generated_Source\PSoC4/LCD_SPIM.c **** 
  36:.\Generated_Source\PSoC4/LCD_SPIM.c **** volatile uint8 LCD_SPIM_swStatusTx;
  37:.\Generated_Source\PSoC4/LCD_SPIM.c **** volatile uint8 LCD_SPIM_swStatusRx;
  38:.\Generated_Source\PSoC4/LCD_SPIM.c **** 
  39:.\Generated_Source\PSoC4/LCD_SPIM.c **** 
  40:.\Generated_Source\PSoC4/LCD_SPIM.c **** /*******************************************************************************
  41:.\Generated_Source\PSoC4/LCD_SPIM.c **** * Function Name: LCD_SPIM_Init
  42:.\Generated_Source\PSoC4/LCD_SPIM.c **** ********************************************************************************
  43:.\Generated_Source\PSoC4/LCD_SPIM.c **** *
  44:.\Generated_Source\PSoC4/LCD_SPIM.c **** * Summary:
  45:.\Generated_Source\PSoC4/LCD_SPIM.c **** *  Inits/Restores default SPIM configuration provided with customizer.
  46:.\Generated_Source\PSoC4/LCD_SPIM.c **** *
  47:.\Generated_Source\PSoC4/LCD_SPIM.c **** * Parameters:
  48:.\Generated_Source\PSoC4/LCD_SPIM.c **** *  None.
  49:.\Generated_Source\PSoC4/LCD_SPIM.c **** *
  50:.\Generated_Source\PSoC4/LCD_SPIM.c **** * Return:
  51:.\Generated_Source\PSoC4/LCD_SPIM.c **** *  None.
  52:.\Generated_Source\PSoC4/LCD_SPIM.c **** *
  53:.\Generated_Source\PSoC4/LCD_SPIM.c **** * Side Effects:
  54:.\Generated_Source\PSoC4/LCD_SPIM.c **** *  When this function is called it initializes all of the necessary parameters
  55:.\Generated_Source\PSoC4/LCD_SPIM.c **** *  for execution. i.e. setting the initial interrupt mask, configuring the
  56:.\Generated_Source\PSoC4/LCD_SPIM.c **** *  interrupt service routine, configuring the bit-counter parameters and
  57:.\Generated_Source\PSoC4/LCD_SPIM.c **** *  clearing the FIFO and Status Register.
  58:.\Generated_Source\PSoC4/LCD_SPIM.c **** *
  59:.\Generated_Source\PSoC4/LCD_SPIM.c **** * Reentrant:
  60:.\Generated_Source\PSoC4/LCD_SPIM.c **** *  No.
  61:.\Generated_Source\PSoC4/LCD_SPIM.c **** *
  62:.\Generated_Source\PSoC4/LCD_SPIM.c **** *******************************************************************************/
  63:.\Generated_Source\PSoC4/LCD_SPIM.c **** void LCD_SPIM_Init(void) 
  64:.\Generated_Source\PSoC4/LCD_SPIM.c **** {
  65:.\Generated_Source\PSoC4/LCD_SPIM.c ****     /* Initialize the Bit counter */
  66:.\Generated_Source\PSoC4/LCD_SPIM.c ****     LCD_SPIM_COUNTER_PERIOD_REG = LCD_SPIM_BITCTR_INIT;
  67:.\Generated_Source\PSoC4/LCD_SPIM.c **** 
  68:.\Generated_Source\PSoC4/LCD_SPIM.c ****     /* Init TX ISR  */
  69:.\Generated_Source\PSoC4/LCD_SPIM.c ****     #if(0u != LCD_SPIM_INTERNAL_TX_INT_ENABLED)
  70:.\Generated_Source\PSoC4/LCD_SPIM.c ****         CyIntDisable         (LCD_SPIM_TX_ISR_NUMBER);
  71:.\Generated_Source\PSoC4/LCD_SPIM.c ****         CyIntSetPriority     (LCD_SPIM_TX_ISR_NUMBER,  LCD_SPIM_TX_ISR_PRIORITY);
  72:.\Generated_Source\PSoC4/LCD_SPIM.c ****         (void) CyIntSetVector(LCD_SPIM_TX_ISR_NUMBER, &LCD_SPIM_TX_ISR);
  73:.\Generated_Source\PSoC4/LCD_SPIM.c ****     #endif /* (0u != LCD_SPIM_INTERNAL_TX_INT_ENABLED) */
  74:.\Generated_Source\PSoC4/LCD_SPIM.c **** 
  75:.\Generated_Source\PSoC4/LCD_SPIM.c ****     /* Init RX ISR  */
  76:.\Generated_Source\PSoC4/LCD_SPIM.c ****     #if(0u != LCD_SPIM_INTERNAL_RX_INT_ENABLED)
  77:.\Generated_Source\PSoC4/LCD_SPIM.c ****         CyIntDisable         (LCD_SPIM_RX_ISR_NUMBER);
  78:.\Generated_Source\PSoC4/LCD_SPIM.c ****         CyIntSetPriority     (LCD_SPIM_RX_ISR_NUMBER,  LCD_SPIM_RX_ISR_PRIORITY);
  79:.\Generated_Source\PSoC4/LCD_SPIM.c ****         (void) CyIntSetVector(LCD_SPIM_RX_ISR_NUMBER, &LCD_SPIM_RX_ISR);
  80:.\Generated_Source\PSoC4/LCD_SPIM.c ****     #endif /* (0u != LCD_SPIM_INTERNAL_RX_INT_ENABLED) */
ARM GAS  C:\Users\kees\AppData\Local\Temp\cckzdCcV.s 			page 3


  81:.\Generated_Source\PSoC4/LCD_SPIM.c **** 
  82:.\Generated_Source\PSoC4/LCD_SPIM.c ****     /* Clear any stray data from the RX and TX FIFO */
  83:.\Generated_Source\PSoC4/LCD_SPIM.c ****     LCD_SPIM_ClearFIFO();
  84:.\Generated_Source\PSoC4/LCD_SPIM.c **** 
  85:.\Generated_Source\PSoC4/LCD_SPIM.c ****     #if(LCD_SPIM_RX_SOFTWARE_BUF_ENABLED)
  86:.\Generated_Source\PSoC4/LCD_SPIM.c ****         LCD_SPIM_rxBufferFull  = 0u;
  87:.\Generated_Source\PSoC4/LCD_SPIM.c ****         LCD_SPIM_rxBufferRead  = 0u;
  88:.\Generated_Source\PSoC4/LCD_SPIM.c ****         LCD_SPIM_rxBufferWrite = 0u;
  89:.\Generated_Source\PSoC4/LCD_SPIM.c ****     #endif /* (LCD_SPIM_RX_SOFTWARE_BUF_ENABLED) */
  90:.\Generated_Source\PSoC4/LCD_SPIM.c **** 
  91:.\Generated_Source\PSoC4/LCD_SPIM.c ****     #if(LCD_SPIM_TX_SOFTWARE_BUF_ENABLED)
  92:.\Generated_Source\PSoC4/LCD_SPIM.c ****         LCD_SPIM_txBufferFull  = 0u;
  93:.\Generated_Source\PSoC4/LCD_SPIM.c ****         LCD_SPIM_txBufferRead  = 0u;
  94:.\Generated_Source\PSoC4/LCD_SPIM.c ****         LCD_SPIM_txBufferWrite = 0u;
  95:.\Generated_Source\PSoC4/LCD_SPIM.c ****     #endif /* (LCD_SPIM_TX_SOFTWARE_BUF_ENABLED) */
  96:.\Generated_Source\PSoC4/LCD_SPIM.c **** 
  97:.\Generated_Source\PSoC4/LCD_SPIM.c ****     (void) LCD_SPIM_ReadTxStatus(); /* Clear Tx status and swStatusTx */
  98:.\Generated_Source\PSoC4/LCD_SPIM.c ****     (void) LCD_SPIM_ReadRxStatus(); /* Clear Rx status and swStatusRx */
  99:.\Generated_Source\PSoC4/LCD_SPIM.c **** 
 100:.\Generated_Source\PSoC4/LCD_SPIM.c ****     /* Configure TX and RX interrupt mask */
 101:.\Generated_Source\PSoC4/LCD_SPIM.c ****     LCD_SPIM_TX_STATUS_MASK_REG = LCD_SPIM_TX_INIT_INTERRUPTS_MASK;
 102:.\Generated_Source\PSoC4/LCD_SPIM.c ****     LCD_SPIM_RX_STATUS_MASK_REG = LCD_SPIM_RX_INIT_INTERRUPTS_MASK;
 103:.\Generated_Source\PSoC4/LCD_SPIM.c **** }
 104:.\Generated_Source\PSoC4/LCD_SPIM.c **** 
 105:.\Generated_Source\PSoC4/LCD_SPIM.c **** 
 106:.\Generated_Source\PSoC4/LCD_SPIM.c **** /*******************************************************************************
 107:.\Generated_Source\PSoC4/LCD_SPIM.c **** * Function Name: LCD_SPIM_Enable
 108:.\Generated_Source\PSoC4/LCD_SPIM.c **** ********************************************************************************
 109:.\Generated_Source\PSoC4/LCD_SPIM.c **** *
 110:.\Generated_Source\PSoC4/LCD_SPIM.c **** * Summary:
 111:.\Generated_Source\PSoC4/LCD_SPIM.c **** *  Enable SPIM component.
 112:.\Generated_Source\PSoC4/LCD_SPIM.c **** *
 113:.\Generated_Source\PSoC4/LCD_SPIM.c **** * Parameters:
 114:.\Generated_Source\PSoC4/LCD_SPIM.c **** *  None.
 115:.\Generated_Source\PSoC4/LCD_SPIM.c **** *
 116:.\Generated_Source\PSoC4/LCD_SPIM.c **** * Return:
 117:.\Generated_Source\PSoC4/LCD_SPIM.c **** *  None.
 118:.\Generated_Source\PSoC4/LCD_SPIM.c **** *
 119:.\Generated_Source\PSoC4/LCD_SPIM.c **** *******************************************************************************/
 120:.\Generated_Source\PSoC4/LCD_SPIM.c **** void LCD_SPIM_Enable(void) 
 121:.\Generated_Source\PSoC4/LCD_SPIM.c **** {
 122:.\Generated_Source\PSoC4/LCD_SPIM.c ****     uint8 enableInterrupts;
 123:.\Generated_Source\PSoC4/LCD_SPIM.c **** 
 124:.\Generated_Source\PSoC4/LCD_SPIM.c ****     enableInterrupts = CyEnterCriticalSection();
 125:.\Generated_Source\PSoC4/LCD_SPIM.c ****     LCD_SPIM_COUNTER_CONTROL_REG |= LCD_SPIM_CNTR_ENABLE;
 126:.\Generated_Source\PSoC4/LCD_SPIM.c ****     LCD_SPIM_TX_STATUS_ACTL_REG  |= LCD_SPIM_INT_ENABLE;
 127:.\Generated_Source\PSoC4/LCD_SPIM.c ****     LCD_SPIM_RX_STATUS_ACTL_REG  |= LCD_SPIM_INT_ENABLE;
 128:.\Generated_Source\PSoC4/LCD_SPIM.c ****     CyExitCriticalSection(enableInterrupts);
 129:.\Generated_Source\PSoC4/LCD_SPIM.c **** 
 130:.\Generated_Source\PSoC4/LCD_SPIM.c ****     #if(0u != LCD_SPIM_INTERNAL_CLOCK)
 131:.\Generated_Source\PSoC4/LCD_SPIM.c ****         LCD_SPIM_IntClock_Enable();
 132:.\Generated_Source\PSoC4/LCD_SPIM.c ****     #endif /* (0u != LCD_SPIM_INTERNAL_CLOCK) */
 133:.\Generated_Source\PSoC4/LCD_SPIM.c **** 
 134:.\Generated_Source\PSoC4/LCD_SPIM.c ****     LCD_SPIM_EnableTxInt();
 135:.\Generated_Source\PSoC4/LCD_SPIM.c ****     LCD_SPIM_EnableRxInt();
 136:.\Generated_Source\PSoC4/LCD_SPIM.c **** }
 137:.\Generated_Source\PSoC4/LCD_SPIM.c **** 
ARM GAS  C:\Users\kees\AppData\Local\Temp\cckzdCcV.s 			page 4


 138:.\Generated_Source\PSoC4/LCD_SPIM.c **** 
 139:.\Generated_Source\PSoC4/LCD_SPIM.c **** /*******************************************************************************
 140:.\Generated_Source\PSoC4/LCD_SPIM.c **** * Function Name: LCD_SPIM_Start
 141:.\Generated_Source\PSoC4/LCD_SPIM.c **** ********************************************************************************
 142:.\Generated_Source\PSoC4/LCD_SPIM.c **** *
 143:.\Generated_Source\PSoC4/LCD_SPIM.c **** * Summary:
 144:.\Generated_Source\PSoC4/LCD_SPIM.c **** *  Initialize and Enable the SPI Master component.
 145:.\Generated_Source\PSoC4/LCD_SPIM.c **** *
 146:.\Generated_Source\PSoC4/LCD_SPIM.c **** * Parameters:
 147:.\Generated_Source\PSoC4/LCD_SPIM.c **** *  None.
 148:.\Generated_Source\PSoC4/LCD_SPIM.c **** *
 149:.\Generated_Source\PSoC4/LCD_SPIM.c **** * Return:
 150:.\Generated_Source\PSoC4/LCD_SPIM.c **** *  None.
 151:.\Generated_Source\PSoC4/LCD_SPIM.c **** *
 152:.\Generated_Source\PSoC4/LCD_SPIM.c **** * Global variables:
 153:.\Generated_Source\PSoC4/LCD_SPIM.c **** *  LCD_SPIM_initVar - used to check initial configuration, modified on
 154:.\Generated_Source\PSoC4/LCD_SPIM.c **** *  first function call.
 155:.\Generated_Source\PSoC4/LCD_SPIM.c **** *
 156:.\Generated_Source\PSoC4/LCD_SPIM.c **** * Theory:
 157:.\Generated_Source\PSoC4/LCD_SPIM.c **** *  Enable the clock input to enable operation.
 158:.\Generated_Source\PSoC4/LCD_SPIM.c **** *
 159:.\Generated_Source\PSoC4/LCD_SPIM.c **** * Reentrant:
 160:.\Generated_Source\PSoC4/LCD_SPIM.c **** *  No.
 161:.\Generated_Source\PSoC4/LCD_SPIM.c **** *
 162:.\Generated_Source\PSoC4/LCD_SPIM.c **** *******************************************************************************/
 163:.\Generated_Source\PSoC4/LCD_SPIM.c **** void LCD_SPIM_Start(void) 
 164:.\Generated_Source\PSoC4/LCD_SPIM.c **** {
 165:.\Generated_Source\PSoC4/LCD_SPIM.c ****     if(0u == LCD_SPIM_initVar)
 166:.\Generated_Source\PSoC4/LCD_SPIM.c ****     {
 167:.\Generated_Source\PSoC4/LCD_SPIM.c ****         LCD_SPIM_Init();
 168:.\Generated_Source\PSoC4/LCD_SPIM.c ****         LCD_SPIM_initVar = 1u;
 169:.\Generated_Source\PSoC4/LCD_SPIM.c ****     }
 170:.\Generated_Source\PSoC4/LCD_SPIM.c **** 
 171:.\Generated_Source\PSoC4/LCD_SPIM.c ****     LCD_SPIM_Enable();
 172:.\Generated_Source\PSoC4/LCD_SPIM.c **** }
 173:.\Generated_Source\PSoC4/LCD_SPIM.c **** 
 174:.\Generated_Source\PSoC4/LCD_SPIM.c **** 
 175:.\Generated_Source\PSoC4/LCD_SPIM.c **** /*******************************************************************************
 176:.\Generated_Source\PSoC4/LCD_SPIM.c **** * Function Name: LCD_SPIM_Stop
 177:.\Generated_Source\PSoC4/LCD_SPIM.c **** ********************************************************************************
 178:.\Generated_Source\PSoC4/LCD_SPIM.c **** *
 179:.\Generated_Source\PSoC4/LCD_SPIM.c **** * Summary:
 180:.\Generated_Source\PSoC4/LCD_SPIM.c **** *  Disable the SPI Master component.
 181:.\Generated_Source\PSoC4/LCD_SPIM.c **** *
 182:.\Generated_Source\PSoC4/LCD_SPIM.c **** * Parameters:
 183:.\Generated_Source\PSoC4/LCD_SPIM.c **** *  None.
 184:.\Generated_Source\PSoC4/LCD_SPIM.c **** *
 185:.\Generated_Source\PSoC4/LCD_SPIM.c **** * Return:
 186:.\Generated_Source\PSoC4/LCD_SPIM.c **** *  None.
 187:.\Generated_Source\PSoC4/LCD_SPIM.c **** *
 188:.\Generated_Source\PSoC4/LCD_SPIM.c **** * Theory:
 189:.\Generated_Source\PSoC4/LCD_SPIM.c **** *  Disable the clock input to enable operation.
 190:.\Generated_Source\PSoC4/LCD_SPIM.c **** *
 191:.\Generated_Source\PSoC4/LCD_SPIM.c **** *******************************************************************************/
 192:.\Generated_Source\PSoC4/LCD_SPIM.c **** void LCD_SPIM_Stop(void) 
 193:.\Generated_Source\PSoC4/LCD_SPIM.c **** {
 194:.\Generated_Source\PSoC4/LCD_SPIM.c ****     uint8 enableInterrupts;
ARM GAS  C:\Users\kees\AppData\Local\Temp\cckzdCcV.s 			page 5


 195:.\Generated_Source\PSoC4/LCD_SPIM.c **** 
 196:.\Generated_Source\PSoC4/LCD_SPIM.c ****     enableInterrupts = CyEnterCriticalSection();
 197:.\Generated_Source\PSoC4/LCD_SPIM.c ****     LCD_SPIM_TX_STATUS_ACTL_REG &= ((uint8) ~LCD_SPIM_INT_ENABLE);
 198:.\Generated_Source\PSoC4/LCD_SPIM.c ****     LCD_SPIM_RX_STATUS_ACTL_REG &= ((uint8) ~LCD_SPIM_INT_ENABLE);
 199:.\Generated_Source\PSoC4/LCD_SPIM.c ****     CyExitCriticalSection(enableInterrupts);
 200:.\Generated_Source\PSoC4/LCD_SPIM.c **** 
 201:.\Generated_Source\PSoC4/LCD_SPIM.c ****     #if(0u != LCD_SPIM_INTERNAL_CLOCK)
 202:.\Generated_Source\PSoC4/LCD_SPIM.c ****         LCD_SPIM_IntClock_Disable();
 203:.\Generated_Source\PSoC4/LCD_SPIM.c ****     #endif /* (0u != LCD_SPIM_INTERNAL_CLOCK) */
 204:.\Generated_Source\PSoC4/LCD_SPIM.c **** 
 205:.\Generated_Source\PSoC4/LCD_SPIM.c ****     LCD_SPIM_DisableTxInt();
 206:.\Generated_Source\PSoC4/LCD_SPIM.c ****     LCD_SPIM_DisableRxInt();
 207:.\Generated_Source\PSoC4/LCD_SPIM.c **** }
 208:.\Generated_Source\PSoC4/LCD_SPIM.c **** 
 209:.\Generated_Source\PSoC4/LCD_SPIM.c **** 
 210:.\Generated_Source\PSoC4/LCD_SPIM.c **** /*******************************************************************************
 211:.\Generated_Source\PSoC4/LCD_SPIM.c **** * Function Name: LCD_SPIM_EnableTxInt
 212:.\Generated_Source\PSoC4/LCD_SPIM.c **** ********************************************************************************
 213:.\Generated_Source\PSoC4/LCD_SPIM.c **** *
 214:.\Generated_Source\PSoC4/LCD_SPIM.c **** * Summary:
 215:.\Generated_Source\PSoC4/LCD_SPIM.c **** *  Enable internal Tx interrupt generation.
 216:.\Generated_Source\PSoC4/LCD_SPIM.c **** *
 217:.\Generated_Source\PSoC4/LCD_SPIM.c **** * Parameters:
 218:.\Generated_Source\PSoC4/LCD_SPIM.c **** *  None.
 219:.\Generated_Source\PSoC4/LCD_SPIM.c **** *
 220:.\Generated_Source\PSoC4/LCD_SPIM.c **** * Return:
 221:.\Generated_Source\PSoC4/LCD_SPIM.c **** *  None.
 222:.\Generated_Source\PSoC4/LCD_SPIM.c **** *
 223:.\Generated_Source\PSoC4/LCD_SPIM.c **** * Theory:
 224:.\Generated_Source\PSoC4/LCD_SPIM.c **** *  Enable the internal Tx interrupt output -or- the interrupt component itself.
 225:.\Generated_Source\PSoC4/LCD_SPIM.c **** *
 226:.\Generated_Source\PSoC4/LCD_SPIM.c **** *******************************************************************************/
 227:.\Generated_Source\PSoC4/LCD_SPIM.c **** void LCD_SPIM_EnableTxInt(void) 
 228:.\Generated_Source\PSoC4/LCD_SPIM.c **** {
  31              		.loc 1 228 0
  32              		.cfi_startproc
 229:.\Generated_Source\PSoC4/LCD_SPIM.c ****     #if(0u != LCD_SPIM_INTERNAL_TX_INT_ENABLED)
 230:.\Generated_Source\PSoC4/LCD_SPIM.c ****         CyIntEnable(LCD_SPIM_TX_ISR_NUMBER);
 231:.\Generated_Source\PSoC4/LCD_SPIM.c ****     #endif /* (0u != LCD_SPIM_INTERNAL_TX_INT_ENABLED) */
 232:.\Generated_Source\PSoC4/LCD_SPIM.c **** }
  33              		.loc 1 232 0
  34              		@ sp needed for prologue
  35 0000 7047     		bx	lr
  36              		.cfi_endproc
  37              	.LFE4:
  38              		.size	LCD_SPIM_EnableTxInt, .-LCD_SPIM_EnableTxInt
  39              		.section	.text.LCD_SPIM_EnableRxInt,"ax",%progbits
  40              		.align	1
  41              		.global	LCD_SPIM_EnableRxInt
  42              		.code	16
  43              		.thumb_func
  44              		.type	LCD_SPIM_EnableRxInt, %function
  45              	LCD_SPIM_EnableRxInt:
  46              	.LFB5:
 233:.\Generated_Source\PSoC4/LCD_SPIM.c **** 
 234:.\Generated_Source\PSoC4/LCD_SPIM.c **** 
 235:.\Generated_Source\PSoC4/LCD_SPIM.c **** /*******************************************************************************
ARM GAS  C:\Users\kees\AppData\Local\Temp\cckzdCcV.s 			page 6


 236:.\Generated_Source\PSoC4/LCD_SPIM.c **** * Function Name: LCD_SPIM_EnableRxInt
 237:.\Generated_Source\PSoC4/LCD_SPIM.c **** ********************************************************************************
 238:.\Generated_Source\PSoC4/LCD_SPIM.c **** *
 239:.\Generated_Source\PSoC4/LCD_SPIM.c **** * Summary:
 240:.\Generated_Source\PSoC4/LCD_SPIM.c **** *  Enable internal Rx interrupt generation.
 241:.\Generated_Source\PSoC4/LCD_SPIM.c **** *
 242:.\Generated_Source\PSoC4/LCD_SPIM.c **** * Parameters:
 243:.\Generated_Source\PSoC4/LCD_SPIM.c **** *  None.
 244:.\Generated_Source\PSoC4/LCD_SPIM.c **** *
 245:.\Generated_Source\PSoC4/LCD_SPIM.c **** * Return:
 246:.\Generated_Source\PSoC4/LCD_SPIM.c **** *  None.
 247:.\Generated_Source\PSoC4/LCD_SPIM.c **** *
 248:.\Generated_Source\PSoC4/LCD_SPIM.c **** * Theory:
 249:.\Generated_Source\PSoC4/LCD_SPIM.c **** *  Enable the internal Rx interrupt output -or- the interrupt component itself.
 250:.\Generated_Source\PSoC4/LCD_SPIM.c **** *
 251:.\Generated_Source\PSoC4/LCD_SPIM.c **** *******************************************************************************/
 252:.\Generated_Source\PSoC4/LCD_SPIM.c **** void LCD_SPIM_EnableRxInt(void) 
 253:.\Generated_Source\PSoC4/LCD_SPIM.c **** {
  47              		.loc 1 253 0
  48              		.cfi_startproc
 254:.\Generated_Source\PSoC4/LCD_SPIM.c ****     #if(0u != LCD_SPIM_INTERNAL_RX_INT_ENABLED)
 255:.\Generated_Source\PSoC4/LCD_SPIM.c ****         CyIntEnable(LCD_SPIM_RX_ISR_NUMBER);
 256:.\Generated_Source\PSoC4/LCD_SPIM.c ****     #endif /* (0u != LCD_SPIM_INTERNAL_RX_INT_ENABLED) */
 257:.\Generated_Source\PSoC4/LCD_SPIM.c **** }
  49              		.loc 1 257 0
  50              		@ sp needed for prologue
  51 0000 7047     		bx	lr
  52              		.cfi_endproc
  53              	.LFE5:
  54              		.size	LCD_SPIM_EnableRxInt, .-LCD_SPIM_EnableRxInt
  55              		.section	.text.LCD_SPIM_DisableTxInt,"ax",%progbits
  56              		.align	1
  57              		.global	LCD_SPIM_DisableTxInt
  58              		.code	16
  59              		.thumb_func
  60              		.type	LCD_SPIM_DisableTxInt, %function
  61              	LCD_SPIM_DisableTxInt:
  62              	.LFB6:
 258:.\Generated_Source\PSoC4/LCD_SPIM.c **** 
 259:.\Generated_Source\PSoC4/LCD_SPIM.c **** 
 260:.\Generated_Source\PSoC4/LCD_SPIM.c **** /*******************************************************************************
 261:.\Generated_Source\PSoC4/LCD_SPIM.c **** * Function Name: LCD_SPIM_DisableTxInt
 262:.\Generated_Source\PSoC4/LCD_SPIM.c **** ********************************************************************************
 263:.\Generated_Source\PSoC4/LCD_SPIM.c **** *
 264:.\Generated_Source\PSoC4/LCD_SPIM.c **** * Summary:
 265:.\Generated_Source\PSoC4/LCD_SPIM.c **** *  Disable internal Tx interrupt generation.
 266:.\Generated_Source\PSoC4/LCD_SPIM.c **** *
 267:.\Generated_Source\PSoC4/LCD_SPIM.c **** * Parameters:
 268:.\Generated_Source\PSoC4/LCD_SPIM.c **** *  None.
 269:.\Generated_Source\PSoC4/LCD_SPIM.c **** *
 270:.\Generated_Source\PSoC4/LCD_SPIM.c **** * Return:
 271:.\Generated_Source\PSoC4/LCD_SPIM.c **** *  None.
 272:.\Generated_Source\PSoC4/LCD_SPIM.c **** *
 273:.\Generated_Source\PSoC4/LCD_SPIM.c **** * Theory:
 274:.\Generated_Source\PSoC4/LCD_SPIM.c **** *  Disable the internal Tx interrupt output -or- the interrupt component itself.
 275:.\Generated_Source\PSoC4/LCD_SPIM.c **** *
 276:.\Generated_Source\PSoC4/LCD_SPIM.c **** *******************************************************************************/
ARM GAS  C:\Users\kees\AppData\Local\Temp\cckzdCcV.s 			page 7


 277:.\Generated_Source\PSoC4/LCD_SPIM.c **** void LCD_SPIM_DisableTxInt(void) 
 278:.\Generated_Source\PSoC4/LCD_SPIM.c **** {
  63              		.loc 1 278 0
  64              		.cfi_startproc
 279:.\Generated_Source\PSoC4/LCD_SPIM.c ****     #if(0u != LCD_SPIM_INTERNAL_TX_INT_ENABLED)
 280:.\Generated_Source\PSoC4/LCD_SPIM.c ****         CyIntDisable(LCD_SPIM_TX_ISR_NUMBER);
 281:.\Generated_Source\PSoC4/LCD_SPIM.c ****     #endif /* (0u != LCD_SPIM_INTERNAL_TX_INT_ENABLED) */
 282:.\Generated_Source\PSoC4/LCD_SPIM.c **** }
  65              		.loc 1 282 0
  66              		@ sp needed for prologue
  67 0000 7047     		bx	lr
  68              		.cfi_endproc
  69              	.LFE6:
  70              		.size	LCD_SPIM_DisableTxInt, .-LCD_SPIM_DisableTxInt
  71              		.section	.text.LCD_SPIM_DisableRxInt,"ax",%progbits
  72              		.align	1
  73              		.global	LCD_SPIM_DisableRxInt
  74              		.code	16
  75              		.thumb_func
  76              		.type	LCD_SPIM_DisableRxInt, %function
  77              	LCD_SPIM_DisableRxInt:
  78              	.LFB7:
 283:.\Generated_Source\PSoC4/LCD_SPIM.c **** 
 284:.\Generated_Source\PSoC4/LCD_SPIM.c **** 
 285:.\Generated_Source\PSoC4/LCD_SPIM.c **** /*******************************************************************************
 286:.\Generated_Source\PSoC4/LCD_SPIM.c **** * Function Name: LCD_SPIM_DisableRxInt
 287:.\Generated_Source\PSoC4/LCD_SPIM.c **** ********************************************************************************
 288:.\Generated_Source\PSoC4/LCD_SPIM.c **** *
 289:.\Generated_Source\PSoC4/LCD_SPIM.c **** * Summary:
 290:.\Generated_Source\PSoC4/LCD_SPIM.c **** *  Disable internal Rx interrupt generation.
 291:.\Generated_Source\PSoC4/LCD_SPIM.c **** *
 292:.\Generated_Source\PSoC4/LCD_SPIM.c **** * Parameters:
 293:.\Generated_Source\PSoC4/LCD_SPIM.c **** *  None.
 294:.\Generated_Source\PSoC4/LCD_SPIM.c **** *
 295:.\Generated_Source\PSoC4/LCD_SPIM.c **** * Return:
 296:.\Generated_Source\PSoC4/LCD_SPIM.c **** *  None.
 297:.\Generated_Source\PSoC4/LCD_SPIM.c **** *
 298:.\Generated_Source\PSoC4/LCD_SPIM.c **** * Theory:
 299:.\Generated_Source\PSoC4/LCD_SPIM.c **** *  Disable the internal Rx interrupt output -or- the interrupt component itself.
 300:.\Generated_Source\PSoC4/LCD_SPIM.c **** *
 301:.\Generated_Source\PSoC4/LCD_SPIM.c **** *******************************************************************************/
 302:.\Generated_Source\PSoC4/LCD_SPIM.c **** void LCD_SPIM_DisableRxInt(void) 
 303:.\Generated_Source\PSoC4/LCD_SPIM.c **** {
  79              		.loc 1 303 0
  80              		.cfi_startproc
 304:.\Generated_Source\PSoC4/LCD_SPIM.c ****     #if(0u != LCD_SPIM_INTERNAL_RX_INT_ENABLED)
 305:.\Generated_Source\PSoC4/LCD_SPIM.c ****         CyIntDisable(LCD_SPIM_RX_ISR_NUMBER);
 306:.\Generated_Source\PSoC4/LCD_SPIM.c ****     #endif /* (0u != LCD_SPIM_INTERNAL_RX_INT_ENABLED) */
 307:.\Generated_Source\PSoC4/LCD_SPIM.c **** }
  81              		.loc 1 307 0
  82              		@ sp needed for prologue
  83 0000 7047     		bx	lr
  84              		.cfi_endproc
  85              	.LFE7:
  86              		.size	LCD_SPIM_DisableRxInt, .-LCD_SPIM_DisableRxInt
  87              		.section	.text.LCD_SPIM_SetTxInterruptMode,"ax",%progbits
  88              		.align	1
ARM GAS  C:\Users\kees\AppData\Local\Temp\cckzdCcV.s 			page 8


  89              		.global	LCD_SPIM_SetTxInterruptMode
  90              		.code	16
  91              		.thumb_func
  92              		.type	LCD_SPIM_SetTxInterruptMode, %function
  93              	LCD_SPIM_SetTxInterruptMode:
  94              	.LFB8:
 308:.\Generated_Source\PSoC4/LCD_SPIM.c **** 
 309:.\Generated_Source\PSoC4/LCD_SPIM.c **** 
 310:.\Generated_Source\PSoC4/LCD_SPIM.c **** /*******************************************************************************
 311:.\Generated_Source\PSoC4/LCD_SPIM.c **** * Function Name: LCD_SPIM_SetTxInterruptMode
 312:.\Generated_Source\PSoC4/LCD_SPIM.c **** ********************************************************************************
 313:.\Generated_Source\PSoC4/LCD_SPIM.c **** *
 314:.\Generated_Source\PSoC4/LCD_SPIM.c **** * Summary:
 315:.\Generated_Source\PSoC4/LCD_SPIM.c **** *  Configure which status bits trigger an interrupt event.
 316:.\Generated_Source\PSoC4/LCD_SPIM.c **** *
 317:.\Generated_Source\PSoC4/LCD_SPIM.c **** * Parameters:
 318:.\Generated_Source\PSoC4/LCD_SPIM.c **** *  intSrc: An or'd combination of the desired status bit masks (defined in the
 319:.\Generated_Source\PSoC4/LCD_SPIM.c **** *  header file).
 320:.\Generated_Source\PSoC4/LCD_SPIM.c **** *
 321:.\Generated_Source\PSoC4/LCD_SPIM.c **** * Return:
 322:.\Generated_Source\PSoC4/LCD_SPIM.c **** *  None.
 323:.\Generated_Source\PSoC4/LCD_SPIM.c **** *
 324:.\Generated_Source\PSoC4/LCD_SPIM.c **** * Theory:
 325:.\Generated_Source\PSoC4/LCD_SPIM.c **** *  Enables the output of specific status bits to the interrupt controller.
 326:.\Generated_Source\PSoC4/LCD_SPIM.c **** *
 327:.\Generated_Source\PSoC4/LCD_SPIM.c **** *******************************************************************************/
 328:.\Generated_Source\PSoC4/LCD_SPIM.c **** void LCD_SPIM_SetTxInterruptMode(uint8 intSrc) 
 329:.\Generated_Source\PSoC4/LCD_SPIM.c **** {
  95              		.loc 1 329 0
  96              		.cfi_startproc
  97              	.LVL0:
 330:.\Generated_Source\PSoC4/LCD_SPIM.c ****     LCD_SPIM_TX_STATUS_MASK_REG = intSrc;
  98              		.loc 1 330 0
  99 0000 014B     		ldr	r3, .L11
 331:.\Generated_Source\PSoC4/LCD_SPIM.c **** }
 100              		.loc 1 331 0
 101              		@ sp needed for prologue
 102              		.loc 1 330 0
 103 0002 1870     		strb	r0, [r3]
 104              		.loc 1 331 0
 105 0004 7047     		bx	lr
 106              	.L12:
 107 0006 C046     		.align	2
 108              	.L11:
 109 0008 82000F40 		.word	1074724994
 110              		.cfi_endproc
 111              	.LFE8:
 112              		.size	LCD_SPIM_SetTxInterruptMode, .-LCD_SPIM_SetTxInterruptMode
 113              		.section	.text.LCD_SPIM_SetRxInterruptMode,"ax",%progbits
 114              		.align	1
 115              		.global	LCD_SPIM_SetRxInterruptMode
 116              		.code	16
 117              		.thumb_func
 118              		.type	LCD_SPIM_SetRxInterruptMode, %function
 119              	LCD_SPIM_SetRxInterruptMode:
 120              	.LFB9:
 332:.\Generated_Source\PSoC4/LCD_SPIM.c **** 
ARM GAS  C:\Users\kees\AppData\Local\Temp\cckzdCcV.s 			page 9


 333:.\Generated_Source\PSoC4/LCD_SPIM.c **** 
 334:.\Generated_Source\PSoC4/LCD_SPIM.c **** /*******************************************************************************
 335:.\Generated_Source\PSoC4/LCD_SPIM.c **** * Function Name: LCD_SPIM_SetRxInterruptMode
 336:.\Generated_Source\PSoC4/LCD_SPIM.c **** ********************************************************************************
 337:.\Generated_Source\PSoC4/LCD_SPIM.c **** *
 338:.\Generated_Source\PSoC4/LCD_SPIM.c **** * Summary:
 339:.\Generated_Source\PSoC4/LCD_SPIM.c **** *  Configure which status bits trigger an interrupt event.
 340:.\Generated_Source\PSoC4/LCD_SPIM.c **** *
 341:.\Generated_Source\PSoC4/LCD_SPIM.c **** * Parameters:
 342:.\Generated_Source\PSoC4/LCD_SPIM.c **** *  intSrc: An or'd combination of the desired status bit masks (defined in the
 343:.\Generated_Source\PSoC4/LCD_SPIM.c **** *  header file).
 344:.\Generated_Source\PSoC4/LCD_SPIM.c **** *
 345:.\Generated_Source\PSoC4/LCD_SPIM.c **** * Return:
 346:.\Generated_Source\PSoC4/LCD_SPIM.c **** *  None.
 347:.\Generated_Source\PSoC4/LCD_SPIM.c **** *
 348:.\Generated_Source\PSoC4/LCD_SPIM.c **** * Theory:
 349:.\Generated_Source\PSoC4/LCD_SPIM.c **** *  Enables the output of specific status bits to the interrupt controller.
 350:.\Generated_Source\PSoC4/LCD_SPIM.c **** *
 351:.\Generated_Source\PSoC4/LCD_SPIM.c **** *******************************************************************************/
 352:.\Generated_Source\PSoC4/LCD_SPIM.c **** void LCD_SPIM_SetRxInterruptMode(uint8 intSrc) 
 353:.\Generated_Source\PSoC4/LCD_SPIM.c **** {
 121              		.loc 1 353 0
 122              		.cfi_startproc
 123              	.LVL1:
 354:.\Generated_Source\PSoC4/LCD_SPIM.c ****     LCD_SPIM_RX_STATUS_MASK_REG  = intSrc;
 124              		.loc 1 354 0
 125 0000 014B     		ldr	r3, .L15
 355:.\Generated_Source\PSoC4/LCD_SPIM.c **** }
 126              		.loc 1 355 0
 127              		@ sp needed for prologue
 128              		.loc 1 354 0
 129 0002 1870     		strb	r0, [r3]
 130              		.loc 1 355 0
 131 0004 7047     		bx	lr
 132              	.L16:
 133 0006 C046     		.align	2
 134              	.L15:
 135 0008 80000F40 		.word	1074724992
 136              		.cfi_endproc
 137              	.LFE9:
 138              		.size	LCD_SPIM_SetRxInterruptMode, .-LCD_SPIM_SetRxInterruptMode
 139              		.section	.text.LCD_SPIM_ReadTxStatus,"ax",%progbits
 140              		.align	1
 141              		.global	LCD_SPIM_ReadTxStatus
 142              		.code	16
 143              		.thumb_func
 144              		.type	LCD_SPIM_ReadTxStatus, %function
 145              	LCD_SPIM_ReadTxStatus:
 146              	.LFB10:
 356:.\Generated_Source\PSoC4/LCD_SPIM.c **** 
 357:.\Generated_Source\PSoC4/LCD_SPIM.c **** 
 358:.\Generated_Source\PSoC4/LCD_SPIM.c **** /*******************************************************************************
 359:.\Generated_Source\PSoC4/LCD_SPIM.c **** * Function Name: LCD_SPIM_ReadTxStatus
 360:.\Generated_Source\PSoC4/LCD_SPIM.c **** ********************************************************************************
 361:.\Generated_Source\PSoC4/LCD_SPIM.c **** *
 362:.\Generated_Source\PSoC4/LCD_SPIM.c **** * Summary:
 363:.\Generated_Source\PSoC4/LCD_SPIM.c **** *  Read the Tx status register for the component.
ARM GAS  C:\Users\kees\AppData\Local\Temp\cckzdCcV.s 			page 10


 364:.\Generated_Source\PSoC4/LCD_SPIM.c **** *
 365:.\Generated_Source\PSoC4/LCD_SPIM.c **** * Parameters:
 366:.\Generated_Source\PSoC4/LCD_SPIM.c **** *  None.
 367:.\Generated_Source\PSoC4/LCD_SPIM.c **** *
 368:.\Generated_Source\PSoC4/LCD_SPIM.c **** * Return:
 369:.\Generated_Source\PSoC4/LCD_SPIM.c **** *  Contents of the Tx status register.
 370:.\Generated_Source\PSoC4/LCD_SPIM.c **** *
 371:.\Generated_Source\PSoC4/LCD_SPIM.c **** * Global variables:
 372:.\Generated_Source\PSoC4/LCD_SPIM.c **** *  LCD_SPIM_swStatusTx - used to store in software status register,
 373:.\Generated_Source\PSoC4/LCD_SPIM.c **** *  modified every function call - resets to zero.
 374:.\Generated_Source\PSoC4/LCD_SPIM.c **** *
 375:.\Generated_Source\PSoC4/LCD_SPIM.c **** * Theory:
 376:.\Generated_Source\PSoC4/LCD_SPIM.c **** *  Allows the user and the API to read the Tx status register for error
 377:.\Generated_Source\PSoC4/LCD_SPIM.c **** *  detection and flow control.
 378:.\Generated_Source\PSoC4/LCD_SPIM.c **** *
 379:.\Generated_Source\PSoC4/LCD_SPIM.c **** * Side Effects:
 380:.\Generated_Source\PSoC4/LCD_SPIM.c **** *  Clear Tx status register of the component.
 381:.\Generated_Source\PSoC4/LCD_SPIM.c **** *
 382:.\Generated_Source\PSoC4/LCD_SPIM.c **** * Reentrant:
 383:.\Generated_Source\PSoC4/LCD_SPIM.c **** *  No.
 384:.\Generated_Source\PSoC4/LCD_SPIM.c **** *
 385:.\Generated_Source\PSoC4/LCD_SPIM.c **** *******************************************************************************/
 386:.\Generated_Source\PSoC4/LCD_SPIM.c **** uint8 LCD_SPIM_ReadTxStatus(void) 
 387:.\Generated_Source\PSoC4/LCD_SPIM.c **** {
 147              		.loc 1 387 0
 148              		.cfi_startproc
 388:.\Generated_Source\PSoC4/LCD_SPIM.c ****     uint8 tmpStatus;
 389:.\Generated_Source\PSoC4/LCD_SPIM.c **** 
 390:.\Generated_Source\PSoC4/LCD_SPIM.c ****     #if(LCD_SPIM_TX_SOFTWARE_BUF_ENABLED)
 391:.\Generated_Source\PSoC4/LCD_SPIM.c ****         /* Disable TX interrupt to protect global veriables */
 392:.\Generated_Source\PSoC4/LCD_SPIM.c ****         LCD_SPIM_DisableTxInt();
 393:.\Generated_Source\PSoC4/LCD_SPIM.c **** 
 394:.\Generated_Source\PSoC4/LCD_SPIM.c ****         tmpStatus = LCD_SPIM_GET_STATUS_TX(LCD_SPIM_swStatusTx);
 395:.\Generated_Source\PSoC4/LCD_SPIM.c ****         LCD_SPIM_swStatusTx = 0u;
 396:.\Generated_Source\PSoC4/LCD_SPIM.c **** 
 397:.\Generated_Source\PSoC4/LCD_SPIM.c ****         LCD_SPIM_EnableTxInt();
 398:.\Generated_Source\PSoC4/LCD_SPIM.c **** 
 399:.\Generated_Source\PSoC4/LCD_SPIM.c ****     #else
 400:.\Generated_Source\PSoC4/LCD_SPIM.c **** 
 401:.\Generated_Source\PSoC4/LCD_SPIM.c ****         tmpStatus = LCD_SPIM_TX_STATUS_REG;
 149              		.loc 1 401 0
 150 0000 014B     		ldr	r3, .L19
 402:.\Generated_Source\PSoC4/LCD_SPIM.c **** 
 403:.\Generated_Source\PSoC4/LCD_SPIM.c ****     #endif /* (LCD_SPIM_TX_SOFTWARE_BUF_ENABLED) */
 404:.\Generated_Source\PSoC4/LCD_SPIM.c **** 
 405:.\Generated_Source\PSoC4/LCD_SPIM.c ****     return(tmpStatus);
 406:.\Generated_Source\PSoC4/LCD_SPIM.c **** }
 151              		.loc 1 406 0
 152              		@ sp needed for prologue
 153              		.loc 1 401 0
 154 0002 1878     		ldrb	r0, [r3]
 155              		.loc 1 406 0
 156 0004 7047     		bx	lr
 157              	.L20:
 158 0006 C046     		.align	2
 159              	.L19:
 160 0008 62000F40 		.word	1074724962
ARM GAS  C:\Users\kees\AppData\Local\Temp\cckzdCcV.s 			page 11


 161              		.cfi_endproc
 162              	.LFE10:
 163              		.size	LCD_SPIM_ReadTxStatus, .-LCD_SPIM_ReadTxStatus
 164              		.section	.text.LCD_SPIM_ReadRxStatus,"ax",%progbits
 165              		.align	1
 166              		.global	LCD_SPIM_ReadRxStatus
 167              		.code	16
 168              		.thumb_func
 169              		.type	LCD_SPIM_ReadRxStatus, %function
 170              	LCD_SPIM_ReadRxStatus:
 171              	.LFB11:
 407:.\Generated_Source\PSoC4/LCD_SPIM.c **** 
 408:.\Generated_Source\PSoC4/LCD_SPIM.c **** 
 409:.\Generated_Source\PSoC4/LCD_SPIM.c **** /*******************************************************************************
 410:.\Generated_Source\PSoC4/LCD_SPIM.c **** * Function Name: LCD_SPIM_ReadRxStatus
 411:.\Generated_Source\PSoC4/LCD_SPIM.c **** ********************************************************************************
 412:.\Generated_Source\PSoC4/LCD_SPIM.c **** *
 413:.\Generated_Source\PSoC4/LCD_SPIM.c **** * Summary:
 414:.\Generated_Source\PSoC4/LCD_SPIM.c **** *  Read the Rx status register for the component.
 415:.\Generated_Source\PSoC4/LCD_SPIM.c **** *
 416:.\Generated_Source\PSoC4/LCD_SPIM.c **** * Parameters:
 417:.\Generated_Source\PSoC4/LCD_SPIM.c **** *  None.
 418:.\Generated_Source\PSoC4/LCD_SPIM.c **** *
 419:.\Generated_Source\PSoC4/LCD_SPIM.c **** * Return:
 420:.\Generated_Source\PSoC4/LCD_SPIM.c **** *  Contents of the Rx status register.
 421:.\Generated_Source\PSoC4/LCD_SPIM.c **** *
 422:.\Generated_Source\PSoC4/LCD_SPIM.c **** * Global variables:
 423:.\Generated_Source\PSoC4/LCD_SPIM.c **** *  LCD_SPIM_swStatusRx - used to store in software Rx status register,
 424:.\Generated_Source\PSoC4/LCD_SPIM.c **** *  modified every function call - resets to zero.
 425:.\Generated_Source\PSoC4/LCD_SPIM.c **** *
 426:.\Generated_Source\PSoC4/LCD_SPIM.c **** * Theory:
 427:.\Generated_Source\PSoC4/LCD_SPIM.c **** *  Allows the user and the API to read the Rx status register for error
 428:.\Generated_Source\PSoC4/LCD_SPIM.c **** *  detection and flow control.
 429:.\Generated_Source\PSoC4/LCD_SPIM.c **** *
 430:.\Generated_Source\PSoC4/LCD_SPIM.c **** * Side Effects:
 431:.\Generated_Source\PSoC4/LCD_SPIM.c **** *  Clear Rx status register of the component.
 432:.\Generated_Source\PSoC4/LCD_SPIM.c **** *
 433:.\Generated_Source\PSoC4/LCD_SPIM.c **** * Reentrant:
 434:.\Generated_Source\PSoC4/LCD_SPIM.c **** *  No.
 435:.\Generated_Source\PSoC4/LCD_SPIM.c **** *
 436:.\Generated_Source\PSoC4/LCD_SPIM.c **** *******************************************************************************/
 437:.\Generated_Source\PSoC4/LCD_SPIM.c **** uint8 LCD_SPIM_ReadRxStatus(void) 
 438:.\Generated_Source\PSoC4/LCD_SPIM.c **** {
 172              		.loc 1 438 0
 173              		.cfi_startproc
 439:.\Generated_Source\PSoC4/LCD_SPIM.c ****     uint8 tmpStatus;
 440:.\Generated_Source\PSoC4/LCD_SPIM.c **** 
 441:.\Generated_Source\PSoC4/LCD_SPIM.c ****     #if(LCD_SPIM_RX_SOFTWARE_BUF_ENABLED)
 442:.\Generated_Source\PSoC4/LCD_SPIM.c ****         /* Disable RX interrupt to protect global veriables */
 443:.\Generated_Source\PSoC4/LCD_SPIM.c ****         LCD_SPIM_DisableRxInt();
 444:.\Generated_Source\PSoC4/LCD_SPIM.c **** 
 445:.\Generated_Source\PSoC4/LCD_SPIM.c ****         tmpStatus = LCD_SPIM_GET_STATUS_RX(LCD_SPIM_swStatusRx);
 446:.\Generated_Source\PSoC4/LCD_SPIM.c ****         LCD_SPIM_swStatusRx = 0u;
 447:.\Generated_Source\PSoC4/LCD_SPIM.c **** 
 448:.\Generated_Source\PSoC4/LCD_SPIM.c ****         LCD_SPIM_EnableRxInt();
 449:.\Generated_Source\PSoC4/LCD_SPIM.c **** 
 450:.\Generated_Source\PSoC4/LCD_SPIM.c ****     #else
ARM GAS  C:\Users\kees\AppData\Local\Temp\cckzdCcV.s 			page 12


 451:.\Generated_Source\PSoC4/LCD_SPIM.c **** 
 452:.\Generated_Source\PSoC4/LCD_SPIM.c ****         tmpStatus = LCD_SPIM_RX_STATUS_REG;
 174              		.loc 1 452 0
 175 0000 014B     		ldr	r3, .L23
 453:.\Generated_Source\PSoC4/LCD_SPIM.c **** 
 454:.\Generated_Source\PSoC4/LCD_SPIM.c ****     #endif /* (LCD_SPIM_RX_SOFTWARE_BUF_ENABLED) */
 455:.\Generated_Source\PSoC4/LCD_SPIM.c **** 
 456:.\Generated_Source\PSoC4/LCD_SPIM.c ****     return(tmpStatus);
 457:.\Generated_Source\PSoC4/LCD_SPIM.c **** }
 176              		.loc 1 457 0
 177              		@ sp needed for prologue
 178              		.loc 1 452 0
 179 0002 1878     		ldrb	r0, [r3]
 180              		.loc 1 457 0
 181 0004 7047     		bx	lr
 182              	.L24:
 183 0006 C046     		.align	2
 184              	.L23:
 185 0008 60000F40 		.word	1074724960
 186              		.cfi_endproc
 187              	.LFE11:
 188              		.size	LCD_SPIM_ReadRxStatus, .-LCD_SPIM_ReadRxStatus
 189              		.section	.text.LCD_SPIM_WriteTxData,"ax",%progbits
 190              		.align	1
 191              		.global	LCD_SPIM_WriteTxData
 192              		.code	16
 193              		.thumb_func
 194              		.type	LCD_SPIM_WriteTxData, %function
 195              	LCD_SPIM_WriteTxData:
 196              	.LFB12:
 458:.\Generated_Source\PSoC4/LCD_SPIM.c **** 
 459:.\Generated_Source\PSoC4/LCD_SPIM.c **** 
 460:.\Generated_Source\PSoC4/LCD_SPIM.c **** /*******************************************************************************
 461:.\Generated_Source\PSoC4/LCD_SPIM.c **** * Function Name: LCD_SPIM_WriteTxData
 462:.\Generated_Source\PSoC4/LCD_SPIM.c **** ********************************************************************************
 463:.\Generated_Source\PSoC4/LCD_SPIM.c **** *
 464:.\Generated_Source\PSoC4/LCD_SPIM.c **** * Summary:
 465:.\Generated_Source\PSoC4/LCD_SPIM.c **** *  Write a byte of data to be sent across the SPI.
 466:.\Generated_Source\PSoC4/LCD_SPIM.c **** *
 467:.\Generated_Source\PSoC4/LCD_SPIM.c **** * Parameters:
 468:.\Generated_Source\PSoC4/LCD_SPIM.c **** *  txDataByte: The data value to send across the SPI.
 469:.\Generated_Source\PSoC4/LCD_SPIM.c **** *
 470:.\Generated_Source\PSoC4/LCD_SPIM.c **** * Return:
 471:.\Generated_Source\PSoC4/LCD_SPIM.c **** *  None.
 472:.\Generated_Source\PSoC4/LCD_SPIM.c **** *
 473:.\Generated_Source\PSoC4/LCD_SPIM.c **** * Global variables:
 474:.\Generated_Source\PSoC4/LCD_SPIM.c **** *  LCD_SPIM_txBufferWrite - used for the account of the bytes which
 475:.\Generated_Source\PSoC4/LCD_SPIM.c **** *  have been written down in the TX software buffer, modified every function
 476:.\Generated_Source\PSoC4/LCD_SPIM.c **** *  call if TX Software Buffer is used.
 477:.\Generated_Source\PSoC4/LCD_SPIM.c **** *  LCD_SPIM_txBufferRead - used for the account of the bytes which
 478:.\Generated_Source\PSoC4/LCD_SPIM.c **** *  have been read from the TX software buffer.
 479:.\Generated_Source\PSoC4/LCD_SPIM.c **** *  LCD_SPIM_txBuffer[LCD_SPIM_TX_BUFFER_SIZE] - used to store
 480:.\Generated_Source\PSoC4/LCD_SPIM.c **** *  data to sending, modified every function call if TX Software Buffer is used.
 481:.\Generated_Source\PSoC4/LCD_SPIM.c **** *
 482:.\Generated_Source\PSoC4/LCD_SPIM.c **** * Theory:
 483:.\Generated_Source\PSoC4/LCD_SPIM.c **** *  Allows the user to transmit any byte of data in a single transfer.
 484:.\Generated_Source\PSoC4/LCD_SPIM.c **** *
ARM GAS  C:\Users\kees\AppData\Local\Temp\cckzdCcV.s 			page 13


 485:.\Generated_Source\PSoC4/LCD_SPIM.c **** * Side Effects:
 486:.\Generated_Source\PSoC4/LCD_SPIM.c **** *  If this function is called again before the previous byte is finished then
 487:.\Generated_Source\PSoC4/LCD_SPIM.c **** *  the next byte will be appended to the transfer with no time between
 488:.\Generated_Source\PSoC4/LCD_SPIM.c **** *  the byte transfers. Clear Tx status register of the component.
 489:.\Generated_Source\PSoC4/LCD_SPIM.c **** *
 490:.\Generated_Source\PSoC4/LCD_SPIM.c **** * Reentrant:
 491:.\Generated_Source\PSoC4/LCD_SPIM.c **** *  No.
 492:.\Generated_Source\PSoC4/LCD_SPIM.c **** *
 493:.\Generated_Source\PSoC4/LCD_SPIM.c **** *******************************************************************************/
 494:.\Generated_Source\PSoC4/LCD_SPIM.c **** void LCD_SPIM_WriteTxData(uint16 txData) 
 495:.\Generated_Source\PSoC4/LCD_SPIM.c **** {
 197              		.loc 1 495 0
 198              		.cfi_startproc
 199 0000 00B5     		push	{lr}
 200              	.LCFI0:
 201              		.cfi_def_cfa_offset 4
 202              		.cfi_offset 14, -4
 203              	.LVL2:
 204              	.L26:
 496:.\Generated_Source\PSoC4/LCD_SPIM.c ****     #if(LCD_SPIM_TX_SOFTWARE_BUF_ENABLED)
 497:.\Generated_Source\PSoC4/LCD_SPIM.c **** 
 498:.\Generated_Source\PSoC4/LCD_SPIM.c ****         uint8 tempStatus;
 499:.\Generated_Source\PSoC4/LCD_SPIM.c ****         uint8 tmpTxBufferRead;
 500:.\Generated_Source\PSoC4/LCD_SPIM.c **** 
 501:.\Generated_Source\PSoC4/LCD_SPIM.c ****         /* Block if TX buffer is FULL: don't overwrite */
 502:.\Generated_Source\PSoC4/LCD_SPIM.c ****         do
 503:.\Generated_Source\PSoC4/LCD_SPIM.c ****         {
 504:.\Generated_Source\PSoC4/LCD_SPIM.c ****             tmpTxBufferRead = LCD_SPIM_txBufferRead;
 505:.\Generated_Source\PSoC4/LCD_SPIM.c ****             if(0u == tmpTxBufferRead)
 506:.\Generated_Source\PSoC4/LCD_SPIM.c ****             {
 507:.\Generated_Source\PSoC4/LCD_SPIM.c ****                 tmpTxBufferRead = (LCD_SPIM_TX_BUFFER_SIZE - 1u);
 508:.\Generated_Source\PSoC4/LCD_SPIM.c ****             }
 509:.\Generated_Source\PSoC4/LCD_SPIM.c ****             else
 510:.\Generated_Source\PSoC4/LCD_SPIM.c ****             {
 511:.\Generated_Source\PSoC4/LCD_SPIM.c ****                 tmpTxBufferRead--;
 512:.\Generated_Source\PSoC4/LCD_SPIM.c ****             }
 513:.\Generated_Source\PSoC4/LCD_SPIM.c **** 
 514:.\Generated_Source\PSoC4/LCD_SPIM.c ****         }while(tmpTxBufferRead == LCD_SPIM_txBufferWrite);
 515:.\Generated_Source\PSoC4/LCD_SPIM.c **** 
 516:.\Generated_Source\PSoC4/LCD_SPIM.c ****         /* Disable TX interrupt to protect global veriables */
 517:.\Generated_Source\PSoC4/LCD_SPIM.c ****         LCD_SPIM_DisableTxInt();
 518:.\Generated_Source\PSoC4/LCD_SPIM.c **** 
 519:.\Generated_Source\PSoC4/LCD_SPIM.c ****         tempStatus = LCD_SPIM_GET_STATUS_TX(LCD_SPIM_swStatusTx);
 520:.\Generated_Source\PSoC4/LCD_SPIM.c ****         LCD_SPIM_swStatusTx = tempStatus;
 521:.\Generated_Source\PSoC4/LCD_SPIM.c **** 
 522:.\Generated_Source\PSoC4/LCD_SPIM.c **** 
 523:.\Generated_Source\PSoC4/LCD_SPIM.c ****         if((LCD_SPIM_txBufferRead == LCD_SPIM_txBufferWrite) &&
 524:.\Generated_Source\PSoC4/LCD_SPIM.c ****            (0u != (LCD_SPIM_swStatusTx & LCD_SPIM_STS_TX_FIFO_NOT_FULL)))
 525:.\Generated_Source\PSoC4/LCD_SPIM.c ****         {
 526:.\Generated_Source\PSoC4/LCD_SPIM.c ****             /* Add directly to the TX FIFO */
 527:.\Generated_Source\PSoC4/LCD_SPIM.c ****             CY_SET_REG16(LCD_SPIM_TXDATA_PTR, txData);
 528:.\Generated_Source\PSoC4/LCD_SPIM.c ****         }
 529:.\Generated_Source\PSoC4/LCD_SPIM.c ****         else
 530:.\Generated_Source\PSoC4/LCD_SPIM.c ****         {
 531:.\Generated_Source\PSoC4/LCD_SPIM.c ****             /* Add to the TX software buffer */
 532:.\Generated_Source\PSoC4/LCD_SPIM.c ****             LCD_SPIM_txBufferWrite++;
 533:.\Generated_Source\PSoC4/LCD_SPIM.c ****             if(LCD_SPIM_txBufferWrite >= LCD_SPIM_TX_BUFFER_SIZE)
ARM GAS  C:\Users\kees\AppData\Local\Temp\cckzdCcV.s 			page 14


 534:.\Generated_Source\PSoC4/LCD_SPIM.c ****             {
 535:.\Generated_Source\PSoC4/LCD_SPIM.c ****                 LCD_SPIM_txBufferWrite = 0u;
 536:.\Generated_Source\PSoC4/LCD_SPIM.c ****             }
 537:.\Generated_Source\PSoC4/LCD_SPIM.c **** 
 538:.\Generated_Source\PSoC4/LCD_SPIM.c ****             if(LCD_SPIM_txBufferWrite == LCD_SPIM_txBufferRead)
 539:.\Generated_Source\PSoC4/LCD_SPIM.c ****             {
 540:.\Generated_Source\PSoC4/LCD_SPIM.c ****                 LCD_SPIM_txBufferRead++;
 541:.\Generated_Source\PSoC4/LCD_SPIM.c ****                 if(LCD_SPIM_txBufferRead >= LCD_SPIM_TX_BUFFER_SIZE)
 542:.\Generated_Source\PSoC4/LCD_SPIM.c ****                 {
 543:.\Generated_Source\PSoC4/LCD_SPIM.c ****                     LCD_SPIM_txBufferRead = 0u;
 544:.\Generated_Source\PSoC4/LCD_SPIM.c ****                 }
 545:.\Generated_Source\PSoC4/LCD_SPIM.c ****                 LCD_SPIM_txBufferFull = 1u;
 546:.\Generated_Source\PSoC4/LCD_SPIM.c ****             }
 547:.\Generated_Source\PSoC4/LCD_SPIM.c **** 
 548:.\Generated_Source\PSoC4/LCD_SPIM.c ****             LCD_SPIM_txBuffer[LCD_SPIM_txBufferWrite] = txData;
 549:.\Generated_Source\PSoC4/LCD_SPIM.c **** 
 550:.\Generated_Source\PSoC4/LCD_SPIM.c ****             LCD_SPIM_TX_STATUS_MASK_REG |= LCD_SPIM_STS_TX_FIFO_NOT_FULL;
 551:.\Generated_Source\PSoC4/LCD_SPIM.c ****         }
 552:.\Generated_Source\PSoC4/LCD_SPIM.c **** 
 553:.\Generated_Source\PSoC4/LCD_SPIM.c ****         LCD_SPIM_EnableTxInt();
 554:.\Generated_Source\PSoC4/LCD_SPIM.c **** 
 555:.\Generated_Source\PSoC4/LCD_SPIM.c ****     #else
 556:.\Generated_Source\PSoC4/LCD_SPIM.c **** 
 557:.\Generated_Source\PSoC4/LCD_SPIM.c ****         while(0u == (LCD_SPIM_TX_STATUS_REG & LCD_SPIM_STS_TX_FIFO_NOT_FULL))
 205              		.loc 1 557 0
 206 0002 034B     		ldr	r3, .L29
 207 0004 1B78     		ldrb	r3, [r3]
 208 0006 5A07     		lsl	r2, r3, #29
 209 0008 FBD5     		bpl	.L26
 558:.\Generated_Source\PSoC4/LCD_SPIM.c ****         {
 559:.\Generated_Source\PSoC4/LCD_SPIM.c ****             ; /* Wait for room in FIFO */
 560:.\Generated_Source\PSoC4/LCD_SPIM.c ****         }
 561:.\Generated_Source\PSoC4/LCD_SPIM.c **** 
 562:.\Generated_Source\PSoC4/LCD_SPIM.c ****         /* Put byte in TX FIFO */
 563:.\Generated_Source\PSoC4/LCD_SPIM.c ****         CY_SET_REG16(LCD_SPIM_TXDATA_PTR, txData);
 210              		.loc 1 563 0
 211 000a 024B     		ldr	r3, .L29+4
 564:.\Generated_Source\PSoC4/LCD_SPIM.c **** 
 565:.\Generated_Source\PSoC4/LCD_SPIM.c ****     #endif /* (LCD_SPIM_TX_SOFTWARE_BUF_ENABLED) */
 566:.\Generated_Source\PSoC4/LCD_SPIM.c **** }
 212              		.loc 1 566 0
 213              		@ sp needed for prologue
 214              		.loc 1 563 0
 215 000c 1880     		strh	r0, [r3]
 216              		.loc 1 566 0
 217 000e 00BD     		pop	{pc}
 218              	.L30:
 219              		.align	2
 220              	.L29:
 221 0010 62000F40 		.word	1074724962
 222 0014 84100F40 		.word	1074729092
 223              		.cfi_endproc
 224              	.LFE12:
 225              		.size	LCD_SPIM_WriteTxData, .-LCD_SPIM_WriteTxData
 226              		.section	.text.LCD_SPIM_ReadRxData,"ax",%progbits
 227              		.align	1
 228              		.global	LCD_SPIM_ReadRxData
ARM GAS  C:\Users\kees\AppData\Local\Temp\cckzdCcV.s 			page 15


 229              		.code	16
 230              		.thumb_func
 231              		.type	LCD_SPIM_ReadRxData, %function
 232              	LCD_SPIM_ReadRxData:
 233              	.LFB13:
 567:.\Generated_Source\PSoC4/LCD_SPIM.c **** 
 568:.\Generated_Source\PSoC4/LCD_SPIM.c **** 
 569:.\Generated_Source\PSoC4/LCD_SPIM.c **** /*******************************************************************************
 570:.\Generated_Source\PSoC4/LCD_SPIM.c **** * Function Name: LCD_SPIM_ReadRxData
 571:.\Generated_Source\PSoC4/LCD_SPIM.c **** ********************************************************************************
 572:.\Generated_Source\PSoC4/LCD_SPIM.c **** *
 573:.\Generated_Source\PSoC4/LCD_SPIM.c **** * Summary:
 574:.\Generated_Source\PSoC4/LCD_SPIM.c **** *  Read the next byte of data received across the SPI.
 575:.\Generated_Source\PSoC4/LCD_SPIM.c **** *
 576:.\Generated_Source\PSoC4/LCD_SPIM.c **** * Parameters:
 577:.\Generated_Source\PSoC4/LCD_SPIM.c **** *  None.
 578:.\Generated_Source\PSoC4/LCD_SPIM.c **** *
 579:.\Generated_Source\PSoC4/LCD_SPIM.c **** * Return:
 580:.\Generated_Source\PSoC4/LCD_SPIM.c **** *  The next byte of data read from the FIFO.
 581:.\Generated_Source\PSoC4/LCD_SPIM.c **** *
 582:.\Generated_Source\PSoC4/LCD_SPIM.c **** * Global variables:
 583:.\Generated_Source\PSoC4/LCD_SPIM.c **** *  LCD_SPIM_rxBufferWrite - used for the account of the bytes which
 584:.\Generated_Source\PSoC4/LCD_SPIM.c **** *  have been written down in the RX software buffer.
 585:.\Generated_Source\PSoC4/LCD_SPIM.c **** *  LCD_SPIM_rxBufferRead - used for the account of the bytes which
 586:.\Generated_Source\PSoC4/LCD_SPIM.c **** *  have been read from the RX software buffer, modified every function
 587:.\Generated_Source\PSoC4/LCD_SPIM.c **** *  call if RX Software Buffer is used.
 588:.\Generated_Source\PSoC4/LCD_SPIM.c **** *  LCD_SPIM_rxBuffer[LCD_SPIM_RX_BUFFER_SIZE] - used to store
 589:.\Generated_Source\PSoC4/LCD_SPIM.c **** *  received data.
 590:.\Generated_Source\PSoC4/LCD_SPIM.c **** *
 591:.\Generated_Source\PSoC4/LCD_SPIM.c **** * Theory:
 592:.\Generated_Source\PSoC4/LCD_SPIM.c **** *  Allows the user to read a byte of data received.
 593:.\Generated_Source\PSoC4/LCD_SPIM.c **** *
 594:.\Generated_Source\PSoC4/LCD_SPIM.c **** * Side Effects:
 595:.\Generated_Source\PSoC4/LCD_SPIM.c **** *  Will return invalid data if the FIFO is empty. The user should Call
 596:.\Generated_Source\PSoC4/LCD_SPIM.c **** *  GetRxBufferSize() and if it returns a non-zero value then it is safe to call
 597:.\Generated_Source\PSoC4/LCD_SPIM.c **** *  ReadByte() function.
 598:.\Generated_Source\PSoC4/LCD_SPIM.c **** *
 599:.\Generated_Source\PSoC4/LCD_SPIM.c **** * Reentrant:
 600:.\Generated_Source\PSoC4/LCD_SPIM.c **** *  No.
 601:.\Generated_Source\PSoC4/LCD_SPIM.c **** *
 602:.\Generated_Source\PSoC4/LCD_SPIM.c **** *******************************************************************************/
 603:.\Generated_Source\PSoC4/LCD_SPIM.c **** uint16 LCD_SPIM_ReadRxData(void) 
 604:.\Generated_Source\PSoC4/LCD_SPIM.c **** {
 234              		.loc 1 604 0
 235              		.cfi_startproc
 605:.\Generated_Source\PSoC4/LCD_SPIM.c ****     uint16 rxData;
 606:.\Generated_Source\PSoC4/LCD_SPIM.c **** 
 607:.\Generated_Source\PSoC4/LCD_SPIM.c ****     #if(LCD_SPIM_RX_SOFTWARE_BUF_ENABLED)
 608:.\Generated_Source\PSoC4/LCD_SPIM.c **** 
 609:.\Generated_Source\PSoC4/LCD_SPIM.c ****         /* Disable RX interrupt to protect global veriables */
 610:.\Generated_Source\PSoC4/LCD_SPIM.c ****         LCD_SPIM_DisableRxInt();
 611:.\Generated_Source\PSoC4/LCD_SPIM.c **** 
 612:.\Generated_Source\PSoC4/LCD_SPIM.c ****         if(LCD_SPIM_rxBufferRead != LCD_SPIM_rxBufferWrite)
 613:.\Generated_Source\PSoC4/LCD_SPIM.c ****         {
 614:.\Generated_Source\PSoC4/LCD_SPIM.c ****             if(0u == LCD_SPIM_rxBufferFull)
 615:.\Generated_Source\PSoC4/LCD_SPIM.c ****             {
 616:.\Generated_Source\PSoC4/LCD_SPIM.c ****                 LCD_SPIM_rxBufferRead++;
ARM GAS  C:\Users\kees\AppData\Local\Temp\cckzdCcV.s 			page 16


 617:.\Generated_Source\PSoC4/LCD_SPIM.c ****                 if(LCD_SPIM_rxBufferRead >= LCD_SPIM_RX_BUFFER_SIZE)
 618:.\Generated_Source\PSoC4/LCD_SPIM.c ****                 {
 619:.\Generated_Source\PSoC4/LCD_SPIM.c ****                     LCD_SPIM_rxBufferRead = 0u;
 620:.\Generated_Source\PSoC4/LCD_SPIM.c ****                 }
 621:.\Generated_Source\PSoC4/LCD_SPIM.c ****             }
 622:.\Generated_Source\PSoC4/LCD_SPIM.c ****             else
 623:.\Generated_Source\PSoC4/LCD_SPIM.c ****             {
 624:.\Generated_Source\PSoC4/LCD_SPIM.c ****                 LCD_SPIM_rxBufferFull = 0u;
 625:.\Generated_Source\PSoC4/LCD_SPIM.c ****             }
 626:.\Generated_Source\PSoC4/LCD_SPIM.c ****         }
 627:.\Generated_Source\PSoC4/LCD_SPIM.c **** 
 628:.\Generated_Source\PSoC4/LCD_SPIM.c ****         rxData = LCD_SPIM_rxBuffer[LCD_SPIM_rxBufferRead];
 629:.\Generated_Source\PSoC4/LCD_SPIM.c **** 
 630:.\Generated_Source\PSoC4/LCD_SPIM.c ****         LCD_SPIM_EnableRxInt();
 631:.\Generated_Source\PSoC4/LCD_SPIM.c **** 
 632:.\Generated_Source\PSoC4/LCD_SPIM.c ****     #else
 633:.\Generated_Source\PSoC4/LCD_SPIM.c **** 
 634:.\Generated_Source\PSoC4/LCD_SPIM.c ****         rxData = CY_GET_REG16(LCD_SPIM_RXDATA_PTR);
 236              		.loc 1 634 0
 237 0000 014B     		ldr	r3, .L33
 635:.\Generated_Source\PSoC4/LCD_SPIM.c **** 
 636:.\Generated_Source\PSoC4/LCD_SPIM.c ****     #endif /* (LCD_SPIM_RX_SOFTWARE_BUF_ENABLED) */
 637:.\Generated_Source\PSoC4/LCD_SPIM.c **** 
 638:.\Generated_Source\PSoC4/LCD_SPIM.c ****     return(rxData);
 639:.\Generated_Source\PSoC4/LCD_SPIM.c **** }
 238              		.loc 1 639 0
 239              		@ sp needed for prologue
 240              		.loc 1 634 0
 241 0002 1888     		ldrh	r0, [r3]
 242              		.loc 1 639 0
 243 0004 7047     		bx	lr
 244              	.L34:
 245 0006 C046     		.align	2
 246              	.L33:
 247 0008 A4100F40 		.word	1074729124
 248              		.cfi_endproc
 249              	.LFE13:
 250              		.size	LCD_SPIM_ReadRxData, .-LCD_SPIM_ReadRxData
 251              		.section	.text.LCD_SPIM_GetRxBufferSize,"ax",%progbits
 252              		.align	1
 253              		.global	LCD_SPIM_GetRxBufferSize
 254              		.code	16
 255              		.thumb_func
 256              		.type	LCD_SPIM_GetRxBufferSize, %function
 257              	LCD_SPIM_GetRxBufferSize:
 258              	.LFB14:
 640:.\Generated_Source\PSoC4/LCD_SPIM.c **** 
 641:.\Generated_Source\PSoC4/LCD_SPIM.c **** 
 642:.\Generated_Source\PSoC4/LCD_SPIM.c **** /*******************************************************************************
 643:.\Generated_Source\PSoC4/LCD_SPIM.c **** * Function Name: LCD_SPIM_GetRxBufferSize
 644:.\Generated_Source\PSoC4/LCD_SPIM.c **** ********************************************************************************
 645:.\Generated_Source\PSoC4/LCD_SPIM.c **** *
 646:.\Generated_Source\PSoC4/LCD_SPIM.c **** * Summary:
 647:.\Generated_Source\PSoC4/LCD_SPIM.c **** *  Returns the number of bytes/words of data currently held in the RX buffer.
 648:.\Generated_Source\PSoC4/LCD_SPIM.c **** *  If RX Software Buffer not used then function return 0 if FIFO empty or 1 if
 649:.\Generated_Source\PSoC4/LCD_SPIM.c **** *  FIFO not empty. In another case function return size of RX Software Buffer.
 650:.\Generated_Source\PSoC4/LCD_SPIM.c **** *
ARM GAS  C:\Users\kees\AppData\Local\Temp\cckzdCcV.s 			page 17


 651:.\Generated_Source\PSoC4/LCD_SPIM.c **** * Parameters:
 652:.\Generated_Source\PSoC4/LCD_SPIM.c **** *  None.
 653:.\Generated_Source\PSoC4/LCD_SPIM.c **** *
 654:.\Generated_Source\PSoC4/LCD_SPIM.c **** * Return:
 655:.\Generated_Source\PSoC4/LCD_SPIM.c **** *  Integer count of the number of bytes/words in the RX buffer.
 656:.\Generated_Source\PSoC4/LCD_SPIM.c **** *
 657:.\Generated_Source\PSoC4/LCD_SPIM.c **** * Global variables:
 658:.\Generated_Source\PSoC4/LCD_SPIM.c **** *  LCD_SPIM_rxBufferWrite - used for the account of the bytes which
 659:.\Generated_Source\PSoC4/LCD_SPIM.c **** *  have been written down in the RX software buffer.
 660:.\Generated_Source\PSoC4/LCD_SPIM.c **** *  LCD_SPIM_rxBufferRead - used for the account of the bytes which
 661:.\Generated_Source\PSoC4/LCD_SPIM.c **** *  have been read from the RX software buffer.
 662:.\Generated_Source\PSoC4/LCD_SPIM.c **** *
 663:.\Generated_Source\PSoC4/LCD_SPIM.c **** * Side Effects:
 664:.\Generated_Source\PSoC4/LCD_SPIM.c **** *  Clear status register of the component.
 665:.\Generated_Source\PSoC4/LCD_SPIM.c **** *
 666:.\Generated_Source\PSoC4/LCD_SPIM.c **** *******************************************************************************/
 667:.\Generated_Source\PSoC4/LCD_SPIM.c **** uint8 LCD_SPIM_GetRxBufferSize(void) 
 668:.\Generated_Source\PSoC4/LCD_SPIM.c **** {
 259              		.loc 1 668 0
 260              		.cfi_startproc
 669:.\Generated_Source\PSoC4/LCD_SPIM.c ****     uint8 size;
 670:.\Generated_Source\PSoC4/LCD_SPIM.c **** 
 671:.\Generated_Source\PSoC4/LCD_SPIM.c ****     #if(LCD_SPIM_RX_SOFTWARE_BUF_ENABLED)
 672:.\Generated_Source\PSoC4/LCD_SPIM.c **** 
 673:.\Generated_Source\PSoC4/LCD_SPIM.c ****         /* Disable RX interrupt to protect global veriables */
 674:.\Generated_Source\PSoC4/LCD_SPIM.c ****         LCD_SPIM_DisableRxInt();
 675:.\Generated_Source\PSoC4/LCD_SPIM.c **** 
 676:.\Generated_Source\PSoC4/LCD_SPIM.c ****         if(LCD_SPIM_rxBufferRead == LCD_SPIM_rxBufferWrite)
 677:.\Generated_Source\PSoC4/LCD_SPIM.c ****         {
 678:.\Generated_Source\PSoC4/LCD_SPIM.c ****             size = 0u;
 679:.\Generated_Source\PSoC4/LCD_SPIM.c ****         }
 680:.\Generated_Source\PSoC4/LCD_SPIM.c ****         else if(LCD_SPIM_rxBufferRead < LCD_SPIM_rxBufferWrite)
 681:.\Generated_Source\PSoC4/LCD_SPIM.c ****         {
 682:.\Generated_Source\PSoC4/LCD_SPIM.c ****             size = (LCD_SPIM_rxBufferWrite - LCD_SPIM_rxBufferRead);
 683:.\Generated_Source\PSoC4/LCD_SPIM.c ****         }
 684:.\Generated_Source\PSoC4/LCD_SPIM.c ****         else
 685:.\Generated_Source\PSoC4/LCD_SPIM.c ****         {
 686:.\Generated_Source\PSoC4/LCD_SPIM.c ****             size = (LCD_SPIM_RX_BUFFER_SIZE - LCD_SPIM_rxBufferRead) + LCD_SPIM_rxBufferWrite;
 687:.\Generated_Source\PSoC4/LCD_SPIM.c ****         }
 688:.\Generated_Source\PSoC4/LCD_SPIM.c **** 
 689:.\Generated_Source\PSoC4/LCD_SPIM.c ****         LCD_SPIM_EnableRxInt();
 690:.\Generated_Source\PSoC4/LCD_SPIM.c **** 
 691:.\Generated_Source\PSoC4/LCD_SPIM.c ****     #else
 692:.\Generated_Source\PSoC4/LCD_SPIM.c **** 
 693:.\Generated_Source\PSoC4/LCD_SPIM.c ****         /* We can only know if there is data in the RX FIFO */
 694:.\Generated_Source\PSoC4/LCD_SPIM.c ****         size = (0u != (LCD_SPIM_RX_STATUS_REG & LCD_SPIM_STS_RX_FIFO_NOT_EMPTY)) ? 1u : 0u;
 261              		.loc 1 694 0
 262 0000 024B     		ldr	r3, .L37
 695:.\Generated_Source\PSoC4/LCD_SPIM.c **** 
 696:.\Generated_Source\PSoC4/LCD_SPIM.c ****     #endif /* (LCD_SPIM_TX_SOFTWARE_BUF_ENABLED) */
 697:.\Generated_Source\PSoC4/LCD_SPIM.c **** 
 698:.\Generated_Source\PSoC4/LCD_SPIM.c ****     return(size);
 699:.\Generated_Source\PSoC4/LCD_SPIM.c **** }
 263              		.loc 1 699 0
 264              		@ sp needed for prologue
 265              		.loc 1 694 0
 266 0002 1878     		ldrb	r0, [r3]
ARM GAS  C:\Users\kees\AppData\Local\Temp\cckzdCcV.s 			page 18


 267 0004 8006     		lsl	r0, r0, #26
 268 0006 C00F     		lsr	r0, r0, #31
 269              		.loc 1 699 0
 270 0008 7047     		bx	lr
 271              	.L38:
 272 000a C046     		.align	2
 273              	.L37:
 274 000c 60000F40 		.word	1074724960
 275              		.cfi_endproc
 276              	.LFE14:
 277              		.size	LCD_SPIM_GetRxBufferSize, .-LCD_SPIM_GetRxBufferSize
 278              		.section	.text.LCD_SPIM_GetTxBufferSize,"ax",%progbits
 279              		.align	1
 280              		.global	LCD_SPIM_GetTxBufferSize
 281              		.code	16
 282              		.thumb_func
 283              		.type	LCD_SPIM_GetTxBufferSize, %function
 284              	LCD_SPIM_GetTxBufferSize:
 285              	.LFB15:
 700:.\Generated_Source\PSoC4/LCD_SPIM.c **** 
 701:.\Generated_Source\PSoC4/LCD_SPIM.c **** 
 702:.\Generated_Source\PSoC4/LCD_SPIM.c **** /*******************************************************************************
 703:.\Generated_Source\PSoC4/LCD_SPIM.c **** * Function Name: LCD_SPIM_GetTxBufferSize
 704:.\Generated_Source\PSoC4/LCD_SPIM.c **** ********************************************************************************
 705:.\Generated_Source\PSoC4/LCD_SPIM.c **** *
 706:.\Generated_Source\PSoC4/LCD_SPIM.c **** * Summary:
 707:.\Generated_Source\PSoC4/LCD_SPIM.c **** *  Returns the number of bytes/words of data currently held in the TX buffer.
 708:.\Generated_Source\PSoC4/LCD_SPIM.c **** *  If TX Software Buffer not used then function return 0 - if FIFO empty, 1 - if
 709:.\Generated_Source\PSoC4/LCD_SPIM.c **** *  FIFO not full, 4 - if FIFO full. In another case function return size of TX
 710:.\Generated_Source\PSoC4/LCD_SPIM.c **** *  Software Buffer.
 711:.\Generated_Source\PSoC4/LCD_SPIM.c **** *
 712:.\Generated_Source\PSoC4/LCD_SPIM.c **** * Parameters:
 713:.\Generated_Source\PSoC4/LCD_SPIM.c **** *  None.
 714:.\Generated_Source\PSoC4/LCD_SPIM.c **** *
 715:.\Generated_Source\PSoC4/LCD_SPIM.c **** * Return:
 716:.\Generated_Source\PSoC4/LCD_SPIM.c **** *  Integer count of the number of bytes/words in the TX buffer.
 717:.\Generated_Source\PSoC4/LCD_SPIM.c **** *
 718:.\Generated_Source\PSoC4/LCD_SPIM.c **** * Global variables:
 719:.\Generated_Source\PSoC4/LCD_SPIM.c **** *  LCD_SPIM_txBufferWrite - used for the account of the bytes which
 720:.\Generated_Source\PSoC4/LCD_SPIM.c **** *  have been written down in the TX software buffer.
 721:.\Generated_Source\PSoC4/LCD_SPIM.c **** *  LCD_SPIM_txBufferRead - used for the account of the bytes which
 722:.\Generated_Source\PSoC4/LCD_SPIM.c **** *  have been read from the TX software buffer.
 723:.\Generated_Source\PSoC4/LCD_SPIM.c **** *
 724:.\Generated_Source\PSoC4/LCD_SPIM.c **** * Side Effects:
 725:.\Generated_Source\PSoC4/LCD_SPIM.c **** *  Clear status register of the component.
 726:.\Generated_Source\PSoC4/LCD_SPIM.c **** *
 727:.\Generated_Source\PSoC4/LCD_SPIM.c **** *******************************************************************************/
 728:.\Generated_Source\PSoC4/LCD_SPIM.c **** uint8  LCD_SPIM_GetTxBufferSize(void) 
 729:.\Generated_Source\PSoC4/LCD_SPIM.c **** {
 286              		.loc 1 729 0
 287              		.cfi_startproc
 288 0000 00B5     		push	{lr}
 289              	.LCFI1:
 290              		.cfi_def_cfa_offset 4
 291              		.cfi_offset 14, -4
 730:.\Generated_Source\PSoC4/LCD_SPIM.c ****     uint8 size;
 731:.\Generated_Source\PSoC4/LCD_SPIM.c **** 
ARM GAS  C:\Users\kees\AppData\Local\Temp\cckzdCcV.s 			page 19


 732:.\Generated_Source\PSoC4/LCD_SPIM.c ****     #if(LCD_SPIM_TX_SOFTWARE_BUF_ENABLED)
 733:.\Generated_Source\PSoC4/LCD_SPIM.c ****         /* Disable TX interrupt to protect global veriables */
 734:.\Generated_Source\PSoC4/LCD_SPIM.c ****         LCD_SPIM_DisableTxInt();
 735:.\Generated_Source\PSoC4/LCD_SPIM.c **** 
 736:.\Generated_Source\PSoC4/LCD_SPIM.c ****         if(LCD_SPIM_txBufferRead == LCD_SPIM_txBufferWrite)
 737:.\Generated_Source\PSoC4/LCD_SPIM.c ****         {
 738:.\Generated_Source\PSoC4/LCD_SPIM.c ****             size = 0u;
 739:.\Generated_Source\PSoC4/LCD_SPIM.c ****         }
 740:.\Generated_Source\PSoC4/LCD_SPIM.c ****         else if(LCD_SPIM_txBufferRead < LCD_SPIM_txBufferWrite)
 741:.\Generated_Source\PSoC4/LCD_SPIM.c ****         {
 742:.\Generated_Source\PSoC4/LCD_SPIM.c ****             size = (LCD_SPIM_txBufferWrite - LCD_SPIM_txBufferRead);
 743:.\Generated_Source\PSoC4/LCD_SPIM.c ****         }
 744:.\Generated_Source\PSoC4/LCD_SPIM.c ****         else
 745:.\Generated_Source\PSoC4/LCD_SPIM.c ****         {
 746:.\Generated_Source\PSoC4/LCD_SPIM.c ****             size = (LCD_SPIM_TX_BUFFER_SIZE - LCD_SPIM_txBufferRead) + LCD_SPIM_txBufferWrite;
 747:.\Generated_Source\PSoC4/LCD_SPIM.c ****         }
 748:.\Generated_Source\PSoC4/LCD_SPIM.c **** 
 749:.\Generated_Source\PSoC4/LCD_SPIM.c ****         LCD_SPIM_EnableTxInt();
 750:.\Generated_Source\PSoC4/LCD_SPIM.c **** 
 751:.\Generated_Source\PSoC4/LCD_SPIM.c ****     #else
 752:.\Generated_Source\PSoC4/LCD_SPIM.c **** 
 753:.\Generated_Source\PSoC4/LCD_SPIM.c ****         size = LCD_SPIM_TX_STATUS_REG;
 292              		.loc 1 753 0
 293 0002 064B     		ldr	r3, .L44
 294 0004 1B78     		ldrb	r3, [r3]
 754:.\Generated_Source\PSoC4/LCD_SPIM.c **** 
 755:.\Generated_Source\PSoC4/LCD_SPIM.c ****         if(0u != (size & LCD_SPIM_STS_TX_FIFO_EMPTY))
 295              		.loc 1 755 0
 296 0006 9A07     		lsl	r2, r3, #30
 297 0008 01D5     		bpl	.L40
 298              	.LVL3:
 299 000a 0020     		mov	r0, #0
 300              	.LVL4:
 301 000c 04E0     		b	.L41
 302              	.LVL5:
 303              	.L40:
 756:.\Generated_Source\PSoC4/LCD_SPIM.c ****         {
 757:.\Generated_Source\PSoC4/LCD_SPIM.c ****             size = 0u;
 758:.\Generated_Source\PSoC4/LCD_SPIM.c ****         }
 759:.\Generated_Source\PSoC4/LCD_SPIM.c ****         else if(0u != (size & LCD_SPIM_STS_TX_FIFO_NOT_FULL))
 304              		.loc 1 759 0
 305 000e 5A07     		lsl	r2, r3, #29
 306 0010 01D4     		bmi	.L42
 307 0012 0420     		mov	r0, #4
 308              	.LVL6:
 309 0014 00E0     		b	.L41
 310              	.LVL7:
 311              	.L42:
 312 0016 0120     		mov	r0, #1
 313              	.LVL8:
 314              	.L41:
 315              	.LVL9:
 760:.\Generated_Source\PSoC4/LCD_SPIM.c ****         {
 761:.\Generated_Source\PSoC4/LCD_SPIM.c ****             size = 1u;
 762:.\Generated_Source\PSoC4/LCD_SPIM.c ****         }
 763:.\Generated_Source\PSoC4/LCD_SPIM.c ****         else
 764:.\Generated_Source\PSoC4/LCD_SPIM.c ****         {
ARM GAS  C:\Users\kees\AppData\Local\Temp\cckzdCcV.s 			page 20


 765:.\Generated_Source\PSoC4/LCD_SPIM.c ****             size = LCD_SPIM_FIFO_SIZE;
 766:.\Generated_Source\PSoC4/LCD_SPIM.c ****         }
 767:.\Generated_Source\PSoC4/LCD_SPIM.c **** 
 768:.\Generated_Source\PSoC4/LCD_SPIM.c ****     #endif /* (LCD_SPIM_TX_SOFTWARE_BUF_ENABLED) */
 769:.\Generated_Source\PSoC4/LCD_SPIM.c **** 
 770:.\Generated_Source\PSoC4/LCD_SPIM.c ****     return(size);
 771:.\Generated_Source\PSoC4/LCD_SPIM.c **** }
 316              		.loc 1 771 0
 317              		@ sp needed for prologue
 318 0018 00BD     		pop	{pc}
 319              	.L45:
 320 001a C046     		.align	2
 321              	.L44:
 322 001c 62000F40 		.word	1074724962
 323              		.cfi_endproc
 324              	.LFE15:
 325              		.size	LCD_SPIM_GetTxBufferSize, .-LCD_SPIM_GetTxBufferSize
 326              		.section	.text.LCD_SPIM_ClearRxBuffer,"ax",%progbits
 327              		.align	1
 328              		.global	LCD_SPIM_ClearRxBuffer
 329              		.code	16
 330              		.thumb_func
 331              		.type	LCD_SPIM_ClearRxBuffer, %function
 332              	LCD_SPIM_ClearRxBuffer:
 333              	.LFB16:
 772:.\Generated_Source\PSoC4/LCD_SPIM.c **** 
 773:.\Generated_Source\PSoC4/LCD_SPIM.c **** 
 774:.\Generated_Source\PSoC4/LCD_SPIM.c **** /*******************************************************************************
 775:.\Generated_Source\PSoC4/LCD_SPIM.c **** * Function Name: LCD_SPIM_ClearRxBuffer
 776:.\Generated_Source\PSoC4/LCD_SPIM.c **** ********************************************************************************
 777:.\Generated_Source\PSoC4/LCD_SPIM.c **** *
 778:.\Generated_Source\PSoC4/LCD_SPIM.c **** * Summary:
 779:.\Generated_Source\PSoC4/LCD_SPIM.c **** *  Clear the RX RAM buffer by setting the read and write pointers both to zero.
 780:.\Generated_Source\PSoC4/LCD_SPIM.c **** *
 781:.\Generated_Source\PSoC4/LCD_SPIM.c **** * Parameters:
 782:.\Generated_Source\PSoC4/LCD_SPIM.c **** *  None.
 783:.\Generated_Source\PSoC4/LCD_SPIM.c **** *
 784:.\Generated_Source\PSoC4/LCD_SPIM.c **** * Return:
 785:.\Generated_Source\PSoC4/LCD_SPIM.c **** *  None.
 786:.\Generated_Source\PSoC4/LCD_SPIM.c **** *
 787:.\Generated_Source\PSoC4/LCD_SPIM.c **** * Global variables:
 788:.\Generated_Source\PSoC4/LCD_SPIM.c **** *  LCD_SPIM_rxBufferWrite - used for the account of the bytes which
 789:.\Generated_Source\PSoC4/LCD_SPIM.c **** *  have been written down in the RX software buffer, modified every function
 790:.\Generated_Source\PSoC4/LCD_SPIM.c **** *  call - resets to zero.
 791:.\Generated_Source\PSoC4/LCD_SPIM.c **** *  LCD_SPIM_rxBufferRead - used for the account of the bytes which
 792:.\Generated_Source\PSoC4/LCD_SPIM.c **** *  have been read from the RX software buffer, modified every function call -
 793:.\Generated_Source\PSoC4/LCD_SPIM.c **** *  resets to zero.
 794:.\Generated_Source\PSoC4/LCD_SPIM.c **** *
 795:.\Generated_Source\PSoC4/LCD_SPIM.c **** * Theory:
 796:.\Generated_Source\PSoC4/LCD_SPIM.c **** *  Setting the pointers to zero makes the system believe there is no data to
 797:.\Generated_Source\PSoC4/LCD_SPIM.c **** *  read and writing will resume at address 0 overwriting any data that may have
 798:.\Generated_Source\PSoC4/LCD_SPIM.c **** *  remained in the RAM.
 799:.\Generated_Source\PSoC4/LCD_SPIM.c **** *
 800:.\Generated_Source\PSoC4/LCD_SPIM.c **** * Side Effects:
 801:.\Generated_Source\PSoC4/LCD_SPIM.c **** *  Any received data not read from the RAM buffer will be lost when overwritten.
 802:.\Generated_Source\PSoC4/LCD_SPIM.c **** *
 803:.\Generated_Source\PSoC4/LCD_SPIM.c **** * Reentrant:
ARM GAS  C:\Users\kees\AppData\Local\Temp\cckzdCcV.s 			page 21


 804:.\Generated_Source\PSoC4/LCD_SPIM.c **** *  No.
 805:.\Generated_Source\PSoC4/LCD_SPIM.c **** *
 806:.\Generated_Source\PSoC4/LCD_SPIM.c **** *******************************************************************************/
 807:.\Generated_Source\PSoC4/LCD_SPIM.c **** void LCD_SPIM_ClearRxBuffer(void) 
 808:.\Generated_Source\PSoC4/LCD_SPIM.c **** {
 334              		.loc 1 808 0
 335              		.cfi_startproc
 336 0000 00B5     		push	{lr}
 337              	.LCFI2:
 338              		.cfi_def_cfa_offset 4
 339              		.cfi_offset 14, -4
 809:.\Generated_Source\PSoC4/LCD_SPIM.c ****     /* Clear Hardware RX FIFO */
 810:.\Generated_Source\PSoC4/LCD_SPIM.c ****     while(0u !=(LCD_SPIM_RX_STATUS_REG & LCD_SPIM_STS_RX_FIFO_NOT_EMPTY))
 340              		.loc 1 810 0
 341 0002 01E0     		b	.L47
 342              	.L48:
 811:.\Generated_Source\PSoC4/LCD_SPIM.c ****     {
 812:.\Generated_Source\PSoC4/LCD_SPIM.c ****         (void) CY_GET_REG16(LCD_SPIM_RXDATA_PTR);
 343              		.loc 1 812 0
 344 0004 034B     		ldr	r3, .L50
 345 0006 1B88     		ldrh	r3, [r3]
 346              	.L47:
 347              		.loc 1 810 0
 348 0008 034B     		ldr	r3, .L50+4
 349 000a 1B78     		ldrb	r3, [r3]
 350 000c 9A06     		lsl	r2, r3, #26
 351 000e F9D4     		bmi	.L48
 813:.\Generated_Source\PSoC4/LCD_SPIM.c ****     }
 814:.\Generated_Source\PSoC4/LCD_SPIM.c **** 
 815:.\Generated_Source\PSoC4/LCD_SPIM.c ****     #if(LCD_SPIM_RX_SOFTWARE_BUF_ENABLED)
 816:.\Generated_Source\PSoC4/LCD_SPIM.c ****         /* Disable RX interrupt to protect global veriables */
 817:.\Generated_Source\PSoC4/LCD_SPIM.c ****         LCD_SPIM_DisableRxInt();
 818:.\Generated_Source\PSoC4/LCD_SPIM.c **** 
 819:.\Generated_Source\PSoC4/LCD_SPIM.c ****         LCD_SPIM_rxBufferFull  = 0u;
 820:.\Generated_Source\PSoC4/LCD_SPIM.c ****         LCD_SPIM_rxBufferRead  = 0u;
 821:.\Generated_Source\PSoC4/LCD_SPIM.c ****         LCD_SPIM_rxBufferWrite = 0u;
 822:.\Generated_Source\PSoC4/LCD_SPIM.c **** 
 823:.\Generated_Source\PSoC4/LCD_SPIM.c ****         LCD_SPIM_EnableRxInt();
 824:.\Generated_Source\PSoC4/LCD_SPIM.c ****     #endif /* (LCD_SPIM_RX_SOFTWARE_BUF_ENABLED) */
 825:.\Generated_Source\PSoC4/LCD_SPIM.c **** }
 352              		.loc 1 825 0
 353              		@ sp needed for prologue
 354 0010 00BD     		pop	{pc}
 355              	.L51:
 356 0012 C046     		.align	2
 357              	.L50:
 358 0014 A4100F40 		.word	1074729124
 359 0018 60000F40 		.word	1074724960
 360              		.cfi_endproc
 361              	.LFE16:
 362              		.size	LCD_SPIM_ClearRxBuffer, .-LCD_SPIM_ClearRxBuffer
 363              		.section	.text.LCD_SPIM_PutArray,"ax",%progbits
 364              		.align	1
 365              		.global	LCD_SPIM_PutArray
 366              		.code	16
 367              		.thumb_func
 368              		.type	LCD_SPIM_PutArray, %function
ARM GAS  C:\Users\kees\AppData\Local\Temp\cckzdCcV.s 			page 22


 369              	LCD_SPIM_PutArray:
 370              	.LFB18:
 826:.\Generated_Source\PSoC4/LCD_SPIM.c **** 
 827:.\Generated_Source\PSoC4/LCD_SPIM.c **** 
 828:.\Generated_Source\PSoC4/LCD_SPIM.c **** /*******************************************************************************
 829:.\Generated_Source\PSoC4/LCD_SPIM.c **** * Function Name: LCD_SPIM_ClearTxBuffer
 830:.\Generated_Source\PSoC4/LCD_SPIM.c **** ********************************************************************************
 831:.\Generated_Source\PSoC4/LCD_SPIM.c **** *
 832:.\Generated_Source\PSoC4/LCD_SPIM.c **** * Summary:
 833:.\Generated_Source\PSoC4/LCD_SPIM.c **** *  Clear the TX RAM buffer by setting the read and write pointers both to zero.
 834:.\Generated_Source\PSoC4/LCD_SPIM.c **** *
 835:.\Generated_Source\PSoC4/LCD_SPIM.c **** * Parameters:
 836:.\Generated_Source\PSoC4/LCD_SPIM.c **** *  None.
 837:.\Generated_Source\PSoC4/LCD_SPIM.c **** *
 838:.\Generated_Source\PSoC4/LCD_SPIM.c **** * Return:
 839:.\Generated_Source\PSoC4/LCD_SPIM.c **** *  None.
 840:.\Generated_Source\PSoC4/LCD_SPIM.c **** *
 841:.\Generated_Source\PSoC4/LCD_SPIM.c **** * Global variables:
 842:.\Generated_Source\PSoC4/LCD_SPIM.c **** *  LCD_SPIM_txBufferWrite - used for the account of the bytes which
 843:.\Generated_Source\PSoC4/LCD_SPIM.c **** *  have been written down in the TX software buffer, modified every function
 844:.\Generated_Source\PSoC4/LCD_SPIM.c **** *  call - resets to zero.
 845:.\Generated_Source\PSoC4/LCD_SPIM.c **** *  LCD_SPIM_txBufferRead - used for the account of the bytes which
 846:.\Generated_Source\PSoC4/LCD_SPIM.c **** *  have been read from the TX software buffer, modified every function call -
 847:.\Generated_Source\PSoC4/LCD_SPIM.c **** *  resets to zero.
 848:.\Generated_Source\PSoC4/LCD_SPIM.c **** *
 849:.\Generated_Source\PSoC4/LCD_SPIM.c **** * Theory:
 850:.\Generated_Source\PSoC4/LCD_SPIM.c **** *  Setting the pointers to zero makes the system believe there is no data to
 851:.\Generated_Source\PSoC4/LCD_SPIM.c **** *  read and writing will resume at address 0 overwriting any data that may have
 852:.\Generated_Source\PSoC4/LCD_SPIM.c **** *  remained in the RAM.
 853:.\Generated_Source\PSoC4/LCD_SPIM.c **** *
 854:.\Generated_Source\PSoC4/LCD_SPIM.c **** * Side Effects:
 855:.\Generated_Source\PSoC4/LCD_SPIM.c **** *  Any data not yet transmitted from the RAM buffer will be lost when
 856:.\Generated_Source\PSoC4/LCD_SPIM.c **** *  overwritten.
 857:.\Generated_Source\PSoC4/LCD_SPIM.c **** *
 858:.\Generated_Source\PSoC4/LCD_SPIM.c **** * Reentrant:
 859:.\Generated_Source\PSoC4/LCD_SPIM.c **** *  No.
 860:.\Generated_Source\PSoC4/LCD_SPIM.c **** *
 861:.\Generated_Source\PSoC4/LCD_SPIM.c **** *******************************************************************************/
 862:.\Generated_Source\PSoC4/LCD_SPIM.c **** void LCD_SPIM_ClearTxBuffer(void) 
 863:.\Generated_Source\PSoC4/LCD_SPIM.c **** {
 864:.\Generated_Source\PSoC4/LCD_SPIM.c ****     uint8 enableInterrupts;
 865:.\Generated_Source\PSoC4/LCD_SPIM.c **** 
 866:.\Generated_Source\PSoC4/LCD_SPIM.c ****     enableInterrupts = CyEnterCriticalSection();
 867:.\Generated_Source\PSoC4/LCD_SPIM.c ****     /* Clear TX FIFO */
 868:.\Generated_Source\PSoC4/LCD_SPIM.c ****     LCD_SPIM_AUX_CONTROL_DP0_REG |= ((uint8)  LCD_SPIM_TX_FIFO_CLR);
 869:.\Generated_Source\PSoC4/LCD_SPIM.c ****     LCD_SPIM_AUX_CONTROL_DP0_REG &= ((uint8) ~LCD_SPIM_TX_FIFO_CLR);
 870:.\Generated_Source\PSoC4/LCD_SPIM.c **** 
 871:.\Generated_Source\PSoC4/LCD_SPIM.c ****     #if(LCD_SPIM_USE_SECOND_DATAPATH)
 872:.\Generated_Source\PSoC4/LCD_SPIM.c ****         /* Clear TX FIFO for 2nd Datapath */
 873:.\Generated_Source\PSoC4/LCD_SPIM.c ****         LCD_SPIM_AUX_CONTROL_DP1_REG |= ((uint8)  LCD_SPIM_TX_FIFO_CLR);
 874:.\Generated_Source\PSoC4/LCD_SPIM.c ****         LCD_SPIM_AUX_CONTROL_DP1_REG &= ((uint8) ~LCD_SPIM_TX_FIFO_CLR);
 875:.\Generated_Source\PSoC4/LCD_SPIM.c ****     #endif /* (LCD_SPIM_USE_SECOND_DATAPATH) */
 876:.\Generated_Source\PSoC4/LCD_SPIM.c ****     CyExitCriticalSection(enableInterrupts);
 877:.\Generated_Source\PSoC4/LCD_SPIM.c **** 
 878:.\Generated_Source\PSoC4/LCD_SPIM.c ****     #if(LCD_SPIM_TX_SOFTWARE_BUF_ENABLED)
 879:.\Generated_Source\PSoC4/LCD_SPIM.c ****         /* Disable TX interrupt to protect global veriables */
 880:.\Generated_Source\PSoC4/LCD_SPIM.c ****         LCD_SPIM_DisableTxInt();
ARM GAS  C:\Users\kees\AppData\Local\Temp\cckzdCcV.s 			page 23


 881:.\Generated_Source\PSoC4/LCD_SPIM.c **** 
 882:.\Generated_Source\PSoC4/LCD_SPIM.c ****         LCD_SPIM_txBufferFull  = 0u;
 883:.\Generated_Source\PSoC4/LCD_SPIM.c ****         LCD_SPIM_txBufferRead  = 0u;
 884:.\Generated_Source\PSoC4/LCD_SPIM.c ****         LCD_SPIM_txBufferWrite = 0u;
 885:.\Generated_Source\PSoC4/LCD_SPIM.c **** 
 886:.\Generated_Source\PSoC4/LCD_SPIM.c ****         /* Buffer is EMPTY: disable TX FIFO NOT FULL interrupt */
 887:.\Generated_Source\PSoC4/LCD_SPIM.c ****         LCD_SPIM_TX_STATUS_MASK_REG &= ((uint8) ~LCD_SPIM_STS_TX_FIFO_NOT_FULL);
 888:.\Generated_Source\PSoC4/LCD_SPIM.c **** 
 889:.\Generated_Source\PSoC4/LCD_SPIM.c ****         LCD_SPIM_EnableTxInt();
 890:.\Generated_Source\PSoC4/LCD_SPIM.c ****     #endif /* (LCD_SPIM_TX_SOFTWARE_BUF_ENABLED) */
 891:.\Generated_Source\PSoC4/LCD_SPIM.c **** }
 892:.\Generated_Source\PSoC4/LCD_SPIM.c **** 
 893:.\Generated_Source\PSoC4/LCD_SPIM.c **** 
 894:.\Generated_Source\PSoC4/LCD_SPIM.c **** #if(0u != LCD_SPIM_BIDIRECTIONAL_MODE)
 895:.\Generated_Source\PSoC4/LCD_SPIM.c ****     /*******************************************************************************
 896:.\Generated_Source\PSoC4/LCD_SPIM.c ****     * Function Name: LCD_SPIM_TxEnable
 897:.\Generated_Source\PSoC4/LCD_SPIM.c ****     ********************************************************************************
 898:.\Generated_Source\PSoC4/LCD_SPIM.c ****     *
 899:.\Generated_Source\PSoC4/LCD_SPIM.c ****     * Summary:
 900:.\Generated_Source\PSoC4/LCD_SPIM.c ****     *  If the SPI master is configured to use a single bi-directional pin then this
 901:.\Generated_Source\PSoC4/LCD_SPIM.c ****     *  will set the bi-directional pin to transmit.
 902:.\Generated_Source\PSoC4/LCD_SPIM.c ****     *
 903:.\Generated_Source\PSoC4/LCD_SPIM.c ****     * Parameters:
 904:.\Generated_Source\PSoC4/LCD_SPIM.c ****     *  None.
 905:.\Generated_Source\PSoC4/LCD_SPIM.c ****     *
 906:.\Generated_Source\PSoC4/LCD_SPIM.c ****     * Return:
 907:.\Generated_Source\PSoC4/LCD_SPIM.c ****     *  None.
 908:.\Generated_Source\PSoC4/LCD_SPIM.c ****     *
 909:.\Generated_Source\PSoC4/LCD_SPIM.c ****     *******************************************************************************/
 910:.\Generated_Source\PSoC4/LCD_SPIM.c ****     void LCD_SPIM_TxEnable(void) 
 911:.\Generated_Source\PSoC4/LCD_SPIM.c ****     {
 912:.\Generated_Source\PSoC4/LCD_SPIM.c ****         LCD_SPIM_CONTROL_REG |= LCD_SPIM_CTRL_TX_SIGNAL_EN;
 913:.\Generated_Source\PSoC4/LCD_SPIM.c ****     }
 914:.\Generated_Source\PSoC4/LCD_SPIM.c **** 
 915:.\Generated_Source\PSoC4/LCD_SPIM.c **** 
 916:.\Generated_Source\PSoC4/LCD_SPIM.c ****     /*******************************************************************************
 917:.\Generated_Source\PSoC4/LCD_SPIM.c ****     * Function Name: LCD_SPIM_TxDisable
 918:.\Generated_Source\PSoC4/LCD_SPIM.c ****     ********************************************************************************
 919:.\Generated_Source\PSoC4/LCD_SPIM.c ****     *
 920:.\Generated_Source\PSoC4/LCD_SPIM.c ****     * Summary:
 921:.\Generated_Source\PSoC4/LCD_SPIM.c ****     *  If the SPI master is configured to use a single bi-directional pin then this
 922:.\Generated_Source\PSoC4/LCD_SPIM.c ****     *  will set the bi-directional pin to receive.
 923:.\Generated_Source\PSoC4/LCD_SPIM.c ****     *
 924:.\Generated_Source\PSoC4/LCD_SPIM.c ****     * Parameters:
 925:.\Generated_Source\PSoC4/LCD_SPIM.c ****     *  None.
 926:.\Generated_Source\PSoC4/LCD_SPIM.c ****     *
 927:.\Generated_Source\PSoC4/LCD_SPIM.c ****     * Return:
 928:.\Generated_Source\PSoC4/LCD_SPIM.c ****     *  None.
 929:.\Generated_Source\PSoC4/LCD_SPIM.c ****     *
 930:.\Generated_Source\PSoC4/LCD_SPIM.c ****     *******************************************************************************/
 931:.\Generated_Source\PSoC4/LCD_SPIM.c ****     void LCD_SPIM_TxDisable(void) 
 932:.\Generated_Source\PSoC4/LCD_SPIM.c ****     {
 933:.\Generated_Source\PSoC4/LCD_SPIM.c ****         LCD_SPIM_CONTROL_REG &= ((uint8) ~LCD_SPIM_CTRL_TX_SIGNAL_EN);
 934:.\Generated_Source\PSoC4/LCD_SPIM.c ****     }
 935:.\Generated_Source\PSoC4/LCD_SPIM.c **** 
 936:.\Generated_Source\PSoC4/LCD_SPIM.c **** #endif /* (0u != LCD_SPIM_BIDIRECTIONAL_MODE) */
 937:.\Generated_Source\PSoC4/LCD_SPIM.c **** 
ARM GAS  C:\Users\kees\AppData\Local\Temp\cckzdCcV.s 			page 24


 938:.\Generated_Source\PSoC4/LCD_SPIM.c **** 
 939:.\Generated_Source\PSoC4/LCD_SPIM.c **** /*******************************************************************************
 940:.\Generated_Source\PSoC4/LCD_SPIM.c **** * Function Name: LCD_SPIM_PutArray
 941:.\Generated_Source\PSoC4/LCD_SPIM.c **** ********************************************************************************
 942:.\Generated_Source\PSoC4/LCD_SPIM.c **** *
 943:.\Generated_Source\PSoC4/LCD_SPIM.c **** * Summary:
 944:.\Generated_Source\PSoC4/LCD_SPIM.c **** *  Write available data from ROM/RAM to the TX buffer while space is available
 945:.\Generated_Source\PSoC4/LCD_SPIM.c **** *  in the TX buffer. Keep trying until all data is passed to the TX buffer.
 946:.\Generated_Source\PSoC4/LCD_SPIM.c **** *
 947:.\Generated_Source\PSoC4/LCD_SPIM.c **** * Parameters:
 948:.\Generated_Source\PSoC4/LCD_SPIM.c **** *  *buffer: Pointer to the location in RAM containing the data to send
 949:.\Generated_Source\PSoC4/LCD_SPIM.c **** *  byteCount: The number of bytes to move to the transmit buffer.
 950:.\Generated_Source\PSoC4/LCD_SPIM.c **** *
 951:.\Generated_Source\PSoC4/LCD_SPIM.c **** * Return:
 952:.\Generated_Source\PSoC4/LCD_SPIM.c **** *  None.
 953:.\Generated_Source\PSoC4/LCD_SPIM.c **** *
 954:.\Generated_Source\PSoC4/LCD_SPIM.c **** * Side Effects:
 955:.\Generated_Source\PSoC4/LCD_SPIM.c **** *  Will stay in this routine until all data has been sent.  May get locked in
 956:.\Generated_Source\PSoC4/LCD_SPIM.c **** *  this loop if data is not being initiated by the master if there is not
 957:.\Generated_Source\PSoC4/LCD_SPIM.c **** *  enough room in the TX FIFO.
 958:.\Generated_Source\PSoC4/LCD_SPIM.c **** *
 959:.\Generated_Source\PSoC4/LCD_SPIM.c **** * Reentrant:
 960:.\Generated_Source\PSoC4/LCD_SPIM.c **** *  No.
 961:.\Generated_Source\PSoC4/LCD_SPIM.c **** *
 962:.\Generated_Source\PSoC4/LCD_SPIM.c **** *******************************************************************************/
 963:.\Generated_Source\PSoC4/LCD_SPIM.c **** void LCD_SPIM_PutArray(const uint16 buffer[], uint8 byteCount)
 964:.\Generated_Source\PSoC4/LCD_SPIM.c ****                                                                           
 965:.\Generated_Source\PSoC4/LCD_SPIM.c **** {
 371              		.loc 1 965 0
 372              		.cfi_startproc
 373 0000 38B5     		push	{r3, r4, r5, lr}
 374              	.LCFI3:
 375              		.cfi_def_cfa_offset 16
 376              		.cfi_offset 3, -16
 377              		.cfi_offset 4, -12
 378              		.cfi_offset 5, -8
 379              		.cfi_offset 14, -4
 380              	.LVL10:
 381              		.loc 1 965 0
 382 0002 0C1C     		mov	r4, r1
 383 0004 051C     		mov	r5, r0
 966:.\Generated_Source\PSoC4/LCD_SPIM.c ****     uint8 bufIndex;
 967:.\Generated_Source\PSoC4/LCD_SPIM.c **** 
 968:.\Generated_Source\PSoC4/LCD_SPIM.c ****     bufIndex = 0u;
 969:.\Generated_Source\PSoC4/LCD_SPIM.c **** 
 970:.\Generated_Source\PSoC4/LCD_SPIM.c ****     while(byteCount > 0u)
 384              		.loc 1 970 0
 385 0006 05E0     		b	.L53
 386              	.LVL11:
 387              	.L54:
 971:.\Generated_Source\PSoC4/LCD_SPIM.c ****     {
 972:.\Generated_Source\PSoC4/LCD_SPIM.c ****         LCD_SPIM_WriteTxData(buffer[bufIndex]);
 388              		.loc 1 972 0
 389 0008 2888     		ldrh	r0, [r5]
 390              	.LVL12:
 391 000a FFF7FEFF 		bl	LCD_SPIM_WriteTxData
 973:.\Generated_Source\PSoC4/LCD_SPIM.c ****         bufIndex++;
ARM GAS  C:\Users\kees\AppData\Local\Temp\cckzdCcV.s 			page 25


 974:.\Generated_Source\PSoC4/LCD_SPIM.c ****         byteCount--;
 392              		.loc 1 974 0
 393 000e 013C     		sub	r4, r4, #1
 394              	.LVL13:
 395 0010 E4B2     		uxtb	r4, r4
 396              	.LVL14:
 397 0012 0235     		add	r5, r5, #2
 398              	.LVL15:
 399              	.L53:
 400              		.loc 1 970 0
 401 0014 002C     		cmp	r4, #0
 402 0016 F7D1     		bne	.L54
 975:.\Generated_Source\PSoC4/LCD_SPIM.c ****     }
 976:.\Generated_Source\PSoC4/LCD_SPIM.c **** }
 403              		.loc 1 976 0
 404              		@ sp needed for prologue
 405              	.LVL16:
 406 0018 38BD     		pop	{r3, r4, r5, pc}
 407              		.cfi_endproc
 408              	.LFE18:
 409              		.size	LCD_SPIM_PutArray, .-LCD_SPIM_PutArray
 410              		.section	.text.LCD_SPIM_EnableInt,"ax",%progbits
 411              		.align	1
 412              		.global	LCD_SPIM_EnableInt
 413              		.code	16
 414              		.thumb_func
 415              		.type	LCD_SPIM_EnableInt, %function
 416              	LCD_SPIM_EnableInt:
 417              	.LFB20:
 977:.\Generated_Source\PSoC4/LCD_SPIM.c **** 
 978:.\Generated_Source\PSoC4/LCD_SPIM.c **** 
 979:.\Generated_Source\PSoC4/LCD_SPIM.c **** /*******************************************************************************
 980:.\Generated_Source\PSoC4/LCD_SPIM.c **** * Function Name: LCD_SPIM_ClearFIFO
 981:.\Generated_Source\PSoC4/LCD_SPIM.c **** ********************************************************************************
 982:.\Generated_Source\PSoC4/LCD_SPIM.c **** *
 983:.\Generated_Source\PSoC4/LCD_SPIM.c **** * Summary:
 984:.\Generated_Source\PSoC4/LCD_SPIM.c **** *  Clear the RX and TX FIFO's of all data for a fresh start.
 985:.\Generated_Source\PSoC4/LCD_SPIM.c **** *
 986:.\Generated_Source\PSoC4/LCD_SPIM.c **** * Parameters:
 987:.\Generated_Source\PSoC4/LCD_SPIM.c **** *  None.
 988:.\Generated_Source\PSoC4/LCD_SPIM.c **** *
 989:.\Generated_Source\PSoC4/LCD_SPIM.c **** * Return:
 990:.\Generated_Source\PSoC4/LCD_SPIM.c **** *  None.
 991:.\Generated_Source\PSoC4/LCD_SPIM.c **** *
 992:.\Generated_Source\PSoC4/LCD_SPIM.c **** * Side Effects:
 993:.\Generated_Source\PSoC4/LCD_SPIM.c **** *  Clear status register of the component.
 994:.\Generated_Source\PSoC4/LCD_SPIM.c **** *
 995:.\Generated_Source\PSoC4/LCD_SPIM.c **** *******************************************************************************/
 996:.\Generated_Source\PSoC4/LCD_SPIM.c **** void LCD_SPIM_ClearFIFO(void) 
 997:.\Generated_Source\PSoC4/LCD_SPIM.c **** {
 998:.\Generated_Source\PSoC4/LCD_SPIM.c ****     uint8 enableInterrupts;
 999:.\Generated_Source\PSoC4/LCD_SPIM.c **** 
1000:.\Generated_Source\PSoC4/LCD_SPIM.c ****     /* Clear Hardware RX FIFO */
1001:.\Generated_Source\PSoC4/LCD_SPIM.c ****     while(0u !=(LCD_SPIM_RX_STATUS_REG & LCD_SPIM_STS_RX_FIFO_NOT_EMPTY))
1002:.\Generated_Source\PSoC4/LCD_SPIM.c ****     {
1003:.\Generated_Source\PSoC4/LCD_SPIM.c ****         (void) CY_GET_REG16(LCD_SPIM_RXDATA_PTR);
1004:.\Generated_Source\PSoC4/LCD_SPIM.c ****     }
ARM GAS  C:\Users\kees\AppData\Local\Temp\cckzdCcV.s 			page 26


1005:.\Generated_Source\PSoC4/LCD_SPIM.c **** 
1006:.\Generated_Source\PSoC4/LCD_SPIM.c ****     enableInterrupts = CyEnterCriticalSection();
1007:.\Generated_Source\PSoC4/LCD_SPIM.c ****     /* Clear TX FIFO */
1008:.\Generated_Source\PSoC4/LCD_SPIM.c ****     LCD_SPIM_AUX_CONTROL_DP0_REG |= ((uint8)  LCD_SPIM_TX_FIFO_CLR);
1009:.\Generated_Source\PSoC4/LCD_SPIM.c ****     LCD_SPIM_AUX_CONTROL_DP0_REG &= ((uint8) ~LCD_SPIM_TX_FIFO_CLR);
1010:.\Generated_Source\PSoC4/LCD_SPIM.c **** 
1011:.\Generated_Source\PSoC4/LCD_SPIM.c ****     #if(LCD_SPIM_USE_SECOND_DATAPATH)
1012:.\Generated_Source\PSoC4/LCD_SPIM.c ****         /* Clear TX FIFO for 2nd Datapath */
1013:.\Generated_Source\PSoC4/LCD_SPIM.c ****         LCD_SPIM_AUX_CONTROL_DP1_REG |= ((uint8)  LCD_SPIM_TX_FIFO_CLR);
1014:.\Generated_Source\PSoC4/LCD_SPIM.c ****         LCD_SPIM_AUX_CONTROL_DP1_REG &= ((uint8) ~LCD_SPIM_TX_FIFO_CLR);
1015:.\Generated_Source\PSoC4/LCD_SPIM.c ****     #endif /* (LCD_SPIM_USE_SECOND_DATAPATH) */
1016:.\Generated_Source\PSoC4/LCD_SPIM.c ****     CyExitCriticalSection(enableInterrupts);
1017:.\Generated_Source\PSoC4/LCD_SPIM.c **** }
1018:.\Generated_Source\PSoC4/LCD_SPIM.c **** 
1019:.\Generated_Source\PSoC4/LCD_SPIM.c **** 
1020:.\Generated_Source\PSoC4/LCD_SPIM.c **** /* Following functions are for version Compatibility, they are obsolete.
1021:.\Generated_Source\PSoC4/LCD_SPIM.c **** *  Please do not use it in new projects.
1022:.\Generated_Source\PSoC4/LCD_SPIM.c **** */
1023:.\Generated_Source\PSoC4/LCD_SPIM.c **** 
1024:.\Generated_Source\PSoC4/LCD_SPIM.c **** 
1025:.\Generated_Source\PSoC4/LCD_SPIM.c **** /*******************************************************************************
1026:.\Generated_Source\PSoC4/LCD_SPIM.c **** * Function Name: LCD_SPIM_EnableInt
1027:.\Generated_Source\PSoC4/LCD_SPIM.c **** ********************************************************************************
1028:.\Generated_Source\PSoC4/LCD_SPIM.c **** *
1029:.\Generated_Source\PSoC4/LCD_SPIM.c **** * Summary:
1030:.\Generated_Source\PSoC4/LCD_SPIM.c **** *  Enable internal interrupt generation.
1031:.\Generated_Source\PSoC4/LCD_SPIM.c **** *
1032:.\Generated_Source\PSoC4/LCD_SPIM.c **** * Parameters:
1033:.\Generated_Source\PSoC4/LCD_SPIM.c **** *  None.
1034:.\Generated_Source\PSoC4/LCD_SPIM.c **** *
1035:.\Generated_Source\PSoC4/LCD_SPIM.c **** * Return:
1036:.\Generated_Source\PSoC4/LCD_SPIM.c **** *  None.
1037:.\Generated_Source\PSoC4/LCD_SPIM.c **** *
1038:.\Generated_Source\PSoC4/LCD_SPIM.c **** * Theory:
1039:.\Generated_Source\PSoC4/LCD_SPIM.c **** *  Enable the internal interrupt output -or- the interrupt component itself.
1040:.\Generated_Source\PSoC4/LCD_SPIM.c **** *
1041:.\Generated_Source\PSoC4/LCD_SPIM.c **** *******************************************************************************/
1042:.\Generated_Source\PSoC4/LCD_SPIM.c **** void LCD_SPIM_EnableInt(void) 
1043:.\Generated_Source\PSoC4/LCD_SPIM.c **** {
 418              		.loc 1 1043 0
 419              		.cfi_startproc
1044:.\Generated_Source\PSoC4/LCD_SPIM.c ****     LCD_SPIM_EnableRxInt();
1045:.\Generated_Source\PSoC4/LCD_SPIM.c ****     LCD_SPIM_EnableTxInt();
1046:.\Generated_Source\PSoC4/LCD_SPIM.c **** }
 420              		.loc 1 1046 0
 421              		@ sp needed for prologue
 422 0000 7047     		bx	lr
 423              		.cfi_endproc
 424              	.LFE20:
 425              		.size	LCD_SPIM_EnableInt, .-LCD_SPIM_EnableInt
 426              		.section	.text.LCD_SPIM_DisableInt,"ax",%progbits
 427              		.align	1
 428              		.global	LCD_SPIM_DisableInt
 429              		.code	16
 430              		.thumb_func
 431              		.type	LCD_SPIM_DisableInt, %function
 432              	LCD_SPIM_DisableInt:
ARM GAS  C:\Users\kees\AppData\Local\Temp\cckzdCcV.s 			page 27


 433              	.LFB21:
1047:.\Generated_Source\PSoC4/LCD_SPIM.c **** 
1048:.\Generated_Source\PSoC4/LCD_SPIM.c **** 
1049:.\Generated_Source\PSoC4/LCD_SPIM.c **** /*******************************************************************************
1050:.\Generated_Source\PSoC4/LCD_SPIM.c **** * Function Name: LCD_SPIM_DisableInt
1051:.\Generated_Source\PSoC4/LCD_SPIM.c **** ********************************************************************************
1052:.\Generated_Source\PSoC4/LCD_SPIM.c **** *
1053:.\Generated_Source\PSoC4/LCD_SPIM.c **** * Summary:
1054:.\Generated_Source\PSoC4/LCD_SPIM.c **** *  Disable internal interrupt generation.
1055:.\Generated_Source\PSoC4/LCD_SPIM.c **** *
1056:.\Generated_Source\PSoC4/LCD_SPIM.c **** * Parameters:
1057:.\Generated_Source\PSoC4/LCD_SPIM.c **** *  None.
1058:.\Generated_Source\PSoC4/LCD_SPIM.c **** *
1059:.\Generated_Source\PSoC4/LCD_SPIM.c **** * Return:
1060:.\Generated_Source\PSoC4/LCD_SPIM.c **** *  None.
1061:.\Generated_Source\PSoC4/LCD_SPIM.c **** *
1062:.\Generated_Source\PSoC4/LCD_SPIM.c **** * Theory:
1063:.\Generated_Source\PSoC4/LCD_SPIM.c **** *  Disable the internal interrupt output -or- the interrupt component itself.
1064:.\Generated_Source\PSoC4/LCD_SPIM.c **** *
1065:.\Generated_Source\PSoC4/LCD_SPIM.c **** *******************************************************************************/
1066:.\Generated_Source\PSoC4/LCD_SPIM.c **** void LCD_SPIM_DisableInt(void) 
1067:.\Generated_Source\PSoC4/LCD_SPIM.c **** {
 434              		.loc 1 1067 0
 435              		.cfi_startproc
1068:.\Generated_Source\PSoC4/LCD_SPIM.c ****     LCD_SPIM_DisableTxInt();
1069:.\Generated_Source\PSoC4/LCD_SPIM.c ****     LCD_SPIM_DisableRxInt();
1070:.\Generated_Source\PSoC4/LCD_SPIM.c **** }
 436              		.loc 1 1070 0
 437              		@ sp needed for prologue
 438 0000 7047     		bx	lr
 439              		.cfi_endproc
 440              	.LFE21:
 441              		.size	LCD_SPIM_DisableInt, .-LCD_SPIM_DisableInt
 442              		.section	.text.LCD_SPIM_SetInterruptMode,"ax",%progbits
 443              		.align	1
 444              		.global	LCD_SPIM_SetInterruptMode
 445              		.code	16
 446              		.thumb_func
 447              		.type	LCD_SPIM_SetInterruptMode, %function
 448              	LCD_SPIM_SetInterruptMode:
 449              	.LFB22:
1071:.\Generated_Source\PSoC4/LCD_SPIM.c **** 
1072:.\Generated_Source\PSoC4/LCD_SPIM.c **** 
1073:.\Generated_Source\PSoC4/LCD_SPIM.c **** /*******************************************************************************
1074:.\Generated_Source\PSoC4/LCD_SPIM.c **** * Function Name: LCD_SPIM_SetInterruptMode
1075:.\Generated_Source\PSoC4/LCD_SPIM.c **** ********************************************************************************
1076:.\Generated_Source\PSoC4/LCD_SPIM.c **** *
1077:.\Generated_Source\PSoC4/LCD_SPIM.c **** * Summary:
1078:.\Generated_Source\PSoC4/LCD_SPIM.c **** *  Configure which status bits trigger an interrupt event.
1079:.\Generated_Source\PSoC4/LCD_SPIM.c **** *
1080:.\Generated_Source\PSoC4/LCD_SPIM.c **** * Parameters:
1081:.\Generated_Source\PSoC4/LCD_SPIM.c **** *  intSrc: An or'd combination of the desired status bit masks (defined in the
1082:.\Generated_Source\PSoC4/LCD_SPIM.c **** *  header file).
1083:.\Generated_Source\PSoC4/LCD_SPIM.c **** *
1084:.\Generated_Source\PSoC4/LCD_SPIM.c **** * Return:
1085:.\Generated_Source\PSoC4/LCD_SPIM.c **** *  None.
1086:.\Generated_Source\PSoC4/LCD_SPIM.c **** *
ARM GAS  C:\Users\kees\AppData\Local\Temp\cckzdCcV.s 			page 28


1087:.\Generated_Source\PSoC4/LCD_SPIM.c **** * Theory:
1088:.\Generated_Source\PSoC4/LCD_SPIM.c **** *  Enables the output of specific status bits to the interrupt controller.
1089:.\Generated_Source\PSoC4/LCD_SPIM.c **** *
1090:.\Generated_Source\PSoC4/LCD_SPIM.c **** *******************************************************************************/
1091:.\Generated_Source\PSoC4/LCD_SPIM.c **** void LCD_SPIM_SetInterruptMode(uint8 intSrc) 
1092:.\Generated_Source\PSoC4/LCD_SPIM.c **** {
 450              		.loc 1 1092 0
 451              		.cfi_startproc
 452              	.LVL17:
1093:.\Generated_Source\PSoC4/LCD_SPIM.c ****     LCD_SPIM_TX_STATUS_MASK_REG  = (intSrc & ((uint8) ~LCD_SPIM_STS_SPI_IDLE));
 453              		.loc 1 1093 0
 454 0000 034B     		ldr	r3, .L62
 455 0002 EF22     		mov	r2, #239
 456 0004 0240     		and	r2, r2, r0
 457 0006 1A70     		strb	r2, [r3]
1094:.\Generated_Source\PSoC4/LCD_SPIM.c ****     LCD_SPIM_RX_STATUS_MASK_REG  =  intSrc;
 458              		.loc 1 1094 0
 459 0008 023B     		sub	r3, r3, #2
 460 000a 1870     		strb	r0, [r3]
1095:.\Generated_Source\PSoC4/LCD_SPIM.c **** }
 461              		.loc 1 1095 0
 462              		@ sp needed for prologue
 463 000c 7047     		bx	lr
 464              	.L63:
 465 000e C046     		.align	2
 466              	.L62:
 467 0010 82000F40 		.word	1074724994
 468              		.cfi_endproc
 469              	.LFE22:
 470              		.size	LCD_SPIM_SetInterruptMode, .-LCD_SPIM_SetInterruptMode
 471              		.section	.text.LCD_SPIM_ReadStatus,"ax",%progbits
 472              		.align	1
 473              		.global	LCD_SPIM_ReadStatus
 474              		.code	16
 475              		.thumb_func
 476              		.type	LCD_SPIM_ReadStatus, %function
 477              	LCD_SPIM_ReadStatus:
 478              	.LFB23:
1096:.\Generated_Source\PSoC4/LCD_SPIM.c **** 
1097:.\Generated_Source\PSoC4/LCD_SPIM.c **** 
1098:.\Generated_Source\PSoC4/LCD_SPIM.c **** /*******************************************************************************
1099:.\Generated_Source\PSoC4/LCD_SPIM.c **** * Function Name: LCD_SPIM_ReadStatus
1100:.\Generated_Source\PSoC4/LCD_SPIM.c **** ********************************************************************************
1101:.\Generated_Source\PSoC4/LCD_SPIM.c **** *
1102:.\Generated_Source\PSoC4/LCD_SPIM.c **** * Summary:
1103:.\Generated_Source\PSoC4/LCD_SPIM.c **** *  Read the status register for the component.
1104:.\Generated_Source\PSoC4/LCD_SPIM.c **** *
1105:.\Generated_Source\PSoC4/LCD_SPIM.c **** * Parameters:
1106:.\Generated_Source\PSoC4/LCD_SPIM.c **** *  None.
1107:.\Generated_Source\PSoC4/LCD_SPIM.c **** *
1108:.\Generated_Source\PSoC4/LCD_SPIM.c **** * Return:
1109:.\Generated_Source\PSoC4/LCD_SPIM.c **** *  Contents of the status register.
1110:.\Generated_Source\PSoC4/LCD_SPIM.c **** *
1111:.\Generated_Source\PSoC4/LCD_SPIM.c **** * Global variables:
1112:.\Generated_Source\PSoC4/LCD_SPIM.c **** *  LCD_SPIM_swStatus - used to store in software status register,
1113:.\Generated_Source\PSoC4/LCD_SPIM.c **** *  modified every function call - resets to zero.
1114:.\Generated_Source\PSoC4/LCD_SPIM.c **** *
ARM GAS  C:\Users\kees\AppData\Local\Temp\cckzdCcV.s 			page 29


1115:.\Generated_Source\PSoC4/LCD_SPIM.c **** * Theory:
1116:.\Generated_Source\PSoC4/LCD_SPIM.c **** *  Allows the user and the API to read the status register for error detection
1117:.\Generated_Source\PSoC4/LCD_SPIM.c **** *  and flow control.
1118:.\Generated_Source\PSoC4/LCD_SPIM.c **** *
1119:.\Generated_Source\PSoC4/LCD_SPIM.c **** * Side Effects:
1120:.\Generated_Source\PSoC4/LCD_SPIM.c **** *  Clear status register of the component.
1121:.\Generated_Source\PSoC4/LCD_SPIM.c **** *
1122:.\Generated_Source\PSoC4/LCD_SPIM.c **** * Reentrant:
1123:.\Generated_Source\PSoC4/LCD_SPIM.c **** *  No.
1124:.\Generated_Source\PSoC4/LCD_SPIM.c **** *
1125:.\Generated_Source\PSoC4/LCD_SPIM.c **** *******************************************************************************/
1126:.\Generated_Source\PSoC4/LCD_SPIM.c **** uint8 LCD_SPIM_ReadStatus(void) 
1127:.\Generated_Source\PSoC4/LCD_SPIM.c **** {
 479              		.loc 1 1127 0
 480              		.cfi_startproc
1128:.\Generated_Source\PSoC4/LCD_SPIM.c ****     uint8 tmpStatus;
1129:.\Generated_Source\PSoC4/LCD_SPIM.c **** 
1130:.\Generated_Source\PSoC4/LCD_SPIM.c ****     #if(LCD_SPIM_TX_SOFTWARE_BUF_ENABLED || LCD_SPIM_RX_SOFTWARE_BUF_ENABLED)
1131:.\Generated_Source\PSoC4/LCD_SPIM.c **** 
1132:.\Generated_Source\PSoC4/LCD_SPIM.c ****         LCD_SPIM_DisableInt();
1133:.\Generated_Source\PSoC4/LCD_SPIM.c **** 
1134:.\Generated_Source\PSoC4/LCD_SPIM.c ****         tmpStatus  = LCD_SPIM_GET_STATUS_RX(LCD_SPIM_swStatusRx);
1135:.\Generated_Source\PSoC4/LCD_SPIM.c ****         tmpStatus |= LCD_SPIM_GET_STATUS_TX(LCD_SPIM_swStatusTx);
1136:.\Generated_Source\PSoC4/LCD_SPIM.c ****         tmpStatus &= ((uint8) ~LCD_SPIM_STS_SPI_IDLE);
1137:.\Generated_Source\PSoC4/LCD_SPIM.c **** 
1138:.\Generated_Source\PSoC4/LCD_SPIM.c ****         LCD_SPIM_swStatusTx = 0u;
1139:.\Generated_Source\PSoC4/LCD_SPIM.c ****         LCD_SPIM_swStatusRx = 0u;
1140:.\Generated_Source\PSoC4/LCD_SPIM.c **** 
1141:.\Generated_Source\PSoC4/LCD_SPIM.c ****         LCD_SPIM_EnableInt();
1142:.\Generated_Source\PSoC4/LCD_SPIM.c **** 
1143:.\Generated_Source\PSoC4/LCD_SPIM.c ****     #else
1144:.\Generated_Source\PSoC4/LCD_SPIM.c **** 
1145:.\Generated_Source\PSoC4/LCD_SPIM.c ****         tmpStatus  = LCD_SPIM_RX_STATUS_REG;
1146:.\Generated_Source\PSoC4/LCD_SPIM.c ****         tmpStatus |= LCD_SPIM_TX_STATUS_REG;
 481              		.loc 1 1146 0
 482 0000 034A     		ldr	r2, .L66
 483              		.loc 1 1145 0
 484 0002 044B     		ldr	r3, .L66+4
1147:.\Generated_Source\PSoC4/LCD_SPIM.c ****         tmpStatus &= ((uint8) ~LCD_SPIM_STS_SPI_IDLE);
1148:.\Generated_Source\PSoC4/LCD_SPIM.c **** 
1149:.\Generated_Source\PSoC4/LCD_SPIM.c ****     #endif /* (LCD_SPIM_TX_SOFTWARE_BUF_ENABLED || LCD_SPIM_RX_SOFTWARE_BUF_ENABLED) */
1150:.\Generated_Source\PSoC4/LCD_SPIM.c **** 
1151:.\Generated_Source\PSoC4/LCD_SPIM.c ****     return(tmpStatus);
1152:.\Generated_Source\PSoC4/LCD_SPIM.c **** }
 485              		.loc 1 1152 0
 486              		@ sp needed for prologue
 487              		.loc 1 1145 0
 488 0004 1B78     		ldrb	r3, [r3]
 489              		.loc 1 1146 0
 490 0006 1078     		ldrb	r0, [r2]
 491 0008 1843     		orr	r0, r0, r3
 492              	.LVL18:
 493 000a 1023     		mov	r3, #16
 494 000c 9843     		bic	r0, r0, r3
 495              	.LVL19:
 496              		.loc 1 1152 0
 497 000e 7047     		bx	lr
ARM GAS  C:\Users\kees\AppData\Local\Temp\cckzdCcV.s 			page 30


 498              	.L67:
 499              		.align	2
 500              	.L66:
 501 0010 62000F40 		.word	1074724962
 502 0014 60000F40 		.word	1074724960
 503              		.cfi_endproc
 504              	.LFE23:
 505              		.size	LCD_SPIM_ReadStatus, .-LCD_SPIM_ReadStatus
 506              		.section	.text.LCD_SPIM_ClearFIFO,"ax",%progbits
 507              		.align	1
 508              		.global	LCD_SPIM_ClearFIFO
 509              		.code	16
 510              		.thumb_func
 511              		.type	LCD_SPIM_ClearFIFO, %function
 512              	LCD_SPIM_ClearFIFO:
 513              	.LFB19:
 514              		.loc 1 997 0
 515              		.cfi_startproc
 516 0000 10B5     		push	{r4, lr}
 517              	.LCFI4:
 518              		.cfi_def_cfa_offset 8
 519              		.cfi_offset 4, -8
 520              		.cfi_offset 14, -4
 521              		.loc 1 1001 0
 522 0002 01E0     		b	.L69
 523              	.L70:
 524              		.loc 1 1003 0
 525 0004 0E4B     		ldr	r3, .L72
 526 0006 1B88     		ldrh	r3, [r3]
 527              	.L69:
 528              		.loc 1 1001 0
 529 0008 0E4B     		ldr	r3, .L72+4
 530 000a 1B78     		ldrb	r3, [r3]
 531 000c 9A06     		lsl	r2, r3, #26
 532 000e F9D4     		bmi	.L70
 533              		.loc 1 1006 0
 534 0010 FFF7FEFF 		bl	CyEnterCriticalSection
 535              		.loc 1 1008 0
 536 0014 0C4B     		ldr	r3, .L72+8
 537 0016 0121     		mov	r1, #1
 538 0018 1A78     		ldrb	r2, [r3]
 539              		.loc 1 1017 0
 540              		@ sp needed for prologue
 541              		.loc 1 1008 0
 542 001a 0A43     		orr	r2, r2, r1
 543 001c D2B2     		uxtb	r2, r2
 544 001e 1A70     		strb	r2, [r3]
 545              		.loc 1 1009 0
 546 0020 1C78     		ldrb	r4, [r3]
 547 0022 FE22     		mov	r2, #254
 548 0024 1440     		and	r4, r4, r2
 549 0026 1C70     		strb	r4, [r3]
 550              		.loc 1 1013 0
 551 0028 0133     		add	r3, r3, #1
 552 002a 1C78     		ldrb	r4, [r3]
 553 002c 2143     		orr	r1, r1, r4
 554 002e C9B2     		uxtb	r1, r1
ARM GAS  C:\Users\kees\AppData\Local\Temp\cckzdCcV.s 			page 31


 555 0030 1970     		strb	r1, [r3]
 556              		.loc 1 1014 0
 557 0032 1978     		ldrb	r1, [r3]
 558 0034 0A40     		and	r2, r2, r1
 559 0036 1A70     		strb	r2, [r3]
 560              		.loc 1 1016 0
 561 0038 FFF7FEFF 		bl	CyExitCriticalSection
 562              		.loc 1 1017 0
 563 003c 10BD     		pop	{r4, pc}
 564              	.L73:
 565 003e C046     		.align	2
 566              	.L72:
 567 0040 A4100F40 		.word	1074729124
 568 0044 60000F40 		.word	1074724960
 569 0048 92000F40 		.word	1074725010
 570              		.cfi_endproc
 571              	.LFE19:
 572              		.size	LCD_SPIM_ClearFIFO, .-LCD_SPIM_ClearFIFO
 573              		.section	.text.LCD_SPIM_Init,"ax",%progbits
 574              		.align	1
 575              		.global	LCD_SPIM_Init
 576              		.code	16
 577              		.thumb_func
 578              		.type	LCD_SPIM_Init, %function
 579              	LCD_SPIM_Init:
 580              	.LFB0:
 581              		.loc 1 64 0
 582              		.cfi_startproc
 583 0000 08B5     		push	{r3, lr}
 584              	.LCFI5:
 585              		.cfi_def_cfa_offset 8
 586              		.cfi_offset 3, -8
 587              		.cfi_offset 14, -4
 588              		.loc 1 66 0
 589 0002 074B     		ldr	r3, .L76
 590 0004 1122     		mov	r2, #17
 591 0006 1A70     		strb	r2, [r3]
 592              		.loc 1 83 0
 593 0008 FFF7FEFF 		bl	LCD_SPIM_ClearFIFO
 594              	.LBB22:
 595              	.LBB23:
 596              		.loc 1 401 0
 597 000c 054B     		ldr	r3, .L76+4
 598              	.LBE23:
 599              	.LBE22:
 600              		.loc 1 101 0
 601 000e 064A     		ldr	r2, .L76+8
 602              	.LBB25:
 603              	.LBB24:
 604              		.loc 1 401 0
 605 0010 1B78     		ldrb	r3, [r3]
 606              	.LBE24:
 607              	.LBE25:
 608              	.LBB26:
 609              	.LBB27:
 610              		.loc 1 452 0
 611 0012 064B     		ldr	r3, .L76+12
ARM GAS  C:\Users\kees\AppData\Local\Temp\cckzdCcV.s 			page 32


 612              	.LBE27:
 613              	.LBE26:
 614              		.loc 1 103 0
 615              		@ sp needed for prologue
 616              	.LBB29:
 617              	.LBB28:
 618              		.loc 1 452 0
 619 0014 1B78     		ldrb	r3, [r3]
 620              	.LBE28:
 621              	.LBE29:
 622              		.loc 1 101 0
 623 0016 0023     		mov	r3, #0
 624 0018 1370     		strb	r3, [r2]
 625              		.loc 1 102 0
 626 001a 023A     		sub	r2, r2, #2
 627 001c 1370     		strb	r3, [r2]
 628              		.loc 1 103 0
 629 001e 08BD     		pop	{r3, pc}
 630              	.L77:
 631              		.align	2
 632              	.L76:
 633 0020 81000F40 		.word	1074724993
 634 0024 62000F40 		.word	1074724962
 635 0028 82000F40 		.word	1074724994
 636 002c 60000F40 		.word	1074724960
 637              		.cfi_endproc
 638              	.LFE0:
 639              		.size	LCD_SPIM_Init, .-LCD_SPIM_Init
 640              		.section	.text.LCD_SPIM_ClearTxBuffer,"ax",%progbits
 641              		.align	1
 642              		.global	LCD_SPIM_ClearTxBuffer
 643              		.code	16
 644              		.thumb_func
 645              		.type	LCD_SPIM_ClearTxBuffer, %function
 646              	LCD_SPIM_ClearTxBuffer:
 647              	.LFB17:
 648              		.loc 1 863 0
 649              		.cfi_startproc
 650 0000 10B5     		push	{r4, lr}
 651              	.LCFI6:
 652              		.cfi_def_cfa_offset 8
 653              		.cfi_offset 4, -8
 654              		.cfi_offset 14, -4
 655              		.loc 1 866 0
 656 0002 FFF7FEFF 		bl	CyEnterCriticalSection
 657              		.loc 1 868 0
 658 0006 0A4B     		ldr	r3, .L80
 659 0008 0121     		mov	r1, #1
 660 000a 1A78     		ldrb	r2, [r3]
 661              		.loc 1 891 0
 662              		@ sp needed for prologue
 663              		.loc 1 868 0
 664 000c 0A43     		orr	r2, r2, r1
 665 000e D2B2     		uxtb	r2, r2
 666 0010 1A70     		strb	r2, [r3]
 667              		.loc 1 869 0
 668 0012 1C78     		ldrb	r4, [r3]
ARM GAS  C:\Users\kees\AppData\Local\Temp\cckzdCcV.s 			page 33


 669 0014 FE22     		mov	r2, #254
 670 0016 1440     		and	r4, r4, r2
 671 0018 1C70     		strb	r4, [r3]
 672              		.loc 1 873 0
 673 001a 0133     		add	r3, r3, #1
 674 001c 1C78     		ldrb	r4, [r3]
 675 001e 2143     		orr	r1, r1, r4
 676 0020 C9B2     		uxtb	r1, r1
 677 0022 1970     		strb	r1, [r3]
 678              		.loc 1 874 0
 679 0024 1978     		ldrb	r1, [r3]
 680 0026 0A40     		and	r2, r2, r1
 681 0028 1A70     		strb	r2, [r3]
 682              		.loc 1 876 0
 683 002a FFF7FEFF 		bl	CyExitCriticalSection
 684              		.loc 1 891 0
 685 002e 10BD     		pop	{r4, pc}
 686              	.L81:
 687              		.align	2
 688              	.L80:
 689 0030 92000F40 		.word	1074725010
 690              		.cfi_endproc
 691              	.LFE17:
 692              		.size	LCD_SPIM_ClearTxBuffer, .-LCD_SPIM_ClearTxBuffer
 693              		.section	.text.LCD_SPIM_Stop,"ax",%progbits
 694              		.align	1
 695              		.global	LCD_SPIM_Stop
 696              		.code	16
 697              		.thumb_func
 698              		.type	LCD_SPIM_Stop, %function
 699              	LCD_SPIM_Stop:
 700              	.LFB3:
 701              		.loc 1 193 0
 702              		.cfi_startproc
 703 0000 08B5     		push	{r3, lr}
 704              	.LCFI7:
 705              		.cfi_def_cfa_offset 8
 706              		.cfi_offset 3, -8
 707              		.cfi_offset 14, -4
 708              		.loc 1 196 0
 709 0002 FFF7FEFF 		bl	CyEnterCriticalSection
 710              		.loc 1 197 0
 711 0006 074B     		ldr	r3, .L84
 712 0008 EF22     		mov	r2, #239
 713 000a 1978     		ldrb	r1, [r3]
 714              		.loc 1 207 0
 715              		@ sp needed for prologue
 716              		.loc 1 197 0
 717 000c 1140     		and	r1, r1, r2
 718 000e 1970     		strb	r1, [r3]
 719              		.loc 1 198 0
 720 0010 023B     		sub	r3, r3, #2
 721 0012 1978     		ldrb	r1, [r3]
 722 0014 0A40     		and	r2, r2, r1
 723 0016 1A70     		strb	r2, [r3]
 724              		.loc 1 199 0
 725 0018 FFF7FEFF 		bl	CyExitCriticalSection
ARM GAS  C:\Users\kees\AppData\Local\Temp\cckzdCcV.s 			page 34


 726              		.loc 1 202 0
 727 001c FFF7FEFF 		bl	LCD_SPIM_IntClock_Stop
 728              		.loc 1 207 0
 729 0020 08BD     		pop	{r3, pc}
 730              	.L85:
 731 0022 C046     		.align	2
 732              	.L84:
 733 0024 92000F40 		.word	1074725010
 734              		.cfi_endproc
 735              	.LFE3:
 736              		.size	LCD_SPIM_Stop, .-LCD_SPIM_Stop
 737              		.section	.text.LCD_SPIM_Enable,"ax",%progbits
 738              		.align	1
 739              		.global	LCD_SPIM_Enable
 740              		.code	16
 741              		.thumb_func
 742              		.type	LCD_SPIM_Enable, %function
 743              	LCD_SPIM_Enable:
 744              	.LFB1:
 745              		.loc 1 121 0
 746              		.cfi_startproc
 747 0000 08B5     		push	{r3, lr}
 748              	.LCFI8:
 749              		.cfi_def_cfa_offset 8
 750              		.cfi_offset 3, -8
 751              		.cfi_offset 14, -4
 752              		.loc 1 124 0
 753 0002 FFF7FEFF 		bl	CyEnterCriticalSection
 754              		.loc 1 125 0
 755 0006 0A4B     		ldr	r3, .L88
 756 0008 2022     		mov	r2, #32
 757 000a 1978     		ldrb	r1, [r3]
 758              		.loc 1 136 0
 759              		@ sp needed for prologue
 760              		.loc 1 125 0
 761 000c 0A43     		orr	r2, r2, r1
 762 000e 1A70     		strb	r2, [r3]
 763              		.loc 1 126 0
 764 0010 0133     		add	r3, r3, #1
 765 0012 1978     		ldrb	r1, [r3]
 766 0014 1022     		mov	r2, #16
 767 0016 1143     		orr	r1, r1, r2
 768 0018 C9B2     		uxtb	r1, r1
 769 001a 1970     		strb	r1, [r3]
 770              		.loc 1 127 0
 771 001c 023B     		sub	r3, r3, #2
 772 001e 1978     		ldrb	r1, [r3]
 773 0020 0A43     		orr	r2, r2, r1
 774 0022 D2B2     		uxtb	r2, r2
 775 0024 1A70     		strb	r2, [r3]
 776              		.loc 1 128 0
 777 0026 FFF7FEFF 		bl	CyExitCriticalSection
 778              		.loc 1 131 0
 779 002a FFF7FEFF 		bl	LCD_SPIM_IntClock_Start
 780              		.loc 1 136 0
 781 002e 08BD     		pop	{r3, pc}
 782              	.L89:
ARM GAS  C:\Users\kees\AppData\Local\Temp\cckzdCcV.s 			page 35


 783              		.align	2
 784              	.L88:
 785 0030 91000F40 		.word	1074725009
 786              		.cfi_endproc
 787              	.LFE1:
 788              		.size	LCD_SPIM_Enable, .-LCD_SPIM_Enable
 789              		.section	.text.LCD_SPIM_Start,"ax",%progbits
 790              		.align	1
 791              		.global	LCD_SPIM_Start
 792              		.code	16
 793              		.thumb_func
 794              		.type	LCD_SPIM_Start, %function
 795              	LCD_SPIM_Start:
 796              	.LFB2:
 797              		.loc 1 164 0
 798              		.cfi_startproc
 799 0000 10B5     		push	{r4, lr}
 800              	.LCFI9:
 801              		.cfi_def_cfa_offset 8
 802              		.cfi_offset 4, -8
 803              		.cfi_offset 14, -4
 804              		.loc 1 165 0
 805 0002 054C     		ldr	r4, .L93
 806 0004 2378     		ldrb	r3, [r4]
 807 0006 002B     		cmp	r3, #0
 808 0008 03D1     		bne	.L91
 809              		.loc 1 167 0
 810 000a FFF7FEFF 		bl	LCD_SPIM_Init
 811              		.loc 1 168 0
 812 000e 0123     		mov	r3, #1
 813 0010 2370     		strb	r3, [r4]
 814              	.L91:
 815              		.loc 1 171 0
 816 0012 FFF7FEFF 		bl	LCD_SPIM_Enable
 817              		.loc 1 172 0
 818              		@ sp needed for prologue
 819 0016 10BD     		pop	{r4, pc}
 820              	.L94:
 821              		.align	2
 822              	.L93:
 823 0018 00000000 		.word	.LANCHOR0
 824              		.cfi_endproc
 825              	.LFE2:
 826              		.size	LCD_SPIM_Start, .-LCD_SPIM_Start
 827              		.global	LCD_SPIM_initVar
 828              		.comm	LCD_SPIM_swStatusTx,1,1
 829              		.comm	LCD_SPIM_swStatusRx,1,1
 830              		.bss
 831              		.set	.LANCHOR0,. + 0
 832              		.type	LCD_SPIM_initVar, %object
 833              		.size	LCD_SPIM_initVar, 1
 834              	LCD_SPIM_initVar:
 835 0000 00       		.space	1
 836              		.text
 837              	.Letext0: