ARM GAS  C:\Users\kees\AppData\Local\Temp\ccEZgHLc.s 			page 1


   1              		.cpu cortex-m0
   2              		.fpu softvfp
   3              		.eabi_attribute 20, 1
   4              		.eabi_attribute 21, 1
   5              		.eabi_attribute 23, 3
   6              		.eabi_attribute 24, 1
   7              		.eabi_attribute 25, 1
   8              		.eabi_attribute 26, 1
   9              		.eabi_attribute 30, 4
  10              		.eabi_attribute 18, 4
  11              		.code	16
  12              		.file	"LCD_SPIM_SCB.c"
  19 0000 D0000000 		.text
  19      02006500 
  19      00000201 
  19      FB0E0D00 
  19      01010101 
  20              	.Ltext0:
  21              		.cfi_sections	.debug_frame
  22              		.section	.text.LCD_SPIM_SCB_Enable,"ax",%progbits
  23              		.align	1
  24              		.global	LCD_SPIM_SCB_Enable
  25              		.code	16
  26              		.thumb_func
  27              		.type	LCD_SPIM_SCB_Enable, %function
  28              	LCD_SPIM_SCB_Enable:
  29              	.LFB1:
  30              		.file 1 ".\\Generated_Source\\PSoC4\\LCD_SPIM_SCB.c"
   1:.\Generated_Source\PSoC4/LCD_SPIM_SCB.c **** /*******************************************************************************
   2:.\Generated_Source\PSoC4/LCD_SPIM_SCB.c **** * File Name: LCD_SPIM_SCB.c
   3:.\Generated_Source\PSoC4/LCD_SPIM_SCB.c **** * Version 1.0
   4:.\Generated_Source\PSoC4/LCD_SPIM_SCB.c **** *
   5:.\Generated_Source\PSoC4/LCD_SPIM_SCB.c **** * Description:
   6:.\Generated_Source\PSoC4/LCD_SPIM_SCB.c **** *  This file provides the source code to the API for the SCB Component.
   7:.\Generated_Source\PSoC4/LCD_SPIM_SCB.c **** *
   8:.\Generated_Source\PSoC4/LCD_SPIM_SCB.c **** * Note:
   9:.\Generated_Source\PSoC4/LCD_SPIM_SCB.c **** *
  10:.\Generated_Source\PSoC4/LCD_SPIM_SCB.c **** *******************************************************************************
  11:.\Generated_Source\PSoC4/LCD_SPIM_SCB.c **** * Copyright 2013, Cypress Semiconductor Corporation.  All rights reserved.
  12:.\Generated_Source\PSoC4/LCD_SPIM_SCB.c **** * You may use this file only in accordance with the license, terms, conditions,
  13:.\Generated_Source\PSoC4/LCD_SPIM_SCB.c **** * disclaimers, and limitations in the end user license agreement accompanying
  14:.\Generated_Source\PSoC4/LCD_SPIM_SCB.c **** * the software package with which this file was provided.
  15:.\Generated_Source\PSoC4/LCD_SPIM_SCB.c **** *******************************************************************************/
  16:.\Generated_Source\PSoC4/LCD_SPIM_SCB.c **** 
  17:.\Generated_Source\PSoC4/LCD_SPIM_SCB.c **** #include "LCD_SPIM_SCB_PVT.h"
  18:.\Generated_Source\PSoC4/LCD_SPIM_SCB.c **** 
  19:.\Generated_Source\PSoC4/LCD_SPIM_SCB.c **** #if(LCD_SPIM_SCB_SCB_MODE_I2C_INC)
  20:.\Generated_Source\PSoC4/LCD_SPIM_SCB.c ****     #include "LCD_SPIM_SCB_I2C_PVT.h"
  21:.\Generated_Source\PSoC4/LCD_SPIM_SCB.c **** #endif /* (LCD_SPIM_SCB_SCB_MODE_I2C_INC) */
  22:.\Generated_Source\PSoC4/LCD_SPIM_SCB.c **** 
  23:.\Generated_Source\PSoC4/LCD_SPIM_SCB.c **** #if(LCD_SPIM_SCB_SCB_MODE_SPI_INC || LCD_SPIM_SCB_SCB_MODE_UART_INC)
ARM GAS  C:\Users\kees\AppData\Local\Temp\ccEZgHLc.s 			page 2


  24:.\Generated_Source\PSoC4/LCD_SPIM_SCB.c ****     #include "LCD_SPIM_SCB_SPI_UART_PVT.h"
  25:.\Generated_Source\PSoC4/LCD_SPIM_SCB.c **** #endif /* (LCD_SPIM_SCB_SCB_MODE_SPI_INC || LCD_SPIM_SCB_SCB_MODE_UART_INC) */
  26:.\Generated_Source\PSoC4/LCD_SPIM_SCB.c **** 
  27:.\Generated_Source\PSoC4/LCD_SPIM_SCB.c **** 
  28:.\Generated_Source\PSoC4/LCD_SPIM_SCB.c **** /**********************************
  29:.\Generated_Source\PSoC4/LCD_SPIM_SCB.c **** *    Run Time Configuration Vars
  30:.\Generated_Source\PSoC4/LCD_SPIM_SCB.c **** **********************************/
  31:.\Generated_Source\PSoC4/LCD_SPIM_SCB.c **** 
  32:.\Generated_Source\PSoC4/LCD_SPIM_SCB.c **** /* Stores internal component configuration for unconfigured mode */
  33:.\Generated_Source\PSoC4/LCD_SPIM_SCB.c **** #if(LCD_SPIM_SCB_SCB_MODE_UNCONFIG_CONST_CFG)
  34:.\Generated_Source\PSoC4/LCD_SPIM_SCB.c ****     /* Common config vars */
  35:.\Generated_Source\PSoC4/LCD_SPIM_SCB.c ****     volatile uint8 LCD_SPIM_SCB_scbMode = LCD_SPIM_SCB_SCB_MODE_UNCONFIG;
  36:.\Generated_Source\PSoC4/LCD_SPIM_SCB.c ****     volatile uint8 LCD_SPIM_SCB_scbEnableWake;
  37:.\Generated_Source\PSoC4/LCD_SPIM_SCB.c **** 
  38:.\Generated_Source\PSoC4/LCD_SPIM_SCB.c ****     /* I2C config vars */
  39:.\Generated_Source\PSoC4/LCD_SPIM_SCB.c ****     volatile uint8 LCD_SPIM_SCB_mode;
  40:.\Generated_Source\PSoC4/LCD_SPIM_SCB.c ****     volatile uint8 LCD_SPIM_SCB_acceptAddr;
  41:.\Generated_Source\PSoC4/LCD_SPIM_SCB.c **** 
  42:.\Generated_Source\PSoC4/LCD_SPIM_SCB.c ****     /* SPI/UART config vars */
  43:.\Generated_Source\PSoC4/LCD_SPIM_SCB.c ****     volatile uint8 * LCD_SPIM_SCB_rxBuffer;
  44:.\Generated_Source\PSoC4/LCD_SPIM_SCB.c ****     volatile uint8   LCD_SPIM_SCB_rxDataBits;
  45:.\Generated_Source\PSoC4/LCD_SPIM_SCB.c ****     volatile uint32  LCD_SPIM_SCB_rxBufferSize;
  46:.\Generated_Source\PSoC4/LCD_SPIM_SCB.c **** 
  47:.\Generated_Source\PSoC4/LCD_SPIM_SCB.c ****     volatile uint8 * LCD_SPIM_SCB_txBuffer;
  48:.\Generated_Source\PSoC4/LCD_SPIM_SCB.c ****     volatile uint8   LCD_SPIM_SCB_txDataBits;
  49:.\Generated_Source\PSoC4/LCD_SPIM_SCB.c ****     volatile uint32  LCD_SPIM_SCB_txBufferSize;
  50:.\Generated_Source\PSoC4/LCD_SPIM_SCB.c **** 
  51:.\Generated_Source\PSoC4/LCD_SPIM_SCB.c **** #endif /* (LCD_SPIM_SCB_SCB_MODE_UNCONFIG_CONST_CFG) */
  52:.\Generated_Source\PSoC4/LCD_SPIM_SCB.c **** 
  53:.\Generated_Source\PSoC4/LCD_SPIM_SCB.c **** 
  54:.\Generated_Source\PSoC4/LCD_SPIM_SCB.c **** /**********************************
  55:.\Generated_Source\PSoC4/LCD_SPIM_SCB.c **** *     Common SCB Vars
  56:.\Generated_Source\PSoC4/LCD_SPIM_SCB.c **** **********************************/
  57:.\Generated_Source\PSoC4/LCD_SPIM_SCB.c **** 
  58:.\Generated_Source\PSoC4/LCD_SPIM_SCB.c **** uint8 LCD_SPIM_SCB_initVar = 0u;
  59:.\Generated_Source\PSoC4/LCD_SPIM_SCB.c **** cyisraddress LCD_SPIM_SCB_customIntrHandler = NULL;
  60:.\Generated_Source\PSoC4/LCD_SPIM_SCB.c **** 
  61:.\Generated_Source\PSoC4/LCD_SPIM_SCB.c **** 
  62:.\Generated_Source\PSoC4/LCD_SPIM_SCB.c **** /***************************************
  63:.\Generated_Source\PSoC4/LCD_SPIM_SCB.c **** *    Private Function Prototypes
  64:.\Generated_Source\PSoC4/LCD_SPIM_SCB.c **** ***************************************/
  65:.\Generated_Source\PSoC4/LCD_SPIM_SCB.c **** 
  66:.\Generated_Source\PSoC4/LCD_SPIM_SCB.c **** static void LCD_SPIM_SCB_ScbModeStop(void);
  67:.\Generated_Source\PSoC4/LCD_SPIM_SCB.c **** 
  68:.\Generated_Source\PSoC4/LCD_SPIM_SCB.c **** 
  69:.\Generated_Source\PSoC4/LCD_SPIM_SCB.c **** /*******************************************************************************
  70:.\Generated_Source\PSoC4/LCD_SPIM_SCB.c **** * Function Name: LCD_SPIM_SCB_Init
  71:.\Generated_Source\PSoC4/LCD_SPIM_SCB.c **** ********************************************************************************
  72:.\Generated_Source\PSoC4/LCD_SPIM_SCB.c **** *
  73:.\Generated_Source\PSoC4/LCD_SPIM_SCB.c **** * Summary:
  74:.\Generated_Source\PSoC4/LCD_SPIM_SCB.c **** *  Initializes SCB component to operate in one of selected configurations:
  75:.\Generated_Source\PSoC4/LCD_SPIM_SCB.c **** *  I2C, SPI, UART, EZI2C or EZSPI.
  76:.\Generated_Source\PSoC4/LCD_SPIM_SCB.c **** *  This function does not do any initialization when configuration is set to
  77:.\Generated_Source\PSoC4/LCD_SPIM_SCB.c **** *  Unconfigured SCB.
  78:.\Generated_Source\PSoC4/LCD_SPIM_SCB.c **** *
  79:.\Generated_Source\PSoC4/LCD_SPIM_SCB.c **** * Parameters:
  80:.\Generated_Source\PSoC4/LCD_SPIM_SCB.c **** *  None
ARM GAS  C:\Users\kees\AppData\Local\Temp\ccEZgHLc.s 			page 3


  81:.\Generated_Source\PSoC4/LCD_SPIM_SCB.c **** *
  82:.\Generated_Source\PSoC4/LCD_SPIM_SCB.c **** * Return:
  83:.\Generated_Source\PSoC4/LCD_SPIM_SCB.c **** *  None
  84:.\Generated_Source\PSoC4/LCD_SPIM_SCB.c **** *
  85:.\Generated_Source\PSoC4/LCD_SPIM_SCB.c **** *******************************************************************************/
  86:.\Generated_Source\PSoC4/LCD_SPIM_SCB.c **** void LCD_SPIM_SCB_Init(void)
  87:.\Generated_Source\PSoC4/LCD_SPIM_SCB.c **** {
  88:.\Generated_Source\PSoC4/LCD_SPIM_SCB.c ****     #if(LCD_SPIM_SCB_SCB_MODE_UNCONFIG_CONST_CFG)
  89:.\Generated_Source\PSoC4/LCD_SPIM_SCB.c ****         if(LCD_SPIM_SCB_SCB_MODE_UNCONFIG_RUNTM_CFG)
  90:.\Generated_Source\PSoC4/LCD_SPIM_SCB.c ****         {
  91:.\Generated_Source\PSoC4/LCD_SPIM_SCB.c ****             LCD_SPIM_SCB_initVar = 0u; /* Clear init var */
  92:.\Generated_Source\PSoC4/LCD_SPIM_SCB.c ****         }
  93:.\Generated_Source\PSoC4/LCD_SPIM_SCB.c ****         else
  94:.\Generated_Source\PSoC4/LCD_SPIM_SCB.c ****         {
  95:.\Generated_Source\PSoC4/LCD_SPIM_SCB.c ****             /* Initialization was done before call */
  96:.\Generated_Source\PSoC4/LCD_SPIM_SCB.c ****         }
  97:.\Generated_Source\PSoC4/LCD_SPIM_SCB.c **** 
  98:.\Generated_Source\PSoC4/LCD_SPIM_SCB.c ****     #elif(LCD_SPIM_SCB_SCB_MODE_I2C_CONST_CFG)
  99:.\Generated_Source\PSoC4/LCD_SPIM_SCB.c ****         LCD_SPIM_SCB_I2CInit();
 100:.\Generated_Source\PSoC4/LCD_SPIM_SCB.c **** 
 101:.\Generated_Source\PSoC4/LCD_SPIM_SCB.c ****     #elif(LCD_SPIM_SCB_SCB_MODE_SPI_CONST_CFG)
 102:.\Generated_Source\PSoC4/LCD_SPIM_SCB.c ****         LCD_SPIM_SCB_SpiInit();
 103:.\Generated_Source\PSoC4/LCD_SPIM_SCB.c **** 
 104:.\Generated_Source\PSoC4/LCD_SPIM_SCB.c ****     #elif(LCD_SPIM_SCB_SCB_MODE_UART_CONST_CFG)
 105:.\Generated_Source\PSoC4/LCD_SPIM_SCB.c ****         LCD_SPIM_SCB_UartInit();
 106:.\Generated_Source\PSoC4/LCD_SPIM_SCB.c **** 
 107:.\Generated_Source\PSoC4/LCD_SPIM_SCB.c ****     #else
 108:.\Generated_Source\PSoC4/LCD_SPIM_SCB.c **** 
 109:.\Generated_Source\PSoC4/LCD_SPIM_SCB.c ****     #endif /* (LCD_SPIM_SCB_SCB_MODE_UNCONFIG_CONST_CFG) */
 110:.\Generated_Source\PSoC4/LCD_SPIM_SCB.c **** }
 111:.\Generated_Source\PSoC4/LCD_SPIM_SCB.c **** 
 112:.\Generated_Source\PSoC4/LCD_SPIM_SCB.c **** 
 113:.\Generated_Source\PSoC4/LCD_SPIM_SCB.c **** /*******************************************************************************
 114:.\Generated_Source\PSoC4/LCD_SPIM_SCB.c **** * Function Name: LCD_SPIM_SCB_Enable
 115:.\Generated_Source\PSoC4/LCD_SPIM_SCB.c **** ********************************************************************************
 116:.\Generated_Source\PSoC4/LCD_SPIM_SCB.c **** *
 117:.\Generated_Source\PSoC4/LCD_SPIM_SCB.c **** * Summary:
 118:.\Generated_Source\PSoC4/LCD_SPIM_SCB.c **** *  Enables SCB component operation.
 119:.\Generated_Source\PSoC4/LCD_SPIM_SCB.c **** *  The SCB configuration should be not changed when the component is enabled.
 120:.\Generated_Source\PSoC4/LCD_SPIM_SCB.c **** *  Any configuration changes should be made after disabling the component.
 121:.\Generated_Source\PSoC4/LCD_SPIM_SCB.c **** *
 122:.\Generated_Source\PSoC4/LCD_SPIM_SCB.c **** * Parameters:
 123:.\Generated_Source\PSoC4/LCD_SPIM_SCB.c **** *  None
 124:.\Generated_Source\PSoC4/LCD_SPIM_SCB.c **** *
 125:.\Generated_Source\PSoC4/LCD_SPIM_SCB.c **** * Return:
 126:.\Generated_Source\PSoC4/LCD_SPIM_SCB.c **** *  None
 127:.\Generated_Source\PSoC4/LCD_SPIM_SCB.c **** *
 128:.\Generated_Source\PSoC4/LCD_SPIM_SCB.c **** *******************************************************************************/
 129:.\Generated_Source\PSoC4/LCD_SPIM_SCB.c **** void LCD_SPIM_SCB_Enable(void)
 130:.\Generated_Source\PSoC4/LCD_SPIM_SCB.c **** {
  31              		.loc 1 130 0
  32              		.cfi_startproc
 131:.\Generated_Source\PSoC4/LCD_SPIM_SCB.c ****     #if(LCD_SPIM_SCB_SCB_MODE_UNCONFIG_CONST_CFG)
 132:.\Generated_Source\PSoC4/LCD_SPIM_SCB.c ****         if(!LCD_SPIM_SCB_SCB_MODE_UNCONFIG_RUNTM_CFG)
 133:.\Generated_Source\PSoC4/LCD_SPIM_SCB.c ****         {
 134:.\Generated_Source\PSoC4/LCD_SPIM_SCB.c ****             /* Enable SCB block, only if already configured */
 135:.\Generated_Source\PSoC4/LCD_SPIM_SCB.c ****             LCD_SPIM_SCB_CTRL_REG |= LCD_SPIM_SCB_CTRL_ENABLED;
ARM GAS  C:\Users\kees\AppData\Local\Temp\ccEZgHLc.s 			page 4


 136:.\Generated_Source\PSoC4/LCD_SPIM_SCB.c ****         }
 137:.\Generated_Source\PSoC4/LCD_SPIM_SCB.c ****     #else
 138:.\Generated_Source\PSoC4/LCD_SPIM_SCB.c ****         LCD_SPIM_SCB_CTRL_REG |= LCD_SPIM_SCB_CTRL_ENABLED; /* Enable SCB block */
  33              		.loc 1 138 0
  34 0000 034A     		ldr	r2, .L3
  35 0002 8023     		mov	r3, #128
  36 0004 1168     		ldr	r1, [r2]
  37 0006 1B06     		lsl	r3, r3, #24
  38 0008 0B43     		orr	r3, r3, r1
  39 000a 1360     		str	r3, [r2]
 139:.\Generated_Source\PSoC4/LCD_SPIM_SCB.c ****     #endif /* (LCD_SPIM_SCB_SCB_MODE_UNCONFIG_CONST_CFG) */
 140:.\Generated_Source\PSoC4/LCD_SPIM_SCB.c **** }
  40              		.loc 1 140 0
  41              		@ sp needed for prologue
  42 000c 7047     		bx	lr
  43              	.L4:
  44 000e C046     		.align	2
  45              	.L3:
  46 0010 00000740 		.word	1074200576
  47              		.cfi_endproc
  48              	.LFE1:
  49              		.size	LCD_SPIM_SCB_Enable, .-LCD_SPIM_SCB_Enable
  50              		.section	.text.LCD_SPIM_SCB_Stop,"ax",%progbits
  51              		.align	1
  52              		.global	LCD_SPIM_SCB_Stop
  53              		.code	16
  54              		.thumb_func
  55              		.type	LCD_SPIM_SCB_Stop, %function
  56              	LCD_SPIM_SCB_Stop:
  57              	.LFB3:
 141:.\Generated_Source\PSoC4/LCD_SPIM_SCB.c **** 
 142:.\Generated_Source\PSoC4/LCD_SPIM_SCB.c **** 
 143:.\Generated_Source\PSoC4/LCD_SPIM_SCB.c **** /*******************************************************************************
 144:.\Generated_Source\PSoC4/LCD_SPIM_SCB.c **** * Function Name: LCD_SPIM_SCB_Start
 145:.\Generated_Source\PSoC4/LCD_SPIM_SCB.c **** ********************************************************************************
 146:.\Generated_Source\PSoC4/LCD_SPIM_SCB.c **** *
 147:.\Generated_Source\PSoC4/LCD_SPIM_SCB.c **** * Summary:
 148:.\Generated_Source\PSoC4/LCD_SPIM_SCB.c **** *  Invokes SCB_Init() and SCB_Enable().
 149:.\Generated_Source\PSoC4/LCD_SPIM_SCB.c **** *  After this function call the component is enabled and ready for operation.
 150:.\Generated_Source\PSoC4/LCD_SPIM_SCB.c **** *
 151:.\Generated_Source\PSoC4/LCD_SPIM_SCB.c **** * Parameters:
 152:.\Generated_Source\PSoC4/LCD_SPIM_SCB.c **** *  None
 153:.\Generated_Source\PSoC4/LCD_SPIM_SCB.c **** *
 154:.\Generated_Source\PSoC4/LCD_SPIM_SCB.c **** * Return:
 155:.\Generated_Source\PSoC4/LCD_SPIM_SCB.c **** *  None
 156:.\Generated_Source\PSoC4/LCD_SPIM_SCB.c **** *
 157:.\Generated_Source\PSoC4/LCD_SPIM_SCB.c **** * Global variables:
 158:.\Generated_Source\PSoC4/LCD_SPIM_SCB.c **** *  LCD_SPIM_SCB_initVar - used to check initial configuration, modified
 159:.\Generated_Source\PSoC4/LCD_SPIM_SCB.c **** *  on first function call.
 160:.\Generated_Source\PSoC4/LCD_SPIM_SCB.c **** *
 161:.\Generated_Source\PSoC4/LCD_SPIM_SCB.c **** *******************************************************************************/
 162:.\Generated_Source\PSoC4/LCD_SPIM_SCB.c **** void LCD_SPIM_SCB_Start(void)
 163:.\Generated_Source\PSoC4/LCD_SPIM_SCB.c **** {
 164:.\Generated_Source\PSoC4/LCD_SPIM_SCB.c ****     if(0u == LCD_SPIM_SCB_initVar)
 165:.\Generated_Source\PSoC4/LCD_SPIM_SCB.c ****     {
 166:.\Generated_Source\PSoC4/LCD_SPIM_SCB.c ****         LCD_SPIM_SCB_initVar = 1u; /* Component was initialized */
 167:.\Generated_Source\PSoC4/LCD_SPIM_SCB.c ****         LCD_SPIM_SCB_Init();       /* Initialize component      */
ARM GAS  C:\Users\kees\AppData\Local\Temp\ccEZgHLc.s 			page 5


 168:.\Generated_Source\PSoC4/LCD_SPIM_SCB.c ****     }
 169:.\Generated_Source\PSoC4/LCD_SPIM_SCB.c **** 
 170:.\Generated_Source\PSoC4/LCD_SPIM_SCB.c ****     LCD_SPIM_SCB_Enable();
 171:.\Generated_Source\PSoC4/LCD_SPIM_SCB.c **** }
 172:.\Generated_Source\PSoC4/LCD_SPIM_SCB.c **** 
 173:.\Generated_Source\PSoC4/LCD_SPIM_SCB.c **** 
 174:.\Generated_Source\PSoC4/LCD_SPIM_SCB.c **** /*******************************************************************************
 175:.\Generated_Source\PSoC4/LCD_SPIM_SCB.c **** * Function Name: LCD_SPIM_SCB_Stop
 176:.\Generated_Source\PSoC4/LCD_SPIM_SCB.c **** ********************************************************************************
 177:.\Generated_Source\PSoC4/LCD_SPIM_SCB.c **** *
 178:.\Generated_Source\PSoC4/LCD_SPIM_SCB.c **** * Summary:
 179:.\Generated_Source\PSoC4/LCD_SPIM_SCB.c **** *  Disables the SCB component.
 180:.\Generated_Source\PSoC4/LCD_SPIM_SCB.c **** *
 181:.\Generated_Source\PSoC4/LCD_SPIM_SCB.c **** * Parameters:
 182:.\Generated_Source\PSoC4/LCD_SPIM_SCB.c **** *  None
 183:.\Generated_Source\PSoC4/LCD_SPIM_SCB.c **** *
 184:.\Generated_Source\PSoC4/LCD_SPIM_SCB.c **** * Return:
 185:.\Generated_Source\PSoC4/LCD_SPIM_SCB.c **** *  None
 186:.\Generated_Source\PSoC4/LCD_SPIM_SCB.c **** *
 187:.\Generated_Source\PSoC4/LCD_SPIM_SCB.c **** *******************************************************************************/
 188:.\Generated_Source\PSoC4/LCD_SPIM_SCB.c **** void LCD_SPIM_SCB_Stop(void)
 189:.\Generated_Source\PSoC4/LCD_SPIM_SCB.c **** {
  58              		.loc 1 189 0
  59              		.cfi_startproc
 190:.\Generated_Source\PSoC4/LCD_SPIM_SCB.c ****     LCD_SPIM_SCB_CTRL_REG &= (uint32) ~LCD_SPIM_SCB_CTRL_ENABLED;  /* Disable SCB block */
  60              		.loc 1 190 0
  61 0000 024B     		ldr	r3, .L7
  62 0002 034A     		ldr	r2, .L7+4
  63 0004 1968     		ldr	r1, [r3]
 191:.\Generated_Source\PSoC4/LCD_SPIM_SCB.c **** 
 192:.\Generated_Source\PSoC4/LCD_SPIM_SCB.c ****     #if(LCD_SPIM_SCB_SCB_IRQ_INTERNAL)
 193:.\Generated_Source\PSoC4/LCD_SPIM_SCB.c ****         LCD_SPIM_SCB_SCB_IRQ_ClearPending(); /* Clear pending interrupt */
 194:.\Generated_Source\PSoC4/LCD_SPIM_SCB.c ****     #endif /* (LCD_SPIM_SCB_SCB_IRQ_INTERNAL) */
 195:.\Generated_Source\PSoC4/LCD_SPIM_SCB.c **** 
 196:.\Generated_Source\PSoC4/LCD_SPIM_SCB.c ****     LCD_SPIM_SCB_ScbModeStop(); /* Calls scbMode specific Stop function */
 197:.\Generated_Source\PSoC4/LCD_SPIM_SCB.c **** }
  64              		.loc 1 197 0
  65              		@ sp needed for prologue
  66              		.loc 1 190 0
  67 0006 0A40     		and	r2, r2, r1
  68 0008 1A60     		str	r2, [r3]
  69              		.loc 1 197 0
  70 000a 7047     		bx	lr
  71              	.L8:
  72              		.align	2
  73              	.L7:
  74 000c 00000740 		.word	1074200576
  75 0010 FFFFFF7F 		.word	2147483647
  76              		.cfi_endproc
  77              	.LFE3:
  78              		.size	LCD_SPIM_SCB_Stop, .-LCD_SPIM_SCB_Stop
  79              		.section	.text.LCD_SPIM_SCB_SetCustomInterruptHandler,"ax",%progbits
  80              		.align	1
  81              		.global	LCD_SPIM_SCB_SetCustomInterruptHandler
  82              		.code	16
  83              		.thumb_func
  84              		.type	LCD_SPIM_SCB_SetCustomInterruptHandler, %function
ARM GAS  C:\Users\kees\AppData\Local\Temp\ccEZgHLc.s 			page 6


  85              	LCD_SPIM_SCB_SetCustomInterruptHandler:
  86              	.LFB4:
 198:.\Generated_Source\PSoC4/LCD_SPIM_SCB.c **** 
 199:.\Generated_Source\PSoC4/LCD_SPIM_SCB.c **** 
 200:.\Generated_Source\PSoC4/LCD_SPIM_SCB.c **** /*******************************************************************************
 201:.\Generated_Source\PSoC4/LCD_SPIM_SCB.c **** * Function Name: LCD_SPIM_SCB_SetCustomInterruptHandler
 202:.\Generated_Source\PSoC4/LCD_SPIM_SCB.c **** ********************************************************************************
 203:.\Generated_Source\PSoC4/LCD_SPIM_SCB.c **** *
 204:.\Generated_Source\PSoC4/LCD_SPIM_SCB.c **** * Summary:
 205:.\Generated_Source\PSoC4/LCD_SPIM_SCB.c **** *  Registers a function to be called by the internal interrupt handler.
 206:.\Generated_Source\PSoC4/LCD_SPIM_SCB.c **** *  First the function that is registered is called, then the internal interrupt
 207:.\Generated_Source\PSoC4/LCD_SPIM_SCB.c **** *  handler performs any operations such as software buffer management functions
 208:.\Generated_Source\PSoC4/LCD_SPIM_SCB.c **** *  before the interrupt returns.  It is user's responsibility to not break the
 209:.\Generated_Source\PSoC4/LCD_SPIM_SCB.c **** *  software buffer operations. Only one custom handler is supported, which is
 210:.\Generated_Source\PSoC4/LCD_SPIM_SCB.c **** *  the function provided by the most recent call.
 211:.\Generated_Source\PSoC4/LCD_SPIM_SCB.c **** *  At initialization time no custom handler is registered.
 212:.\Generated_Source\PSoC4/LCD_SPIM_SCB.c **** *
 213:.\Generated_Source\PSoC4/LCD_SPIM_SCB.c **** * Parameters:
 214:.\Generated_Source\PSoC4/LCD_SPIM_SCB.c **** *  func: Pointer to the function to register.
 215:.\Generated_Source\PSoC4/LCD_SPIM_SCB.c **** *        The value NULL indicates to remove the current custom interrupt
 216:.\Generated_Source\PSoC4/LCD_SPIM_SCB.c **** *        handler.
 217:.\Generated_Source\PSoC4/LCD_SPIM_SCB.c **** *
 218:.\Generated_Source\PSoC4/LCD_SPIM_SCB.c **** * Return:
 219:.\Generated_Source\PSoC4/LCD_SPIM_SCB.c **** *  None
 220:.\Generated_Source\PSoC4/LCD_SPIM_SCB.c **** *
 221:.\Generated_Source\PSoC4/LCD_SPIM_SCB.c **** *******************************************************************************/
 222:.\Generated_Source\PSoC4/LCD_SPIM_SCB.c **** void LCD_SPIM_SCB_SetCustomInterruptHandler(cyisraddress func)
 223:.\Generated_Source\PSoC4/LCD_SPIM_SCB.c **** {
  87              		.loc 1 223 0
  88              		.cfi_startproc
  89              	.LVL0:
 224:.\Generated_Source\PSoC4/LCD_SPIM_SCB.c ****     LCD_SPIM_SCB_customIntrHandler = func; /* Register interrupt handler */
  90              		.loc 1 224 0
  91 0000 014B     		ldr	r3, .L11
 225:.\Generated_Source\PSoC4/LCD_SPIM_SCB.c **** }
  92              		.loc 1 225 0
  93              		@ sp needed for prologue
  94              		.loc 1 224 0
  95 0002 1860     		str	r0, [r3]
  96              		.loc 1 225 0
  97 0004 7047     		bx	lr
  98              	.L12:
  99 0006 C046     		.align	2
 100              	.L11:
 101 0008 00000000 		.word	.LANCHOR0
 102              		.cfi_endproc
 103              	.LFE4:
 104              		.size	LCD_SPIM_SCB_SetCustomInterruptHandler, .-LCD_SPIM_SCB_SetCustomInterruptHandler
 105              		.section	.text.LCD_SPIM_SCB_Init,"ax",%progbits
 106              		.align	1
 107              		.global	LCD_SPIM_SCB_Init
 108              		.code	16
 109              		.thumb_func
 110              		.type	LCD_SPIM_SCB_Init, %function
 111              	LCD_SPIM_SCB_Init:
 112              	.LFB0:
 113              		.loc 1 87 0
ARM GAS  C:\Users\kees\AppData\Local\Temp\ccEZgHLc.s 			page 7


 114              		.cfi_startproc
 115 0000 08B5     		push	{r3, lr}
 116              	.LCFI0:
 117              		.cfi_def_cfa_offset 8
 118              		.cfi_offset 3, -8
 119              		.cfi_offset 14, -4
 120              		.loc 1 102 0
 121 0002 FFF7FEFF 		bl	LCD_SPIM_SCB_SpiInit
 122              		.loc 1 110 0
 123              		@ sp needed for prologue
 124 0006 08BD     		pop	{r3, pc}
 125              		.cfi_endproc
 126              	.LFE0:
 127              		.size	LCD_SPIM_SCB_Init, .-LCD_SPIM_SCB_Init
 128              		.section	.text.LCD_SPIM_SCB_Start,"ax",%progbits
 129              		.align	1
 130              		.global	LCD_SPIM_SCB_Start
 131              		.code	16
 132              		.thumb_func
 133              		.type	LCD_SPIM_SCB_Start, %function
 134              	LCD_SPIM_SCB_Start:
 135              	.LFB2:
 136              		.loc 1 163 0
 137              		.cfi_startproc
 138 0000 08B5     		push	{r3, lr}
 139              	.LCFI1:
 140              		.cfi_def_cfa_offset 8
 141              		.cfi_offset 3, -8
 142              		.cfi_offset 14, -4
 143              		.loc 1 164 0
 144 0002 054B     		ldr	r3, .L19
 145 0004 1A79     		ldrb	r2, [r3, #4]
 146 0006 002A     		cmp	r2, #0
 147 0008 03D1     		bne	.L16
 148              		.loc 1 166 0
 149 000a 0122     		mov	r2, #1
 150 000c 1A71     		strb	r2, [r3, #4]
 151              		.loc 1 167 0
 152 000e FFF7FEFF 		bl	LCD_SPIM_SCB_Init
 153              	.L16:
 154              		.loc 1 170 0
 155 0012 FFF7FEFF 		bl	LCD_SPIM_SCB_Enable
 156              		.loc 1 171 0
 157              		@ sp needed for prologue
 158 0016 08BD     		pop	{r3, pc}
 159              	.L20:
 160              		.align	2
 161              	.L19:
 162 0018 00000000 		.word	.LANCHOR0
 163              		.cfi_endproc
 164              	.LFE2:
 165              		.size	LCD_SPIM_SCB_Start, .-LCD_SPIM_SCB_Start
 166              		.global	LCD_SPIM_SCB_initVar
 167              		.global	LCD_SPIM_SCB_customIntrHandler
 168              		.bss
 169              		.align	2
 170              		.set	.LANCHOR0,. + 0
ARM GAS  C:\Users\kees\AppData\Local\Temp\ccEZgHLc.s 			page 8


 171              		.type	LCD_SPIM_SCB_customIntrHandler, %object
 172              		.size	LCD_SPIM_SCB_customIntrHandler, 4
 173              	LCD_SPIM_SCB_customIntrHandler:
 174 0000 00000000 		.space	4
 175              		.type	LCD_SPIM_SCB_initVar, %object
 176              		.size	LCD_SPIM_SCB_initVar, 1
 177              	LCD_SPIM_SCB_initVar:
 178 0004 00       		.space	1
 179 0005 000000   		.text
 180              	.Letext0: