ARM GAS  C:\Users\kees\AppData\Local\Temp\ccFl3qnT.s 			page 1


   1              		.cpu cortex-m0
   2              		.fpu softvfp
   3              		.eabi_attribute 20, 1
   4              		.eabi_attribute 21, 1
   5              		.eabi_attribute 23, 3
   6              		.eabi_attribute 24, 1
   7              		.eabi_attribute 25, 1
   8              		.eabi_attribute 26, 1
   9              		.eabi_attribute 30, 4
  10              		.eabi_attribute 18, 4
  11              		.code	16
  12              		.file	"main.c"
  19 0000 A8000000 		.text
  19      02006100 
  19      00000201 
  19      FB0E0D00 
  19      01010101 
  20              	.Ltext0:
  21              		.cfi_sections	.debug_frame
  22              		.section	.text.CheckButtons,"ax",%progbits
  23              		.align	1
  24              		.global	CheckButtons
  25              		.code	16
  26              		.thumb_func
  27              		.type	CheckButtons, %function
  28              	CheckButtons:
  29              	.LFB21:
  30              		.file 1 ".\\main.c"
   1:.\main.c      **** /* ========================================
   2:.\main.c      ****  *
   3:.\main.c      ****  * Copyright YOUR COMPANY, THE YEAR
   4:.\main.c      ****  * All Rights Reserved
   5:.\main.c      ****  * UNPUBLISHED, LICENSED SOFTWARE.
   6:.\main.c      ****  *
   7:.\main.c      ****  * CONFIDENTIAL AND PROPRIETARY INFORMATION
   8:.\main.c      ****  * WHICH IS THE PROPERTY OF your company.
   9:.\main.c      ****  *
  10:.\main.c      ****  * ========================================
  11:.\main.c      **** */
  12:.\main.c      **** #include <device.h>
  13:.\main.c      **** #include "Defines.h"
  14:.\main.c      **** #include "Cube.h"
  15:.\main.c      **** #include "Menu.h"
  16:.\main.c      **** 
  17:.\main.c      **** void CheckButtons(void);
  18:.\main.c      **** 
  19:.\main.c      **** float x_rot, y_rot, z_rot;
  20:.\main.c      **** 
  21:.\main.c      **** void main()
  22:.\main.c      **** {
  23:.\main.c      **** 	
ARM GAS  C:\Users\kees\AppData\Local\Temp\ccFl3qnT.s 			page 2


  24:.\main.c      **** 	X_OFFSET = 65.0;  // 65
  25:.\main.c      **** 	Y_OFFSET = 65.0;  // 65
  26:.\main.c      **** 	X_SCALE = 30.0;  // 30
  27:.\main.c      **** 	Y_SCALE = 30.0;  // 30
  28:.\main.c      **** 	
  29:.\main.c      **** 	x_rot = 0.02;
  30:.\main.c      **** 	y_rot = 0.035;
  31:.\main.c      **** 	z_rot = 0.055;
  32:.\main.c      **** 	
  33:.\main.c      **** 	InitializeCube();
  34:.\main.c      **** 	
  35:.\main.c      **** 	LCD_Start();
  36:.\main.c      **** 	LCD_On();
  37:.\main.c      **** 	LCD_Contrast(60);
  38:.\main.c      **** 	LCD_Clear(BACKGROUND);
  39:.\main.c      **** 	
  40:.\main.c      **** 	ShowMenuLevel(0);
  41:.\main.c      **** 
  42:.\main.c      ****     for(;;)
  43:.\main.c      ****     {
  44:.\main.c      ****         //CyDelay(16);
  45:.\main.c      **** 		
  46:.\main.c      **** 		//ScaleDistort();
  47:.\main.c      **** 		//OffsetBounce();
  48:.\main.c      **** 		
  49:.\main.c      **** 		RotateCubeX(x_rot);
  50:.\main.c      **** 		RotateCubeY(y_rot);
  51:.\main.c      **** 		RotateCubeZ(z_rot);
  52:.\main.c      **** 		
  53:.\main.c      **** 		SaveOldLinesCube();
  54:.\main.c      **** 		
  55:.\main.c      **** 		ProjectCube();
  56:.\main.c      **** 		DrawCube();
  57:.\main.c      **** 		
  58:.\main.c      **** 		CheckButtons();
  59:.\main.c      ****     }
  60:.\main.c      **** }
  61:.\main.c      **** 
  62:.\main.c      **** void CheckButtons(void)
  63:.\main.c      **** {		
  31              		.loc 1 63 0
  32              		.cfi_startproc
  33 0000 08B5     		push	{r3, lr}
  34              	.LCFI0:
  35              		.cfi_def_cfa_offset 8
  36              		.cfi_offset 3, -8
  37              		.cfi_offset 14, -4
  64:.\main.c      **** 	if(D5_Read() == 0)
  38              		.loc 1 64 0
  39 0002 FFF7FEFF 		bl	D5_Read
  40 0006 0028     		cmp	r0, #0
  41 0008 01D1     		bne	.L2
  65:.\main.c      **** 	{
  66:.\main.c      **** 		IncreaseMenuOption(1);
  42              		.loc 1 66 0
  43 000a 0120     		mov	r0, #1
  44 000c 00E0     		b	.L11
ARM GAS  C:\Users\kees\AppData\Local\Temp\ccFl3qnT.s 			page 3


  45              	.L2:
  67:.\main.c      **** 	}
  68:.\main.c      **** 	else
  69:.\main.c      **** 	{
  70:.\main.c      **** 		IncreaseMenuOption(0);
  46              		.loc 1 70 0
  47 000e 0020     		mov	r0, #0
  48              	.L11:
  49 0010 FFF7FEFF 		bl	IncreaseMenuOption
  71:.\main.c      **** 	}
  72:.\main.c      **** 	
  73:.\main.c      **** 	if(D4_Read() == 0)
  50              		.loc 1 73 0
  51 0014 FFF7FEFF 		bl	D4_Read
  52 0018 0028     		cmp	r0, #0
  53 001a 01D1     		bne	.L4
  74:.\main.c      **** 	{
  75:.\main.c      **** 		DecreaseMenuOption(1);
  54              		.loc 1 75 0
  55 001c 0120     		mov	r0, #1
  56 001e 00E0     		b	.L12
  57              	.L4:
  76:.\main.c      **** 	}
  77:.\main.c      **** 	else
  78:.\main.c      **** 	{
  79:.\main.c      **** 		DecreaseMenuOption(0);
  58              		.loc 1 79 0
  59 0020 0020     		mov	r0, #0
  60              	.L12:
  61 0022 FFF7FEFF 		bl	DecreaseMenuOption
  80:.\main.c      **** 	}
  81:.\main.c      **** 	
  82:.\main.c      **** 	if(D3_Read() == 0)
  62              		.loc 1 82 0
  63 0026 FFF7FEFF 		bl	D3_Read
  64 002a 0028     		cmp	r0, #0
  65 002c 01D1     		bne	.L6
  83:.\main.c      **** 	{
  84:.\main.c      **** 		ResetMenuOption(1);
  66              		.loc 1 84 0
  67 002e 0120     		mov	r0, #1
  68 0030 00E0     		b	.L13
  69              	.L6:
  85:.\main.c      **** 	}
  86:.\main.c      **** 	else
  87:.\main.c      **** 	{
  88:.\main.c      **** 		ResetMenuOption(0);
  70              		.loc 1 88 0
  71 0032 0020     		mov	r0, #0
  72              	.L13:
  73 0034 FFF7FEFF 		bl	ResetMenuOption
  89:.\main.c      **** 	}
  90:.\main.c      **** 	
  91:.\main.c      **** 	if(P0_7_SWITCH_Read() == 0)
  74              		.loc 1 91 0
  75 0038 FFF7FEFF 		bl	P0_7_SWITCH_Read
  76 003c 0028     		cmp	r0, #0
ARM GAS  C:\Users\kees\AppData\Local\Temp\ccFl3qnT.s 			page 4


  77 003e 01D1     		bne	.L8
  92:.\main.c      **** 	{
  93:.\main.c      **** 		IncreaseMenuLevel(1);
  78              		.loc 1 93 0
  79 0040 0120     		mov	r0, #1
  80 0042 00E0     		b	.L14
  81              	.L8:
  94:.\main.c      **** 	}
  95:.\main.c      **** 	else
  96:.\main.c      **** 	{
  97:.\main.c      **** 		IncreaseMenuLevel(0);
  82              		.loc 1 97 0
  83 0044 0020     		mov	r0, #0
  84              	.L14:
  85 0046 FFF7FEFF 		bl	IncreaseMenuLevel
  98:.\main.c      **** 	}
  99:.\main.c      **** 	
 100:.\main.c      **** 	return;
 101:.\main.c      **** }
  86              		.loc 1 101 0
  87              		@ sp needed for prologue
  88 004a 08BD     		pop	{r3, pc}
  89              		.cfi_endproc
  90              	.LFE21:
  91              		.size	CheckButtons, .-CheckButtons
  92              		.section	.text.main,"ax",%progbits
  93              		.align	1
  94              		.global	main
  95              		.code	16
  96              		.thumb_func
  97              		.type	main, %function
  98              	main:
  99              	.LFB20:
 100              		.loc 1 22 0
 101              		.cfi_startproc
 102 0000 08B5     		push	{r3, lr}
 103              	.LCFI1:
 104              		.cfi_def_cfa_offset 8
 105              		.cfi_offset 3, -8
 106              		.cfi_offset 14, -4
 107              		.loc 1 24 0
 108 0002 1B4B     		ldr	r3, .L19
 109 0004 1B4A     		ldr	r2, .L19+4
 110 0006 1360     		str	r3, [r2]
 111              		.loc 1 25 0
 112 0008 1B4A     		ldr	r2, .L19+8
 113 000a 1360     		str	r3, [r2]
 114              		.loc 1 26 0
 115 000c 1B4B     		ldr	r3, .L19+12
 116 000e 1C4A     		ldr	r2, .L19+16
 117 0010 1360     		str	r3, [r2]
 118              		.loc 1 27 0
 119 0012 1C4A     		ldr	r2, .L19+20
 120 0014 1360     		str	r3, [r2]
 121              		.loc 1 29 0
 122 0016 1C4B     		ldr	r3, .L19+24
 123 0018 1C4A     		ldr	r2, .L19+28
ARM GAS  C:\Users\kees\AppData\Local\Temp\ccFl3qnT.s 			page 5


 124 001a 1A60     		str	r2, [r3]
 125              		.loc 1 30 0
 126 001c 1C4B     		ldr	r3, .L19+32
 127 001e 1D4A     		ldr	r2, .L19+36
 128 0020 1A60     		str	r2, [r3]
 129              		.loc 1 31 0
 130 0022 1D4A     		ldr	r2, .L19+40
 131 0024 1D4B     		ldr	r3, .L19+44
 132 0026 1A60     		str	r2, [r3]
 133              		.loc 1 33 0
 134 0028 FFF7FEFF 		bl	InitializeCube
 135              		.loc 1 35 0
 136 002c FFF7FEFF 		bl	LCD_Start
 137              		.loc 1 36 0
 138 0030 FFF7FEFF 		bl	LCD_On
 139              		.loc 1 37 0
 140 0034 3C20     		mov	r0, #60
 141 0036 FFF7FEFF 		bl	LCD_Contrast
 142              		.loc 1 38 0
 143 003a 0020     		mov	r0, #0
 144 003c FFF7FEFF 		bl	LCD_Clear
 145              		.loc 1 40 0
 146 0040 0020     		mov	r0, #0
 147 0042 FFF7FEFF 		bl	ShowMenuLevel
 148              	.L17:
 149              		.loc 1 49 0
 150 0046 104B     		ldr	r3, .L19+24
 151 0048 1868     		ldr	r0, [r3]
 152 004a FFF7FEFF 		bl	RotateCubeX
 153              		.loc 1 50 0
 154 004e 104B     		ldr	r3, .L19+32
 155 0050 1868     		ldr	r0, [r3]
 156 0052 FFF7FEFF 		bl	RotateCubeY
 157              		.loc 1 51 0
 158 0056 114B     		ldr	r3, .L19+44
 159 0058 1868     		ldr	r0, [r3]
 160 005a FFF7FEFF 		bl	RotateCubeZ
 161              		.loc 1 53 0
 162 005e FFF7FEFF 		bl	SaveOldLinesCube
 163              		.loc 1 55 0
 164 0062 FFF7FEFF 		bl	ProjectCube
 165              		.loc 1 56 0
 166 0066 FFF7FEFF 		bl	DrawCube
 167              		.loc 1 58 0
 168 006a FFF7FEFF 		bl	CheckButtons
 169 006e EAE7     		b	.L17
 170              	.L20:
 171              		.align	2
 172              	.L19:
 173 0070 00008242 		.word	1115815936
 174 0074 00000000 		.word	X_OFFSET
 175 0078 00000000 		.word	Y_OFFSET
 176 007c 0000F041 		.word	1106247680
 177 0080 00000000 		.word	X_SCALE
 178 0084 00000000 		.word	Y_SCALE
 179 0088 00000000 		.word	x_rot
 180 008c 0AD7A33C 		.word	1017370378
ARM GAS  C:\Users\kees\AppData\Local\Temp\ccFl3qnT.s 			page 6


 181 0090 00000000 		.word	y_rot
 182 0094 295C0F3D 		.word	1024416809
 183 0098 AE47613D 		.word	1029785518
 184 009c 00000000 		.word	z_rot
 185              		.cfi_endproc
 186              	.LFE20:
 187              		.size	main, .-main
 188              		.comm	LCD_FONT8x16,1552,4
 189              		.comm	x_rot,4,4
 190              		.comm	y_rot,4,4
 191              		.comm	z_rot,4,4
 192              		.text
 193              	.Letext0: