ARM GAS  C:\Users\kees\AppData\Local\Temp\cc65pnkR.s 			page 1


   1              		.cpu cortex-m0
   2              		.fpu softvfp
   3              		.eabi_attribute 20, 1
   4              		.eabi_attribute 21, 1
   5              		.eabi_attribute 23, 3
   6              		.eabi_attribute 24, 1
   7              		.eabi_attribute 25, 1
   8              		.eabi_attribute 26, 1
   9              		.eabi_attribute 30, 4
  10              		.eabi_attribute 18, 4
  11              		.code	16
  12              		.file	"Menu.c"
  19 0000 F1000000 		.text
  19      02006100 
  19      00000201 
  19      FB0E0D00 
  19      01010101 
  20              	.Ltext0:
  21              		.cfi_sections	.debug_frame
  22              		.global	__aeabi_fadd
  23              		.section	.text.IncreaseMenuOption,"ax",%progbits
  24              		.align	1
  25              		.global	IncreaseMenuOption
  26              		.code	16
  27              		.thumb_func
  28              		.type	IncreaseMenuOption, %function
  29              	IncreaseMenuOption:
  30              	.LFB23:
  31              		.file 1 ".\\Menu.c"
   1:.\Menu.c      **** /* ========================================
   2:.\Menu.c      ****  *
   3:.\Menu.c      ****  * Copyright YOUR COMPANY, THE YEAR
   4:.\Menu.c      ****  * All Rights Reserved
   5:.\Menu.c      ****  * UNPUBLISHED, LICENSED SOFTWARE.
   6:.\Menu.c      ****  *
   7:.\Menu.c      ****  * CONFIDENTIAL AND PROPRIETARY INFORMATION
   8:.\Menu.c      ****  * WHICH IS THE PROPERTY OF your company.
   9:.\Menu.c      ****  *
  10:.\Menu.c      ****  * ========================================
  11:.\Menu.c      **** */
  12:.\Menu.c      **** 
  13:.\Menu.c      **** #include "Menu.h"
  14:.\Menu.c      **** 
  15:.\Menu.c      **** int32 menu_level = 0;
  16:.\Menu.c      **** int32 menu_option = 0;
  17:.\Menu.c      **** 
  18:.\Menu.c      **** float foo;
  19:.\Menu.c      **** 
  20:.\Menu.c      **** extern float x_rot, y_rot, z_rot;
  21:.\Menu.c      **** 
  22:.\Menu.c      **** char * CYCODE menu[] = {"", "X rotation", "Y rotation", "Z rotation", "X perspective", "Y perspecti
ARM GAS  C:\Users\kees\AppData\Local\Temp\cc65pnkR.s 			page 2


  23:.\Menu.c      **** float * param[] = {&foo, &x_rot, &y_rot, &z_rot, &p, &q, &r, &X_SCALE, &Y_SCALE};
  24:.\Menu.c      **** float param_step[] = {0, 0.005, 0.005, 0.005, 0.02, 0.02, 0.02, 3, 3};
  25:.\Menu.c      **** #define MENU_SIZE 9
  26:.\Menu.c      **** 
  27:.\Menu.c      **** void IncreaseMenuLevel(int32 val)
  28:.\Menu.c      **** {
  29:.\Menu.c      **** 	static int32 val_old = 0;
  30:.\Menu.c      **** 	
  31:.\Menu.c      **** 	if(val_old == 0 && val > 0)
  32:.\Menu.c      **** 	{
  33:.\Menu.c      **** 		ShowMenuLevel(1);
  34:.\Menu.c      **** 		menu_level++;
  35:.\Menu.c      **** 		menu_level %= MENU_SIZE;
  36:.\Menu.c      **** 	}
  37:.\Menu.c      **** 	
  38:.\Menu.c      **** 	ShowMenuLevel(0);
  39:.\Menu.c      **** 	
  40:.\Menu.c      **** 	val_old = val;
  41:.\Menu.c      **** 	
  42:.\Menu.c      **** 	return;
  43:.\Menu.c      **** }
  44:.\Menu.c      **** 
  45:.\Menu.c      **** void DecreaseMenuLevel(int32 val)
  46:.\Menu.c      **** {
  47:.\Menu.c      **** 	static int32 val_old = 0;
  48:.\Menu.c      **** 	
  49:.\Menu.c      **** 	if(val_old == 0 && val > 0)
  50:.\Menu.c      **** 	{
  51:.\Menu.c      **** 		ShowMenuLevel(1);
  52:.\Menu.c      **** 		menu_level--;
  53:.\Menu.c      **** 		menu_level %= MENU_SIZE;
  54:.\Menu.c      **** 	}
  55:.\Menu.c      **** 	
  56:.\Menu.c      **** 	ShowMenuLevel(0);
  57:.\Menu.c      **** 	
  58:.\Menu.c      **** 	val_old = val;
  59:.\Menu.c      **** 	
  60:.\Menu.c      **** 	return;
  61:.\Menu.c      **** }
  62:.\Menu.c      **** 
  63:.\Menu.c      **** void ShowMenuLevel(int32 del)
  64:.\Menu.c      **** {
  65:.\Menu.c      **** 	if(del > 0)
  66:.\Menu.c      **** 	{
  67:.\Menu.c      **** 		LCD_PrintString(menu[menu_level], 115, 0, BACKGROUND, BACKGROUND);
  68:.\Menu.c      **** 	}
  69:.\Menu.c      **** 	else
  70:.\Menu.c      **** 	{
  71:.\Menu.c      **** 		LCD_PrintString(menu[menu_level], 115, 0, FOREGROUND, BACKGROUND);
  72:.\Menu.c      **** 	}
  73:.\Menu.c      **** 	
  74:.\Menu.c      **** 	return;
  75:.\Menu.c      **** }
  76:.\Menu.c      **** 
  77:.\Menu.c      **** void IncreaseMenuOption(int32 val)
  78:.\Menu.c      **** {
  32              		.loc 1 78 0
ARM GAS  C:\Users\kees\AppData\Local\Temp\cc65pnkR.s 			page 3


  33              		.cfi_startproc
  34 0000 38B5     		push	{r3, r4, r5, lr}
  35              	.LCFI0:
  36              		.cfi_def_cfa_offset 16
  37              		.cfi_offset 3, -16
  38              		.cfi_offset 4, -12
  39              		.cfi_offset 5, -8
  40              		.cfi_offset 14, -4
  41              	.LVL0:
  42              		.loc 1 78 0
  43 0002 051C     		mov	r5, r0
  79:.\Menu.c      **** 	static int32 val_old = 0;
  80:.\Menu.c      **** 	
  81:.\Menu.c      **** 	if(val_old == 0 && val > 0)
  44              		.loc 1 81 0
  45 0004 0028     		cmp	r0, #0
  46 0006 0DDD     		ble	.L2
  47 0008 084B     		ldr	r3, .L5
  48 000a 1A68     		ldr	r2, [r3]
  49 000c 002A     		cmp	r2, #0
  50 000e 09D1     		bne	.L2
  82:.\Menu.c      **** 	{
  83:.\Menu.c      **** 		(*param[menu_level]) += param_step[menu_level];
  51              		.loc 1 83 0
  52 0010 5B68     		ldr	r3, [r3, #4]
  53 0012 074A     		ldr	r2, .L5+4
  54 0014 9B00     		lsl	r3, r3, #2
  55 0016 9C58     		ldr	r4, [r3, r2]
  56 0018 9B18     		add	r3, r3, r2
  57 001a 2068     		ldr	r0, [r4]
  58              	.LVL1:
  59 001c 596A     		ldr	r1, [r3, #36]
  60 001e FFF7FEFF 		bl	__aeabi_fadd
  61 0022 2060     		str	r0, [r4]
  62              	.LVL2:
  63              	.L2:
  84:.\Menu.c      **** 	}
  85:.\Menu.c      **** 	
  86:.\Menu.c      **** 	val_old = val;
  64              		.loc 1 86 0
  65 0024 014B     		ldr	r3, .L5
  87:.\Menu.c      **** 	
  88:.\Menu.c      **** 	return;
  89:.\Menu.c      **** }
  66              		.loc 1 89 0
  67              		@ sp needed for prologue
  68              		.loc 1 86 0
  69 0026 1D60     		str	r5, [r3]
  70              	.LVL3:
  71              		.loc 1 89 0
  72 0028 38BD     		pop	{r3, r4, r5, pc}
  73              	.L6:
  74 002a C046     		.align	2
  75              	.L5:
  76 002c 00000000 		.word	.LANCHOR0
  77 0030 00000000 		.word	.LANCHOR1
  78              		.cfi_endproc
ARM GAS  C:\Users\kees\AppData\Local\Temp\cc65pnkR.s 			page 4


  79              	.LFE23:
  80              		.size	IncreaseMenuOption, .-IncreaseMenuOption
  81              		.global	__aeabi_fsub
  82              		.section	.text.DecreaseMenuOption,"ax",%progbits
  83              		.align	1
  84              		.global	DecreaseMenuOption
  85              		.code	16
  86              		.thumb_func
  87              		.type	DecreaseMenuOption, %function
  88              	DecreaseMenuOption:
  89              	.LFB24:
  90:.\Menu.c      **** 
  91:.\Menu.c      **** void DecreaseMenuOption(int32 val)
  92:.\Menu.c      **** {
  90              		.loc 1 92 0
  91              		.cfi_startproc
  92 0000 38B5     		push	{r3, r4, r5, lr}
  93              	.LCFI1:
  94              		.cfi_def_cfa_offset 16
  95              		.cfi_offset 3, -16
  96              		.cfi_offset 4, -12
  97              		.cfi_offset 5, -8
  98              		.cfi_offset 14, -4
  99              	.LVL4:
 100              		.loc 1 92 0
 101 0002 051C     		mov	r5, r0
  93:.\Menu.c      **** 	static int32 val_old = 0;
  94:.\Menu.c      **** 	
  95:.\Menu.c      **** 	if(val_old == 0 && val > 0)
 102              		.loc 1 95 0
 103 0004 0028     		cmp	r0, #0
 104 0006 0DDD     		ble	.L8
 105 0008 084B     		ldr	r3, .L10
 106 000a 9A68     		ldr	r2, [r3, #8]
 107 000c 002A     		cmp	r2, #0
 108 000e 09D1     		bne	.L8
  96:.\Menu.c      **** 	{
  97:.\Menu.c      **** 		(*param[menu_level]) -= param_step[menu_level];
 109              		.loc 1 97 0
 110 0010 5B68     		ldr	r3, [r3, #4]
 111 0012 074A     		ldr	r2, .L10+4
 112 0014 9B00     		lsl	r3, r3, #2
 113 0016 9C58     		ldr	r4, [r3, r2]
 114 0018 9B18     		add	r3, r3, r2
 115 001a 2068     		ldr	r0, [r4]
 116              	.LVL5:
 117 001c 596A     		ldr	r1, [r3, #36]
 118 001e FFF7FEFF 		bl	__aeabi_fsub
 119 0022 2060     		str	r0, [r4]
 120              	.LVL6:
 121              	.L8:
  98:.\Menu.c      **** 	}
  99:.\Menu.c      **** 	
 100:.\Menu.c      **** 	val_old = val;
 122              		.loc 1 100 0
 123 0024 014B     		ldr	r3, .L10
 101:.\Menu.c      **** 	
ARM GAS  C:\Users\kees\AppData\Local\Temp\cc65pnkR.s 			page 5


 102:.\Menu.c      **** 	return;
 103:.\Menu.c      **** }
 124              		.loc 1 103 0
 125              		@ sp needed for prologue
 126              		.loc 1 100 0
 127 0026 9D60     		str	r5, [r3, #8]
 128              	.LVL7:
 129              		.loc 1 103 0
 130 0028 38BD     		pop	{r3, r4, r5, pc}
 131              	.L11:
 132 002a C046     		.align	2
 133              	.L10:
 134 002c 00000000 		.word	.LANCHOR0
 135 0030 00000000 		.word	.LANCHOR1
 136              		.cfi_endproc
 137              	.LFE24:
 138              		.size	DecreaseMenuOption, .-DecreaseMenuOption
 139              		.section	.text.ResetMenuOption,"ax",%progbits
 140              		.align	1
 141              		.global	ResetMenuOption
 142              		.code	16
 143              		.thumb_func
 144              		.type	ResetMenuOption, %function
 145              	ResetMenuOption:
 146              	.LFB25:
 104:.\Menu.c      **** 
 105:.\Menu.c      **** void ResetMenuOption(int32 val)
 106:.\Menu.c      **** {
 147              		.loc 1 106 0
 148              		.cfi_startproc
 149 0000 00B5     		push	{lr}
 150              	.LCFI2:
 151              		.cfi_def_cfa_offset 4
 152              		.cfi_offset 14, -4
 153              	.LVL8:
 107:.\Menu.c      **** 	static int32 val_old = 0;
 108:.\Menu.c      **** 	
 109:.\Menu.c      **** 	if(val_old == 0 && val > 0)
 154              		.loc 1 109 0
 155 0002 0028     		cmp	r0, #0
 156 0004 09DD     		ble	.L13
 157 0006 064B     		ldr	r3, .L15
 158 0008 DA68     		ldr	r2, [r3, #12]
 159 000a 002A     		cmp	r2, #0
 160 000c 05D1     		bne	.L13
 110:.\Menu.c      **** 	{
 111:.\Menu.c      **** 		(*param[menu_level]) = 0;
 161              		.loc 1 111 0
 162 000e 5A68     		ldr	r2, [r3, #4]
 163 0010 044B     		ldr	r3, .L15+4
 164 0012 9200     		lsl	r2, r2, #2
 165 0014 D358     		ldr	r3, [r2, r3]
 166 0016 044A     		ldr	r2, .L15+8
 167 0018 1A60     		str	r2, [r3]
 168              	.L13:
 112:.\Menu.c      **** 	}
 113:.\Menu.c      **** 	
ARM GAS  C:\Users\kees\AppData\Local\Temp\cc65pnkR.s 			page 6


 114:.\Menu.c      **** 	val_old = val;
 169              		.loc 1 114 0
 170 001a 014B     		ldr	r3, .L15
 115:.\Menu.c      **** 	
 116:.\Menu.c      **** 	return;
 117:.\Menu.c      **** }
 171              		.loc 1 117 0
 172              		@ sp needed for prologue
 173              		.loc 1 114 0
 174 001c D860     		str	r0, [r3, #12]
 175              		.loc 1 117 0
 176 001e 00BD     		pop	{pc}
 177              	.L16:
 178              		.align	2
 179              	.L15:
 180 0020 00000000 		.word	.LANCHOR0
 181 0024 00000000 		.word	.LANCHOR1
 182 0028 00000000 		.word	0
 183              		.cfi_endproc
 184              	.LFE25:
 185              		.size	ResetMenuOption, .-ResetMenuOption
 186              		.section	.text.ShowMenuLevel,"ax",%progbits
 187              		.align	1
 188              		.global	ShowMenuLevel
 189              		.code	16
 190              		.thumb_func
 191              		.type	ShowMenuLevel, %function
 192              	ShowMenuLevel:
 193              	.LFB22:
 194              		.loc 1 64 0
 195              		.cfi_startproc
 196 0000 00B5     		push	{lr}
 197              	.LCFI3:
 198              		.cfi_def_cfa_offset 4
 199              		.cfi_offset 14, -4
 200              	.LVL9:
 201 0002 0A4A     		ldr	r2, .L22
 202 0004 0A4B     		ldr	r3, .L22+4
 203              		.loc 1 67 0
 204 0006 5268     		ldr	r2, [r2, #4]
 205              		.loc 1 64 0
 206 0008 83B0     		sub	sp, sp, #12
 207              	.LCFI4:
 208              		.cfi_def_cfa_offset 16
 209              		.loc 1 67 0
 210 000a 9200     		lsl	r2, r2, #2
 211 000c D318     		add	r3, r2, r3
 212 000e 0022     		mov	r2, #0
 213 0010 0092     		str	r2, [sp]
 214              		.loc 1 65 0
 215 0012 0028     		cmp	r0, #0
 216 0014 03DD     		ble	.L18
 217              		.loc 1 67 0
 218 0016 986C     		ldr	r0, [r3, #72]
 219              	.LVL10:
 220 0018 7321     		mov	r1, #115
 221 001a 0023     		mov	r3, #0
ARM GAS  C:\Users\kees\AppData\Local\Temp\cc65pnkR.s 			page 7


 222 001c 02E0     		b	.L21
 223              	.LVL11:
 224              	.L18:
 225              		.loc 1 71 0
 226 001e 986C     		ldr	r0, [r3, #72]
 227              	.LVL12:
 228 0020 044B     		ldr	r3, .L22+8
 229 0022 7321     		mov	r1, #115
 230              	.L21:
 231 0024 FFF7FEFF 		bl	LCD_PrintString
 232              		.loc 1 75 0
 233 0028 03B0     		add	sp, sp, #12
 234              		@ sp needed for prologue
 235 002a 00BD     		pop	{pc}
 236              	.L23:
 237              		.align	2
 238              	.L22:
 239 002c 00000000 		.word	.LANCHOR0
 240 0030 00000000 		.word	.LANCHOR1
 241 0034 FF0F0000 		.word	4095
 242              		.cfi_endproc
 243              	.LFE22:
 244              		.size	ShowMenuLevel, .-ShowMenuLevel
 245              		.global	__aeabi_idivmod
 246              		.section	.text.DecreaseMenuLevel,"ax",%progbits
 247              		.align	1
 248              		.global	DecreaseMenuLevel
 249              		.code	16
 250              		.thumb_func
 251              		.type	DecreaseMenuLevel, %function
 252              	DecreaseMenuLevel:
 253              	.LFB21:
 254              		.loc 1 46 0
 255              		.cfi_startproc
 256 0000 38B5     		push	{r3, r4, r5, lr}
 257              	.LCFI5:
 258              		.cfi_def_cfa_offset 16
 259              		.cfi_offset 3, -16
 260              		.cfi_offset 4, -12
 261              		.cfi_offset 5, -8
 262              		.cfi_offset 14, -4
 263              	.LVL13:
 264              		.loc 1 46 0
 265 0002 051C     		mov	r5, r0
 266              		.loc 1 49 0
 267 0004 0028     		cmp	r0, #0
 268 0006 0CDD     		ble	.L25
 269 0008 094C     		ldr	r4, .L27
 270 000a 2369     		ldr	r3, [r4, #16]
 271 000c 002B     		cmp	r3, #0
 272 000e 08D1     		bne	.L25
 273              		.loc 1 51 0
 274 0010 0120     		mov	r0, #1
 275              	.LVL14:
 276 0012 FFF7FEFF 		bl	ShowMenuLevel
 277              		.loc 1 53 0
 278 0016 6068     		ldr	r0, [r4, #4]
ARM GAS  C:\Users\kees\AppData\Local\Temp\cc65pnkR.s 			page 8


 279 0018 0921     		mov	r1, #9
 280 001a 0138     		sub	r0, r0, #1
 281 001c FFF7FEFF 		bl	__aeabi_idivmod
 282 0020 6160     		str	r1, [r4, #4]
 283              	.LVL15:
 284              	.L25:
 285              		.loc 1 56 0
 286 0022 0020     		mov	r0, #0
 287 0024 FFF7FEFF 		bl	ShowMenuLevel
 288              		.loc 1 58 0
 289 0028 014B     		ldr	r3, .L27
 290              		.loc 1 61 0
 291              		@ sp needed for prologue
 292              		.loc 1 58 0
 293 002a 1D61     		str	r5, [r3, #16]
 294              	.LVL16:
 295              		.loc 1 61 0
 296 002c 38BD     		pop	{r3, r4, r5, pc}
 297              	.L28:
 298 002e C046     		.align	2
 299              	.L27:
 300 0030 00000000 		.word	.LANCHOR0
 301              		.cfi_endproc
 302              	.LFE21:
 303              		.size	DecreaseMenuLevel, .-DecreaseMenuLevel
 304              		.section	.text.IncreaseMenuLevel,"ax",%progbits
 305              		.align	1
 306              		.global	IncreaseMenuLevel
 307              		.code	16
 308              		.thumb_func
 309              		.type	IncreaseMenuLevel, %function
 310              	IncreaseMenuLevel:
 311              	.LFB20:
 312              		.loc 1 28 0
 313              		.cfi_startproc
 314 0000 38B5     		push	{r3, r4, r5, lr}
 315              	.LCFI6:
 316              		.cfi_def_cfa_offset 16
 317              		.cfi_offset 3, -16
 318              		.cfi_offset 4, -12
 319              		.cfi_offset 5, -8
 320              		.cfi_offset 14, -4
 321              	.LVL17:
 322              		.loc 1 28 0
 323 0002 051C     		mov	r5, r0
 324              		.loc 1 31 0
 325 0004 0028     		cmp	r0, #0
 326 0006 0CDD     		ble	.L30
 327 0008 094C     		ldr	r4, .L32
 328 000a 6369     		ldr	r3, [r4, #20]
 329 000c 002B     		cmp	r3, #0
 330 000e 08D1     		bne	.L30
 331              		.loc 1 33 0
 332 0010 0120     		mov	r0, #1
 333              	.LVL18:
 334 0012 FFF7FEFF 		bl	ShowMenuLevel
 335              		.loc 1 35 0
ARM GAS  C:\Users\kees\AppData\Local\Temp\cc65pnkR.s 			page 9


 336 0016 6068     		ldr	r0, [r4, #4]
 337 0018 0921     		mov	r1, #9
 338 001a 0130     		add	r0, r0, #1
 339 001c FFF7FEFF 		bl	__aeabi_idivmod
 340 0020 6160     		str	r1, [r4, #4]
 341              	.LVL19:
 342              	.L30:
 343              		.loc 1 38 0
 344 0022 0020     		mov	r0, #0
 345 0024 FFF7FEFF 		bl	ShowMenuLevel
 346              		.loc 1 40 0
 347 0028 014B     		ldr	r3, .L32
 348              		.loc 1 43 0
 349              		@ sp needed for prologue
 350              		.loc 1 40 0
 351 002a 5D61     		str	r5, [r3, #20]
 352              	.LVL20:
 353              		.loc 1 43 0
 354 002c 38BD     		pop	{r3, r4, r5, pc}
 355              	.L33:
 356 002e C046     		.align	2
 357              	.L32:
 358 0030 00000000 		.word	.LANCHOR0
 359              		.cfi_endproc
 360              	.LFE20:
 361              		.size	IncreaseMenuLevel, .-IncreaseMenuLevel
 362              		.global	menu_level
 363              		.global	menu_option
 364              		.global	menu
 365              		.global	param
 366              		.global	param_step
 367              		.comm	LCD_FONT8x16,1552,4
 368              		.comm	foo,4,4
 369              		.section	.rodata.str1.1,"aMS",%progbits,1
 370              	.LC11:
 371 0000 00       		.ascii	"\000"
 372              	.LC12:
 373 0001 5820726F 		.ascii	"X rotation\000"
 373      74617469 
 373      6F6E00
 374              	.LC13:
 375 000c 5920726F 		.ascii	"Y rotation\000"
 375      74617469 
 375      6F6E00
 376              	.LC14:
 377 0017 5A20726F 		.ascii	"Z rotation\000"
 377      74617469 
 377      6F6E00
 378              	.LC15:
 379 0022 58207065 		.ascii	"X perspective\000"
 379      72737065 
 379      63746976 
 379      6500
 380              	.LC16:
 381 0030 59207065 		.ascii	"Y perspective\000"
 381      72737065 
 381      63746976 
ARM GAS  C:\Users\kees\AppData\Local\Temp\cc65pnkR.s 			page 10


 381      6500
 382              	.LC17:
 383 003e 5A207065 		.ascii	"Z perspective\000"
 383      72737065 
 383      63746976 
 383      6500
 384              	.LC18:
 385 004c 58207363 		.ascii	"X scale\000"
 385      616C6500 
 386              	.LC19:
 387 0054 59207363 		.ascii	"Y scale\000"
 387      616C6500 
 388              		.data
 389              		.align	2
 390              		.set	.LANCHOR1,. + 0
 391              		.type	param, %object
 392              		.size	param, 36
 393              	param:
 394 0000 00000000 		.word	foo
 395 0004 00000000 		.word	x_rot
 396 0008 00000000 		.word	y_rot
 397 000c 00000000 		.word	z_rot
 398 0010 00000000 		.word	p
 399 0014 00000000 		.word	q
 400 0018 00000000 		.word	r
 401 001c 00000000 		.word	X_SCALE
 402 0020 00000000 		.word	Y_SCALE
 403              		.type	param_step, %object
 404              		.size	param_step, 36
 405              	param_step:
 406 0024 00000000 		.word	0
 407 0028 0AD7A33B 		.word	1000593162
 408 002c 0AD7A33B 		.word	1000593162
 409 0030 0AD7A33B 		.word	1000593162
 410 0034 0AD7A33C 		.word	1017370378
 411 0038 0AD7A33C 		.word	1017370378
 412 003c 0AD7A33C 		.word	1017370378
 413 0040 00004040 		.word	1077936128
 414 0044 00004040 		.word	1077936128
 415              		.type	menu, %object
 416              		.size	menu, 36
 417              	menu:
 418 0048 00000000 		.word	.LC11
 419 004c 01000000 		.word	.LC12
 420 0050 0C000000 		.word	.LC13
 421 0054 17000000 		.word	.LC14
 422 0058 22000000 		.word	.LC15
 423 005c 30000000 		.word	.LC16
 424 0060 3E000000 		.word	.LC17
 425 0064 4C000000 		.word	.LC18
 426 0068 54000000 		.word	.LC19
 427              		.bss
 428              		.align	2
 429              		.set	.LANCHOR0,. + 0
 430              		.type	val_old.2719, %object
 431              		.size	val_old.2719, 4
 432              	val_old.2719:
ARM GAS  C:\Users\kees\AppData\Local\Temp\cc65pnkR.s 			page 11


 433 0000 00000000 		.space	4
 434              		.type	menu_level, %object
 435              		.size	menu_level, 4
 436              	menu_level:
 437 0004 00000000 		.space	4
 438              		.type	val_old.2734, %object
 439              		.size	val_old.2734, 4
 440              	val_old.2734:
 441 0008 00000000 		.space	4
 442              		.type	val_old.2749, %object
 443              		.size	val_old.2749, 4
 444              	val_old.2749:
 445 000c 00000000 		.space	4
 446              		.type	val_old.2698, %object
 447              		.size	val_old.2698, 4
 448              	val_old.2698:
 449 0010 00000000 		.space	4
 450              		.type	val_old.2685, %object
 451              		.size	val_old.2685, 4
 452              	val_old.2685:
 453 0014 00000000 		.space	4
 454              		.type	menu_option, %object
 455              		.size	menu_option, 4
 456              	menu_option:
 457 0018 00000000 		.space	4
 458              		.text
 459              	.Letext0: