ARM GAS  C:\Users\kees\AppData\Local\Temp\ccox8AL7.s 			page 1


   1              		.cpu cortex-m0
   2              		.fpu softvfp
   3              		.eabi_attribute 20, 1
   4              		.eabi_attribute 21, 1
   5              		.eabi_attribute 23, 3
   6              		.eabi_attribute 24, 1
   7              		.eabi_attribute 25, 1
   8              		.eabi_attribute 26, 1
   9              		.eabi_attribute 30, 4
  10              		.eabi_attribute 18, 4
  11              		.code	16
  12              		.file	"Transforms.c"
  19 0000 06010000 		.text
  19      02005400 
  19      00000201 
  19      FB0E0D00 
  19      01010101 
  20              	.Ltext0:
  21              		.cfi_sections	.debug_frame
  22              		.global	__aeabi_fmul
  23              		.global	__aeabi_fadd
  24              		.global	__aeabi_fdiv
  25              		.global	__aeabi_fcmplt
  26              		.section	.text.project,"ax",%progbits
  27              		.align	1
  28              		.global	project
  29              		.code	16
  30              		.thumb_func
  31              		.type	project, %function
  32              	project:
  33              	.LFB26:
  34              		.file 1 ".\\Transforms.c"
   1:.\Transforms.c **** /* ========================================
   2:.\Transforms.c ****  *
   3:.\Transforms.c ****  * Copyright YOUR COMPANY, THE YEAR
   4:.\Transforms.c ****  * All Rights Reserved
   5:.\Transforms.c ****  * UNPUBLISHED, LICENSED SOFTWARE.
   6:.\Transforms.c ****  *
   7:.\Transforms.c ****  * CONFIDENTIAL AND PROPRIETARY INFORMATION
   8:.\Transforms.c ****  * WHICH IS THE PROPERTY OF your company.
   9:.\Transforms.c ****  *
  10:.\Transforms.c ****  * ========================================
  11:.\Transforms.c **** */
  12:.\Transforms.c **** 
  13:.\Transforms.c **** #include "Transforms.h"
  14:.\Transforms.c **** 
  15:.\Transforms.c **** float r = 0.2; // z
  16:.\Transforms.c **** float p = 0; // x
  17:.\Transforms.c **** float q = 0; // y
  18:.\Transforms.c **** 
  19:.\Transforms.c **** float X_OFFSET;
ARM GAS  C:\Users\kees\AppData\Local\Temp\ccox8AL7.s 			page 2


  20:.\Transforms.c **** float Y_OFFSET;
  21:.\Transforms.c **** float X_SCALE; 
  22:.\Transforms.c **** float Y_SCALE;
  23:.\Transforms.c **** 
  24:.\Transforms.c **** void topolar(float a, float b, float * r, float * theta)
  25:.\Transforms.c **** {
  26:.\Transforms.c **** 	*theta = atan2(b, a);
  27:.\Transforms.c **** 	*r = sqrt(pow(a,2) + pow(b,2));
  28:.\Transforms.c **** 	
  29:.\Transforms.c **** 	return;
  30:.\Transforms.c **** }
  31:.\Transforms.c **** 
  32:.\Transforms.c **** void torect(float r, float theta, float * a, float * b)
  33:.\Transforms.c **** {
  34:.\Transforms.c **** 	*a = r*cos(theta);
  35:.\Transforms.c **** 	*b = r*sin(theta);
  36:.\Transforms.c **** 	
  37:.\Transforms.c **** 	return;
  38:.\Transforms.c **** }
  39:.\Transforms.c **** 
  40:.\Transforms.c **** void rotate(float * a, float * b, float theta)
  41:.\Transforms.c **** {
  42:.\Transforms.c **** 	float r, theta_new;
  43:.\Transforms.c **** 	
  44:.\Transforms.c **** 	topolar(*a, *b, &r, &theta_new);
  45:.\Transforms.c **** 	theta_new = theta_new + theta;
  46:.\Transforms.c **** 	torect(r, theta_new, a, b);
  47:.\Transforms.c **** 	
  48:.\Transforms.c **** 	return;
  49:.\Transforms.c **** }
  50:.\Transforms.c **** 
  51:.\Transforms.c **** void rotatex(float * ax, float * ay, float * az, float theta)
  52:.\Transforms.c **** {
  53:.\Transforms.c **** 	rotate(ay, az, theta);
  54:.\Transforms.c **** 	
  55:.\Transforms.c **** 	return;
  56:.\Transforms.c **** }
  57:.\Transforms.c **** 
  58:.\Transforms.c **** void rotatey(float * ax, float * ay, float * az, float theta)
  59:.\Transforms.c **** {
  60:.\Transforms.c **** 	rotate(az, ax, theta);
  61:.\Transforms.c **** 	
  62:.\Transforms.c **** 	return;
  63:.\Transforms.c **** }
  64:.\Transforms.c **** 
  65:.\Transforms.c **** void rotatez(float * ax, float * ay, float * az, float theta)
  66:.\Transforms.c **** {
  67:.\Transforms.c **** 	rotate(ax, ay, theta);
  68:.\Transforms.c **** 	
  69:.\Transforms.c **** 	return;
  70:.\Transforms.c **** }
  71:.\Transforms.c **** 
  72:.\Transforms.c **** void project(float ax, float ay, float az, float * bx, float * by)
  73:.\Transforms.c **** {	
  35              		.loc 1 73 0
  36              		.cfi_startproc
  37 0000 F0B5     		push	{r4, r5, r6, r7, lr}
ARM GAS  C:\Users\kees\AppData\Local\Temp\ccox8AL7.s 			page 3


  38              	.LCFI0:
  39              		.cfi_def_cfa_offset 20
  40              		.cfi_offset 4, -20
  41              		.cfi_offset 5, -16
  42              		.cfi_offset 6, -12
  43              		.cfi_offset 7, -8
  44              		.cfi_offset 14, -4
  45              	.LVL0:
  74:.\Transforms.c **** 	
  75:.\Transforms.c **** 	// three point persepctive
  76:.\Transforms.c **** 	*bx = ax/(p*ax+q*ay+r*az+1)*X_SCALE + X_OFFSET;
  46              		.loc 1 76 0
  47 0002 354C     		ldr	r4, .L10
  48              		.loc 1 73 0
  49 0004 83B0     		sub	sp, sp, #12
  50              	.LCFI1:
  51              		.cfi_def_cfa_offset 32
  52              		.loc 1 73 0
  53 0006 0E1C     		add	r6, r1, #0
  54              		.loc 1 76 0
  55 0008 2168     		ldr	r1, [r4]
  56              	.LVL1:
  57              		.loc 1 73 0
  58 000a 0192     		str	r2, [sp, #4]
  59 000c 1F1C     		mov	r7, r3
  60 000e 051C     		add	r5, r0, #0
  61              		.loc 1 76 0
  62 0010 FFF7FEFF 		bl	__aeabi_fmul
  63              	.LVL2:
  64 0014 6168     		ldr	r1, [r4, #4]
  65 0016 0090     		str	r0, [sp]
  66 0018 301C     		add	r0, r6, #0
  67 001a FFF7FEFF 		bl	__aeabi_fmul
  68 001e 011C     		add	r1, r0, #0
  69 0020 0098     		ldr	r0, [sp]
  70 0022 FFF7FEFF 		bl	__aeabi_fadd
  71 0026 2D4B     		ldr	r3, .L10+4
  72 0028 0090     		str	r0, [sp]
  73 002a 1968     		ldr	r1, [r3]
  74 002c 0198     		ldr	r0, [sp, #4]
  75 002e FFF7FEFF 		bl	__aeabi_fmul
  76 0032 011C     		add	r1, r0, #0
  77 0034 0098     		ldr	r0, [sp]
  78 0036 FFF7FEFF 		bl	__aeabi_fadd
  79 003a 2949     		ldr	r1, .L10+8
  80 003c FFF7FEFF 		bl	__aeabi_fadd
  81 0040 011C     		add	r1, r0, #0
  82 0042 281C     		add	r0, r5, #0
  83 0044 FFF7FEFF 		bl	__aeabi_fdiv
  84 0048 264B     		ldr	r3, .L10+12
  85 004a 1968     		ldr	r1, [r3]
  86 004c FFF7FEFF 		bl	__aeabi_fmul
  87 0050 254B     		ldr	r3, .L10+16
  88 0052 1968     		ldr	r1, [r3]
  89 0054 FFF7FEFF 		bl	__aeabi_fadd
  90 0058 3860     		str	r0, [r7]
  77:.\Transforms.c **** 	*by = ay/(p*ax+q*ay+r*az+1)*Y_SCALE + Y_OFFSET;
ARM GAS  C:\Users\kees\AppData\Local\Temp\ccox8AL7.s 			page 4


  91              		.loc 1 77 0
  92 005a 2168     		ldr	r1, [r4]
  93 005c 281C     		add	r0, r5, #0
  94 005e FFF7FEFF 		bl	__aeabi_fmul
  95 0062 6168     		ldr	r1, [r4, #4]
  96 0064 051C     		add	r5, r0, #0
  97              	.LVL3:
  98 0066 301C     		add	r0, r6, #0
  99 0068 FFF7FEFF 		bl	__aeabi_fmul
 100 006c 011C     		add	r1, r0, #0
 101 006e 281C     		add	r0, r5, #0
 102 0070 FFF7FEFF 		bl	__aeabi_fadd
 103 0074 194B     		ldr	r3, .L10+4
 104 0076 041C     		add	r4, r0, #0
 105 0078 1968     		ldr	r1, [r3]
 106 007a 0198     		ldr	r0, [sp, #4]
 107 007c FFF7FEFF 		bl	__aeabi_fmul
 108 0080 011C     		add	r1, r0, #0
 109 0082 201C     		add	r0, r4, #0
 110 0084 FFF7FEFF 		bl	__aeabi_fadd
 111 0088 1549     		ldr	r1, .L10+8
 112 008a FFF7FEFF 		bl	__aeabi_fadd
 113 008e 011C     		add	r1, r0, #0
 114 0090 301C     		add	r0, r6, #0
 115 0092 FFF7FEFF 		bl	__aeabi_fdiv
 116 0096 154B     		ldr	r3, .L10+20
 117 0098 1968     		ldr	r1, [r3]
 118 009a FFF7FEFF 		bl	__aeabi_fmul
 119 009e 144B     		ldr	r3, .L10+24
 120 00a0 1968     		ldr	r1, [r3]
 121 00a2 FFF7FEFF 		bl	__aeabi_fadd
 122 00a6 089B     		ldr	r3, [sp, #32]
  78:.\Transforms.c **** 	
  79:.\Transforms.c **** 	// two point persepctive
  80:.\Transforms.c **** //	*bx = ax/(p*ax+q*ay+1)*X_SCALE + X_OFFSET;
  81:.\Transforms.c **** //	*by = ay/(p*ax+q*ay+1)*Y_SCALE + Y_OFFSET;
  82:.\Transforms.c **** 	
  83:.\Transforms.c **** 	// single point persepctive
  84:.\Transforms.c **** //	*bx = ax/(r*az+1)*X_SCALE + X_OFFSET;
  85:.\Transforms.c **** //	*by = ay/(r*az+1)*Y_SCALE + Y_OFFSET;
  86:.\Transforms.c **** 	
  87:.\Transforms.c **** 	// no perspective
  88:.\Transforms.c **** //	*bx = ax*X_SCALE + X_OFFSET;
  89:.\Transforms.c **** //	*by = ay*Y_SCALE + Y_OFFSET;
  90:.\Transforms.c **** 	
  91:.\Transforms.c **** 	// simple protection to prevent display freakout
  92:.\Transforms.c **** 	
  93:.\Transforms.c **** 	if(*bx < 0)
 123              		.loc 1 93 0
 124 00a8 1249     		ldr	r1, .L10+28
 125              		.loc 1 77 0
 126 00aa 1860     		str	r0, [r3]
 127              		.loc 1 93 0
 128 00ac 3C68     		ldr	r4, [r7]
 129 00ae 201C     		add	r0, r4, #0
 130 00b0 FFF7FEFF 		bl	__aeabi_fcmplt
 131 00b4 0028     		cmp	r0, #0
ARM GAS  C:\Users\kees\AppData\Local\Temp\ccox8AL7.s 			page 5


 132 00b6 00D0     		beq	.L2
 133              	.LVL4:
 134 00b8 0E4C     		ldr	r4, .L10+28
 135              	.L2:
  94:.\Transforms.c **** 	{
  95:.\Transforms.c **** 		*bx = 0;
  96:.\Transforms.c **** 	}
  97:.\Transforms.c **** 	
  98:.\Transforms.c **** 	if(*by < 0)
 136              		.loc 1 98 0
 137 00ba 089B     		ldr	r3, [sp, #32]
 138              		.loc 1 93 0
 139 00bc 3C60     		str	r4, [r7]
 140              		.loc 1 98 0
 141 00be 1C68     		ldr	r4, [r3]
 142 00c0 0C49     		ldr	r1, .L10+28
 143 00c2 201C     		add	r0, r4, #0
 144 00c4 FFF7FEFF 		bl	__aeabi_fcmplt
 145 00c8 0028     		cmp	r0, #0
 146 00ca 00D0     		beq	.L4
 147 00cc 094C     		ldr	r4, .L10+28
 148              	.L4:
 149 00ce 089B     		ldr	r3, [sp, #32]
  99:.\Transforms.c **** 	{
 100:.\Transforms.c **** 		*by = 0;
 101:.\Transforms.c **** 	}
 102:.\Transforms.c **** 	
 103:.\Transforms.c **** 	return;
 104:.\Transforms.c **** }
 150              		.loc 1 104 0
 151 00d0 03B0     		add	sp, sp, #12
 152              		.loc 1 98 0
 153 00d2 1C60     		str	r4, [r3]
 154              		.loc 1 104 0
 155              		@ sp needed for prologue
 156              	.LVL5:
 157              	.LVL6:
 158 00d4 F0BD     		pop	{r4, r5, r6, r7, pc}
 159              	.L11:
 160 00d6 C046     		.align	2
 161              	.L10:
 162 00d8 00000000 		.word	.LANCHOR0
 163 00dc 00000000 		.word	.LANCHOR1
 164 00e0 0000803F 		.word	1065353216
 165 00e4 00000000 		.word	X_SCALE
 166 00e8 00000000 		.word	X_OFFSET
 167 00ec 00000000 		.word	Y_SCALE
 168 00f0 00000000 		.word	Y_OFFSET
 169 00f4 00000000 		.word	0
 170              		.cfi_endproc
 171              	.LFE26:
 172              		.size	project, .-project
 173              		.global	__aeabi_f2d
 174              		.global	__aeabi_dmul
 175              		.global	__aeabi_d2f
 176              		.section	.text.torect,"ax",%progbits
 177              		.align	1
ARM GAS  C:\Users\kees\AppData\Local\Temp\ccox8AL7.s 			page 6


 178              		.global	torect
 179              		.code	16
 180              		.thumb_func
 181              		.type	torect, %function
 182              	torect:
 183              	.LFB21:
 184              		.loc 1 33 0
 185              		.cfi_startproc
 186 0000 F0B5     		push	{r4, r5, r6, r7, lr}
 187              	.LCFI2:
 188              		.cfi_def_cfa_offset 20
 189              		.cfi_offset 4, -20
 190              		.cfi_offset 5, -16
 191              		.cfi_offset 6, -12
 192              		.cfi_offset 7, -8
 193              		.cfi_offset 14, -4
 194              	.LVL7:
 195 0002 83B0     		sub	sp, sp, #12
 196              	.LCFI3:
 197              		.cfi_def_cfa_offset 32
 198              		.loc 1 33 0
 199 0004 0092     		str	r2, [sp]
 200 0006 0193     		str	r3, [sp, #4]
 201 0008 0C1C     		add	r4, r1, #0
 202              		.loc 1 34 0
 203 000a FFF7FEFF 		bl	__aeabi_f2d
 204              	.LVL8:
 205 000e 061C     		mov	r6, r0
 206 0010 201C     		add	r0, r4, #0
 207 0012 0F1C     		mov	r7, r1
 208 0014 FFF7FEFF 		bl	__aeabi_f2d
 209 0018 0D1C     		mov	r5, r1
 210 001a 041C     		mov	r4, r0
 211              	.LVL9:
 212 001c FFF7FEFF 		bl	cos
 213 0020 021C     		mov	r2, r0
 214 0022 0B1C     		mov	r3, r1
 215 0024 301C     		mov	r0, r6
 216 0026 391C     		mov	r1, r7
 217 0028 FFF7FEFF 		bl	__aeabi_dmul
 218 002c FFF7FEFF 		bl	__aeabi_d2f
 219 0030 009B     		ldr	r3, [sp]
 220              		.loc 1 35 0
 221 0032 291C     		mov	r1, r5
 222              		.loc 1 34 0
 223 0034 1860     		str	r0, [r3]
 224              		.loc 1 35 0
 225 0036 201C     		mov	r0, r4
 226 0038 FFF7FEFF 		bl	sin
 227 003c 021C     		mov	r2, r0
 228 003e 0B1C     		mov	r3, r1
 229 0040 301C     		mov	r0, r6
 230 0042 391C     		mov	r1, r7
 231 0044 FFF7FEFF 		bl	__aeabi_dmul
 232 0048 FFF7FEFF 		bl	__aeabi_d2f
 233 004c 019B     		ldr	r3, [sp, #4]
 234              		.loc 1 38 0
ARM GAS  C:\Users\kees\AppData\Local\Temp\ccox8AL7.s 			page 7


 235 004e 03B0     		add	sp, sp, #12
 236              		.loc 1 35 0
 237 0050 1860     		str	r0, [r3]
 238              		.loc 1 38 0
 239              		@ sp needed for prologue
 240 0052 F0BD     		pop	{r4, r5, r6, r7, pc}
 241              		.cfi_endproc
 242              	.LFE21:
 243              		.size	torect, .-torect
 244              		.global	__aeabi_dadd
 245              		.section	.text.topolar,"ax",%progbits
 246              		.align	1
 247              		.global	topolar
 248              		.code	16
 249              		.thumb_func
 250              		.type	topolar, %function
 251              	topolar:
 252              	.LFB20:
 253              		.loc 1 25 0
 254              		.cfi_startproc
 255 0000 F0B5     		push	{r4, r5, r6, r7, lr}
 256              	.LCFI4:
 257              		.cfi_def_cfa_offset 20
 258              		.cfi_offset 4, -20
 259              		.cfi_offset 5, -16
 260              		.cfi_offset 6, -12
 261              		.cfi_offset 7, -8
 262              		.cfi_offset 14, -4
 263              	.LVL10:
 264 0002 83B0     		sub	sp, sp, #12
 265              	.LCFI5:
 266              		.cfi_def_cfa_offset 32
 267              		.loc 1 25 0
 268 0004 041C     		add	r4, r0, #0
 269              		.loc 1 26 0
 270 0006 081C     		add	r0, r1, #0
 271              	.LVL11:
 272              		.loc 1 25 0
 273 0008 0092     		str	r2, [sp]
 274 000a 0193     		str	r3, [sp, #4]
 275              		.loc 1 26 0
 276 000c FFF7FEFF 		bl	__aeabi_f2d
 277              	.LVL12:
 278 0010 061C     		mov	r6, r0
 279 0012 201C     		add	r0, r4, #0
 280 0014 0F1C     		mov	r7, r1
 281 0016 FFF7FEFF 		bl	__aeabi_f2d
 282 001a 041C     		mov	r4, r0
 283              	.LVL13:
 284 001c 0D1C     		mov	r5, r1
 285 001e 221C     		mov	r2, r4
 286 0020 2B1C     		mov	r3, r5
 287 0022 301C     		mov	r0, r6
 288 0024 391C     		mov	r1, r7
 289 0026 FFF7FEFF 		bl	atan2
 290 002a FFF7FEFF 		bl	__aeabi_d2f
 291 002e 019B     		ldr	r3, [sp, #4]
ARM GAS  C:\Users\kees\AppData\Local\Temp\ccox8AL7.s 			page 8


 292              		.loc 1 27 0
 293 0030 221C     		mov	r2, r4
 294              		.loc 1 26 0
 295 0032 1860     		str	r0, [r3]
 296              		.loc 1 27 0
 297 0034 291C     		mov	r1, r5
 298 0036 2B1C     		mov	r3, r5
 299 0038 201C     		mov	r0, r4
 300 003a FFF7FEFF 		bl	__aeabi_dmul
 301 003e 321C     		mov	r2, r6
 302 0040 0D1C     		mov	r5, r1
 303 0042 3B1C     		mov	r3, r7
 304 0044 041C     		mov	r4, r0
 305 0046 391C     		mov	r1, r7
 306 0048 301C     		mov	r0, r6
 307 004a FFF7FEFF 		bl	__aeabi_dmul
 308 004e 021C     		mov	r2, r0
 309 0050 0B1C     		mov	r3, r1
 310 0052 201C     		mov	r0, r4
 311 0054 291C     		mov	r1, r5
 312 0056 FFF7FEFF 		bl	__aeabi_dadd
 313 005a FFF7FEFF 		bl	sqrt
 314 005e FFF7FEFF 		bl	__aeabi_d2f
 315 0062 009B     		ldr	r3, [sp]
 316              		.loc 1 30 0
 317 0064 03B0     		add	sp, sp, #12
 318              		.loc 1 27 0
 319 0066 1860     		str	r0, [r3]
 320              		.loc 1 30 0
 321              		@ sp needed for prologue
 322 0068 F0BD     		pop	{r4, r5, r6, r7, pc}
 323              		.cfi_endproc
 324              	.LFE20:
 325              		.size	topolar, .-topolar
 326              		.section	.text.rotate,"ax",%progbits
 327              		.align	1
 328              		.global	rotate
 329              		.code	16
 330              		.thumb_func
 331              		.type	rotate, %function
 332              	rotate:
 333              	.LFB22:
 334              		.loc 1 41 0
 335              		.cfi_startproc
 336 0000 70B5     		push	{r4, r5, r6, lr}
 337              	.LCFI6:
 338              		.cfi_def_cfa_offset 16
 339              		.cfi_offset 4, -16
 340              		.cfi_offset 5, -12
 341              		.cfi_offset 6, -8
 342              		.cfi_offset 14, -4
 343              	.LVL14:
 344 0002 82B0     		sub	sp, sp, #8
 345              	.LCFI7:
 346              		.cfi_def_cfa_offset 24
 347              		.loc 1 41 0
 348 0004 0D1C     		mov	r5, r1
ARM GAS  C:\Users\kees\AppData\Local\Temp\ccox8AL7.s 			page 9


 349 0006 161C     		add	r6, r2, #0
 350              		.loc 1 44 0
 351 0008 6B46     		mov	r3, sp
 352 000a 01AA     		add	r2, sp, #4
 353              	.LVL15:
 354              		.loc 1 41 0
 355 000c 041C     		mov	r4, r0
 356              		.loc 1 44 0
 357 000e 0968     		ldr	r1, [r1]
 358              	.LVL16:
 359 0010 0068     		ldr	r0, [r0]
 360              	.LVL17:
 361 0012 FFF7FEFF 		bl	topolar
 362              		.loc 1 45 0
 363 0016 0099     		ldr	r1, [sp]
 364              	.LVL18:
 365 0018 301C     		add	r0, r6, #0
 366 001a FFF7FEFF 		bl	__aeabi_fadd
 367              		.loc 1 46 0
 368 001e 2B1C     		mov	r3, r5
 369              		.loc 1 45 0
 370 0020 011C     		add	r1, r0, #0
 371 0022 0090     		str	r0, [sp]
 372              	.LVL19:
 373              		.loc 1 46 0
 374 0024 221C     		mov	r2, r4
 375 0026 0198     		ldr	r0, [sp, #4]
 376              	.LVL20:
 377 0028 FFF7FEFF 		bl	torect
 378              		.loc 1 49 0
 379 002c 02B0     		add	sp, sp, #8
 380              		@ sp needed for prologue
 381              	.LVL21:
 382              	.LVL22:
 383              	.LVL23:
 384 002e 70BD     		pop	{r4, r5, r6, pc}
 385              		.cfi_endproc
 386              	.LFE22:
 387              		.size	rotate, .-rotate
 388              		.section	.text.rotatez,"ax",%progbits
 389              		.align	1
 390              		.global	rotatez
 391              		.code	16
 392              		.thumb_func
 393              		.type	rotatez, %function
 394              	rotatez:
 395              	.LFB25:
 396              		.loc 1 66 0
 397              		.cfi_startproc
 398 0000 08B5     		push	{r3, lr}
 399              	.LCFI8:
 400              		.cfi_def_cfa_offset 8
 401              		.cfi_offset 3, -8
 402              		.cfi_offset 14, -4
 403              	.LVL24:
 404              		.loc 1 67 0
 405 0002 1A1C     		add	r2, r3, #0
ARM GAS  C:\Users\kees\AppData\Local\Temp\ccox8AL7.s 			page 10


 406              	.LVL25:
 407 0004 FFF7FEFF 		bl	rotate
 408              	.LVL26:
 409              		.loc 1 70 0
 410              		@ sp needed for prologue
 411 0008 08BD     		pop	{r3, pc}
 412              		.cfi_endproc
 413              	.LFE25:
 414              		.size	rotatez, .-rotatez
 415              		.section	.text.rotatey,"ax",%progbits
 416              		.align	1
 417              		.global	rotatey
 418              		.code	16
 419              		.thumb_func
 420              		.type	rotatey, %function
 421              	rotatey:
 422              	.LFB24:
 423              		.loc 1 59 0
 424              		.cfi_startproc
 425 0000 08B5     		push	{r3, lr}
 426              	.LCFI9:
 427              		.cfi_def_cfa_offset 8
 428              		.cfi_offset 3, -8
 429              		.cfi_offset 14, -4
 430              	.LVL27:
 431              		.loc 1 59 0
 432 0002 011C     		mov	r1, r0
 433              	.LVL28:
 434              		.loc 1 60 0
 435 0004 101C     		mov	r0, r2
 436              	.LVL29:
 437 0006 1A1C     		add	r2, r3, #0
 438              	.LVL30:
 439 0008 FFF7FEFF 		bl	rotate
 440              	.LVL31:
 441              		.loc 1 63 0
 442              		@ sp needed for prologue
 443 000c 08BD     		pop	{r3, pc}
 444              		.cfi_endproc
 445              	.LFE24:
 446              		.size	rotatey, .-rotatey
 447              		.section	.text.rotatex,"ax",%progbits
 448              		.align	1
 449              		.global	rotatex
 450              		.code	16
 451              		.thumb_func
 452              		.type	rotatex, %function
 453              	rotatex:
 454              	.LFB23:
 455              		.loc 1 52 0
 456              		.cfi_startproc
 457 0000 08B5     		push	{r3, lr}
 458              	.LCFI10:
 459              		.cfi_def_cfa_offset 8
 460              		.cfi_offset 3, -8
 461              		.cfi_offset 14, -4
 462              	.LVL32:
ARM GAS  C:\Users\kees\AppData\Local\Temp\ccox8AL7.s 			page 11


 463              		.loc 1 53 0
 464 0002 081C     		mov	r0, r1
 465              	.LVL33:
 466 0004 111C     		mov	r1, r2
 467              	.LVL34:
 468 0006 1A1C     		add	r2, r3, #0
 469              	.LVL35:
 470 0008 FFF7FEFF 		bl	rotate
 471              	.LVL36:
 472              		.loc 1 56 0
 473              		@ sp needed for prologue
 474 000c 08BD     		pop	{r3, pc}
 475              		.cfi_endproc
 476              	.LFE23:
 477              		.size	rotatex, .-rotatex
 478              		.global	r
 479              		.global	p
 480              		.global	q
 481              		.comm	LCD_FONT8x16,1552,4
 482              		.comm	X_OFFSET,4,4
 483              		.comm	Y_OFFSET,4,4
 484              		.comm	X_SCALE,4,4
 485              		.comm	Y_SCALE,4,4
 486              		.data
 487              		.align	2
 488              		.set	.LANCHOR1,. + 0
 489              		.type	r, %object
 490              		.size	r, 4
 491              	r:
 492 0000 CDCC4C3E 		.word	1045220557
 493              		.bss
 494              		.align	2
 495              		.set	.LANCHOR0,. + 0
 496              		.type	p, %object
 497              		.size	p, 4
 498              	p:
 499 0000 00000000 		.space	4
 500              		.type	q, %object
 501              		.size	q, 4
 502              	q:
 503 0004 00000000 		.space	4
 504              		.text
 505              	.Letext0: