ARM GAS  F:\msys64\tmp\ccoK2euk.s 			page 1


   1              		.cpu cortex-m4
   2              		.arch armv7e-m
   3              		.fpu fpv4-sp-d16
   4              		.eabi_attribute 27, 1
   5              		.eabi_attribute 28, 1
   6              		.eabi_attribute 20, 1
   7              		.eabi_attribute 21, 1
   8              		.eabi_attribute 23, 3
   9              		.eabi_attribute 24, 1
  10              		.eabi_attribute 25, 1
  11              		.eabi_attribute 26, 1
  12              		.eabi_attribute 30, 1
  13              		.eabi_attribute 34, 1
  14              		.eabi_attribute 18, 4
  15              		.file	"inv_mpu_dmp_motion_driver.c"
  16              		.text
  17              	.Ltext0:
  18              		.cfi_sections	.debug_frame
  19              		.section	.text.decode_gesture,"ax",%progbits
  20              		.align	1
  21              		.syntax unified
  22              		.thumb
  23              		.thumb_func
  25              	decode_gesture:
  26              	.LVL0:
  27              	.LFB581:
  28              		.file 1 "Drivers/MPU6050/inv_mpu_dmp_motion_driver.c"
   1:Drivers/MPU6050/inv_mpu_dmp_motion_driver.c **** /*
   2:Drivers/MPU6050/inv_mpu_dmp_motion_driver.c ****  $License:
   3:Drivers/MPU6050/inv_mpu_dmp_motion_driver.c ****     Copyright (C) 2011-2012 InvenSense Corporation, All Rights Reserved.
   4:Drivers/MPU6050/inv_mpu_dmp_motion_driver.c ****     See included License.txt for License information.
   5:Drivers/MPU6050/inv_mpu_dmp_motion_driver.c ****  $
   6:Drivers/MPU6050/inv_mpu_dmp_motion_driver.c ****  */
   7:Drivers/MPU6050/inv_mpu_dmp_motion_driver.c **** /**
   8:Drivers/MPU6050/inv_mpu_dmp_motion_driver.c ****  *  @addtogroup  DRIVERS Sensor Driver Layer
   9:Drivers/MPU6050/inv_mpu_dmp_motion_driver.c ****  *  @brief       Hardware drivers to communicate with sensors via I2C.
  10:Drivers/MPU6050/inv_mpu_dmp_motion_driver.c ****  *
  11:Drivers/MPU6050/inv_mpu_dmp_motion_driver.c ****  *  @{
  12:Drivers/MPU6050/inv_mpu_dmp_motion_driver.c ****  *      @file       inv_mpu_dmp_motion_driver.c
  13:Drivers/MPU6050/inv_mpu_dmp_motion_driver.c ****  *      @brief      DMP image and interface functions.
  14:Drivers/MPU6050/inv_mpu_dmp_motion_driver.c ****  *      @details    All functions are preceded by the dmp_ prefix to
  15:Drivers/MPU6050/inv_mpu_dmp_motion_driver.c ****  *                  differentiate among MPL and general driver function calls.
  16:Drivers/MPU6050/inv_mpu_dmp_motion_driver.c ****  */
  17:Drivers/MPU6050/inv_mpu_dmp_motion_driver.c **** #include "main.h"
  18:Drivers/MPU6050/inv_mpu_dmp_motion_driver.c **** #include <stdio.h>
  19:Drivers/MPU6050/inv_mpu_dmp_motion_driver.c **** #include <stdint.h>
  20:Drivers/MPU6050/inv_mpu_dmp_motion_driver.c **** #include <stdlib.h>
  21:Drivers/MPU6050/inv_mpu_dmp_motion_driver.c **** #include <string.h>
  22:Drivers/MPU6050/inv_mpu_dmp_motion_driver.c **** #include <math.h>
  23:Drivers/MPU6050/inv_mpu_dmp_motion_driver.c **** #include "inv_mpu.h"
  24:Drivers/MPU6050/inv_mpu_dmp_motion_driver.c **** #include "inv_mpu_dmp_motion_driver.h"
  25:Drivers/MPU6050/inv_mpu_dmp_motion_driver.c **** #include "dmpKey.h"
  26:Drivers/MPU6050/inv_mpu_dmp_motion_driver.c **** #include "dmpmap.h"
  27:Drivers/MPU6050/inv_mpu_dmp_motion_driver.c **** #include "Time.h"
  28:Drivers/MPU6050/inv_mpu_dmp_motion_driver.c **** 
  29:Drivers/MPU6050/inv_mpu_dmp_motion_driver.c **** #define  MOTION_DRIVER_TARGET_MSP430
  30:Drivers/MPU6050/inv_mpu_dmp_motion_driver.c **** /* The following functions must be defined for this platform:
ARM GAS  F:\msys64\tmp\ccoK2euk.s 			page 2


  31:Drivers/MPU6050/inv_mpu_dmp_motion_driver.c ****  * i2c_write(unsigned char slave_addr, unsigned char reg_addr,
  32:Drivers/MPU6050/inv_mpu_dmp_motion_driver.c ****  *      unsigned char length, unsigned char const *data)
  33:Drivers/MPU6050/inv_mpu_dmp_motion_driver.c ****  * i2c_read(unsigned char slave_addr, unsigned char reg_addr,
  34:Drivers/MPU6050/inv_mpu_dmp_motion_driver.c ****  *      unsigned char length, unsigned char *data)
  35:Drivers/MPU6050/inv_mpu_dmp_motion_driver.c ****  * delay_ms(unsigned long num_ms)
  36:Drivers/MPU6050/inv_mpu_dmp_motion_driver.c ****  * get_ms(unsigned long *count)
  37:Drivers/MPU6050/inv_mpu_dmp_motion_driver.c ****  */
  38:Drivers/MPU6050/inv_mpu_dmp_motion_driver.c **** #if defined MOTION_DRIVER_TARGET_MSP430
  39:Drivers/MPU6050/inv_mpu_dmp_motion_driver.c **** //#include "msp430.h"
  40:Drivers/MPU6050/inv_mpu_dmp_motion_driver.c **** //#include "msp430_clock.h"
  41:Drivers/MPU6050/inv_mpu_dmp_motion_driver.c **** #define delay_ms    delay_ms
  42:Drivers/MPU6050/inv_mpu_dmp_motion_driver.c **** #define get_ms      get_ms
  43:Drivers/MPU6050/inv_mpu_dmp_motion_driver.c **** #define log_i(...)     do {} while (0)
  44:Drivers/MPU6050/inv_mpu_dmp_motion_driver.c **** #define log_e(...)     do {} while (0)
  45:Drivers/MPU6050/inv_mpu_dmp_motion_driver.c **** 
  46:Drivers/MPU6050/inv_mpu_dmp_motion_driver.c **** #elif defined EMPL_TARGET_MSP430
  47:Drivers/MPU6050/inv_mpu_dmp_motion_driver.c **** #include "msp430.h"
  48:Drivers/MPU6050/inv_mpu_dmp_motion_driver.c **** #include "msp430_clock.h"
  49:Drivers/MPU6050/inv_mpu_dmp_motion_driver.c **** #include "log.h"
  50:Drivers/MPU6050/inv_mpu_dmp_motion_driver.c **** #define delay_ms    msp430_delay_ms
  51:Drivers/MPU6050/inv_mpu_dmp_motion_driver.c **** #define get_ms      msp430_get_clock_ms
  52:Drivers/MPU6050/inv_mpu_dmp_motion_driver.c **** #define log_i       MPL_LOGI
  53:Drivers/MPU6050/inv_mpu_dmp_motion_driver.c **** #define log_e       MPL_LOGE
  54:Drivers/MPU6050/inv_mpu_dmp_motion_driver.c **** 
  55:Drivers/MPU6050/inv_mpu_dmp_motion_driver.c **** #elif defined EMPL_TARGET_UC3L0
  56:Drivers/MPU6050/inv_mpu_dmp_motion_driver.c **** /* Instead of using the standard TWI driver from the ASF library, we're using
  57:Drivers/MPU6050/inv_mpu_dmp_motion_driver.c ****  * a TWI driver that follows the slave address + register address convention.
  58:Drivers/MPU6050/inv_mpu_dmp_motion_driver.c ****  */
  59:Drivers/MPU6050/inv_mpu_dmp_motion_driver.c **** #include "delay.h"
  60:Drivers/MPU6050/inv_mpu_dmp_motion_driver.c **** #include "sysclk.h"
  61:Drivers/MPU6050/inv_mpu_dmp_motion_driver.c **** #include "log.h"
  62:Drivers/MPU6050/inv_mpu_dmp_motion_driver.c **** #include "uc3l0_clock.h"
  63:Drivers/MPU6050/inv_mpu_dmp_motion_driver.c **** /* delay_ms is a function already defined in ASF. */
  64:Drivers/MPU6050/inv_mpu_dmp_motion_driver.c **** #define get_ms  uc3l0_get_clock_ms
  65:Drivers/MPU6050/inv_mpu_dmp_motion_driver.c **** #define log_i       MPL_LOGI
  66:Drivers/MPU6050/inv_mpu_dmp_motion_driver.c **** #define log_e       MPL_LOGE
  67:Drivers/MPU6050/inv_mpu_dmp_motion_driver.c **** 
  68:Drivers/MPU6050/inv_mpu_dmp_motion_driver.c **** #else
  69:Drivers/MPU6050/inv_mpu_dmp_motion_driver.c **** //#error  Gyro driver is missing the system layer implementations.
  70:Drivers/MPU6050/inv_mpu_dmp_motion_driver.c **** #endif
  71:Drivers/MPU6050/inv_mpu_dmp_motion_driver.c **** 
  72:Drivers/MPU6050/inv_mpu_dmp_motion_driver.c **** /* These defines are copied from dmpDefaultMPU6050.c in the general MPL
  73:Drivers/MPU6050/inv_mpu_dmp_motion_driver.c ****  * releases. These defines may change for each DMP image, so be sure to modify
  74:Drivers/MPU6050/inv_mpu_dmp_motion_driver.c ****  * these values when switching to a new image.
  75:Drivers/MPU6050/inv_mpu_dmp_motion_driver.c ****  */
  76:Drivers/MPU6050/inv_mpu_dmp_motion_driver.c **** #define CFG_LP_QUAT             (2712)
  77:Drivers/MPU6050/inv_mpu_dmp_motion_driver.c **** #define END_ORIENT_TEMP         (1866)
  78:Drivers/MPU6050/inv_mpu_dmp_motion_driver.c **** #define CFG_27                  (2742)
  79:Drivers/MPU6050/inv_mpu_dmp_motion_driver.c **** #define CFG_20                  (2224)
  80:Drivers/MPU6050/inv_mpu_dmp_motion_driver.c **** #define CFG_23                  (2745)
  81:Drivers/MPU6050/inv_mpu_dmp_motion_driver.c **** #define CFG_FIFO_ON_EVENT       (2690)
  82:Drivers/MPU6050/inv_mpu_dmp_motion_driver.c **** #define END_PREDICTION_UPDATE   (1761)
  83:Drivers/MPU6050/inv_mpu_dmp_motion_driver.c **** #define CGNOTICE_INTR           (2620)
  84:Drivers/MPU6050/inv_mpu_dmp_motion_driver.c **** #define X_GRT_Y_TMP             (1358)
  85:Drivers/MPU6050/inv_mpu_dmp_motion_driver.c **** #define CFG_DR_INT              (1029)
  86:Drivers/MPU6050/inv_mpu_dmp_motion_driver.c **** #define CFG_AUTH                (1035)
  87:Drivers/MPU6050/inv_mpu_dmp_motion_driver.c **** #define UPDATE_PROP_ROT         (1835)
ARM GAS  F:\msys64\tmp\ccoK2euk.s 			page 3


  88:Drivers/MPU6050/inv_mpu_dmp_motion_driver.c **** #define END_COMPARE_Y_X_TMP2    (1455)
  89:Drivers/MPU6050/inv_mpu_dmp_motion_driver.c **** #define SKIP_X_GRT_Y_TMP        (1359)
  90:Drivers/MPU6050/inv_mpu_dmp_motion_driver.c **** #define SKIP_END_COMPARE        (1435)
  91:Drivers/MPU6050/inv_mpu_dmp_motion_driver.c **** #define FCFG_3                  (1088)
  92:Drivers/MPU6050/inv_mpu_dmp_motion_driver.c **** #define FCFG_2                  (1066)
  93:Drivers/MPU6050/inv_mpu_dmp_motion_driver.c **** #define FCFG_1                  (1062)
  94:Drivers/MPU6050/inv_mpu_dmp_motion_driver.c **** #define END_COMPARE_Y_X_TMP3    (1434)
  95:Drivers/MPU6050/inv_mpu_dmp_motion_driver.c **** #define FCFG_7                  (1073)
  96:Drivers/MPU6050/inv_mpu_dmp_motion_driver.c **** #define FCFG_6                  (1106)
  97:Drivers/MPU6050/inv_mpu_dmp_motion_driver.c **** #define FLAT_STATE_END          (1713)
  98:Drivers/MPU6050/inv_mpu_dmp_motion_driver.c **** #define SWING_END_4             (1616)
  99:Drivers/MPU6050/inv_mpu_dmp_motion_driver.c **** #define SWING_END_2             (1565)
 100:Drivers/MPU6050/inv_mpu_dmp_motion_driver.c **** #define SWING_END_3             (1587)
 101:Drivers/MPU6050/inv_mpu_dmp_motion_driver.c **** #define SWING_END_1             (1550)
 102:Drivers/MPU6050/inv_mpu_dmp_motion_driver.c **** #define CFG_8                   (2718)
 103:Drivers/MPU6050/inv_mpu_dmp_motion_driver.c **** #define CFG_15                  (2727)
 104:Drivers/MPU6050/inv_mpu_dmp_motion_driver.c **** #define CFG_16                  (2746)
 105:Drivers/MPU6050/inv_mpu_dmp_motion_driver.c **** #define CFG_EXT_GYRO_BIAS       (1189)
 106:Drivers/MPU6050/inv_mpu_dmp_motion_driver.c **** #define END_COMPARE_Y_X_TMP     (1407)
 107:Drivers/MPU6050/inv_mpu_dmp_motion_driver.c **** #define DO_NOT_UPDATE_PROP_ROT  (1839)
 108:Drivers/MPU6050/inv_mpu_dmp_motion_driver.c **** #define CFG_7                   (1205)
 109:Drivers/MPU6050/inv_mpu_dmp_motion_driver.c **** #define FLAT_STATE_END_TEMP     (1683)
 110:Drivers/MPU6050/inv_mpu_dmp_motion_driver.c **** #define END_COMPARE_Y_X         (1484)
 111:Drivers/MPU6050/inv_mpu_dmp_motion_driver.c **** #define SKIP_SWING_END_1        (1551)
 112:Drivers/MPU6050/inv_mpu_dmp_motion_driver.c **** #define SKIP_SWING_END_3        (1588)
 113:Drivers/MPU6050/inv_mpu_dmp_motion_driver.c **** #define SKIP_SWING_END_2        (1566)
 114:Drivers/MPU6050/inv_mpu_dmp_motion_driver.c **** #define TILTG75_START           (1672)
 115:Drivers/MPU6050/inv_mpu_dmp_motion_driver.c **** #define CFG_6                   (2753)
 116:Drivers/MPU6050/inv_mpu_dmp_motion_driver.c **** #define TILTL75_END             (1669)
 117:Drivers/MPU6050/inv_mpu_dmp_motion_driver.c **** #define END_ORIENT              (1884)
 118:Drivers/MPU6050/inv_mpu_dmp_motion_driver.c **** #define CFG_FLICK_IN            (2573)
 119:Drivers/MPU6050/inv_mpu_dmp_motion_driver.c **** #define TILTL75_START           (1643)
 120:Drivers/MPU6050/inv_mpu_dmp_motion_driver.c **** #define CFG_MOTION_BIAS         (1208)
 121:Drivers/MPU6050/inv_mpu_dmp_motion_driver.c **** #define X_GRT_Y                 (1408)
 122:Drivers/MPU6050/inv_mpu_dmp_motion_driver.c **** #define TEMPLABEL               (2324)
 123:Drivers/MPU6050/inv_mpu_dmp_motion_driver.c **** #define CFG_ANDROID_ORIENT_INT  (1853)
 124:Drivers/MPU6050/inv_mpu_dmp_motion_driver.c **** #define CFG_GYRO_RAW_DATA       (2722)
 125:Drivers/MPU6050/inv_mpu_dmp_motion_driver.c **** #define X_GRT_Y_TMP2            (1379)
 126:Drivers/MPU6050/inv_mpu_dmp_motion_driver.c **** 
 127:Drivers/MPU6050/inv_mpu_dmp_motion_driver.c **** #define D_0_22                  (22+512)
 128:Drivers/MPU6050/inv_mpu_dmp_motion_driver.c **** #define D_0_24                  (24+512)
 129:Drivers/MPU6050/inv_mpu_dmp_motion_driver.c **** 
 130:Drivers/MPU6050/inv_mpu_dmp_motion_driver.c **** #define D_0_36                  (36)
 131:Drivers/MPU6050/inv_mpu_dmp_motion_driver.c **** #define D_0_52                  (52)
 132:Drivers/MPU6050/inv_mpu_dmp_motion_driver.c **** #define D_0_96                  (96)
 133:Drivers/MPU6050/inv_mpu_dmp_motion_driver.c **** #define D_0_104                 (104)
 134:Drivers/MPU6050/inv_mpu_dmp_motion_driver.c **** #define D_0_108                 (108)
 135:Drivers/MPU6050/inv_mpu_dmp_motion_driver.c **** #define D_0_163                 (163)
 136:Drivers/MPU6050/inv_mpu_dmp_motion_driver.c **** #define D_0_188                 (188)
 137:Drivers/MPU6050/inv_mpu_dmp_motion_driver.c **** #define D_0_192                 (192)
 138:Drivers/MPU6050/inv_mpu_dmp_motion_driver.c **** #define D_0_224                 (224)
 139:Drivers/MPU6050/inv_mpu_dmp_motion_driver.c **** #define D_0_228                 (228)
 140:Drivers/MPU6050/inv_mpu_dmp_motion_driver.c **** #define D_0_232                 (232)
 141:Drivers/MPU6050/inv_mpu_dmp_motion_driver.c **** #define D_0_236                 (236)
 142:Drivers/MPU6050/inv_mpu_dmp_motion_driver.c **** 
 143:Drivers/MPU6050/inv_mpu_dmp_motion_driver.c **** #define D_1_2                   (256 + 2)
 144:Drivers/MPU6050/inv_mpu_dmp_motion_driver.c **** #define D_1_4                   (256 + 4)
ARM GAS  F:\msys64\tmp\ccoK2euk.s 			page 4


 145:Drivers/MPU6050/inv_mpu_dmp_motion_driver.c **** #define D_1_8                   (256 + 8)
 146:Drivers/MPU6050/inv_mpu_dmp_motion_driver.c **** #define D_1_10                  (256 + 10)
 147:Drivers/MPU6050/inv_mpu_dmp_motion_driver.c **** #define D_1_24                  (256 + 24)
 148:Drivers/MPU6050/inv_mpu_dmp_motion_driver.c **** #define D_1_28                  (256 + 28)
 149:Drivers/MPU6050/inv_mpu_dmp_motion_driver.c **** #define D_1_36                  (256 + 36)
 150:Drivers/MPU6050/inv_mpu_dmp_motion_driver.c **** #define D_1_40                  (256 + 40)
 151:Drivers/MPU6050/inv_mpu_dmp_motion_driver.c **** #define D_1_44                  (256 + 44)
 152:Drivers/MPU6050/inv_mpu_dmp_motion_driver.c **** #define D_1_72                  (256 + 72)
 153:Drivers/MPU6050/inv_mpu_dmp_motion_driver.c **** #define D_1_74                  (256 + 74)
 154:Drivers/MPU6050/inv_mpu_dmp_motion_driver.c **** #define D_1_79                  (256 + 79)
 155:Drivers/MPU6050/inv_mpu_dmp_motion_driver.c **** #define D_1_88                  (256 + 88)
 156:Drivers/MPU6050/inv_mpu_dmp_motion_driver.c **** #define D_1_90                  (256 + 90)
 157:Drivers/MPU6050/inv_mpu_dmp_motion_driver.c **** #define D_1_92                  (256 + 92)
 158:Drivers/MPU6050/inv_mpu_dmp_motion_driver.c **** #define D_1_96                  (256 + 96)
 159:Drivers/MPU6050/inv_mpu_dmp_motion_driver.c **** #define D_1_98                  (256 + 98)
 160:Drivers/MPU6050/inv_mpu_dmp_motion_driver.c **** #define D_1_106                 (256 + 106)
 161:Drivers/MPU6050/inv_mpu_dmp_motion_driver.c **** #define D_1_108                 (256 + 108)
 162:Drivers/MPU6050/inv_mpu_dmp_motion_driver.c **** #define D_1_112                 (256 + 112)
 163:Drivers/MPU6050/inv_mpu_dmp_motion_driver.c **** #define D_1_128                 (256 + 144)
 164:Drivers/MPU6050/inv_mpu_dmp_motion_driver.c **** #define D_1_152                 (256 + 12)
 165:Drivers/MPU6050/inv_mpu_dmp_motion_driver.c **** #define D_1_160                 (256 + 160)
 166:Drivers/MPU6050/inv_mpu_dmp_motion_driver.c **** #define D_1_176                 (256 + 176)
 167:Drivers/MPU6050/inv_mpu_dmp_motion_driver.c **** #define D_1_178                 (256 + 178)
 168:Drivers/MPU6050/inv_mpu_dmp_motion_driver.c **** #define D_1_218                 (256 + 218)
 169:Drivers/MPU6050/inv_mpu_dmp_motion_driver.c **** #define D_1_232                 (256 + 232)
 170:Drivers/MPU6050/inv_mpu_dmp_motion_driver.c **** #define D_1_236                 (256 + 236)
 171:Drivers/MPU6050/inv_mpu_dmp_motion_driver.c **** #define D_1_240                 (256 + 240)
 172:Drivers/MPU6050/inv_mpu_dmp_motion_driver.c **** #define D_1_244                 (256 + 244)
 173:Drivers/MPU6050/inv_mpu_dmp_motion_driver.c **** #define D_1_250                 (256 + 250)
 174:Drivers/MPU6050/inv_mpu_dmp_motion_driver.c **** #define D_1_252                 (256 + 252)
 175:Drivers/MPU6050/inv_mpu_dmp_motion_driver.c **** #define D_2_12                  (512 + 12)
 176:Drivers/MPU6050/inv_mpu_dmp_motion_driver.c **** #define D_2_96                  (512 + 96)
 177:Drivers/MPU6050/inv_mpu_dmp_motion_driver.c **** #define D_2_108                 (512 + 108)
 178:Drivers/MPU6050/inv_mpu_dmp_motion_driver.c **** #define D_2_208                 (512 + 208)
 179:Drivers/MPU6050/inv_mpu_dmp_motion_driver.c **** #define D_2_224                 (512 + 224)
 180:Drivers/MPU6050/inv_mpu_dmp_motion_driver.c **** #define D_2_236                 (512 + 236)
 181:Drivers/MPU6050/inv_mpu_dmp_motion_driver.c **** #define D_2_244                 (512 + 244)
 182:Drivers/MPU6050/inv_mpu_dmp_motion_driver.c **** #define D_2_248                 (512 + 248)
 183:Drivers/MPU6050/inv_mpu_dmp_motion_driver.c **** #define D_2_252                 (512 + 252)
 184:Drivers/MPU6050/inv_mpu_dmp_motion_driver.c **** 
 185:Drivers/MPU6050/inv_mpu_dmp_motion_driver.c **** #define CPASS_BIAS_X            (35 * 16 + 4)
 186:Drivers/MPU6050/inv_mpu_dmp_motion_driver.c **** #define CPASS_BIAS_Y            (35 * 16 + 8)
 187:Drivers/MPU6050/inv_mpu_dmp_motion_driver.c **** #define CPASS_BIAS_Z            (35 * 16 + 12)
 188:Drivers/MPU6050/inv_mpu_dmp_motion_driver.c **** #define CPASS_MTX_00            (36 * 16)
 189:Drivers/MPU6050/inv_mpu_dmp_motion_driver.c **** #define CPASS_MTX_01            (36 * 16 + 4)
 190:Drivers/MPU6050/inv_mpu_dmp_motion_driver.c **** #define CPASS_MTX_02            (36 * 16 + 8)
 191:Drivers/MPU6050/inv_mpu_dmp_motion_driver.c **** #define CPASS_MTX_10            (36 * 16 + 12)
 192:Drivers/MPU6050/inv_mpu_dmp_motion_driver.c **** #define CPASS_MTX_11            (37 * 16)
 193:Drivers/MPU6050/inv_mpu_dmp_motion_driver.c **** #define CPASS_MTX_12            (37 * 16 + 4)
 194:Drivers/MPU6050/inv_mpu_dmp_motion_driver.c **** #define CPASS_MTX_20            (37 * 16 + 8)
 195:Drivers/MPU6050/inv_mpu_dmp_motion_driver.c **** #define CPASS_MTX_21            (37 * 16 + 12)
 196:Drivers/MPU6050/inv_mpu_dmp_motion_driver.c **** #define CPASS_MTX_22            (43 * 16 + 12)
 197:Drivers/MPU6050/inv_mpu_dmp_motion_driver.c **** #define D_EXT_GYRO_BIAS_X       (61 * 16)
 198:Drivers/MPU6050/inv_mpu_dmp_motion_driver.c **** #define D_EXT_GYRO_BIAS_Y       (61 * 16) + 4
 199:Drivers/MPU6050/inv_mpu_dmp_motion_driver.c **** #define D_EXT_GYRO_BIAS_Z       (61 * 16) + 8
 200:Drivers/MPU6050/inv_mpu_dmp_motion_driver.c **** #define D_ACT0                  (40 * 16)
 201:Drivers/MPU6050/inv_mpu_dmp_motion_driver.c **** #define D_ACSX                  (40 * 16 + 4)
ARM GAS  F:\msys64\tmp\ccoK2euk.s 			page 5


 202:Drivers/MPU6050/inv_mpu_dmp_motion_driver.c **** #define D_ACSY                  (40 * 16 + 8)
 203:Drivers/MPU6050/inv_mpu_dmp_motion_driver.c **** #define D_ACSZ                  (40 * 16 + 12)
 204:Drivers/MPU6050/inv_mpu_dmp_motion_driver.c **** 
 205:Drivers/MPU6050/inv_mpu_dmp_motion_driver.c **** #define FLICK_MSG               (45 * 16 + 4)
 206:Drivers/MPU6050/inv_mpu_dmp_motion_driver.c **** #define FLICK_COUNTER           (45 * 16 + 8)
 207:Drivers/MPU6050/inv_mpu_dmp_motion_driver.c **** #define FLICK_LOWER             (45 * 16 + 12)
 208:Drivers/MPU6050/inv_mpu_dmp_motion_driver.c **** #define FLICK_UPPER             (46 * 16 + 12)
 209:Drivers/MPU6050/inv_mpu_dmp_motion_driver.c **** 
 210:Drivers/MPU6050/inv_mpu_dmp_motion_driver.c **** #define D_AUTH_OUT              (992)
 211:Drivers/MPU6050/inv_mpu_dmp_motion_driver.c **** #define D_AUTH_IN               (996)
 212:Drivers/MPU6050/inv_mpu_dmp_motion_driver.c **** #define D_AUTH_A                (1000)
 213:Drivers/MPU6050/inv_mpu_dmp_motion_driver.c **** #define D_AUTH_B                (1004)
 214:Drivers/MPU6050/inv_mpu_dmp_motion_driver.c **** 
 215:Drivers/MPU6050/inv_mpu_dmp_motion_driver.c **** #define D_PEDSTD_BP_B           (768 + 0x1C)
 216:Drivers/MPU6050/inv_mpu_dmp_motion_driver.c **** #define D_PEDSTD_HP_A           (768 + 0x78)
 217:Drivers/MPU6050/inv_mpu_dmp_motion_driver.c **** #define D_PEDSTD_HP_B           (768 + 0x7C)
 218:Drivers/MPU6050/inv_mpu_dmp_motion_driver.c **** #define D_PEDSTD_BP_A4          (768 + 0x40)
 219:Drivers/MPU6050/inv_mpu_dmp_motion_driver.c **** #define D_PEDSTD_BP_A3          (768 + 0x44)
 220:Drivers/MPU6050/inv_mpu_dmp_motion_driver.c **** #define D_PEDSTD_BP_A2          (768 + 0x48)
 221:Drivers/MPU6050/inv_mpu_dmp_motion_driver.c **** #define D_PEDSTD_BP_A1          (768 + 0x4C)
 222:Drivers/MPU6050/inv_mpu_dmp_motion_driver.c **** #define D_PEDSTD_INT_THRSH      (768 + 0x68)
 223:Drivers/MPU6050/inv_mpu_dmp_motion_driver.c **** #define D_PEDSTD_CLIP           (768 + 0x6C)
 224:Drivers/MPU6050/inv_mpu_dmp_motion_driver.c **** #define D_PEDSTD_SB             (768 + 0x28)
 225:Drivers/MPU6050/inv_mpu_dmp_motion_driver.c **** #define D_PEDSTD_SB_TIME        (768 + 0x2C)
 226:Drivers/MPU6050/inv_mpu_dmp_motion_driver.c **** #define D_PEDSTD_PEAKTHRSH      (768 + 0x98)
 227:Drivers/MPU6050/inv_mpu_dmp_motion_driver.c **** #define D_PEDSTD_TIML           (768 + 0x2A)
 228:Drivers/MPU6050/inv_mpu_dmp_motion_driver.c **** #define D_PEDSTD_TIMH           (768 + 0x2E)
 229:Drivers/MPU6050/inv_mpu_dmp_motion_driver.c **** #define D_PEDSTD_PEAK           (768 + 0X94)
 230:Drivers/MPU6050/inv_mpu_dmp_motion_driver.c **** #define D_PEDSTD_STEPCTR        (768 + 0x60)
 231:Drivers/MPU6050/inv_mpu_dmp_motion_driver.c **** #define D_PEDSTD_TIMECTR        (964)
 232:Drivers/MPU6050/inv_mpu_dmp_motion_driver.c **** #define D_PEDSTD_DECI           (768 + 0xA0)
 233:Drivers/MPU6050/inv_mpu_dmp_motion_driver.c **** 
 234:Drivers/MPU6050/inv_mpu_dmp_motion_driver.c **** #define D_HOST_NO_MOT           (976)
 235:Drivers/MPU6050/inv_mpu_dmp_motion_driver.c **** #define D_ACCEL_BIAS            (660)
 236:Drivers/MPU6050/inv_mpu_dmp_motion_driver.c **** 
 237:Drivers/MPU6050/inv_mpu_dmp_motion_driver.c **** #define D_ORIENT_GAP            (76)
 238:Drivers/MPU6050/inv_mpu_dmp_motion_driver.c **** 
 239:Drivers/MPU6050/inv_mpu_dmp_motion_driver.c **** #define D_TILT0_H               (48)
 240:Drivers/MPU6050/inv_mpu_dmp_motion_driver.c **** #define D_TILT0_L               (50)
 241:Drivers/MPU6050/inv_mpu_dmp_motion_driver.c **** #define D_TILT1_H               (52)
 242:Drivers/MPU6050/inv_mpu_dmp_motion_driver.c **** #define D_TILT1_L               (54)
 243:Drivers/MPU6050/inv_mpu_dmp_motion_driver.c **** #define D_TILT2_H               (56)
 244:Drivers/MPU6050/inv_mpu_dmp_motion_driver.c **** #define D_TILT2_L               (58)
 245:Drivers/MPU6050/inv_mpu_dmp_motion_driver.c **** #define D_TILT3_H               (60)
 246:Drivers/MPU6050/inv_mpu_dmp_motion_driver.c **** #define D_TILT3_L               (62)
 247:Drivers/MPU6050/inv_mpu_dmp_motion_driver.c **** 
 248:Drivers/MPU6050/inv_mpu_dmp_motion_driver.c **** #define DMP_CODE_SIZE           (3062)
 249:Drivers/MPU6050/inv_mpu_dmp_motion_driver.c **** 
 250:Drivers/MPU6050/inv_mpu_dmp_motion_driver.c **** static const unsigned char dmp_memory[DMP_CODE_SIZE] = {
 251:Drivers/MPU6050/inv_mpu_dmp_motion_driver.c ****     /* bank # 0 */
 252:Drivers/MPU6050/inv_mpu_dmp_motion_driver.c ****     0x00, 0x00, 0x70, 0x00, 0x00, 0x00, 0x00, 0x24, 0x00, 0x00, 0x00, 0x02, 0x00, 0x03, 0x00, 0x00,
 253:Drivers/MPU6050/inv_mpu_dmp_motion_driver.c ****     0x00, 0x65, 0x00, 0x54, 0xff, 0xef, 0x00, 0x00, 0xfa, 0x80, 0x00, 0x0b, 0x12, 0x82, 0x00, 0x01,
 254:Drivers/MPU6050/inv_mpu_dmp_motion_driver.c ****     0x03, 0x0c, 0x30, 0xc3, 0x0e, 0x8c, 0x8c, 0xe9, 0x14, 0xd5, 0x40, 0x02, 0x13, 0x71, 0x0f, 0x8e,
 255:Drivers/MPU6050/inv_mpu_dmp_motion_driver.c ****     0x38, 0x83, 0xf8, 0x83, 0x30, 0x00, 0xf8, 0x83, 0x25, 0x8e, 0xf8, 0x83, 0x30, 0x00, 0xf8, 0x83,
 256:Drivers/MPU6050/inv_mpu_dmp_motion_driver.c ****     0xff, 0xff, 0xff, 0xff, 0x0f, 0xfe, 0xa9, 0xd6, 0x24, 0x00, 0x04, 0x00, 0x1a, 0x82, 0x79, 0xa1,
 257:Drivers/MPU6050/inv_mpu_dmp_motion_driver.c ****     0x00, 0x00, 0x00, 0x3c, 0xff, 0xff, 0x00, 0x00, 0x00, 0x10, 0x00, 0x00, 0x38, 0x83, 0x6f, 0xa2,
 258:Drivers/MPU6050/inv_mpu_dmp_motion_driver.c ****     0x00, 0x3e, 0x03, 0x30, 0x40, 0x00, 0x00, 0x00, 0x02, 0xca, 0xe3, 0x09, 0x3e, 0x80, 0x00, 0x00,
ARM GAS  F:\msys64\tmp\ccoK2euk.s 			page 6


 259:Drivers/MPU6050/inv_mpu_dmp_motion_driver.c ****     0x20, 0x00, 0x00, 0x00, 0x00, 0x00, 0x00, 0x00, 0x40, 0x00, 0x00, 0x00, 0x60, 0x00, 0x00, 0x00,
 260:Drivers/MPU6050/inv_mpu_dmp_motion_driver.c ****     0x00, 0x0c, 0x00, 0x00, 0x00, 0x0c, 0x18, 0x6e, 0x00, 0x00, 0x06, 0x92, 0x0a, 0x16, 0xc0, 0xdf,
 261:Drivers/MPU6050/inv_mpu_dmp_motion_driver.c ****     0xff, 0xff, 0x02, 0x56, 0xfd, 0x8c, 0xd3, 0x77, 0xff, 0xe1, 0xc4, 0x96, 0xe0, 0xc5, 0xbe, 0xaa,
 262:Drivers/MPU6050/inv_mpu_dmp_motion_driver.c ****     0x00, 0x00, 0x00, 0x00, 0xff, 0xff, 0x0b, 0x2b, 0x00, 0x00, 0x16, 0x57, 0x00, 0x00, 0x03, 0x59,
 263:Drivers/MPU6050/inv_mpu_dmp_motion_driver.c ****     0x40, 0x00, 0x00, 0x00, 0x00, 0x00, 0x1d, 0xfa, 0x00, 0x02, 0x6c, 0x1d, 0x00, 0x00, 0x00, 0x00,
 264:Drivers/MPU6050/inv_mpu_dmp_motion_driver.c ****     0x3f, 0xff, 0xdf, 0xeb, 0x00, 0x3e, 0xb3, 0xb6, 0x00, 0x0d, 0x22, 0x78, 0x00, 0x00, 0x2f, 0x3c,
 265:Drivers/MPU6050/inv_mpu_dmp_motion_driver.c ****     0x00, 0x00, 0x00, 0x00, 0x00, 0x19, 0x42, 0xb5, 0x00, 0x00, 0x39, 0xa2, 0x00, 0x00, 0xb3, 0x65,
 266:Drivers/MPU6050/inv_mpu_dmp_motion_driver.c ****     0xd9, 0x0e, 0x9f, 0xc9, 0x1d, 0xcf, 0x4c, 0x34, 0x30, 0x00, 0x00, 0x00, 0x50, 0x00, 0x00, 0x00,
 267:Drivers/MPU6050/inv_mpu_dmp_motion_driver.c ****     0x3b, 0xb6, 0x7a, 0xe8, 0x00, 0x64, 0x00, 0x00, 0x00, 0xc8, 0x00, 0x00, 0x00, 0x00, 0x00, 0x00,
 268:Drivers/MPU6050/inv_mpu_dmp_motion_driver.c ****     /* bank # 1 */
 269:Drivers/MPU6050/inv_mpu_dmp_motion_driver.c ****     0x10, 0x00, 0x00, 0x00, 0x10, 0x00, 0xfa, 0x92, 0x10, 0x00, 0x22, 0x5e, 0x00, 0x0d, 0x22, 0x9f,
 270:Drivers/MPU6050/inv_mpu_dmp_motion_driver.c ****     0x00, 0x01, 0x00, 0x00, 0x00, 0x32, 0x00, 0x00, 0xff, 0x46, 0x00, 0x00, 0x63, 0xd4, 0x00, 0x00,
 271:Drivers/MPU6050/inv_mpu_dmp_motion_driver.c ****     0x10, 0x00, 0x00, 0x00, 0x04, 0xd6, 0x00, 0x00, 0x04, 0xcc, 0x00, 0x00, 0x04, 0xcc, 0x00, 0x00,
 272:Drivers/MPU6050/inv_mpu_dmp_motion_driver.c ****     0x00, 0x00, 0x10, 0x72, 0x00, 0x00, 0x00, 0x40, 0x00, 0x00, 0x00, 0x00, 0x00, 0x00, 0x00, 0x00,
 273:Drivers/MPU6050/inv_mpu_dmp_motion_driver.c ****     0x00, 0x06, 0x00, 0x02, 0x00, 0x05, 0x00, 0x07, 0x00, 0x00, 0x00, 0x00, 0x00, 0x64, 0x00, 0x00,
 274:Drivers/MPU6050/inv_mpu_dmp_motion_driver.c ****     0x00, 0x00, 0x00, 0x00, 0x00, 0x00, 0x00, 0x05, 0x00, 0x05, 0x00, 0x64, 0x00, 0x20, 0x00, 0x00,
 275:Drivers/MPU6050/inv_mpu_dmp_motion_driver.c ****     0x00, 0x00, 0x00, 0x00, 0x00, 0x00, 0x00, 0x00, 0x00, 0x00, 0x40, 0x00, 0x00, 0x00, 0x03, 0x00,
 276:Drivers/MPU6050/inv_mpu_dmp_motion_driver.c ****     0x00, 0x00, 0x00, 0x32, 0xf8, 0x98, 0x00, 0x00, 0xff, 0x65, 0x00, 0x00, 0x83, 0x0f, 0x00, 0x00,
 277:Drivers/MPU6050/inv_mpu_dmp_motion_driver.c ****     0xff, 0x9b, 0xfc, 0x00, 0x00, 0x00, 0x00, 0x00, 0x00, 0x00, 0x00, 0x00, 0x00, 0x00, 0x00, 0x00,
 278:Drivers/MPU6050/inv_mpu_dmp_motion_driver.c ****     0x00, 0x00, 0x00, 0x00, 0x00, 0x00, 0x00, 0x00, 0x00, 0x00, 0x00, 0x00, 0x00, 0x00, 0x00, 0x00,
 279:Drivers/MPU6050/inv_mpu_dmp_motion_driver.c ****     0x00, 0x00, 0x00, 0x00, 0x00, 0x00, 0x00, 0x00, 0x00, 0x00, 0x00, 0x00, 0x00, 0x00, 0x10, 0x00,
 280:Drivers/MPU6050/inv_mpu_dmp_motion_driver.c ****     0x40, 0x00, 0x00, 0x00, 0x00, 0x00, 0x00, 0x06, 0x00, 0x00, 0xb2, 0x6a, 0x00, 0x02, 0x00, 0x00,
 281:Drivers/MPU6050/inv_mpu_dmp_motion_driver.c ****     0x00, 0x01, 0xfb, 0x83, 0x00, 0x68, 0x00, 0x00, 0x00, 0xd9, 0xfc, 0x00, 0x7c, 0xf1, 0xff, 0x83,
 282:Drivers/MPU6050/inv_mpu_dmp_motion_driver.c ****     0x00, 0x00, 0x00, 0x00, 0x00, 0x65, 0x00, 0x00, 0x00, 0x64, 0x03, 0xe8, 0x00, 0x64, 0x00, 0x28,
 283:Drivers/MPU6050/inv_mpu_dmp_motion_driver.c ****     0x00, 0x00, 0x00, 0x25, 0x00, 0x00, 0x00, 0x00, 0x16, 0xa0, 0x00, 0x00, 0x00, 0x00, 0x10, 0x00,
 284:Drivers/MPU6050/inv_mpu_dmp_motion_driver.c ****     0x00, 0x00, 0x10, 0x00, 0x00, 0x2f, 0x00, 0x00, 0x00, 0x00, 0x01, 0xf4, 0x00, 0x00, 0x10, 0x00,
 285:Drivers/MPU6050/inv_mpu_dmp_motion_driver.c ****     /* bank # 2 */
 286:Drivers/MPU6050/inv_mpu_dmp_motion_driver.c ****     0x00, 0x28, 0x00, 0x00, 0xff, 0xff, 0x45, 0x81, 0xff, 0xff, 0xfa, 0x72, 0x00, 0x00, 0x00, 0x00,
 287:Drivers/MPU6050/inv_mpu_dmp_motion_driver.c ****     0x00, 0x00, 0x00, 0x00, 0x00, 0x44, 0x00, 0x05, 0x00, 0x05, 0xba, 0xc6, 0x00, 0x47, 0x78, 0xa2,
 288:Drivers/MPU6050/inv_mpu_dmp_motion_driver.c ****     0x00, 0x00, 0x00, 0x01, 0x00, 0x00, 0x00, 0x00, 0x00, 0x00, 0x06, 0x00, 0x00, 0x00, 0x00, 0x14,
 289:Drivers/MPU6050/inv_mpu_dmp_motion_driver.c ****     0x00, 0x00, 0x25, 0x4d, 0x00, 0x2f, 0x70, 0x6d, 0x00, 0x00, 0x05, 0xae, 0x00, 0x0c, 0x02, 0xd0,
 290:Drivers/MPU6050/inv_mpu_dmp_motion_driver.c ****     0x00, 0x00, 0x00, 0x00, 0x00, 0x00, 0x00, 0x00, 0x00, 0x00, 0x00, 0x00, 0x00, 0x00, 0x00, 0x00,
 291:Drivers/MPU6050/inv_mpu_dmp_motion_driver.c ****     0x00, 0x1b, 0x00, 0x00, 0x00, 0x00, 0x00, 0x00, 0x00, 0x00, 0x00, 0x00, 0x00, 0x00, 0x00, 0x00,
 292:Drivers/MPU6050/inv_mpu_dmp_motion_driver.c ****     0x00, 0x64, 0x00, 0x00, 0x00, 0x08, 0x00, 0x00, 0x00, 0x00, 0x00, 0x00, 0x00, 0x00, 0x00, 0x00,
 293:Drivers/MPU6050/inv_mpu_dmp_motion_driver.c ****     0x00, 0x00, 0x00, 0x00, 0x00, 0x00, 0x00, 0x00, 0x00, 0x00, 0x00, 0x00, 0x00, 0x00, 0x00, 0x00,
 294:Drivers/MPU6050/inv_mpu_dmp_motion_driver.c ****     0x00, 0x00, 0x00, 0x00, 0x00, 0x00, 0x00, 0x00, 0x00, 0x00, 0x00, 0x00, 0x00, 0x00, 0x00, 0x00,
 295:Drivers/MPU6050/inv_mpu_dmp_motion_driver.c ****     0x00, 0x00, 0x00, 0x00, 0x00, 0x00, 0x00, 0x00, 0x00, 0x00, 0x00, 0x00, 0x00, 0x00, 0x00, 0x00,
 296:Drivers/MPU6050/inv_mpu_dmp_motion_driver.c ****     0x00, 0x00, 0x00, 0x00, 0x00, 0x00, 0x00, 0x00, 0x00, 0x00, 0x00, 0x00, 0x00, 0x00, 0x00, 0x00,
 297:Drivers/MPU6050/inv_mpu_dmp_motion_driver.c ****     0x00, 0x00, 0x00, 0x00, 0x00, 0x00, 0x00, 0x00, 0x00, 0x00, 0x00, 0x00, 0x00, 0x00, 0x00, 0x00,
 298:Drivers/MPU6050/inv_mpu_dmp_motion_driver.c ****     0x00, 0x1b, 0x00, 0x00, 0x00, 0x00, 0x00, 0x00, 0x00, 0x00, 0x00, 0x00, 0x00, 0x0e, 0x00, 0x0e,
 299:Drivers/MPU6050/inv_mpu_dmp_motion_driver.c ****     0x00, 0x00, 0x0a, 0xc7, 0x00, 0x04, 0x00, 0x00, 0x00, 0x00, 0x00, 0x32, 0xff, 0xff, 0xff, 0x9c,
 300:Drivers/MPU6050/inv_mpu_dmp_motion_driver.c ****     0x00, 0x00, 0x0b, 0x2b, 0x00, 0x00, 0x00, 0x02, 0x00, 0x00, 0x00, 0x01, 0x00, 0x00, 0x00, 0x64,
 301:Drivers/MPU6050/inv_mpu_dmp_motion_driver.c ****     0xff, 0xe5, 0x00, 0x00, 0x00, 0x00, 0x00, 0x00, 0x00, 0x00, 0x00, 0x00, 0x00, 0x00, 0x00, 0x00,
 302:Drivers/MPU6050/inv_mpu_dmp_motion_driver.c ****     /* bank # 3 */
 303:Drivers/MPU6050/inv_mpu_dmp_motion_driver.c ****     0x00, 0x00, 0x00, 0x01, 0x00, 0x00, 0x00, 0x00, 0x00, 0x01, 0x00, 0x00, 0x00, 0x00, 0x00, 0x00,
 304:Drivers/MPU6050/inv_mpu_dmp_motion_driver.c ****     0x00, 0x01, 0x80, 0x00, 0x00, 0x01, 0x80, 0x00, 0x00, 0x01, 0x80, 0x00, 0x00, 0x24, 0x26, 0xd3,
 305:Drivers/MPU6050/inv_mpu_dmp_motion_driver.c ****     0x00, 0x00, 0x00, 0x00, 0x00, 0x00, 0x00, 0x00, 0x00, 0x06, 0x00, 0x10, 0x00, 0x96, 0x00, 0x3c,
 306:Drivers/MPU6050/inv_mpu_dmp_motion_driver.c ****     0x00, 0x00, 0x00, 0x00, 0x00, 0x00, 0x00, 0x00, 0x00, 0x00, 0x00, 0x00, 0x00, 0x00, 0x00, 0x00,
 307:Drivers/MPU6050/inv_mpu_dmp_motion_driver.c ****     0x0c, 0x0a, 0x4e, 0x68, 0xcd, 0xcf, 0x77, 0x09, 0x50, 0x16, 0x67, 0x59, 0xc6, 0x19, 0xce, 0x82,
 308:Drivers/MPU6050/inv_mpu_dmp_motion_driver.c ****     0x00, 0x00, 0x00, 0x00, 0x00, 0x00, 0x00, 0x00, 0x00, 0x00, 0x00, 0x00, 0x00, 0x00, 0x00, 0x00,
 309:Drivers/MPU6050/inv_mpu_dmp_motion_driver.c ****     0x00, 0x00, 0x00, 0x00, 0x00, 0x00, 0x00, 0x00, 0x17, 0xd7, 0x84, 0x00, 0x03, 0x00, 0x00, 0x00,
 310:Drivers/MPU6050/inv_mpu_dmp_motion_driver.c ****     0x00, 0x00, 0x00, 0x00, 0x00, 0x00, 0x00, 0x00, 0xc7, 0x93, 0x8f, 0x9d, 0x1e, 0x1b, 0x1c, 0x19,
 311:Drivers/MPU6050/inv_mpu_dmp_motion_driver.c ****     0x00, 0x00, 0x00, 0x00, 0x00, 0x00, 0x00, 0x00, 0x00, 0x00, 0x00, 0x00, 0x00, 0x00, 0x00, 0x00,
 312:Drivers/MPU6050/inv_mpu_dmp_motion_driver.c ****     0x00, 0x00, 0x00, 0x00, 0x00, 0x00, 0x00, 0x00, 0x02, 0x03, 0x18, 0x85, 0x00, 0x00, 0x40, 0x00,
 313:Drivers/MPU6050/inv_mpu_dmp_motion_driver.c ****     0x00, 0x00, 0x00, 0x03, 0x00, 0x00, 0x00, 0x03, 0x00, 0x00, 0x00, 0x00, 0x00, 0x00, 0x00, 0x00,
 314:Drivers/MPU6050/inv_mpu_dmp_motion_driver.c ****     0x40, 0x00, 0x00, 0x00, 0x00, 0x00, 0x00, 0x00, 0x00, 0x00, 0x00, 0x00, 0x00, 0x00, 0x00, 0x00,
 315:Drivers/MPU6050/inv_mpu_dmp_motion_driver.c ****     0x00, 0x00, 0x00, 0x00, 0x00, 0x00, 0x00, 0x00, 0x00, 0x00, 0x00, 0x00, 0x00, 0x00, 0x00, 0x00,
ARM GAS  F:\msys64\tmp\ccoK2euk.s 			page 7


 316:Drivers/MPU6050/inv_mpu_dmp_motion_driver.c ****     0x00, 0x00, 0x00, 0x00, 0x00, 0x00, 0x00, 0x00, 0x00, 0x00, 0x00, 0x00, 0x00, 0x00, 0x00, 0x00,
 317:Drivers/MPU6050/inv_mpu_dmp_motion_driver.c ****     0x00, 0x00, 0x00, 0x00, 0x67, 0x7d, 0xdf, 0x7e, 0x72, 0x90, 0x2e, 0x55, 0x4c, 0xf6, 0xe6, 0x88,
 318:Drivers/MPU6050/inv_mpu_dmp_motion_driver.c ****     0x00, 0x00, 0x00, 0x00, 0x00, 0x00, 0x00, 0x00, 0x00, 0x00, 0x00, 0x00, 0x00, 0x00, 0x00, 0x00,
 319:Drivers/MPU6050/inv_mpu_dmp_motion_driver.c **** 
 320:Drivers/MPU6050/inv_mpu_dmp_motion_driver.c ****     /* bank # 4 */
 321:Drivers/MPU6050/inv_mpu_dmp_motion_driver.c ****     0xd8, 0xdc, 0xb4, 0xb8, 0xb0, 0xd8, 0xb9, 0xab, 0xf3, 0xf8, 0xfa, 0xb3, 0xb7, 0xbb, 0x8e, 0x9e,
 322:Drivers/MPU6050/inv_mpu_dmp_motion_driver.c ****     0xae, 0xf1, 0x32, 0xf5, 0x1b, 0xf1, 0xb4, 0xb8, 0xb0, 0x80, 0x97, 0xf1, 0xa9, 0xdf, 0xdf, 0xdf,
 323:Drivers/MPU6050/inv_mpu_dmp_motion_driver.c ****     0xaa, 0xdf, 0xdf, 0xdf, 0xf2, 0xaa, 0xc5, 0xcd, 0xc7, 0xa9, 0x0c, 0xc9, 0x2c, 0x97, 0xf1, 0xa9,
 324:Drivers/MPU6050/inv_mpu_dmp_motion_driver.c ****     0x89, 0x26, 0x46, 0x66, 0xb2, 0x89, 0x99, 0xa9, 0x2d, 0x55, 0x7d, 0xb0, 0xb0, 0x8a, 0xa8, 0x96,
 325:Drivers/MPU6050/inv_mpu_dmp_motion_driver.c ****     0x36, 0x56, 0x76, 0xf1, 0xba, 0xa3, 0xb4, 0xb2, 0x80, 0xc0, 0xb8, 0xa8, 0x97, 0x11, 0xb2, 0x83,
 326:Drivers/MPU6050/inv_mpu_dmp_motion_driver.c ****     0x98, 0xba, 0xa3, 0xf0, 0x24, 0x08, 0x44, 0x10, 0x64, 0x18, 0xb2, 0xb9, 0xb4, 0x98, 0x83, 0xf1,
 327:Drivers/MPU6050/inv_mpu_dmp_motion_driver.c ****     0xa3, 0x29, 0x55, 0x7d, 0xba, 0xb5, 0xb1, 0xa3, 0x83, 0x93, 0xf0, 0x00, 0x28, 0x50, 0xf5, 0xb2,
 328:Drivers/MPU6050/inv_mpu_dmp_motion_driver.c ****     0xb6, 0xaa, 0x83, 0x93, 0x28, 0x54, 0x7c, 0xf1, 0xb9, 0xa3, 0x82, 0x93, 0x61, 0xba, 0xa2, 0xda,
 329:Drivers/MPU6050/inv_mpu_dmp_motion_driver.c ****     0xde, 0xdf, 0xdb, 0x81, 0x9a, 0xb9, 0xae, 0xf5, 0x60, 0x68, 0x70, 0xf1, 0xda, 0xba, 0xa2, 0xdf,
 330:Drivers/MPU6050/inv_mpu_dmp_motion_driver.c ****     0xd9, 0xba, 0xa2, 0xfa, 0xb9, 0xa3, 0x82, 0x92, 0xdb, 0x31, 0xba, 0xa2, 0xd9, 0xba, 0xa2, 0xf8,
 331:Drivers/MPU6050/inv_mpu_dmp_motion_driver.c ****     0xdf, 0x85, 0xa4, 0xd0, 0xc1, 0xbb, 0xad, 0x83, 0xc2, 0xc5, 0xc7, 0xb8, 0xa2, 0xdf, 0xdf, 0xdf,
 332:Drivers/MPU6050/inv_mpu_dmp_motion_driver.c ****     0xba, 0xa0, 0xdf, 0xdf, 0xdf, 0xd8, 0xd8, 0xf1, 0xb8, 0xaa, 0xb3, 0x8d, 0xb4, 0x98, 0x0d, 0x35,
 333:Drivers/MPU6050/inv_mpu_dmp_motion_driver.c ****     0x5d, 0xb2, 0xb6, 0xba, 0xaf, 0x8c, 0x96, 0x19, 0x8f, 0x9f, 0xa7, 0x0e, 0x16, 0x1e, 0xb4, 0x9a,
 334:Drivers/MPU6050/inv_mpu_dmp_motion_driver.c ****     0xb8, 0xaa, 0x87, 0x2c, 0x54, 0x7c, 0xba, 0xa4, 0xb0, 0x8a, 0xb6, 0x91, 0x32, 0x56, 0x76, 0xb2,
 335:Drivers/MPU6050/inv_mpu_dmp_motion_driver.c ****     0x84, 0x94, 0xa4, 0xc8, 0x08, 0xcd, 0xd8, 0xb8, 0xb4, 0xb0, 0xf1, 0x99, 0x82, 0xa8, 0x2d, 0x55,
 336:Drivers/MPU6050/inv_mpu_dmp_motion_driver.c ****     0x7d, 0x98, 0xa8, 0x0e, 0x16, 0x1e, 0xa2, 0x2c, 0x54, 0x7c, 0x92, 0xa4, 0xf0, 0x2c, 0x50, 0x78,
 337:Drivers/MPU6050/inv_mpu_dmp_motion_driver.c ****     /* bank # 5 */
 338:Drivers/MPU6050/inv_mpu_dmp_motion_driver.c ****     0xf1, 0x84, 0xa8, 0x98, 0xc4, 0xcd, 0xfc, 0xd8, 0x0d, 0xdb, 0xa8, 0xfc, 0x2d, 0xf3, 0xd9, 0xba,
 339:Drivers/MPU6050/inv_mpu_dmp_motion_driver.c ****     0xa6, 0xf8, 0xda, 0xba, 0xa6, 0xde, 0xd8, 0xba, 0xb2, 0xb6, 0x86, 0x96, 0xa6, 0xd0, 0xf3, 0xc8,
 340:Drivers/MPU6050/inv_mpu_dmp_motion_driver.c ****     0x41, 0xda, 0xa6, 0xc8, 0xf8, 0xd8, 0xb0, 0xb4, 0xb8, 0x82, 0xa8, 0x92, 0xf5, 0x2c, 0x54, 0x88,
 341:Drivers/MPU6050/inv_mpu_dmp_motion_driver.c ****     0x98, 0xf1, 0x35, 0xd9, 0xf4, 0x18, 0xd8, 0xf1, 0xa2, 0xd0, 0xf8, 0xf9, 0xa8, 0x84, 0xd9, 0xc7,
 342:Drivers/MPU6050/inv_mpu_dmp_motion_driver.c ****     0xdf, 0xf8, 0xf8, 0x83, 0xc5, 0xda, 0xdf, 0x69, 0xdf, 0x83, 0xc1, 0xd8, 0xf4, 0x01, 0x14, 0xf1,
 343:Drivers/MPU6050/inv_mpu_dmp_motion_driver.c ****     0xa8, 0x82, 0x4e, 0xa8, 0x84, 0xf3, 0x11, 0xd1, 0x82, 0xf5, 0xd9, 0x92, 0x28, 0x97, 0x88, 0xf1,
 344:Drivers/MPU6050/inv_mpu_dmp_motion_driver.c ****     0x09, 0xf4, 0x1c, 0x1c, 0xd8, 0x84, 0xa8, 0xf3, 0xc0, 0xf9, 0xd1, 0xd9, 0x97, 0x82, 0xf1, 0x29,
 345:Drivers/MPU6050/inv_mpu_dmp_motion_driver.c ****     0xf4, 0x0d, 0xd8, 0xf3, 0xf9, 0xf9, 0xd1, 0xd9, 0x82, 0xf4, 0xc2, 0x03, 0xd8, 0xde, 0xdf, 0x1a,
 346:Drivers/MPU6050/inv_mpu_dmp_motion_driver.c ****     0xd8, 0xf1, 0xa2, 0xfa, 0xf9, 0xa8, 0x84, 0x98, 0xd9, 0xc7, 0xdf, 0xf8, 0xf8, 0xf8, 0x83, 0xc7,
 347:Drivers/MPU6050/inv_mpu_dmp_motion_driver.c ****     0xda, 0xdf, 0x69, 0xdf, 0xf8, 0x83, 0xc3, 0xd8, 0xf4, 0x01, 0x14, 0xf1, 0x98, 0xa8, 0x82, 0x2e,
 348:Drivers/MPU6050/inv_mpu_dmp_motion_driver.c ****     0xa8, 0x84, 0xf3, 0x11, 0xd1, 0x82, 0xf5, 0xd9, 0x92, 0x50, 0x97, 0x88, 0xf1, 0x09, 0xf4, 0x1c,
 349:Drivers/MPU6050/inv_mpu_dmp_motion_driver.c ****     0xd8, 0x84, 0xa8, 0xf3, 0xc0, 0xf8, 0xf9, 0xd1, 0xd9, 0x97, 0x82, 0xf1, 0x49, 0xf4, 0x0d, 0xd8,
 350:Drivers/MPU6050/inv_mpu_dmp_motion_driver.c ****     0xf3, 0xf9, 0xf9, 0xd1, 0xd9, 0x82, 0xf4, 0xc4, 0x03, 0xd8, 0xde, 0xdf, 0xd8, 0xf1, 0xad, 0x88,
 351:Drivers/MPU6050/inv_mpu_dmp_motion_driver.c ****     0x98, 0xcc, 0xa8, 0x09, 0xf9, 0xd9, 0x82, 0x92, 0xa8, 0xf5, 0x7c, 0xf1, 0x88, 0x3a, 0xcf, 0x94,
 352:Drivers/MPU6050/inv_mpu_dmp_motion_driver.c ****     0x4a, 0x6e, 0x98, 0xdb, 0x69, 0x31, 0xda, 0xad, 0xf2, 0xde, 0xf9, 0xd8, 0x87, 0x95, 0xa8, 0xf2,
 353:Drivers/MPU6050/inv_mpu_dmp_motion_driver.c ****     0x21, 0xd1, 0xda, 0xa5, 0xf9, 0xf4, 0x17, 0xd9, 0xf1, 0xae, 0x8e, 0xd0, 0xc0, 0xc3, 0xae, 0x82,
 354:Drivers/MPU6050/inv_mpu_dmp_motion_driver.c ****     /* bank # 6 */
 355:Drivers/MPU6050/inv_mpu_dmp_motion_driver.c ****     0xc6, 0x84, 0xc3, 0xa8, 0x85, 0x95, 0xc8, 0xa5, 0x88, 0xf2, 0xc0, 0xf1, 0xf4, 0x01, 0x0e, 0xf1,
 356:Drivers/MPU6050/inv_mpu_dmp_motion_driver.c ****     0x8e, 0x9e, 0xa8, 0xc6, 0x3e, 0x56, 0xf5, 0x54, 0xf1, 0x88, 0x72, 0xf4, 0x01, 0x15, 0xf1, 0x98,
 357:Drivers/MPU6050/inv_mpu_dmp_motion_driver.c ****     0x45, 0x85, 0x6e, 0xf5, 0x8e, 0x9e, 0x04, 0x88, 0xf1, 0x42, 0x98, 0x5a, 0x8e, 0x9e, 0x06, 0x88,
 358:Drivers/MPU6050/inv_mpu_dmp_motion_driver.c ****     0x69, 0xf4, 0x01, 0x1c, 0xf1, 0x98, 0x1e, 0x11, 0x08, 0xd0, 0xf5, 0x04, 0xf1, 0x1e, 0x97, 0x02,
 359:Drivers/MPU6050/inv_mpu_dmp_motion_driver.c ****     0x02, 0x98, 0x36, 0x25, 0xdb, 0xf9, 0xd9, 0x85, 0xa5, 0xf3, 0xc1, 0xda, 0x85, 0xa5, 0xf3, 0xdf,
 360:Drivers/MPU6050/inv_mpu_dmp_motion_driver.c ****     0xd8, 0x85, 0x95, 0xa8, 0xf3, 0x09, 0xda, 0xa5, 0xfa, 0xd8, 0x82, 0x92, 0xa8, 0xf5, 0x78, 0xf1,
 361:Drivers/MPU6050/inv_mpu_dmp_motion_driver.c ****     0x88, 0x1a, 0x84, 0x9f, 0x26, 0x88, 0x98, 0x21, 0xda, 0xf4, 0x1d, 0xf3, 0xd8, 0x87, 0x9f, 0x39,
 362:Drivers/MPU6050/inv_mpu_dmp_motion_driver.c ****     0xd1, 0xaf, 0xd9, 0xdf, 0xdf, 0xfb, 0xf9, 0xf4, 0x0c, 0xf3, 0xd8, 0xfa, 0xd0, 0xf8, 0xda, 0xf9,
 363:Drivers/MPU6050/inv_mpu_dmp_motion_driver.c ****     0xf9, 0xd0, 0xdf, 0xd9, 0xf9, 0xd8, 0xf4, 0x0b, 0xd8, 0xf3, 0x87, 0x9f, 0x39, 0xd1, 0xaf, 0xd9,
 364:Drivers/MPU6050/inv_mpu_dmp_motion_driver.c ****     0xdf, 0xdf, 0xf4, 0x1d, 0xf3, 0xd8, 0xfa, 0xfc, 0xa8, 0x69, 0xf9, 0xf9, 0xaf, 0xd0, 0xda, 0xde,
 365:Drivers/MPU6050/inv_mpu_dmp_motion_driver.c ****     0xfa, 0xd9, 0xf8, 0x8f, 0x9f, 0xa8, 0xf1, 0xcc, 0xf3, 0x98, 0xdb, 0x45, 0xd9, 0xaf, 0xdf, 0xd0,
 366:Drivers/MPU6050/inv_mpu_dmp_motion_driver.c ****     0xf8, 0xd8, 0xf1, 0x8f, 0x9f, 0xa8, 0xca, 0xf3, 0x88, 0x09, 0xda, 0xaf, 0x8f, 0xcb, 0xf8, 0xd8,
 367:Drivers/MPU6050/inv_mpu_dmp_motion_driver.c ****     0xf2, 0xad, 0x97, 0x8d, 0x0c, 0xd9, 0xa5, 0xdf, 0xf9, 0xba, 0xa6, 0xf3, 0xfa, 0xf4, 0x12, 0xf2,
 368:Drivers/MPU6050/inv_mpu_dmp_motion_driver.c ****     0xd8, 0x95, 0x0d, 0xd1, 0xd9, 0xba, 0xa6, 0xf3, 0xfa, 0xda, 0xa5, 0xf2, 0xc1, 0xba, 0xa6, 0xf3,
 369:Drivers/MPU6050/inv_mpu_dmp_motion_driver.c ****     0xdf, 0xd8, 0xf1, 0xba, 0xb2, 0xb6, 0x86, 0x96, 0xa6, 0xd0, 0xca, 0xf3, 0x49, 0xda, 0xa6, 0xcb,
 370:Drivers/MPU6050/inv_mpu_dmp_motion_driver.c ****     0xf8, 0xd8, 0xb0, 0xb4, 0xb8, 0xd8, 0xad, 0x84, 0xf2, 0xc0, 0xdf, 0xf1, 0x8f, 0xcb, 0xc3, 0xa8,
 371:Drivers/MPU6050/inv_mpu_dmp_motion_driver.c ****     /* bank # 7 */
 372:Drivers/MPU6050/inv_mpu_dmp_motion_driver.c ****     0xb2, 0xb6, 0x86, 0x96, 0xc8, 0xc1, 0xcb, 0xc3, 0xf3, 0xb0, 0xb4, 0x88, 0x98, 0xa8, 0x21, 0xdb,
ARM GAS  F:\msys64\tmp\ccoK2euk.s 			page 8


 373:Drivers/MPU6050/inv_mpu_dmp_motion_driver.c ****     0x71, 0x8d, 0x9d, 0x71, 0x85, 0x95, 0x21, 0xd9, 0xad, 0xf2, 0xfa, 0xd8, 0x85, 0x97, 0xa8, 0x28,
 374:Drivers/MPU6050/inv_mpu_dmp_motion_driver.c ****     0xd9, 0xf4, 0x08, 0xd8, 0xf2, 0x8d, 0x29, 0xda, 0xf4, 0x05, 0xd9, 0xf2, 0x85, 0xa4, 0xc2, 0xf2,
 375:Drivers/MPU6050/inv_mpu_dmp_motion_driver.c ****     0xd8, 0xa8, 0x8d, 0x94, 0x01, 0xd1, 0xd9, 0xf4, 0x11, 0xf2, 0xd8, 0x87, 0x21, 0xd8, 0xf4, 0x0a,
 376:Drivers/MPU6050/inv_mpu_dmp_motion_driver.c ****     0xd8, 0xf2, 0x84, 0x98, 0xa8, 0xc8, 0x01, 0xd1, 0xd9, 0xf4, 0x11, 0xd8, 0xf3, 0xa4, 0xc8, 0xbb,
 377:Drivers/MPU6050/inv_mpu_dmp_motion_driver.c ****     0xaf, 0xd0, 0xf2, 0xde, 0xf8, 0xf8, 0xf8, 0xf8, 0xf8, 0xf8, 0xf8, 0xf8, 0xd8, 0xf1, 0xb8, 0xf6,
 378:Drivers/MPU6050/inv_mpu_dmp_motion_driver.c ****     0xb5, 0xb9, 0xb0, 0x8a, 0x95, 0xa3, 0xde, 0x3c, 0xa3, 0xd9, 0xf8, 0xd8, 0x5c, 0xa3, 0xd9, 0xf8,
 379:Drivers/MPU6050/inv_mpu_dmp_motion_driver.c ****     0xd8, 0x7c, 0xa3, 0xd9, 0xf8, 0xd8, 0xf8, 0xf9, 0xd1, 0xa5, 0xd9, 0xdf, 0xda, 0xfa, 0xd8, 0xb1,
 380:Drivers/MPU6050/inv_mpu_dmp_motion_driver.c ****     0x85, 0x30, 0xf7, 0xd9, 0xde, 0xd8, 0xf8, 0x30, 0xad, 0xda, 0xde, 0xd8, 0xf2, 0xb4, 0x8c, 0x99,
 381:Drivers/MPU6050/inv_mpu_dmp_motion_driver.c ****     0xa3, 0x2d, 0x55, 0x7d, 0xa0, 0x83, 0xdf, 0xdf, 0xdf, 0xb5, 0x91, 0xa0, 0xf6, 0x29, 0xd9, 0xfb,
 382:Drivers/MPU6050/inv_mpu_dmp_motion_driver.c ****     0xd8, 0xa0, 0xfc, 0x29, 0xd9, 0xfa, 0xd8, 0xa0, 0xd0, 0x51, 0xd9, 0xf8, 0xd8, 0xfc, 0x51, 0xd9,
 383:Drivers/MPU6050/inv_mpu_dmp_motion_driver.c ****     0xf9, 0xd8, 0x79, 0xd9, 0xfb, 0xd8, 0xa0, 0xd0, 0xfc, 0x79, 0xd9, 0xfa, 0xd8, 0xa1, 0xf9, 0xf9,
 384:Drivers/MPU6050/inv_mpu_dmp_motion_driver.c ****     0xf9, 0xf9, 0xf9, 0xa0, 0xda, 0xdf, 0xdf, 0xdf, 0xd8, 0xa1, 0xf8, 0xf8, 0xf8, 0xf8, 0xf8, 0xac,
 385:Drivers/MPU6050/inv_mpu_dmp_motion_driver.c ****     0xde, 0xf8, 0xad, 0xde, 0x83, 0x93, 0xac, 0x2c, 0x54, 0x7c, 0xf1, 0xa8, 0xdf, 0xdf, 0xdf, 0xf6,
 386:Drivers/MPU6050/inv_mpu_dmp_motion_driver.c ****     0x9d, 0x2c, 0xda, 0xa0, 0xdf, 0xd9, 0xfa, 0xdb, 0x2d, 0xf8, 0xd8, 0xa8, 0x50, 0xda, 0xa0, 0xd0,
 387:Drivers/MPU6050/inv_mpu_dmp_motion_driver.c ****     0xde, 0xd9, 0xd0, 0xf8, 0xf8, 0xf8, 0xdb, 0x55, 0xf8, 0xd8, 0xa8, 0x78, 0xda, 0xa0, 0xd0, 0xdf,
 388:Drivers/MPU6050/inv_mpu_dmp_motion_driver.c ****     /* bank # 8 */
 389:Drivers/MPU6050/inv_mpu_dmp_motion_driver.c ****     0xd9, 0xd0, 0xfa, 0xf8, 0xf8, 0xf8, 0xf8, 0xdb, 0x7d, 0xf8, 0xd8, 0x9c, 0xa8, 0x8c, 0xf5, 0x30,
 390:Drivers/MPU6050/inv_mpu_dmp_motion_driver.c ****     0xdb, 0x38, 0xd9, 0xd0, 0xde, 0xdf, 0xa0, 0xd0, 0xde, 0xdf, 0xd8, 0xa8, 0x48, 0xdb, 0x58, 0xd9,
 391:Drivers/MPU6050/inv_mpu_dmp_motion_driver.c ****     0xdf, 0xd0, 0xde, 0xa0, 0xdf, 0xd0, 0xde, 0xd8, 0xa8, 0x68, 0xdb, 0x70, 0xd9, 0xdf, 0xdf, 0xa0,
 392:Drivers/MPU6050/inv_mpu_dmp_motion_driver.c ****     0xdf, 0xdf, 0xd8, 0xf1, 0xa8, 0x88, 0x90, 0x2c, 0x54, 0x7c, 0x98, 0xa8, 0xd0, 0x5c, 0x38, 0xd1,
 393:Drivers/MPU6050/inv_mpu_dmp_motion_driver.c ****     0xda, 0xf2, 0xae, 0x8c, 0xdf, 0xf9, 0xd8, 0xb0, 0x87, 0xa8, 0xc1, 0xc1, 0xb1, 0x88, 0xa8, 0xc6,
 394:Drivers/MPU6050/inv_mpu_dmp_motion_driver.c ****     0xf9, 0xf9, 0xda, 0x36, 0xd8, 0xa8, 0xf9, 0xda, 0x36, 0xd8, 0xa8, 0xf9, 0xda, 0x36, 0xd8, 0xa8,
 395:Drivers/MPU6050/inv_mpu_dmp_motion_driver.c ****     0xf9, 0xda, 0x36, 0xd8, 0xa8, 0xf9, 0xda, 0x36, 0xd8, 0xf7, 0x8d, 0x9d, 0xad, 0xf8, 0x18, 0xda,
 396:Drivers/MPU6050/inv_mpu_dmp_motion_driver.c ****     0xf2, 0xae, 0xdf, 0xd8, 0xf7, 0xad, 0xfa, 0x30, 0xd9, 0xa4, 0xde, 0xf9, 0xd8, 0xf2, 0xae, 0xde,
 397:Drivers/MPU6050/inv_mpu_dmp_motion_driver.c ****     0xfa, 0xf9, 0x83, 0xa7, 0xd9, 0xc3, 0xc5, 0xc7, 0xf1, 0x88, 0x9b, 0xa7, 0x7a, 0xad, 0xf7, 0xde,
 398:Drivers/MPU6050/inv_mpu_dmp_motion_driver.c ****     0xdf, 0xa4, 0xf8, 0x84, 0x94, 0x08, 0xa7, 0x97, 0xf3, 0x00, 0xae, 0xf2, 0x98, 0x19, 0xa4, 0x88,
 399:Drivers/MPU6050/inv_mpu_dmp_motion_driver.c ****     0xc6, 0xa3, 0x94, 0x88, 0xf6, 0x32, 0xdf, 0xf2, 0x83, 0x93, 0xdb, 0x09, 0xd9, 0xf2, 0xaa, 0xdf,
 400:Drivers/MPU6050/inv_mpu_dmp_motion_driver.c ****     0xd8, 0xd8, 0xae, 0xf8, 0xf9, 0xd1, 0xda, 0xf3, 0xa4, 0xde, 0xa7, 0xf1, 0x88, 0x9b, 0x7a, 0xd8,
 401:Drivers/MPU6050/inv_mpu_dmp_motion_driver.c ****     0xf3, 0x84, 0x94, 0xae, 0x19, 0xf9, 0xda, 0xaa, 0xf1, 0xdf, 0xd8, 0xa8, 0x81, 0xc0, 0xc3, 0xc5,
 402:Drivers/MPU6050/inv_mpu_dmp_motion_driver.c ****     0xc7, 0xa3, 0x92, 0x83, 0xf6, 0x28, 0xad, 0xde, 0xd9, 0xf8, 0xd8, 0xa3, 0x50, 0xad, 0xd9, 0xf8,
 403:Drivers/MPU6050/inv_mpu_dmp_motion_driver.c ****     0xd8, 0xa3, 0x78, 0xad, 0xd9, 0xf8, 0xd8, 0xf8, 0xf9, 0xd1, 0xa1, 0xda, 0xde, 0xc3, 0xc5, 0xc7,
 404:Drivers/MPU6050/inv_mpu_dmp_motion_driver.c ****     0xd8, 0xa1, 0x81, 0x94, 0xf8, 0x18, 0xf2, 0xb0, 0x89, 0xac, 0xc3, 0xc5, 0xc7, 0xf1, 0xd8, 0xb8,
 405:Drivers/MPU6050/inv_mpu_dmp_motion_driver.c ****     /* bank # 9 */
 406:Drivers/MPU6050/inv_mpu_dmp_motion_driver.c ****     0xb4, 0xb0, 0x97, 0x86, 0xa8, 0x31, 0x9b, 0x06, 0x99, 0x07, 0xab, 0x97, 0x28, 0x88, 0x9b, 0xf0,
 407:Drivers/MPU6050/inv_mpu_dmp_motion_driver.c ****     0x0c, 0x20, 0x14, 0x40, 0xb0, 0xb4, 0xb8, 0xf0, 0xa8, 0x8a, 0x9a, 0x28, 0x50, 0x78, 0xb7, 0x9b,
 408:Drivers/MPU6050/inv_mpu_dmp_motion_driver.c ****     0xa8, 0x29, 0x51, 0x79, 0x24, 0x70, 0x59, 0x44, 0x69, 0x38, 0x64, 0x48, 0x31, 0xf1, 0xbb, 0xab,
 409:Drivers/MPU6050/inv_mpu_dmp_motion_driver.c ****     0x88, 0x00, 0x2c, 0x54, 0x7c, 0xf0, 0xb3, 0x8b, 0xb8, 0xa8, 0x04, 0x28, 0x50, 0x78, 0xf1, 0xb0,
 410:Drivers/MPU6050/inv_mpu_dmp_motion_driver.c ****     0x88, 0xb4, 0x97, 0x26, 0xa8, 0x59, 0x98, 0xbb, 0xab, 0xb3, 0x8b, 0x02, 0x26, 0x46, 0x66, 0xb0,
 411:Drivers/MPU6050/inv_mpu_dmp_motion_driver.c ****     0xb8, 0xf0, 0x8a, 0x9c, 0xa8, 0x29, 0x51, 0x79, 0x8b, 0x29, 0x51, 0x79, 0x8a, 0x24, 0x70, 0x59,
 412:Drivers/MPU6050/inv_mpu_dmp_motion_driver.c ****     0x8b, 0x20, 0x58, 0x71, 0x8a, 0x44, 0x69, 0x38, 0x8b, 0x39, 0x40, 0x68, 0x8a, 0x64, 0x48, 0x31,
 413:Drivers/MPU6050/inv_mpu_dmp_motion_driver.c ****     0x8b, 0x30, 0x49, 0x60, 0x88, 0xf1, 0xac, 0x00, 0x2c, 0x54, 0x7c, 0xf0, 0x8c, 0xa8, 0x04, 0x28,
 414:Drivers/MPU6050/inv_mpu_dmp_motion_driver.c ****     0x50, 0x78, 0xf1, 0x88, 0x97, 0x26, 0xa8, 0x59, 0x98, 0xac, 0x8c, 0x02, 0x26, 0x46, 0x66, 0xf0,
 415:Drivers/MPU6050/inv_mpu_dmp_motion_driver.c ****     0x89, 0x9c, 0xa8, 0x29, 0x51, 0x79, 0x24, 0x70, 0x59, 0x44, 0x69, 0x38, 0x64, 0x48, 0x31, 0xa9,
 416:Drivers/MPU6050/inv_mpu_dmp_motion_driver.c ****     0x88, 0x09, 0x20, 0x59, 0x70, 0xab, 0x11, 0x38, 0x40, 0x69, 0xa8, 0x19, 0x31, 0x48, 0x60, 0x8c,
 417:Drivers/MPU6050/inv_mpu_dmp_motion_driver.c ****     0xa8, 0x3c, 0x41, 0x5c, 0x20, 0x7c, 0x00, 0xf1, 0x87, 0x98, 0x19, 0x86, 0xa8, 0x6e, 0x76, 0x7e,
 418:Drivers/MPU6050/inv_mpu_dmp_motion_driver.c ****     0xa9, 0x99, 0x88, 0x2d, 0x55, 0x7d, 0xd8, 0xb1, 0xb5, 0xb9, 0xa3, 0xdf, 0xdf, 0xdf, 0xae, 0xd0,
 419:Drivers/MPU6050/inv_mpu_dmp_motion_driver.c ****     0xdf, 0xaa, 0xd0, 0xde, 0xf2, 0xab, 0xf8, 0xf9, 0xd9, 0xb0, 0x87, 0xc4, 0xaa, 0xf1, 0xdf, 0xdf,
 420:Drivers/MPU6050/inv_mpu_dmp_motion_driver.c ****     0xbb, 0xaf, 0xdf, 0xdf, 0xb9, 0xd8, 0xb1, 0xf1, 0xa3, 0x97, 0x8e, 0x60, 0xdf, 0xb0, 0x84, 0xf2,
 421:Drivers/MPU6050/inv_mpu_dmp_motion_driver.c ****     0xc8, 0xf8, 0xf9, 0xd9, 0xde, 0xd8, 0x93, 0x85, 0xf1, 0x4a, 0xb1, 0x83, 0xa3, 0x08, 0xb5, 0x83,
 422:Drivers/MPU6050/inv_mpu_dmp_motion_driver.c ****     /* bank # 10 */
 423:Drivers/MPU6050/inv_mpu_dmp_motion_driver.c ****     0x9a, 0x08, 0x10, 0xb7, 0x9f, 0x10, 0xd8, 0xf1, 0xb0, 0xba, 0xae, 0xb0, 0x8a, 0xc2, 0xb2, 0xb6,
 424:Drivers/MPU6050/inv_mpu_dmp_motion_driver.c ****     0x8e, 0x9e, 0xf1, 0xfb, 0xd9, 0xf4, 0x1d, 0xd8, 0xf9, 0xd9, 0x0c, 0xf1, 0xd8, 0xf8, 0xf8, 0xad,
 425:Drivers/MPU6050/inv_mpu_dmp_motion_driver.c ****     0x61, 0xd9, 0xae, 0xfb, 0xd8, 0xf4, 0x0c, 0xf1, 0xd8, 0xf8, 0xf8, 0xad, 0x19, 0xd9, 0xae, 0xfb,
 426:Drivers/MPU6050/inv_mpu_dmp_motion_driver.c ****     0xdf, 0xd8, 0xf4, 0x16, 0xf1, 0xd8, 0xf8, 0xad, 0x8d, 0x61, 0xd9, 0xf4, 0xf4, 0xac, 0xf5, 0x9c,
 427:Drivers/MPU6050/inv_mpu_dmp_motion_driver.c ****     0x9c, 0x8d, 0xdf, 0x2b, 0xba, 0xb6, 0xae, 0xfa, 0xf8, 0xf4, 0x0b, 0xd8, 0xf1, 0xae, 0xd0, 0xf8,
 428:Drivers/MPU6050/inv_mpu_dmp_motion_driver.c ****     0xad, 0x51, 0xda, 0xae, 0xfa, 0xf8, 0xf1, 0xd8, 0xb9, 0xb1, 0xb6, 0xa3, 0x83, 0x9c, 0x08, 0xb9,
 429:Drivers/MPU6050/inv_mpu_dmp_motion_driver.c ****     0xb1, 0x83, 0x9a, 0xb5, 0xaa, 0xc0, 0xfd, 0x30, 0x83, 0xb7, 0x9f, 0x10, 0xb5, 0x8b, 0x93, 0xf2,
ARM GAS  F:\msys64\tmp\ccoK2euk.s 			page 9


 430:Drivers/MPU6050/inv_mpu_dmp_motion_driver.c ****     0x02, 0x02, 0xd1, 0xab, 0xda, 0xde, 0xd8, 0xf1, 0xb0, 0x80, 0xba, 0xab, 0xc0, 0xc3, 0xb2, 0x84,
 431:Drivers/MPU6050/inv_mpu_dmp_motion_driver.c ****     0xc1, 0xc3, 0xd8, 0xb1, 0xb9, 0xf3, 0x8b, 0xa3, 0x91, 0xb6, 0x09, 0xb4, 0xd9, 0xab, 0xde, 0xb0,
 432:Drivers/MPU6050/inv_mpu_dmp_motion_driver.c ****     0x87, 0x9c, 0xb9, 0xa3, 0xdd, 0xf1, 0xb3, 0x8b, 0x8b, 0x8b, 0x8b, 0x8b, 0xb0, 0x87, 0xa3, 0xa3,
 433:Drivers/MPU6050/inv_mpu_dmp_motion_driver.c ****     0xa3, 0xa3, 0xb2, 0x8b, 0xb6, 0x9b, 0xf2, 0xa3, 0xa3, 0xa3, 0xa3, 0xa3, 0xa3, 0xa3, 0xa3, 0xa3,
 434:Drivers/MPU6050/inv_mpu_dmp_motion_driver.c ****     0xa3, 0xf1, 0xb0, 0x87, 0xb5, 0x9a, 0xa3, 0xf3, 0x9b, 0xa3, 0xa3, 0xdc, 0xba, 0xac, 0xdf, 0xb9,
 435:Drivers/MPU6050/inv_mpu_dmp_motion_driver.c ****     0xa3, 0xa3, 0xa3, 0xa3, 0xa3, 0xa3, 0xa3, 0xa3, 0xa3, 0xa3, 0xa3, 0xa3, 0xa3, 0xa3, 0xa3, 0xa3,
 436:Drivers/MPU6050/inv_mpu_dmp_motion_driver.c ****     0xd8, 0xd8, 0xd8, 0xbb, 0xb3, 0xb7, 0xf1, 0xaa, 0xf9, 0xda, 0xff, 0xd9, 0x80, 0x9a, 0xaa, 0x28,
 437:Drivers/MPU6050/inv_mpu_dmp_motion_driver.c ****     0xb4, 0x80, 0x98, 0xa7, 0x20, 0xb7, 0x97, 0x87, 0xa8, 0x66, 0x88, 0xf0, 0x79, 0x51, 0xf1, 0x90,
 438:Drivers/MPU6050/inv_mpu_dmp_motion_driver.c ****     0x2c, 0x87, 0x0c, 0xa7, 0x81, 0x97, 0x62, 0x93, 0xf0, 0x71, 0x71, 0x60, 0x85, 0x94, 0x01, 0x29,
 439:Drivers/MPU6050/inv_mpu_dmp_motion_driver.c ****     /* bank # 11 */
 440:Drivers/MPU6050/inv_mpu_dmp_motion_driver.c ****     0x51, 0x79, 0x90, 0xa5, 0xf1, 0x28, 0x4c, 0x6c, 0x87, 0x0c, 0x95, 0x18, 0x85, 0x78, 0xa3, 0x83,
 441:Drivers/MPU6050/inv_mpu_dmp_motion_driver.c ****     0x90, 0x28, 0x4c, 0x6c, 0x88, 0x6c, 0xd8, 0xf3, 0xa2, 0x82, 0x00, 0xf2, 0x10, 0xa8, 0x92, 0x19,
 442:Drivers/MPU6050/inv_mpu_dmp_motion_driver.c ****     0x80, 0xa2, 0xf2, 0xd9, 0x26, 0xd8, 0xf1, 0x88, 0xa8, 0x4d, 0xd9, 0x48, 0xd8, 0x96, 0xa8, 0x39,
 443:Drivers/MPU6050/inv_mpu_dmp_motion_driver.c ****     0x80, 0xd9, 0x3c, 0xd8, 0x95, 0x80, 0xa8, 0x39, 0xa6, 0x86, 0x98, 0xd9, 0x2c, 0xda, 0x87, 0xa7,
 444:Drivers/MPU6050/inv_mpu_dmp_motion_driver.c ****     0x2c, 0xd8, 0xa8, 0x89, 0x95, 0x19, 0xa9, 0x80, 0xd9, 0x38, 0xd8, 0xa8, 0x89, 0x39, 0xa9, 0x80,
 445:Drivers/MPU6050/inv_mpu_dmp_motion_driver.c ****     0xda, 0x3c, 0xd8, 0xa8, 0x2e, 0xa8, 0x39, 0x90, 0xd9, 0x0c, 0xd8, 0xa8, 0x95, 0x31, 0x98, 0xd9,
 446:Drivers/MPU6050/inv_mpu_dmp_motion_driver.c ****     0x0c, 0xd8, 0xa8, 0x09, 0xd9, 0xff, 0xd8, 0x01, 0xda, 0xff, 0xd8, 0x95, 0x39, 0xa9, 0xda, 0x26,
 447:Drivers/MPU6050/inv_mpu_dmp_motion_driver.c ****     0xff, 0xd8, 0x90, 0xa8, 0x0d, 0x89, 0x99, 0xa8, 0x10, 0x80, 0x98, 0x21, 0xda, 0x2e, 0xd8, 0x89,
 448:Drivers/MPU6050/inv_mpu_dmp_motion_driver.c ****     0x99, 0xa8, 0x31, 0x80, 0xda, 0x2e, 0xd8, 0xa8, 0x86, 0x96, 0x31, 0x80, 0xda, 0x2e, 0xd8, 0xa8,
 449:Drivers/MPU6050/inv_mpu_dmp_motion_driver.c ****     0x87, 0x31, 0x80, 0xda, 0x2e, 0xd8, 0xa8, 0x82, 0x92, 0xf3, 0x41, 0x80, 0xf1, 0xd9, 0x2e, 0xd8,
 450:Drivers/MPU6050/inv_mpu_dmp_motion_driver.c ****     0xa8, 0x82, 0xf3, 0x19, 0x80, 0xf1, 0xd9, 0x2e, 0xd8, 0x82, 0xac, 0xf3, 0xc0, 0xa2, 0x80, 0x22,
 451:Drivers/MPU6050/inv_mpu_dmp_motion_driver.c ****     0xf1, 0xa6, 0x2e, 0xa7, 0x2e, 0xa9, 0x22, 0x98, 0xa8, 0x29, 0xda, 0xac, 0xde, 0xff, 0xd8, 0xa2,
 452:Drivers/MPU6050/inv_mpu_dmp_motion_driver.c ****     0xf2, 0x2a, 0xf1, 0xa9, 0x2e, 0x82, 0x92, 0xa8, 0xf2, 0x31, 0x80, 0xa6, 0x96, 0xf1, 0xd9, 0x00,
 453:Drivers/MPU6050/inv_mpu_dmp_motion_driver.c ****     0xac, 0x8c, 0x9c, 0x0c, 0x30, 0xac, 0xde, 0xd0, 0xde, 0xff, 0xd8, 0x8c, 0x9c, 0xac, 0xd0, 0x10,
 454:Drivers/MPU6050/inv_mpu_dmp_motion_driver.c ****     0xac, 0xde, 0x80, 0x92, 0xa2, 0xf2, 0x4c, 0x82, 0xa8, 0xf1, 0xca, 0xf2, 0x35, 0xf1, 0x96, 0x88,
 455:Drivers/MPU6050/inv_mpu_dmp_motion_driver.c ****     0xa6, 0xd9, 0x00, 0xd8, 0xf1, 0xff
 456:Drivers/MPU6050/inv_mpu_dmp_motion_driver.c **** };
 457:Drivers/MPU6050/inv_mpu_dmp_motion_driver.c **** 
 458:Drivers/MPU6050/inv_mpu_dmp_motion_driver.c **** static const unsigned short sStartAddress = 0x0400;
 459:Drivers/MPU6050/inv_mpu_dmp_motion_driver.c **** 
 460:Drivers/MPU6050/inv_mpu_dmp_motion_driver.c **** /* END OF SECTION COPIED FROM dmpDefaultMPU6050.c */
 461:Drivers/MPU6050/inv_mpu_dmp_motion_driver.c **** 
 462:Drivers/MPU6050/inv_mpu_dmp_motion_driver.c **** #define INT_SRC_TAP             (0x01)
 463:Drivers/MPU6050/inv_mpu_dmp_motion_driver.c **** #define INT_SRC_ANDROID_ORIENT  (0x08)
 464:Drivers/MPU6050/inv_mpu_dmp_motion_driver.c **** 
 465:Drivers/MPU6050/inv_mpu_dmp_motion_driver.c **** #define DMP_FEATURE_SEND_ANY_GYRO   (DMP_FEATURE_SEND_RAW_GYRO | \
 466:Drivers/MPU6050/inv_mpu_dmp_motion_driver.c ****                                      DMP_FEATURE_SEND_CAL_GYRO)
 467:Drivers/MPU6050/inv_mpu_dmp_motion_driver.c **** 
 468:Drivers/MPU6050/inv_mpu_dmp_motion_driver.c **** #define MAX_PACKET_LENGTH   (32)
 469:Drivers/MPU6050/inv_mpu_dmp_motion_driver.c **** 
 470:Drivers/MPU6050/inv_mpu_dmp_motion_driver.c **** #define DMP_SAMPLE_RATE     (200)
 471:Drivers/MPU6050/inv_mpu_dmp_motion_driver.c **** #define GYRO_SF             (46850825LL * 200 / DMP_SAMPLE_RATE)
 472:Drivers/MPU6050/inv_mpu_dmp_motion_driver.c **** 
 473:Drivers/MPU6050/inv_mpu_dmp_motion_driver.c **** #define FIFO_CORRUPTION_CHECK
 474:Drivers/MPU6050/inv_mpu_dmp_motion_driver.c **** #ifdef FIFO_CORRUPTION_CHECK
 475:Drivers/MPU6050/inv_mpu_dmp_motion_driver.c **** #define QUAT_ERROR_THRESH       (1L<<24)
 476:Drivers/MPU6050/inv_mpu_dmp_motion_driver.c **** #define QUAT_MAG_SQ_NORMALIZED  (1L<<28)
 477:Drivers/MPU6050/inv_mpu_dmp_motion_driver.c **** #define QUAT_MAG_SQ_MIN         (QUAT_MAG_SQ_NORMALIZED - QUAT_ERROR_THRESH)
 478:Drivers/MPU6050/inv_mpu_dmp_motion_driver.c **** #define QUAT_MAG_SQ_MAX         (QUAT_MAG_SQ_NORMALIZED + QUAT_ERROR_THRESH)
 479:Drivers/MPU6050/inv_mpu_dmp_motion_driver.c **** #endif
 480:Drivers/MPU6050/inv_mpu_dmp_motion_driver.c **** 
 481:Drivers/MPU6050/inv_mpu_dmp_motion_driver.c **** struct dmp_s {
 482:Drivers/MPU6050/inv_mpu_dmp_motion_driver.c ****     void (*tap_cb)(unsigned char count, unsigned char direction);
 483:Drivers/MPU6050/inv_mpu_dmp_motion_driver.c ****     void (*android_orient_cb)(unsigned char orientation);
 484:Drivers/MPU6050/inv_mpu_dmp_motion_driver.c ****     unsigned short orient;
 485:Drivers/MPU6050/inv_mpu_dmp_motion_driver.c ****     unsigned short feature_mask;
 486:Drivers/MPU6050/inv_mpu_dmp_motion_driver.c ****     unsigned short fifo_rate;
ARM GAS  F:\msys64\tmp\ccoK2euk.s 			page 10


 487:Drivers/MPU6050/inv_mpu_dmp_motion_driver.c ****     unsigned char packet_length;
 488:Drivers/MPU6050/inv_mpu_dmp_motion_driver.c **** };
 489:Drivers/MPU6050/inv_mpu_dmp_motion_driver.c **** 
 490:Drivers/MPU6050/inv_mpu_dmp_motion_driver.c **** //static struct dmp_s dmp = {
 491:Drivers/MPU6050/inv_mpu_dmp_motion_driver.c **** //    .tap_cb = NULL,
 492:Drivers/MPU6050/inv_mpu_dmp_motion_driver.c **** //    .android_orient_cb = NULL,
 493:Drivers/MPU6050/inv_mpu_dmp_motion_driver.c **** //    .orient = 0,
 494:Drivers/MPU6050/inv_mpu_dmp_motion_driver.c **** //    .feature_mask = 0,
 495:Drivers/MPU6050/inv_mpu_dmp_motion_driver.c **** //    .fifo_rate = 0,
 496:Drivers/MPU6050/inv_mpu_dmp_motion_driver.c **** //    .packet_length = 0
 497:Drivers/MPU6050/inv_mpu_dmp_motion_driver.c **** //};
 498:Drivers/MPU6050/inv_mpu_dmp_motion_driver.c **** static struct dmp_s dmp={
 499:Drivers/MPU6050/inv_mpu_dmp_motion_driver.c ****   NULL,
 500:Drivers/MPU6050/inv_mpu_dmp_motion_driver.c ****   NULL,
 501:Drivers/MPU6050/inv_mpu_dmp_motion_driver.c ****   0,
 502:Drivers/MPU6050/inv_mpu_dmp_motion_driver.c ****   0,
 503:Drivers/MPU6050/inv_mpu_dmp_motion_driver.c ****   0,
 504:Drivers/MPU6050/inv_mpu_dmp_motion_driver.c ****   0
 505:Drivers/MPU6050/inv_mpu_dmp_motion_driver.c **** };
 506:Drivers/MPU6050/inv_mpu_dmp_motion_driver.c **** /**
 507:Drivers/MPU6050/inv_mpu_dmp_motion_driver.c ****  *  @brief  Load the DMP with this image.
 508:Drivers/MPU6050/inv_mpu_dmp_motion_driver.c ****  *  @return 0 if successful.
 509:Drivers/MPU6050/inv_mpu_dmp_motion_driver.c ****  */
 510:Drivers/MPU6050/inv_mpu_dmp_motion_driver.c **** int dmp_load_motion_driver_firmware(void)
 511:Drivers/MPU6050/inv_mpu_dmp_motion_driver.c **** {
 512:Drivers/MPU6050/inv_mpu_dmp_motion_driver.c ****     return mpu_load_firmware(DMP_CODE_SIZE, dmp_memory, sStartAddress,
 513:Drivers/MPU6050/inv_mpu_dmp_motion_driver.c ****         DMP_SAMPLE_RATE);
 514:Drivers/MPU6050/inv_mpu_dmp_motion_driver.c **** }
 515:Drivers/MPU6050/inv_mpu_dmp_motion_driver.c **** 
 516:Drivers/MPU6050/inv_mpu_dmp_motion_driver.c **** /**
 517:Drivers/MPU6050/inv_mpu_dmp_motion_driver.c ****  *  @brief      Push gyro and accel orientation to the DMP.
 518:Drivers/MPU6050/inv_mpu_dmp_motion_driver.c ****  *  The orientation is represented here as the output of
 519:Drivers/MPU6050/inv_mpu_dmp_motion_driver.c ****  *  @e inv_orientation_matrix_to_scalar.
 520:Drivers/MPU6050/inv_mpu_dmp_motion_driver.c ****  *  @param[in]  orient  Gyro and accel orientation in body frame.
 521:Drivers/MPU6050/inv_mpu_dmp_motion_driver.c ****  *  @return     0 if successful.
 522:Drivers/MPU6050/inv_mpu_dmp_motion_driver.c ****  */
 523:Drivers/MPU6050/inv_mpu_dmp_motion_driver.c **** int dmp_set_orientation(unsigned short orient)
 524:Drivers/MPU6050/inv_mpu_dmp_motion_driver.c **** {
 525:Drivers/MPU6050/inv_mpu_dmp_motion_driver.c ****     unsigned char gyro_regs[3], accel_regs[3];
 526:Drivers/MPU6050/inv_mpu_dmp_motion_driver.c ****     const unsigned char gyro_axes[3] = {DINA4C, DINACD, DINA6C};
 527:Drivers/MPU6050/inv_mpu_dmp_motion_driver.c ****     const unsigned char accel_axes[3] = {DINA0C, DINAC9, DINA2C};
 528:Drivers/MPU6050/inv_mpu_dmp_motion_driver.c ****     const unsigned char gyro_sign[3] = {DINA36, DINA56, DINA76};
 529:Drivers/MPU6050/inv_mpu_dmp_motion_driver.c ****     const unsigned char accel_sign[3] = {DINA26, DINA46, DINA66};
 530:Drivers/MPU6050/inv_mpu_dmp_motion_driver.c **** 
 531:Drivers/MPU6050/inv_mpu_dmp_motion_driver.c ****     gyro_regs[0] = gyro_axes[orient & 3];
 532:Drivers/MPU6050/inv_mpu_dmp_motion_driver.c ****     gyro_regs[1] = gyro_axes[(orient >> 3) & 3];
 533:Drivers/MPU6050/inv_mpu_dmp_motion_driver.c ****     gyro_regs[2] = gyro_axes[(orient >> 6) & 3];
 534:Drivers/MPU6050/inv_mpu_dmp_motion_driver.c ****     accel_regs[0] = accel_axes[orient & 3];
 535:Drivers/MPU6050/inv_mpu_dmp_motion_driver.c ****     accel_regs[1] = accel_axes[(orient >> 3) & 3];
 536:Drivers/MPU6050/inv_mpu_dmp_motion_driver.c ****     accel_regs[2] = accel_axes[(orient >> 6) & 3];
 537:Drivers/MPU6050/inv_mpu_dmp_motion_driver.c **** 
 538:Drivers/MPU6050/inv_mpu_dmp_motion_driver.c ****     /* Chip-to-body, axes only. */
 539:Drivers/MPU6050/inv_mpu_dmp_motion_driver.c ****     if (mpu_write_mem(FCFG_1, 3, gyro_regs))
 540:Drivers/MPU6050/inv_mpu_dmp_motion_driver.c ****         return -1;
 541:Drivers/MPU6050/inv_mpu_dmp_motion_driver.c ****     if (mpu_write_mem(FCFG_2, 3, accel_regs))
 542:Drivers/MPU6050/inv_mpu_dmp_motion_driver.c ****         return -1;
 543:Drivers/MPU6050/inv_mpu_dmp_motion_driver.c **** 
ARM GAS  F:\msys64\tmp\ccoK2euk.s 			page 11


 544:Drivers/MPU6050/inv_mpu_dmp_motion_driver.c ****     memcpy(gyro_regs, gyro_sign, 3);
 545:Drivers/MPU6050/inv_mpu_dmp_motion_driver.c ****     memcpy(accel_regs, accel_sign, 3);
 546:Drivers/MPU6050/inv_mpu_dmp_motion_driver.c ****     if (orient & 4) {
 547:Drivers/MPU6050/inv_mpu_dmp_motion_driver.c ****         gyro_regs[0] |= 1;
 548:Drivers/MPU6050/inv_mpu_dmp_motion_driver.c ****         accel_regs[0] |= 1;
 549:Drivers/MPU6050/inv_mpu_dmp_motion_driver.c ****     }
 550:Drivers/MPU6050/inv_mpu_dmp_motion_driver.c ****     if (orient & 0x20) {
 551:Drivers/MPU6050/inv_mpu_dmp_motion_driver.c ****         gyro_regs[1] |= 1;
 552:Drivers/MPU6050/inv_mpu_dmp_motion_driver.c ****         accel_regs[1] |= 1;
 553:Drivers/MPU6050/inv_mpu_dmp_motion_driver.c ****     }
 554:Drivers/MPU6050/inv_mpu_dmp_motion_driver.c ****     if (orient & 0x100) {
 555:Drivers/MPU6050/inv_mpu_dmp_motion_driver.c ****         gyro_regs[2] |= 1;
 556:Drivers/MPU6050/inv_mpu_dmp_motion_driver.c ****         accel_regs[2] |= 1;
 557:Drivers/MPU6050/inv_mpu_dmp_motion_driver.c ****     }
 558:Drivers/MPU6050/inv_mpu_dmp_motion_driver.c **** 
 559:Drivers/MPU6050/inv_mpu_dmp_motion_driver.c ****     /* Chip-to-body, sign only. */
 560:Drivers/MPU6050/inv_mpu_dmp_motion_driver.c ****     if (mpu_write_mem(FCFG_3, 3, gyro_regs))
 561:Drivers/MPU6050/inv_mpu_dmp_motion_driver.c ****         return -1;
 562:Drivers/MPU6050/inv_mpu_dmp_motion_driver.c ****     if (mpu_write_mem(FCFG_7, 3, accel_regs))
 563:Drivers/MPU6050/inv_mpu_dmp_motion_driver.c ****         return -1;
 564:Drivers/MPU6050/inv_mpu_dmp_motion_driver.c ****     dmp.orient = orient;
 565:Drivers/MPU6050/inv_mpu_dmp_motion_driver.c ****     return 0;
 566:Drivers/MPU6050/inv_mpu_dmp_motion_driver.c **** }
 567:Drivers/MPU6050/inv_mpu_dmp_motion_driver.c **** 
 568:Drivers/MPU6050/inv_mpu_dmp_motion_driver.c **** /**
 569:Drivers/MPU6050/inv_mpu_dmp_motion_driver.c ****  *  @brief      Push gyro biases to the DMP.
 570:Drivers/MPU6050/inv_mpu_dmp_motion_driver.c ****  *  Because the gyro integration is handled in the DMP, any gyro biases
 571:Drivers/MPU6050/inv_mpu_dmp_motion_driver.c ****  *  calculated by the MPL should be pushed down to DMP memory to remove
 572:Drivers/MPU6050/inv_mpu_dmp_motion_driver.c ****  *  3-axis quaternion drift.
 573:Drivers/MPU6050/inv_mpu_dmp_motion_driver.c ****  *  \n NOTE: If the DMP-based gyro calibration is enabled, the DMP will
 574:Drivers/MPU6050/inv_mpu_dmp_motion_driver.c ****  *  overwrite the biases written to this location once a new one is computed.
 575:Drivers/MPU6050/inv_mpu_dmp_motion_driver.c ****  *  @param[in]  bias    Gyro biases in q16.
 576:Drivers/MPU6050/inv_mpu_dmp_motion_driver.c ****  *  @return     0 if successful.
 577:Drivers/MPU6050/inv_mpu_dmp_motion_driver.c ****  */
 578:Drivers/MPU6050/inv_mpu_dmp_motion_driver.c **** int dmp_set_gyro_bias(long *bias)
 579:Drivers/MPU6050/inv_mpu_dmp_motion_driver.c **** {
 580:Drivers/MPU6050/inv_mpu_dmp_motion_driver.c ****     long gyro_bias_body[3];
 581:Drivers/MPU6050/inv_mpu_dmp_motion_driver.c ****     unsigned char regs[4];
 582:Drivers/MPU6050/inv_mpu_dmp_motion_driver.c **** 
 583:Drivers/MPU6050/inv_mpu_dmp_motion_driver.c ****     gyro_bias_body[0] = bias[dmp.orient & 3];
 584:Drivers/MPU6050/inv_mpu_dmp_motion_driver.c ****     if (dmp.orient & 4)
 585:Drivers/MPU6050/inv_mpu_dmp_motion_driver.c ****         gyro_bias_body[0] *= -1;
 586:Drivers/MPU6050/inv_mpu_dmp_motion_driver.c ****     gyro_bias_body[1] = bias[(dmp.orient >> 3) & 3];
 587:Drivers/MPU6050/inv_mpu_dmp_motion_driver.c ****     if (dmp.orient & 0x20)
 588:Drivers/MPU6050/inv_mpu_dmp_motion_driver.c ****         gyro_bias_body[1] *= -1;
 589:Drivers/MPU6050/inv_mpu_dmp_motion_driver.c ****     gyro_bias_body[2] = bias[(dmp.orient >> 6) & 3];
 590:Drivers/MPU6050/inv_mpu_dmp_motion_driver.c ****     if (dmp.orient & 0x100)
 591:Drivers/MPU6050/inv_mpu_dmp_motion_driver.c ****         gyro_bias_body[2] *= -1;
 592:Drivers/MPU6050/inv_mpu_dmp_motion_driver.c **** 
 593:Drivers/MPU6050/inv_mpu_dmp_motion_driver.c **** #ifdef EMPL_NO_64BIT
 594:Drivers/MPU6050/inv_mpu_dmp_motion_driver.c ****     gyro_bias_body[0] = (long)(((float)gyro_bias_body[0] * GYRO_SF) / 1073741824.f);
 595:Drivers/MPU6050/inv_mpu_dmp_motion_driver.c ****     gyro_bias_body[1] = (long)(((float)gyro_bias_body[1] * GYRO_SF) / 1073741824.f);
 596:Drivers/MPU6050/inv_mpu_dmp_motion_driver.c ****     gyro_bias_body[2] = (long)(((float)gyro_bias_body[2] * GYRO_SF) / 1073741824.f);
 597:Drivers/MPU6050/inv_mpu_dmp_motion_driver.c **** #else
 598:Drivers/MPU6050/inv_mpu_dmp_motion_driver.c ****     gyro_bias_body[0] = (long)(((long long)gyro_bias_body[0] * GYRO_SF) >> 30);
 599:Drivers/MPU6050/inv_mpu_dmp_motion_driver.c ****     gyro_bias_body[1] = (long)(((long long)gyro_bias_body[1] * GYRO_SF) >> 30);
 600:Drivers/MPU6050/inv_mpu_dmp_motion_driver.c ****     gyro_bias_body[2] = (long)(((long long)gyro_bias_body[2] * GYRO_SF) >> 30);
ARM GAS  F:\msys64\tmp\ccoK2euk.s 			page 12


 601:Drivers/MPU6050/inv_mpu_dmp_motion_driver.c **** #endif
 602:Drivers/MPU6050/inv_mpu_dmp_motion_driver.c **** 
 603:Drivers/MPU6050/inv_mpu_dmp_motion_driver.c ****     regs[0] = (unsigned char)((gyro_bias_body[0] >> 24) & 0xFF);
 604:Drivers/MPU6050/inv_mpu_dmp_motion_driver.c ****     regs[1] = (unsigned char)((gyro_bias_body[0] >> 16) & 0xFF);
 605:Drivers/MPU6050/inv_mpu_dmp_motion_driver.c ****     regs[2] = (unsigned char)((gyro_bias_body[0] >> 8) & 0xFF);
 606:Drivers/MPU6050/inv_mpu_dmp_motion_driver.c ****     regs[3] = (unsigned char)(gyro_bias_body[0] & 0xFF);
 607:Drivers/MPU6050/inv_mpu_dmp_motion_driver.c ****     if (mpu_write_mem(D_EXT_GYRO_BIAS_X, 4, regs))
 608:Drivers/MPU6050/inv_mpu_dmp_motion_driver.c ****         return -1;
 609:Drivers/MPU6050/inv_mpu_dmp_motion_driver.c **** 
 610:Drivers/MPU6050/inv_mpu_dmp_motion_driver.c ****     regs[0] = (unsigned char)((gyro_bias_body[1] >> 24) & 0xFF);
 611:Drivers/MPU6050/inv_mpu_dmp_motion_driver.c ****     regs[1] = (unsigned char)((gyro_bias_body[1] >> 16) & 0xFF);
 612:Drivers/MPU6050/inv_mpu_dmp_motion_driver.c ****     regs[2] = (unsigned char)((gyro_bias_body[1] >> 8) & 0xFF);
 613:Drivers/MPU6050/inv_mpu_dmp_motion_driver.c ****     regs[3] = (unsigned char)(gyro_bias_body[1] & 0xFF);
 614:Drivers/MPU6050/inv_mpu_dmp_motion_driver.c ****     if (mpu_write_mem(D_EXT_GYRO_BIAS_Y, 4, regs))
 615:Drivers/MPU6050/inv_mpu_dmp_motion_driver.c ****         return -1;
 616:Drivers/MPU6050/inv_mpu_dmp_motion_driver.c **** 
 617:Drivers/MPU6050/inv_mpu_dmp_motion_driver.c ****     regs[0] = (unsigned char)((gyro_bias_body[2] >> 24) & 0xFF);
 618:Drivers/MPU6050/inv_mpu_dmp_motion_driver.c ****     regs[1] = (unsigned char)((gyro_bias_body[2] >> 16) & 0xFF);
 619:Drivers/MPU6050/inv_mpu_dmp_motion_driver.c ****     regs[2] = (unsigned char)((gyro_bias_body[2] >> 8) & 0xFF);
 620:Drivers/MPU6050/inv_mpu_dmp_motion_driver.c ****     regs[3] = (unsigned char)(gyro_bias_body[2] & 0xFF);
 621:Drivers/MPU6050/inv_mpu_dmp_motion_driver.c ****     return mpu_write_mem(D_EXT_GYRO_BIAS_Z, 4, regs);
 622:Drivers/MPU6050/inv_mpu_dmp_motion_driver.c **** }
 623:Drivers/MPU6050/inv_mpu_dmp_motion_driver.c **** 
 624:Drivers/MPU6050/inv_mpu_dmp_motion_driver.c **** /**
 625:Drivers/MPU6050/inv_mpu_dmp_motion_driver.c ****  *  @brief      Push accel biases to the DMP.
 626:Drivers/MPU6050/inv_mpu_dmp_motion_driver.c ****  *  These biases will be removed from the DMP 6-axis quaternion.
 627:Drivers/MPU6050/inv_mpu_dmp_motion_driver.c ****  *  @param[in]  bias    Accel biases in q16.
 628:Drivers/MPU6050/inv_mpu_dmp_motion_driver.c ****  *  @return     0 if successful.
 629:Drivers/MPU6050/inv_mpu_dmp_motion_driver.c ****  */
 630:Drivers/MPU6050/inv_mpu_dmp_motion_driver.c **** int dmp_set_accel_bias(long *bias)
 631:Drivers/MPU6050/inv_mpu_dmp_motion_driver.c **** {
 632:Drivers/MPU6050/inv_mpu_dmp_motion_driver.c ****     long accel_bias_body[3];
 633:Drivers/MPU6050/inv_mpu_dmp_motion_driver.c ****     unsigned char regs[12];
 634:Drivers/MPU6050/inv_mpu_dmp_motion_driver.c ****     long long accel_sf;
 635:Drivers/MPU6050/inv_mpu_dmp_motion_driver.c ****     unsigned short accel_sens;
 636:Drivers/MPU6050/inv_mpu_dmp_motion_driver.c **** 
 637:Drivers/MPU6050/inv_mpu_dmp_motion_driver.c ****     mpu_get_accel_sens(&accel_sens);
 638:Drivers/MPU6050/inv_mpu_dmp_motion_driver.c ****     accel_sf = (long long)accel_sens << 15;
 639:Drivers/MPU6050/inv_mpu_dmp_motion_driver.c ****     //__no_operation();
 640:Drivers/MPU6050/inv_mpu_dmp_motion_driver.c **** 
 641:Drivers/MPU6050/inv_mpu_dmp_motion_driver.c ****     accel_bias_body[0] = bias[dmp.orient & 3];
 642:Drivers/MPU6050/inv_mpu_dmp_motion_driver.c ****     if (dmp.orient & 4)
 643:Drivers/MPU6050/inv_mpu_dmp_motion_driver.c ****         accel_bias_body[0] *= -1;
 644:Drivers/MPU6050/inv_mpu_dmp_motion_driver.c ****     accel_bias_body[1] = bias[(dmp.orient >> 3) & 3];
 645:Drivers/MPU6050/inv_mpu_dmp_motion_driver.c ****     if (dmp.orient & 0x20)
 646:Drivers/MPU6050/inv_mpu_dmp_motion_driver.c ****         accel_bias_body[1] *= -1;
 647:Drivers/MPU6050/inv_mpu_dmp_motion_driver.c ****     accel_bias_body[2] = bias[(dmp.orient >> 6) & 3];
 648:Drivers/MPU6050/inv_mpu_dmp_motion_driver.c ****     if (dmp.orient & 0x100)
 649:Drivers/MPU6050/inv_mpu_dmp_motion_driver.c ****         accel_bias_body[2] *= -1;
 650:Drivers/MPU6050/inv_mpu_dmp_motion_driver.c **** 
 651:Drivers/MPU6050/inv_mpu_dmp_motion_driver.c **** #ifdef EMPL_NO_64BIT
 652:Drivers/MPU6050/inv_mpu_dmp_motion_driver.c ****     accel_bias_body[0] = (long)(((float)accel_bias_body[0] * accel_sf) / 1073741824.f);
 653:Drivers/MPU6050/inv_mpu_dmp_motion_driver.c ****     accel_bias_body[1] = (long)(((float)accel_bias_body[1] * accel_sf) / 1073741824.f);
 654:Drivers/MPU6050/inv_mpu_dmp_motion_driver.c ****     accel_bias_body[2] = (long)(((float)accel_bias_body[2] * accel_sf) / 1073741824.f);
 655:Drivers/MPU6050/inv_mpu_dmp_motion_driver.c **** #else
 656:Drivers/MPU6050/inv_mpu_dmp_motion_driver.c ****     accel_bias_body[0] = (long)(((long long)accel_bias_body[0] * accel_sf) >> 30);
 657:Drivers/MPU6050/inv_mpu_dmp_motion_driver.c ****     accel_bias_body[1] = (long)(((long long)accel_bias_body[1] * accel_sf) >> 30);
ARM GAS  F:\msys64\tmp\ccoK2euk.s 			page 13


 658:Drivers/MPU6050/inv_mpu_dmp_motion_driver.c ****     accel_bias_body[2] = (long)(((long long)accel_bias_body[2] * accel_sf) >> 30);
 659:Drivers/MPU6050/inv_mpu_dmp_motion_driver.c **** #endif
 660:Drivers/MPU6050/inv_mpu_dmp_motion_driver.c **** 
 661:Drivers/MPU6050/inv_mpu_dmp_motion_driver.c ****     regs[0] = (unsigned char)((accel_bias_body[0] >> 24) & 0xFF);
 662:Drivers/MPU6050/inv_mpu_dmp_motion_driver.c ****     regs[1] = (unsigned char)((accel_bias_body[0] >> 16) & 0xFF);
 663:Drivers/MPU6050/inv_mpu_dmp_motion_driver.c ****     regs[2] = (unsigned char)((accel_bias_body[0] >> 8) & 0xFF);
 664:Drivers/MPU6050/inv_mpu_dmp_motion_driver.c ****     regs[3] = (unsigned char)(accel_bias_body[0] & 0xFF);
 665:Drivers/MPU6050/inv_mpu_dmp_motion_driver.c ****     regs[4] = (unsigned char)((accel_bias_body[1] >> 24) & 0xFF);
 666:Drivers/MPU6050/inv_mpu_dmp_motion_driver.c ****     regs[5] = (unsigned char)((accel_bias_body[1] >> 16) & 0xFF);
 667:Drivers/MPU6050/inv_mpu_dmp_motion_driver.c ****     regs[6] = (unsigned char)((accel_bias_body[1] >> 8) & 0xFF);
 668:Drivers/MPU6050/inv_mpu_dmp_motion_driver.c ****     regs[7] = (unsigned char)(accel_bias_body[1] & 0xFF);
 669:Drivers/MPU6050/inv_mpu_dmp_motion_driver.c ****     regs[8] = (unsigned char)((accel_bias_body[2] >> 24) & 0xFF);
 670:Drivers/MPU6050/inv_mpu_dmp_motion_driver.c ****     regs[9] = (unsigned char)((accel_bias_body[2] >> 16) & 0xFF);
 671:Drivers/MPU6050/inv_mpu_dmp_motion_driver.c ****     regs[10] = (unsigned char)((accel_bias_body[2] >> 8) & 0xFF);
 672:Drivers/MPU6050/inv_mpu_dmp_motion_driver.c ****     regs[11] = (unsigned char)(accel_bias_body[2] & 0xFF);
 673:Drivers/MPU6050/inv_mpu_dmp_motion_driver.c ****     return mpu_write_mem(D_ACCEL_BIAS, 12, regs);
 674:Drivers/MPU6050/inv_mpu_dmp_motion_driver.c **** }
 675:Drivers/MPU6050/inv_mpu_dmp_motion_driver.c **** 
 676:Drivers/MPU6050/inv_mpu_dmp_motion_driver.c **** /**
 677:Drivers/MPU6050/inv_mpu_dmp_motion_driver.c ****  *  @brief      Set DMP output rate.
 678:Drivers/MPU6050/inv_mpu_dmp_motion_driver.c ****  *  Only used when DMP is on.
 679:Drivers/MPU6050/inv_mpu_dmp_motion_driver.c ****  *  @param[in]  rate    Desired fifo rate (Hz).
 680:Drivers/MPU6050/inv_mpu_dmp_motion_driver.c ****  *  @return     0 if successful.
 681:Drivers/MPU6050/inv_mpu_dmp_motion_driver.c ****  */
 682:Drivers/MPU6050/inv_mpu_dmp_motion_driver.c **** int dmp_set_fifo_rate(unsigned short rate)
 683:Drivers/MPU6050/inv_mpu_dmp_motion_driver.c **** {
 684:Drivers/MPU6050/inv_mpu_dmp_motion_driver.c ****     const unsigned char regs_end[12] = {DINAFE, DINAF2, DINAAB,
 685:Drivers/MPU6050/inv_mpu_dmp_motion_driver.c ****         0xc4, DINAAA, DINAF1, DINADF, DINADF, 0xBB, 0xAF, DINADF, DINADF};
 686:Drivers/MPU6050/inv_mpu_dmp_motion_driver.c ****     unsigned short div;
 687:Drivers/MPU6050/inv_mpu_dmp_motion_driver.c ****     unsigned char tmp[8];
 688:Drivers/MPU6050/inv_mpu_dmp_motion_driver.c **** 
 689:Drivers/MPU6050/inv_mpu_dmp_motion_driver.c ****     if (rate > DMP_SAMPLE_RATE)
 690:Drivers/MPU6050/inv_mpu_dmp_motion_driver.c ****         return -1;
 691:Drivers/MPU6050/inv_mpu_dmp_motion_driver.c ****     div = DMP_SAMPLE_RATE / rate - 1;
 692:Drivers/MPU6050/inv_mpu_dmp_motion_driver.c ****     tmp[0] = (unsigned char)((div >> 8) & 0xFF);
 693:Drivers/MPU6050/inv_mpu_dmp_motion_driver.c ****     tmp[1] = (unsigned char)(div & 0xFF);
 694:Drivers/MPU6050/inv_mpu_dmp_motion_driver.c ****     if (mpu_write_mem(D_0_22, 2, tmp))
 695:Drivers/MPU6050/inv_mpu_dmp_motion_driver.c ****         return -1;
 696:Drivers/MPU6050/inv_mpu_dmp_motion_driver.c ****     if (mpu_write_mem(CFG_6, 12, (unsigned char*)regs_end))
 697:Drivers/MPU6050/inv_mpu_dmp_motion_driver.c ****         return -1;
 698:Drivers/MPU6050/inv_mpu_dmp_motion_driver.c **** 
 699:Drivers/MPU6050/inv_mpu_dmp_motion_driver.c ****     dmp.fifo_rate = rate;
 700:Drivers/MPU6050/inv_mpu_dmp_motion_driver.c ****     return 0;
 701:Drivers/MPU6050/inv_mpu_dmp_motion_driver.c **** }
 702:Drivers/MPU6050/inv_mpu_dmp_motion_driver.c **** 
 703:Drivers/MPU6050/inv_mpu_dmp_motion_driver.c **** /**
 704:Drivers/MPU6050/inv_mpu_dmp_motion_driver.c ****  *  @brief      Get DMP output rate.
 705:Drivers/MPU6050/inv_mpu_dmp_motion_driver.c ****  *  @param[out] rate    Current fifo rate (Hz).
 706:Drivers/MPU6050/inv_mpu_dmp_motion_driver.c ****  *  @return     0 if successful.
 707:Drivers/MPU6050/inv_mpu_dmp_motion_driver.c ****  */
 708:Drivers/MPU6050/inv_mpu_dmp_motion_driver.c **** int dmp_get_fifo_rate(unsigned short *rate)
 709:Drivers/MPU6050/inv_mpu_dmp_motion_driver.c **** {
 710:Drivers/MPU6050/inv_mpu_dmp_motion_driver.c ****     rate[0] = dmp.fifo_rate;
 711:Drivers/MPU6050/inv_mpu_dmp_motion_driver.c ****     return 0;
 712:Drivers/MPU6050/inv_mpu_dmp_motion_driver.c **** }
 713:Drivers/MPU6050/inv_mpu_dmp_motion_driver.c **** 
 714:Drivers/MPU6050/inv_mpu_dmp_motion_driver.c **** /**
ARM GAS  F:\msys64\tmp\ccoK2euk.s 			page 14


 715:Drivers/MPU6050/inv_mpu_dmp_motion_driver.c ****  *  @brief      Set tap threshold for a specific axis.
 716:Drivers/MPU6050/inv_mpu_dmp_motion_driver.c ****  *  @param[in]  axis    1, 2, and 4 for XYZ accel, respectively.
 717:Drivers/MPU6050/inv_mpu_dmp_motion_driver.c ****  *  @param[in]  thresh  Tap threshold, in mg/ms.
 718:Drivers/MPU6050/inv_mpu_dmp_motion_driver.c ****  *  @return     0 if successful.
 719:Drivers/MPU6050/inv_mpu_dmp_motion_driver.c ****  */
 720:Drivers/MPU6050/inv_mpu_dmp_motion_driver.c **** int dmp_set_tap_thresh(unsigned char axis, unsigned short thresh)
 721:Drivers/MPU6050/inv_mpu_dmp_motion_driver.c **** {
 722:Drivers/MPU6050/inv_mpu_dmp_motion_driver.c ****     unsigned char tmp[4], accel_fsr;
 723:Drivers/MPU6050/inv_mpu_dmp_motion_driver.c ****     float scaled_thresh;
 724:Drivers/MPU6050/inv_mpu_dmp_motion_driver.c ****     unsigned short dmp_thresh, dmp_thresh_2;
 725:Drivers/MPU6050/inv_mpu_dmp_motion_driver.c ****     if (!(axis & TAP_XYZ) || thresh > 1600)
 726:Drivers/MPU6050/inv_mpu_dmp_motion_driver.c ****         return -1;
 727:Drivers/MPU6050/inv_mpu_dmp_motion_driver.c **** 
 728:Drivers/MPU6050/inv_mpu_dmp_motion_driver.c ****     scaled_thresh = (float)thresh / DMP_SAMPLE_RATE;
 729:Drivers/MPU6050/inv_mpu_dmp_motion_driver.c **** 
 730:Drivers/MPU6050/inv_mpu_dmp_motion_driver.c ****     mpu_get_accel_fsr(&accel_fsr);
 731:Drivers/MPU6050/inv_mpu_dmp_motion_driver.c ****     switch (accel_fsr) {
 732:Drivers/MPU6050/inv_mpu_dmp_motion_driver.c ****     case 2:
 733:Drivers/MPU6050/inv_mpu_dmp_motion_driver.c ****         dmp_thresh = (unsigned short)(scaled_thresh * 16384);
 734:Drivers/MPU6050/inv_mpu_dmp_motion_driver.c ****         /* dmp_thresh * 0.75 */
 735:Drivers/MPU6050/inv_mpu_dmp_motion_driver.c ****         dmp_thresh_2 = (unsigned short)(scaled_thresh * 12288);
 736:Drivers/MPU6050/inv_mpu_dmp_motion_driver.c ****         break;
 737:Drivers/MPU6050/inv_mpu_dmp_motion_driver.c ****     case 4:
 738:Drivers/MPU6050/inv_mpu_dmp_motion_driver.c ****         dmp_thresh = (unsigned short)(scaled_thresh * 8192);
 739:Drivers/MPU6050/inv_mpu_dmp_motion_driver.c ****         /* dmp_thresh * 0.75 */
 740:Drivers/MPU6050/inv_mpu_dmp_motion_driver.c ****         dmp_thresh_2 = (unsigned short)(scaled_thresh * 6144);
 741:Drivers/MPU6050/inv_mpu_dmp_motion_driver.c ****         break;
 742:Drivers/MPU6050/inv_mpu_dmp_motion_driver.c ****     case 8:
 743:Drivers/MPU6050/inv_mpu_dmp_motion_driver.c ****         dmp_thresh = (unsigned short)(scaled_thresh * 4096);
 744:Drivers/MPU6050/inv_mpu_dmp_motion_driver.c ****         /* dmp_thresh * 0.75 */
 745:Drivers/MPU6050/inv_mpu_dmp_motion_driver.c ****         dmp_thresh_2 = (unsigned short)(scaled_thresh * 3072);
 746:Drivers/MPU6050/inv_mpu_dmp_motion_driver.c ****         break;
 747:Drivers/MPU6050/inv_mpu_dmp_motion_driver.c ****     case 16:
 748:Drivers/MPU6050/inv_mpu_dmp_motion_driver.c ****         dmp_thresh = (unsigned short)(scaled_thresh * 2048);
 749:Drivers/MPU6050/inv_mpu_dmp_motion_driver.c ****         /* dmp_thresh * 0.75 */
 750:Drivers/MPU6050/inv_mpu_dmp_motion_driver.c ****         dmp_thresh_2 = (unsigned short)(scaled_thresh * 1536);
 751:Drivers/MPU6050/inv_mpu_dmp_motion_driver.c ****         break;
 752:Drivers/MPU6050/inv_mpu_dmp_motion_driver.c ****     default:
 753:Drivers/MPU6050/inv_mpu_dmp_motion_driver.c ****         return -1;
 754:Drivers/MPU6050/inv_mpu_dmp_motion_driver.c ****     }
 755:Drivers/MPU6050/inv_mpu_dmp_motion_driver.c ****     tmp[0] = (unsigned char)(dmp_thresh >> 8);
 756:Drivers/MPU6050/inv_mpu_dmp_motion_driver.c ****     tmp[1] = (unsigned char)(dmp_thresh & 0xFF);
 757:Drivers/MPU6050/inv_mpu_dmp_motion_driver.c ****     tmp[2] = (unsigned char)(dmp_thresh_2 >> 8);
 758:Drivers/MPU6050/inv_mpu_dmp_motion_driver.c ****     tmp[3] = (unsigned char)(dmp_thresh_2 & 0xFF);
 759:Drivers/MPU6050/inv_mpu_dmp_motion_driver.c **** 
 760:Drivers/MPU6050/inv_mpu_dmp_motion_driver.c ****     if (axis & TAP_X) {
 761:Drivers/MPU6050/inv_mpu_dmp_motion_driver.c ****         if (mpu_write_mem(DMP_TAP_THX, 2, tmp))
 762:Drivers/MPU6050/inv_mpu_dmp_motion_driver.c ****             return -1;
 763:Drivers/MPU6050/inv_mpu_dmp_motion_driver.c ****         if (mpu_write_mem(D_1_36, 2, tmp+2))
 764:Drivers/MPU6050/inv_mpu_dmp_motion_driver.c ****             return -1;
 765:Drivers/MPU6050/inv_mpu_dmp_motion_driver.c ****     }
 766:Drivers/MPU6050/inv_mpu_dmp_motion_driver.c ****     if (axis & TAP_Y) {
 767:Drivers/MPU6050/inv_mpu_dmp_motion_driver.c ****         if (mpu_write_mem(DMP_TAP_THY, 2, tmp))
 768:Drivers/MPU6050/inv_mpu_dmp_motion_driver.c ****             return -1;
 769:Drivers/MPU6050/inv_mpu_dmp_motion_driver.c ****         if (mpu_write_mem(D_1_40, 2, tmp+2))
 770:Drivers/MPU6050/inv_mpu_dmp_motion_driver.c ****             return -1;
 771:Drivers/MPU6050/inv_mpu_dmp_motion_driver.c ****     }
ARM GAS  F:\msys64\tmp\ccoK2euk.s 			page 15


 772:Drivers/MPU6050/inv_mpu_dmp_motion_driver.c ****     if (axis & TAP_Z) {
 773:Drivers/MPU6050/inv_mpu_dmp_motion_driver.c ****         if (mpu_write_mem(DMP_TAP_THZ, 2, tmp))
 774:Drivers/MPU6050/inv_mpu_dmp_motion_driver.c ****             return -1;
 775:Drivers/MPU6050/inv_mpu_dmp_motion_driver.c ****         if (mpu_write_mem(D_1_44, 2, tmp+2))
 776:Drivers/MPU6050/inv_mpu_dmp_motion_driver.c ****             return -1;
 777:Drivers/MPU6050/inv_mpu_dmp_motion_driver.c ****     }
 778:Drivers/MPU6050/inv_mpu_dmp_motion_driver.c ****     return 0;
 779:Drivers/MPU6050/inv_mpu_dmp_motion_driver.c **** }
 780:Drivers/MPU6050/inv_mpu_dmp_motion_driver.c **** 
 781:Drivers/MPU6050/inv_mpu_dmp_motion_driver.c **** /**
 782:Drivers/MPU6050/inv_mpu_dmp_motion_driver.c ****  *  @brief      Set which axes will register a tap.
 783:Drivers/MPU6050/inv_mpu_dmp_motion_driver.c ****  *  @param[in]  axis    1, 2, and 4 for XYZ, respectively.
 784:Drivers/MPU6050/inv_mpu_dmp_motion_driver.c ****  *  @return     0 if successful.
 785:Drivers/MPU6050/inv_mpu_dmp_motion_driver.c ****  */
 786:Drivers/MPU6050/inv_mpu_dmp_motion_driver.c **** int dmp_set_tap_axes(unsigned char axis)
 787:Drivers/MPU6050/inv_mpu_dmp_motion_driver.c **** {
 788:Drivers/MPU6050/inv_mpu_dmp_motion_driver.c ****     unsigned char tmp = 0;
 789:Drivers/MPU6050/inv_mpu_dmp_motion_driver.c **** 
 790:Drivers/MPU6050/inv_mpu_dmp_motion_driver.c ****     if (axis & TAP_X)
 791:Drivers/MPU6050/inv_mpu_dmp_motion_driver.c ****         tmp |= 0x30;
 792:Drivers/MPU6050/inv_mpu_dmp_motion_driver.c ****     if (axis & TAP_Y)
 793:Drivers/MPU6050/inv_mpu_dmp_motion_driver.c ****         tmp |= 0x0C;
 794:Drivers/MPU6050/inv_mpu_dmp_motion_driver.c ****     if (axis & TAP_Z)
 795:Drivers/MPU6050/inv_mpu_dmp_motion_driver.c ****         tmp |= 0x03;
 796:Drivers/MPU6050/inv_mpu_dmp_motion_driver.c ****     return mpu_write_mem(D_1_72, 1, &tmp);
 797:Drivers/MPU6050/inv_mpu_dmp_motion_driver.c **** }
 798:Drivers/MPU6050/inv_mpu_dmp_motion_driver.c **** 
 799:Drivers/MPU6050/inv_mpu_dmp_motion_driver.c **** /**
 800:Drivers/MPU6050/inv_mpu_dmp_motion_driver.c ****  *  @brief      Set minimum number of taps needed for an interrupt.
 801:Drivers/MPU6050/inv_mpu_dmp_motion_driver.c ****  *  @param[in]  min_taps    Minimum consecutive taps (1-4).
 802:Drivers/MPU6050/inv_mpu_dmp_motion_driver.c ****  *  @return     0 if successful.
 803:Drivers/MPU6050/inv_mpu_dmp_motion_driver.c ****  */
 804:Drivers/MPU6050/inv_mpu_dmp_motion_driver.c **** int dmp_set_tap_count(unsigned char min_taps)
 805:Drivers/MPU6050/inv_mpu_dmp_motion_driver.c **** {
 806:Drivers/MPU6050/inv_mpu_dmp_motion_driver.c ****     unsigned char tmp;
 807:Drivers/MPU6050/inv_mpu_dmp_motion_driver.c **** 
 808:Drivers/MPU6050/inv_mpu_dmp_motion_driver.c ****     if (min_taps < 1)
 809:Drivers/MPU6050/inv_mpu_dmp_motion_driver.c ****         min_taps = 1;
 810:Drivers/MPU6050/inv_mpu_dmp_motion_driver.c ****     else if (min_taps > 4)
 811:Drivers/MPU6050/inv_mpu_dmp_motion_driver.c ****         min_taps = 4;
 812:Drivers/MPU6050/inv_mpu_dmp_motion_driver.c **** 
 813:Drivers/MPU6050/inv_mpu_dmp_motion_driver.c ****     tmp = min_taps - 1;
 814:Drivers/MPU6050/inv_mpu_dmp_motion_driver.c ****     return mpu_write_mem(D_1_79, 1, &tmp);
 815:Drivers/MPU6050/inv_mpu_dmp_motion_driver.c **** }
 816:Drivers/MPU6050/inv_mpu_dmp_motion_driver.c **** 
 817:Drivers/MPU6050/inv_mpu_dmp_motion_driver.c **** /**
 818:Drivers/MPU6050/inv_mpu_dmp_motion_driver.c ****  *  @brief      Set length between valid taps.
 819:Drivers/MPU6050/inv_mpu_dmp_motion_driver.c ****  *  @param[in]  time    Milliseconds between taps.
 820:Drivers/MPU6050/inv_mpu_dmp_motion_driver.c ****  *  @return     0 if successful.
 821:Drivers/MPU6050/inv_mpu_dmp_motion_driver.c ****  */
 822:Drivers/MPU6050/inv_mpu_dmp_motion_driver.c **** int dmp_set_tap_time(unsigned short time)
 823:Drivers/MPU6050/inv_mpu_dmp_motion_driver.c **** {
 824:Drivers/MPU6050/inv_mpu_dmp_motion_driver.c ****     unsigned short dmp_time;
 825:Drivers/MPU6050/inv_mpu_dmp_motion_driver.c ****     unsigned char tmp[2];
 826:Drivers/MPU6050/inv_mpu_dmp_motion_driver.c **** 
 827:Drivers/MPU6050/inv_mpu_dmp_motion_driver.c ****     dmp_time = time / (1000 / DMP_SAMPLE_RATE);
 828:Drivers/MPU6050/inv_mpu_dmp_motion_driver.c ****     tmp[0] = (unsigned char)(dmp_time >> 8);
ARM GAS  F:\msys64\tmp\ccoK2euk.s 			page 16


 829:Drivers/MPU6050/inv_mpu_dmp_motion_driver.c ****     tmp[1] = (unsigned char)(dmp_time & 0xFF);
 830:Drivers/MPU6050/inv_mpu_dmp_motion_driver.c ****     return mpu_write_mem(DMP_TAPW_MIN, 2, tmp);
 831:Drivers/MPU6050/inv_mpu_dmp_motion_driver.c **** }
 832:Drivers/MPU6050/inv_mpu_dmp_motion_driver.c **** 
 833:Drivers/MPU6050/inv_mpu_dmp_motion_driver.c **** /**
 834:Drivers/MPU6050/inv_mpu_dmp_motion_driver.c ****  *  @brief      Set max time between taps to register as a multi-tap.
 835:Drivers/MPU6050/inv_mpu_dmp_motion_driver.c ****  *  @param[in]  time    Max milliseconds between taps.
 836:Drivers/MPU6050/inv_mpu_dmp_motion_driver.c ****  *  @return     0 if successful.
 837:Drivers/MPU6050/inv_mpu_dmp_motion_driver.c ****  */
 838:Drivers/MPU6050/inv_mpu_dmp_motion_driver.c **** int dmp_set_tap_time_multi(unsigned short time)
 839:Drivers/MPU6050/inv_mpu_dmp_motion_driver.c **** {
 840:Drivers/MPU6050/inv_mpu_dmp_motion_driver.c ****     unsigned short dmp_time;
 841:Drivers/MPU6050/inv_mpu_dmp_motion_driver.c ****     unsigned char tmp[2];
 842:Drivers/MPU6050/inv_mpu_dmp_motion_driver.c **** 
 843:Drivers/MPU6050/inv_mpu_dmp_motion_driver.c ****     dmp_time = time / (1000 / DMP_SAMPLE_RATE);
 844:Drivers/MPU6050/inv_mpu_dmp_motion_driver.c ****     tmp[0] = (unsigned char)(dmp_time >> 8);
 845:Drivers/MPU6050/inv_mpu_dmp_motion_driver.c ****     tmp[1] = (unsigned char)(dmp_time & 0xFF);
 846:Drivers/MPU6050/inv_mpu_dmp_motion_driver.c ****     return mpu_write_mem(D_1_218, 2, tmp);
 847:Drivers/MPU6050/inv_mpu_dmp_motion_driver.c **** }
 848:Drivers/MPU6050/inv_mpu_dmp_motion_driver.c **** 
 849:Drivers/MPU6050/inv_mpu_dmp_motion_driver.c **** /**
 850:Drivers/MPU6050/inv_mpu_dmp_motion_driver.c ****  *  @brief      Set shake rejection threshold.
 851:Drivers/MPU6050/inv_mpu_dmp_motion_driver.c ****  *  If the DMP detects a gyro sample larger than @e thresh, taps are rejected.
 852:Drivers/MPU6050/inv_mpu_dmp_motion_driver.c ****  *  @param[in]  sf      Gyro scale factor.
 853:Drivers/MPU6050/inv_mpu_dmp_motion_driver.c ****  *  @param[in]  thresh  Gyro threshold in dps.
 854:Drivers/MPU6050/inv_mpu_dmp_motion_driver.c ****  *  @return     0 if successful.
 855:Drivers/MPU6050/inv_mpu_dmp_motion_driver.c ****  */
 856:Drivers/MPU6050/inv_mpu_dmp_motion_driver.c **** int dmp_set_shake_reject_thresh(long sf, unsigned short thresh)
 857:Drivers/MPU6050/inv_mpu_dmp_motion_driver.c **** {
 858:Drivers/MPU6050/inv_mpu_dmp_motion_driver.c ****     unsigned char tmp[4];
 859:Drivers/MPU6050/inv_mpu_dmp_motion_driver.c ****     long thresh_scaled = sf / 1000 * thresh;
 860:Drivers/MPU6050/inv_mpu_dmp_motion_driver.c ****     tmp[0] = (unsigned char)(((long)thresh_scaled >> 24) & 0xFF);
 861:Drivers/MPU6050/inv_mpu_dmp_motion_driver.c ****     tmp[1] = (unsigned char)(((long)thresh_scaled >> 16) & 0xFF);
 862:Drivers/MPU6050/inv_mpu_dmp_motion_driver.c ****     tmp[2] = (unsigned char)(((long)thresh_scaled >> 8) & 0xFF);
 863:Drivers/MPU6050/inv_mpu_dmp_motion_driver.c ****     tmp[3] = (unsigned char)((long)thresh_scaled & 0xFF);
 864:Drivers/MPU6050/inv_mpu_dmp_motion_driver.c ****     return mpu_write_mem(D_1_92, 4, tmp);
 865:Drivers/MPU6050/inv_mpu_dmp_motion_driver.c **** }
 866:Drivers/MPU6050/inv_mpu_dmp_motion_driver.c **** 
 867:Drivers/MPU6050/inv_mpu_dmp_motion_driver.c **** /**
 868:Drivers/MPU6050/inv_mpu_dmp_motion_driver.c ****  *  @brief      Set shake rejection time.
 869:Drivers/MPU6050/inv_mpu_dmp_motion_driver.c ****  *  Sets the length of time that the gyro must be outside of the threshold set
 870:Drivers/MPU6050/inv_mpu_dmp_motion_driver.c ****  *  by @e gyro_set_shake_reject_thresh before taps are rejected. A mandatory
 871:Drivers/MPU6050/inv_mpu_dmp_motion_driver.c ****  *  60 ms is added to this parameter.
 872:Drivers/MPU6050/inv_mpu_dmp_motion_driver.c ****  *  @param[in]  time    Time in milliseconds.
 873:Drivers/MPU6050/inv_mpu_dmp_motion_driver.c ****  *  @return     0 if successful.
 874:Drivers/MPU6050/inv_mpu_dmp_motion_driver.c ****  */
 875:Drivers/MPU6050/inv_mpu_dmp_motion_driver.c **** int dmp_set_shake_reject_time(unsigned short time)
 876:Drivers/MPU6050/inv_mpu_dmp_motion_driver.c **** {
 877:Drivers/MPU6050/inv_mpu_dmp_motion_driver.c ****     unsigned char tmp[2];
 878:Drivers/MPU6050/inv_mpu_dmp_motion_driver.c **** 
 879:Drivers/MPU6050/inv_mpu_dmp_motion_driver.c ****     time /= (1000 / DMP_SAMPLE_RATE);
 880:Drivers/MPU6050/inv_mpu_dmp_motion_driver.c ****     tmp[0] = time >> 8;
 881:Drivers/MPU6050/inv_mpu_dmp_motion_driver.c ****     tmp[1] = time & 0xFF;
 882:Drivers/MPU6050/inv_mpu_dmp_motion_driver.c ****     return mpu_write_mem(D_1_90,2,tmp);
 883:Drivers/MPU6050/inv_mpu_dmp_motion_driver.c **** }
 884:Drivers/MPU6050/inv_mpu_dmp_motion_driver.c **** 
 885:Drivers/MPU6050/inv_mpu_dmp_motion_driver.c **** /**
ARM GAS  F:\msys64\tmp\ccoK2euk.s 			page 17


 886:Drivers/MPU6050/inv_mpu_dmp_motion_driver.c ****  *  @brief      Set shake rejection timeout.
 887:Drivers/MPU6050/inv_mpu_dmp_motion_driver.c ****  *  Sets the length of time after a shake rejection that the gyro must stay
 888:Drivers/MPU6050/inv_mpu_dmp_motion_driver.c ****  *  inside of the threshold before taps can be detected again. A mandatory
 889:Drivers/MPU6050/inv_mpu_dmp_motion_driver.c ****  *  60 ms is added to this parameter.
 890:Drivers/MPU6050/inv_mpu_dmp_motion_driver.c ****  *  @param[in]  time    Time in milliseconds.
 891:Drivers/MPU6050/inv_mpu_dmp_motion_driver.c ****  *  @return     0 if successful.
 892:Drivers/MPU6050/inv_mpu_dmp_motion_driver.c ****  */
 893:Drivers/MPU6050/inv_mpu_dmp_motion_driver.c **** int dmp_set_shake_reject_timeout(unsigned short time)
 894:Drivers/MPU6050/inv_mpu_dmp_motion_driver.c **** {
 895:Drivers/MPU6050/inv_mpu_dmp_motion_driver.c ****     unsigned char tmp[2];
 896:Drivers/MPU6050/inv_mpu_dmp_motion_driver.c **** 
 897:Drivers/MPU6050/inv_mpu_dmp_motion_driver.c ****     time /= (1000 / DMP_SAMPLE_RATE);
 898:Drivers/MPU6050/inv_mpu_dmp_motion_driver.c ****     tmp[0] = time >> 8;
 899:Drivers/MPU6050/inv_mpu_dmp_motion_driver.c ****     tmp[1] = time & 0xFF;
 900:Drivers/MPU6050/inv_mpu_dmp_motion_driver.c ****     return mpu_write_mem(D_1_88,2,tmp);
 901:Drivers/MPU6050/inv_mpu_dmp_motion_driver.c **** }
 902:Drivers/MPU6050/inv_mpu_dmp_motion_driver.c **** 
 903:Drivers/MPU6050/inv_mpu_dmp_motion_driver.c **** /**
 904:Drivers/MPU6050/inv_mpu_dmp_motion_driver.c ****  *  @brief      Get current step count.
 905:Drivers/MPU6050/inv_mpu_dmp_motion_driver.c ****  *  @param[out] count   Number of steps detected.
 906:Drivers/MPU6050/inv_mpu_dmp_motion_driver.c ****  *  @return     0 if successful.
 907:Drivers/MPU6050/inv_mpu_dmp_motion_driver.c ****  */
 908:Drivers/MPU6050/inv_mpu_dmp_motion_driver.c **** int dmp_get_pedometer_step_count(unsigned long *count)
 909:Drivers/MPU6050/inv_mpu_dmp_motion_driver.c **** {
 910:Drivers/MPU6050/inv_mpu_dmp_motion_driver.c ****     unsigned char tmp[4];
 911:Drivers/MPU6050/inv_mpu_dmp_motion_driver.c ****     if (!count)
 912:Drivers/MPU6050/inv_mpu_dmp_motion_driver.c ****         return -1;
 913:Drivers/MPU6050/inv_mpu_dmp_motion_driver.c **** 
 914:Drivers/MPU6050/inv_mpu_dmp_motion_driver.c ****     if (mpu_read_mem(D_PEDSTD_STEPCTR, 4, tmp))
 915:Drivers/MPU6050/inv_mpu_dmp_motion_driver.c ****         return -1;
 916:Drivers/MPU6050/inv_mpu_dmp_motion_driver.c **** 
 917:Drivers/MPU6050/inv_mpu_dmp_motion_driver.c ****     count[0] = ((unsigned long)tmp[0] << 24) | ((unsigned long)tmp[1] << 16) |
 918:Drivers/MPU6050/inv_mpu_dmp_motion_driver.c ****         ((unsigned long)tmp[2] << 8) | tmp[3];
 919:Drivers/MPU6050/inv_mpu_dmp_motion_driver.c ****     return 0;
 920:Drivers/MPU6050/inv_mpu_dmp_motion_driver.c **** }
 921:Drivers/MPU6050/inv_mpu_dmp_motion_driver.c **** 
 922:Drivers/MPU6050/inv_mpu_dmp_motion_driver.c **** /**
 923:Drivers/MPU6050/inv_mpu_dmp_motion_driver.c ****  *  @brief      Overwrite current step count.
 924:Drivers/MPU6050/inv_mpu_dmp_motion_driver.c ****  *  WARNING: This function writes to DMP memory and could potentially encounter
 925:Drivers/MPU6050/inv_mpu_dmp_motion_driver.c ****  *  a race condition if called while the pedometer is enabled.
 926:Drivers/MPU6050/inv_mpu_dmp_motion_driver.c ****  *  @param[in]  count   New step count.
 927:Drivers/MPU6050/inv_mpu_dmp_motion_driver.c ****  *  @return     0 if successful.
 928:Drivers/MPU6050/inv_mpu_dmp_motion_driver.c ****  */
 929:Drivers/MPU6050/inv_mpu_dmp_motion_driver.c **** int dmp_set_pedometer_step_count(unsigned long count)
 930:Drivers/MPU6050/inv_mpu_dmp_motion_driver.c **** {
 931:Drivers/MPU6050/inv_mpu_dmp_motion_driver.c ****     unsigned char tmp[4];
 932:Drivers/MPU6050/inv_mpu_dmp_motion_driver.c **** 
 933:Drivers/MPU6050/inv_mpu_dmp_motion_driver.c ****     tmp[0] = (unsigned char)((count >> 24) & 0xFF);
 934:Drivers/MPU6050/inv_mpu_dmp_motion_driver.c ****     tmp[1] = (unsigned char)((count >> 16) & 0xFF);
 935:Drivers/MPU6050/inv_mpu_dmp_motion_driver.c ****     tmp[2] = (unsigned char)((count >> 8) & 0xFF);
 936:Drivers/MPU6050/inv_mpu_dmp_motion_driver.c ****     tmp[3] = (unsigned char)(count & 0xFF);
 937:Drivers/MPU6050/inv_mpu_dmp_motion_driver.c ****     return mpu_write_mem(D_PEDSTD_STEPCTR, 4, tmp);
 938:Drivers/MPU6050/inv_mpu_dmp_motion_driver.c **** }
 939:Drivers/MPU6050/inv_mpu_dmp_motion_driver.c **** 
 940:Drivers/MPU6050/inv_mpu_dmp_motion_driver.c **** /**
 941:Drivers/MPU6050/inv_mpu_dmp_motion_driver.c ****  *  @brief      Get duration of walking time.
 942:Drivers/MPU6050/inv_mpu_dmp_motion_driver.c ****  *  @param[in]  time    Walk time in milliseconds.
ARM GAS  F:\msys64\tmp\ccoK2euk.s 			page 18


 943:Drivers/MPU6050/inv_mpu_dmp_motion_driver.c ****  *  @return     0 if successful.
 944:Drivers/MPU6050/inv_mpu_dmp_motion_driver.c ****  */
 945:Drivers/MPU6050/inv_mpu_dmp_motion_driver.c **** int dmp_get_pedometer_walk_time(unsigned long *time)
 946:Drivers/MPU6050/inv_mpu_dmp_motion_driver.c **** {
 947:Drivers/MPU6050/inv_mpu_dmp_motion_driver.c ****     unsigned char tmp[4];
 948:Drivers/MPU6050/inv_mpu_dmp_motion_driver.c ****     if (!time)
 949:Drivers/MPU6050/inv_mpu_dmp_motion_driver.c ****         return -1;
 950:Drivers/MPU6050/inv_mpu_dmp_motion_driver.c **** 
 951:Drivers/MPU6050/inv_mpu_dmp_motion_driver.c ****     if (mpu_read_mem(D_PEDSTD_TIMECTR, 4, tmp))
 952:Drivers/MPU6050/inv_mpu_dmp_motion_driver.c ****         return -1;
 953:Drivers/MPU6050/inv_mpu_dmp_motion_driver.c **** 
 954:Drivers/MPU6050/inv_mpu_dmp_motion_driver.c ****     time[0] = (((unsigned long)tmp[0] << 24) | ((unsigned long)tmp[1] << 16) |
 955:Drivers/MPU6050/inv_mpu_dmp_motion_driver.c ****         ((unsigned long)tmp[2] << 8) | tmp[3]) * 20;
 956:Drivers/MPU6050/inv_mpu_dmp_motion_driver.c ****     return 0;
 957:Drivers/MPU6050/inv_mpu_dmp_motion_driver.c **** }
 958:Drivers/MPU6050/inv_mpu_dmp_motion_driver.c **** 
 959:Drivers/MPU6050/inv_mpu_dmp_motion_driver.c **** /**
 960:Drivers/MPU6050/inv_mpu_dmp_motion_driver.c ****  *  @brief      Overwrite current walk time.
 961:Drivers/MPU6050/inv_mpu_dmp_motion_driver.c ****  *  WARNING: This function writes to DMP memory and could potentially encounter
 962:Drivers/MPU6050/inv_mpu_dmp_motion_driver.c ****  *  a race condition if called while the pedometer is enabled.
 963:Drivers/MPU6050/inv_mpu_dmp_motion_driver.c ****  *  @param[in]  time    New walk time in milliseconds.
 964:Drivers/MPU6050/inv_mpu_dmp_motion_driver.c ****  */
 965:Drivers/MPU6050/inv_mpu_dmp_motion_driver.c **** int dmp_set_pedometer_walk_time(unsigned long time)
 966:Drivers/MPU6050/inv_mpu_dmp_motion_driver.c **** {
 967:Drivers/MPU6050/inv_mpu_dmp_motion_driver.c ****     unsigned char tmp[4];
 968:Drivers/MPU6050/inv_mpu_dmp_motion_driver.c **** 
 969:Drivers/MPU6050/inv_mpu_dmp_motion_driver.c ****     time /= 20;
 970:Drivers/MPU6050/inv_mpu_dmp_motion_driver.c **** 
 971:Drivers/MPU6050/inv_mpu_dmp_motion_driver.c ****     tmp[0] = (unsigned char)((time >> 24) & 0xFF);
 972:Drivers/MPU6050/inv_mpu_dmp_motion_driver.c ****     tmp[1] = (unsigned char)((time >> 16) & 0xFF);
 973:Drivers/MPU6050/inv_mpu_dmp_motion_driver.c ****     tmp[2] = (unsigned char)((time >> 8) & 0xFF);
 974:Drivers/MPU6050/inv_mpu_dmp_motion_driver.c ****     tmp[3] = (unsigned char)(time & 0xFF);
 975:Drivers/MPU6050/inv_mpu_dmp_motion_driver.c ****     return mpu_write_mem(D_PEDSTD_TIMECTR, 4, tmp);
 976:Drivers/MPU6050/inv_mpu_dmp_motion_driver.c **** }
 977:Drivers/MPU6050/inv_mpu_dmp_motion_driver.c **** 
 978:Drivers/MPU6050/inv_mpu_dmp_motion_driver.c **** /**
 979:Drivers/MPU6050/inv_mpu_dmp_motion_driver.c ****  *  @brief      Enable DMP features.
 980:Drivers/MPU6050/inv_mpu_dmp_motion_driver.c ****  *  The following \#define's are used in the input mask:
 981:Drivers/MPU6050/inv_mpu_dmp_motion_driver.c ****  *  \n DMP_FEATURE_TAP
 982:Drivers/MPU6050/inv_mpu_dmp_motion_driver.c ****  *  \n DMP_FEATURE_ANDROID_ORIENT
 983:Drivers/MPU6050/inv_mpu_dmp_motion_driver.c ****  *  \n DMP_FEATURE_LP_QUAT
 984:Drivers/MPU6050/inv_mpu_dmp_motion_driver.c ****  *  \n DMP_FEATURE_6X_LP_QUAT
 985:Drivers/MPU6050/inv_mpu_dmp_motion_driver.c ****  *  \n DMP_FEATURE_GYRO_CAL
 986:Drivers/MPU6050/inv_mpu_dmp_motion_driver.c ****  *  \n DMP_FEATURE_SEND_RAW_ACCEL
 987:Drivers/MPU6050/inv_mpu_dmp_motion_driver.c ****  *  \n DMP_FEATURE_SEND_RAW_GYRO
 988:Drivers/MPU6050/inv_mpu_dmp_motion_driver.c ****  *  \n NOTE: DMP_FEATURE_LP_QUAT and DMP_FEATURE_6X_LP_QUAT are mutually
 989:Drivers/MPU6050/inv_mpu_dmp_motion_driver.c ****  *  exclusive.
 990:Drivers/MPU6050/inv_mpu_dmp_motion_driver.c ****  *  \n NOTE: DMP_FEATURE_SEND_RAW_GYRO and DMP_FEATURE_SEND_CAL_GYRO are also
 991:Drivers/MPU6050/inv_mpu_dmp_motion_driver.c ****  *  mutually exclusive.
 992:Drivers/MPU6050/inv_mpu_dmp_motion_driver.c ****  *  @param[in]  mask    Mask of features to enable.
 993:Drivers/MPU6050/inv_mpu_dmp_motion_driver.c ****  *  @return     0 if successful.
 994:Drivers/MPU6050/inv_mpu_dmp_motion_driver.c ****  */
 995:Drivers/MPU6050/inv_mpu_dmp_motion_driver.c **** int dmp_enable_feature(unsigned short mask)
 996:Drivers/MPU6050/inv_mpu_dmp_motion_driver.c **** {
 997:Drivers/MPU6050/inv_mpu_dmp_motion_driver.c ****     unsigned char tmp[10];
 998:Drivers/MPU6050/inv_mpu_dmp_motion_driver.c **** 
 999:Drivers/MPU6050/inv_mpu_dmp_motion_driver.c ****     /* TODO: All of these settings can probably be integrated into the default
ARM GAS  F:\msys64\tmp\ccoK2euk.s 			page 19


1000:Drivers/MPU6050/inv_mpu_dmp_motion_driver.c ****      * DMP image.
1001:Drivers/MPU6050/inv_mpu_dmp_motion_driver.c ****      */
1002:Drivers/MPU6050/inv_mpu_dmp_motion_driver.c ****     /* Set integration scale factor. */
1003:Drivers/MPU6050/inv_mpu_dmp_motion_driver.c ****     tmp[0] = (unsigned char)((GYRO_SF >> 24) & 0xFF);
1004:Drivers/MPU6050/inv_mpu_dmp_motion_driver.c ****     tmp[1] = (unsigned char)((GYRO_SF >> 16) & 0xFF);
1005:Drivers/MPU6050/inv_mpu_dmp_motion_driver.c ****     tmp[2] = (unsigned char)((GYRO_SF >> 8) & 0xFF);
1006:Drivers/MPU6050/inv_mpu_dmp_motion_driver.c ****     tmp[3] = (unsigned char)(GYRO_SF & 0xFF);
1007:Drivers/MPU6050/inv_mpu_dmp_motion_driver.c ****     mpu_write_mem(D_0_104, 4, tmp);
1008:Drivers/MPU6050/inv_mpu_dmp_motion_driver.c **** 
1009:Drivers/MPU6050/inv_mpu_dmp_motion_driver.c ****     /* Send sensor data to the FIFO. */
1010:Drivers/MPU6050/inv_mpu_dmp_motion_driver.c ****     tmp[0] = 0xA3;
1011:Drivers/MPU6050/inv_mpu_dmp_motion_driver.c ****     if (mask & DMP_FEATURE_SEND_RAW_ACCEL) {
1012:Drivers/MPU6050/inv_mpu_dmp_motion_driver.c ****         tmp[1] = 0xC0;
1013:Drivers/MPU6050/inv_mpu_dmp_motion_driver.c ****         tmp[2] = 0xC8;
1014:Drivers/MPU6050/inv_mpu_dmp_motion_driver.c ****         tmp[3] = 0xC2;
1015:Drivers/MPU6050/inv_mpu_dmp_motion_driver.c ****     } else {
1016:Drivers/MPU6050/inv_mpu_dmp_motion_driver.c ****         tmp[1] = 0xA3;
1017:Drivers/MPU6050/inv_mpu_dmp_motion_driver.c ****         tmp[2] = 0xA3;
1018:Drivers/MPU6050/inv_mpu_dmp_motion_driver.c ****         tmp[3] = 0xA3;
1019:Drivers/MPU6050/inv_mpu_dmp_motion_driver.c ****     }
1020:Drivers/MPU6050/inv_mpu_dmp_motion_driver.c ****     if (mask & DMP_FEATURE_SEND_ANY_GYRO) {
1021:Drivers/MPU6050/inv_mpu_dmp_motion_driver.c ****         tmp[4] = 0xC4;
1022:Drivers/MPU6050/inv_mpu_dmp_motion_driver.c ****         tmp[5] = 0xCC;
1023:Drivers/MPU6050/inv_mpu_dmp_motion_driver.c ****         tmp[6] = 0xC6;
1024:Drivers/MPU6050/inv_mpu_dmp_motion_driver.c ****     } else {
1025:Drivers/MPU6050/inv_mpu_dmp_motion_driver.c ****         tmp[4] = 0xA3;
1026:Drivers/MPU6050/inv_mpu_dmp_motion_driver.c ****         tmp[5] = 0xA3;
1027:Drivers/MPU6050/inv_mpu_dmp_motion_driver.c ****         tmp[6] = 0xA3;
1028:Drivers/MPU6050/inv_mpu_dmp_motion_driver.c ****     }
1029:Drivers/MPU6050/inv_mpu_dmp_motion_driver.c ****     tmp[7] = 0xA3;
1030:Drivers/MPU6050/inv_mpu_dmp_motion_driver.c ****     tmp[8] = 0xA3;
1031:Drivers/MPU6050/inv_mpu_dmp_motion_driver.c ****     tmp[9] = 0xA3;
1032:Drivers/MPU6050/inv_mpu_dmp_motion_driver.c ****     mpu_write_mem(CFG_15,10,tmp);
1033:Drivers/MPU6050/inv_mpu_dmp_motion_driver.c **** 
1034:Drivers/MPU6050/inv_mpu_dmp_motion_driver.c ****     /* Send gesture data to the FIFO. */
1035:Drivers/MPU6050/inv_mpu_dmp_motion_driver.c ****     if (mask & (DMP_FEATURE_TAP | DMP_FEATURE_ANDROID_ORIENT))
1036:Drivers/MPU6050/inv_mpu_dmp_motion_driver.c ****         tmp[0] = DINA20;
1037:Drivers/MPU6050/inv_mpu_dmp_motion_driver.c ****     else
1038:Drivers/MPU6050/inv_mpu_dmp_motion_driver.c ****         tmp[0] = 0xD8;
1039:Drivers/MPU6050/inv_mpu_dmp_motion_driver.c ****     mpu_write_mem(CFG_27,1,tmp);
1040:Drivers/MPU6050/inv_mpu_dmp_motion_driver.c **** 
1041:Drivers/MPU6050/inv_mpu_dmp_motion_driver.c ****     if (mask & DMP_FEATURE_GYRO_CAL)
1042:Drivers/MPU6050/inv_mpu_dmp_motion_driver.c ****         dmp_enable_gyro_cal(1);
1043:Drivers/MPU6050/inv_mpu_dmp_motion_driver.c ****     else
1044:Drivers/MPU6050/inv_mpu_dmp_motion_driver.c ****         dmp_enable_gyro_cal(0);
1045:Drivers/MPU6050/inv_mpu_dmp_motion_driver.c **** 
1046:Drivers/MPU6050/inv_mpu_dmp_motion_driver.c ****     if (mask & DMP_FEATURE_SEND_ANY_GYRO) {
1047:Drivers/MPU6050/inv_mpu_dmp_motion_driver.c ****         if (mask & DMP_FEATURE_SEND_CAL_GYRO) {
1048:Drivers/MPU6050/inv_mpu_dmp_motion_driver.c ****             tmp[0] = 0xB2;
1049:Drivers/MPU6050/inv_mpu_dmp_motion_driver.c ****             tmp[1] = 0x8B;
1050:Drivers/MPU6050/inv_mpu_dmp_motion_driver.c ****             tmp[2] = 0xB6;
1051:Drivers/MPU6050/inv_mpu_dmp_motion_driver.c ****             tmp[3] = 0x9B;
1052:Drivers/MPU6050/inv_mpu_dmp_motion_driver.c ****         } else {
1053:Drivers/MPU6050/inv_mpu_dmp_motion_driver.c ****             tmp[0] = DINAC0;
1054:Drivers/MPU6050/inv_mpu_dmp_motion_driver.c ****             tmp[1] = DINA80;
1055:Drivers/MPU6050/inv_mpu_dmp_motion_driver.c ****             tmp[2] = DINAC2;
1056:Drivers/MPU6050/inv_mpu_dmp_motion_driver.c ****             tmp[3] = DINA90;
ARM GAS  F:\msys64\tmp\ccoK2euk.s 			page 20


1057:Drivers/MPU6050/inv_mpu_dmp_motion_driver.c ****         }
1058:Drivers/MPU6050/inv_mpu_dmp_motion_driver.c ****         mpu_write_mem(CFG_GYRO_RAW_DATA, 4, tmp);
1059:Drivers/MPU6050/inv_mpu_dmp_motion_driver.c ****     }
1060:Drivers/MPU6050/inv_mpu_dmp_motion_driver.c **** 
1061:Drivers/MPU6050/inv_mpu_dmp_motion_driver.c ****     if (mask & DMP_FEATURE_TAP) {
1062:Drivers/MPU6050/inv_mpu_dmp_motion_driver.c ****         /* Enable tap. */
1063:Drivers/MPU6050/inv_mpu_dmp_motion_driver.c ****         tmp[0] = 0xF8;
1064:Drivers/MPU6050/inv_mpu_dmp_motion_driver.c ****         mpu_write_mem(CFG_20, 1, tmp);
1065:Drivers/MPU6050/inv_mpu_dmp_motion_driver.c ****         dmp_set_tap_thresh(TAP_XYZ, 250);
1066:Drivers/MPU6050/inv_mpu_dmp_motion_driver.c ****         dmp_set_tap_axes(TAP_XYZ);
1067:Drivers/MPU6050/inv_mpu_dmp_motion_driver.c ****         dmp_set_tap_count(1);
1068:Drivers/MPU6050/inv_mpu_dmp_motion_driver.c ****         dmp_set_tap_time(100);
1069:Drivers/MPU6050/inv_mpu_dmp_motion_driver.c ****         dmp_set_tap_time_multi(500);
1070:Drivers/MPU6050/inv_mpu_dmp_motion_driver.c **** 
1071:Drivers/MPU6050/inv_mpu_dmp_motion_driver.c ****         dmp_set_shake_reject_thresh(GYRO_SF, 200);
1072:Drivers/MPU6050/inv_mpu_dmp_motion_driver.c ****         dmp_set_shake_reject_time(40);
1073:Drivers/MPU6050/inv_mpu_dmp_motion_driver.c ****         dmp_set_shake_reject_timeout(10);
1074:Drivers/MPU6050/inv_mpu_dmp_motion_driver.c ****     } else {
1075:Drivers/MPU6050/inv_mpu_dmp_motion_driver.c ****         tmp[0] = 0xD8;
1076:Drivers/MPU6050/inv_mpu_dmp_motion_driver.c ****         mpu_write_mem(CFG_20, 1, tmp);
1077:Drivers/MPU6050/inv_mpu_dmp_motion_driver.c ****     }
1078:Drivers/MPU6050/inv_mpu_dmp_motion_driver.c **** 
1079:Drivers/MPU6050/inv_mpu_dmp_motion_driver.c ****     if (mask & DMP_FEATURE_ANDROID_ORIENT) {
1080:Drivers/MPU6050/inv_mpu_dmp_motion_driver.c ****         tmp[0] = 0xD9;
1081:Drivers/MPU6050/inv_mpu_dmp_motion_driver.c ****     } else
1082:Drivers/MPU6050/inv_mpu_dmp_motion_driver.c ****         tmp[0] = 0xD8;
1083:Drivers/MPU6050/inv_mpu_dmp_motion_driver.c ****     mpu_write_mem(CFG_ANDROID_ORIENT_INT, 1, tmp);
1084:Drivers/MPU6050/inv_mpu_dmp_motion_driver.c **** 
1085:Drivers/MPU6050/inv_mpu_dmp_motion_driver.c ****     if (mask & DMP_FEATURE_LP_QUAT)
1086:Drivers/MPU6050/inv_mpu_dmp_motion_driver.c ****         dmp_enable_lp_quat(1);
1087:Drivers/MPU6050/inv_mpu_dmp_motion_driver.c ****     else
1088:Drivers/MPU6050/inv_mpu_dmp_motion_driver.c ****         dmp_enable_lp_quat(0);
1089:Drivers/MPU6050/inv_mpu_dmp_motion_driver.c **** 
1090:Drivers/MPU6050/inv_mpu_dmp_motion_driver.c ****     if (mask & DMP_FEATURE_6X_LP_QUAT)
1091:Drivers/MPU6050/inv_mpu_dmp_motion_driver.c ****         dmp_enable_6x_lp_quat(1);
1092:Drivers/MPU6050/inv_mpu_dmp_motion_driver.c ****     else
1093:Drivers/MPU6050/inv_mpu_dmp_motion_driver.c ****         dmp_enable_6x_lp_quat(0);
1094:Drivers/MPU6050/inv_mpu_dmp_motion_driver.c **** 
1095:Drivers/MPU6050/inv_mpu_dmp_motion_driver.c ****     /* Pedometer is always enabled. */
1096:Drivers/MPU6050/inv_mpu_dmp_motion_driver.c ****     dmp.feature_mask = mask | DMP_FEATURE_PEDOMETER;
1097:Drivers/MPU6050/inv_mpu_dmp_motion_driver.c ****     mpu_reset_fifo();
1098:Drivers/MPU6050/inv_mpu_dmp_motion_driver.c **** 
1099:Drivers/MPU6050/inv_mpu_dmp_motion_driver.c ****     dmp.packet_length = 0;
1100:Drivers/MPU6050/inv_mpu_dmp_motion_driver.c ****     if (mask & DMP_FEATURE_SEND_RAW_ACCEL)
1101:Drivers/MPU6050/inv_mpu_dmp_motion_driver.c ****         dmp.packet_length += 6;
1102:Drivers/MPU6050/inv_mpu_dmp_motion_driver.c ****     if (mask & DMP_FEATURE_SEND_ANY_GYRO)
1103:Drivers/MPU6050/inv_mpu_dmp_motion_driver.c ****         dmp.packet_length += 6;
1104:Drivers/MPU6050/inv_mpu_dmp_motion_driver.c ****     if (mask & (DMP_FEATURE_LP_QUAT | DMP_FEATURE_6X_LP_QUAT))
1105:Drivers/MPU6050/inv_mpu_dmp_motion_driver.c ****         dmp.packet_length += 16;
1106:Drivers/MPU6050/inv_mpu_dmp_motion_driver.c ****     if (mask & (DMP_FEATURE_TAP | DMP_FEATURE_ANDROID_ORIENT))
1107:Drivers/MPU6050/inv_mpu_dmp_motion_driver.c ****         dmp.packet_length += 4;
1108:Drivers/MPU6050/inv_mpu_dmp_motion_driver.c **** 
1109:Drivers/MPU6050/inv_mpu_dmp_motion_driver.c ****     return 0;
1110:Drivers/MPU6050/inv_mpu_dmp_motion_driver.c **** }
1111:Drivers/MPU6050/inv_mpu_dmp_motion_driver.c **** 
1112:Drivers/MPU6050/inv_mpu_dmp_motion_driver.c **** /**
1113:Drivers/MPU6050/inv_mpu_dmp_motion_driver.c ****  *  @brief      Get list of currently enabled DMP features.
ARM GAS  F:\msys64\tmp\ccoK2euk.s 			page 21


1114:Drivers/MPU6050/inv_mpu_dmp_motion_driver.c ****  *  @param[out] Mask of enabled features.
1115:Drivers/MPU6050/inv_mpu_dmp_motion_driver.c ****  *  @return     0 if successful.
1116:Drivers/MPU6050/inv_mpu_dmp_motion_driver.c ****  */
1117:Drivers/MPU6050/inv_mpu_dmp_motion_driver.c **** int dmp_get_enabled_features(unsigned short *mask)
1118:Drivers/MPU6050/inv_mpu_dmp_motion_driver.c **** {
1119:Drivers/MPU6050/inv_mpu_dmp_motion_driver.c ****     mask[0] = dmp.feature_mask;
1120:Drivers/MPU6050/inv_mpu_dmp_motion_driver.c ****     return 0;
1121:Drivers/MPU6050/inv_mpu_dmp_motion_driver.c **** }
1122:Drivers/MPU6050/inv_mpu_dmp_motion_driver.c **** 
1123:Drivers/MPU6050/inv_mpu_dmp_motion_driver.c **** /**
1124:Drivers/MPU6050/inv_mpu_dmp_motion_driver.c ****  *  @brief      Calibrate the gyro data in the DMP.
1125:Drivers/MPU6050/inv_mpu_dmp_motion_driver.c ****  *  After eight seconds of no motion, the DMP will compute gyro biases and
1126:Drivers/MPU6050/inv_mpu_dmp_motion_driver.c ****  *  subtract them from the quaternion output. If @e dmp_enable_feature is
1127:Drivers/MPU6050/inv_mpu_dmp_motion_driver.c ****  *  called with @e DMP_FEATURE_SEND_CAL_GYRO, the biases will also be
1128:Drivers/MPU6050/inv_mpu_dmp_motion_driver.c ****  *  subtracted from the gyro output.
1129:Drivers/MPU6050/inv_mpu_dmp_motion_driver.c ****  *  @param[in]  enable  1 to enable gyro calibration.
1130:Drivers/MPU6050/inv_mpu_dmp_motion_driver.c ****  *  @return     0 if successful.
1131:Drivers/MPU6050/inv_mpu_dmp_motion_driver.c ****  */
1132:Drivers/MPU6050/inv_mpu_dmp_motion_driver.c **** int dmp_enable_gyro_cal(unsigned char enable)
1133:Drivers/MPU6050/inv_mpu_dmp_motion_driver.c **** {
1134:Drivers/MPU6050/inv_mpu_dmp_motion_driver.c ****     if (enable) {
1135:Drivers/MPU6050/inv_mpu_dmp_motion_driver.c ****         unsigned char regs[9] = {0xb8, 0xaa, 0xb3, 0x8d, 0xb4, 0x98, 0x0d, 0x35, 0x5d};
1136:Drivers/MPU6050/inv_mpu_dmp_motion_driver.c ****         return mpu_write_mem(CFG_MOTION_BIAS, 9, regs);
1137:Drivers/MPU6050/inv_mpu_dmp_motion_driver.c ****     } else {
1138:Drivers/MPU6050/inv_mpu_dmp_motion_driver.c ****         unsigned char regs[9] = {0xb8, 0xaa, 0xaa, 0xaa, 0xb0, 0x88, 0xc3, 0xc5, 0xc7};
1139:Drivers/MPU6050/inv_mpu_dmp_motion_driver.c ****         return mpu_write_mem(CFG_MOTION_BIAS, 9, regs);
1140:Drivers/MPU6050/inv_mpu_dmp_motion_driver.c ****     }
1141:Drivers/MPU6050/inv_mpu_dmp_motion_driver.c **** }
1142:Drivers/MPU6050/inv_mpu_dmp_motion_driver.c **** 
1143:Drivers/MPU6050/inv_mpu_dmp_motion_driver.c **** /**
1144:Drivers/MPU6050/inv_mpu_dmp_motion_driver.c ****  *  @brief      Generate 3-axis quaternions from the DMP.
1145:Drivers/MPU6050/inv_mpu_dmp_motion_driver.c ****  *  In this driver, the 3-axis and 6-axis DMP quaternion features are mutually
1146:Drivers/MPU6050/inv_mpu_dmp_motion_driver.c ****  *  exclusive.
1147:Drivers/MPU6050/inv_mpu_dmp_motion_driver.c ****  *  @param[in]  enable  1 to enable 3-axis quaternion.
1148:Drivers/MPU6050/inv_mpu_dmp_motion_driver.c ****  *  @return     0 if successful.
1149:Drivers/MPU6050/inv_mpu_dmp_motion_driver.c ****  */
1150:Drivers/MPU6050/inv_mpu_dmp_motion_driver.c **** int dmp_enable_lp_quat(unsigned char enable)
1151:Drivers/MPU6050/inv_mpu_dmp_motion_driver.c **** {
1152:Drivers/MPU6050/inv_mpu_dmp_motion_driver.c ****     unsigned char regs[4];
1153:Drivers/MPU6050/inv_mpu_dmp_motion_driver.c ****     if (enable) {
1154:Drivers/MPU6050/inv_mpu_dmp_motion_driver.c ****         regs[0] = DINBC0;
1155:Drivers/MPU6050/inv_mpu_dmp_motion_driver.c ****         regs[1] = DINBC2;
1156:Drivers/MPU6050/inv_mpu_dmp_motion_driver.c ****         regs[2] = DINBC4;
1157:Drivers/MPU6050/inv_mpu_dmp_motion_driver.c ****         regs[3] = DINBC6;
1158:Drivers/MPU6050/inv_mpu_dmp_motion_driver.c ****     }
1159:Drivers/MPU6050/inv_mpu_dmp_motion_driver.c ****     else
1160:Drivers/MPU6050/inv_mpu_dmp_motion_driver.c ****         memset(regs, 0x8B, 4);
1161:Drivers/MPU6050/inv_mpu_dmp_motion_driver.c **** 
1162:Drivers/MPU6050/inv_mpu_dmp_motion_driver.c ****     mpu_write_mem(CFG_LP_QUAT, 4, regs);
1163:Drivers/MPU6050/inv_mpu_dmp_motion_driver.c **** 
1164:Drivers/MPU6050/inv_mpu_dmp_motion_driver.c ****     return mpu_reset_fifo();
1165:Drivers/MPU6050/inv_mpu_dmp_motion_driver.c **** }
1166:Drivers/MPU6050/inv_mpu_dmp_motion_driver.c **** 
1167:Drivers/MPU6050/inv_mpu_dmp_motion_driver.c **** /**
1168:Drivers/MPU6050/inv_mpu_dmp_motion_driver.c ****  *  @brief       Generate 6-axis quaternions from the DMP.
1169:Drivers/MPU6050/inv_mpu_dmp_motion_driver.c ****  *  In this driver, the 3-axis and 6-axis DMP quaternion features are mutually
1170:Drivers/MPU6050/inv_mpu_dmp_motion_driver.c ****  *  exclusive.
ARM GAS  F:\msys64\tmp\ccoK2euk.s 			page 22


1171:Drivers/MPU6050/inv_mpu_dmp_motion_driver.c ****  *  @param[in]   enable  1 to enable 6-axis quaternion.
1172:Drivers/MPU6050/inv_mpu_dmp_motion_driver.c ****  *  @return      0 if successful.
1173:Drivers/MPU6050/inv_mpu_dmp_motion_driver.c ****  */
1174:Drivers/MPU6050/inv_mpu_dmp_motion_driver.c **** int dmp_enable_6x_lp_quat(unsigned char enable)
1175:Drivers/MPU6050/inv_mpu_dmp_motion_driver.c **** {
1176:Drivers/MPU6050/inv_mpu_dmp_motion_driver.c ****     unsigned char regs[4];
1177:Drivers/MPU6050/inv_mpu_dmp_motion_driver.c ****     if (enable) {
1178:Drivers/MPU6050/inv_mpu_dmp_motion_driver.c ****         regs[0] = DINA20;
1179:Drivers/MPU6050/inv_mpu_dmp_motion_driver.c ****         regs[1] = DINA28;
1180:Drivers/MPU6050/inv_mpu_dmp_motion_driver.c ****         regs[2] = DINA30;
1181:Drivers/MPU6050/inv_mpu_dmp_motion_driver.c ****         regs[3] = DINA38;
1182:Drivers/MPU6050/inv_mpu_dmp_motion_driver.c ****     } else
1183:Drivers/MPU6050/inv_mpu_dmp_motion_driver.c ****         memset(regs, 0xA3, 4);
1184:Drivers/MPU6050/inv_mpu_dmp_motion_driver.c **** 
1185:Drivers/MPU6050/inv_mpu_dmp_motion_driver.c ****     mpu_write_mem(CFG_8, 4, regs);
1186:Drivers/MPU6050/inv_mpu_dmp_motion_driver.c **** 
1187:Drivers/MPU6050/inv_mpu_dmp_motion_driver.c ****     return mpu_reset_fifo();
1188:Drivers/MPU6050/inv_mpu_dmp_motion_driver.c **** }
1189:Drivers/MPU6050/inv_mpu_dmp_motion_driver.c **** 
1190:Drivers/MPU6050/inv_mpu_dmp_motion_driver.c **** /**
1191:Drivers/MPU6050/inv_mpu_dmp_motion_driver.c ****  *  @brief      Decode the four-byte gesture data and execute any callbacks.
1192:Drivers/MPU6050/inv_mpu_dmp_motion_driver.c ****  *  @param[in]  gesture Gesture data from DMP packet.
1193:Drivers/MPU6050/inv_mpu_dmp_motion_driver.c ****  *  @return     0 if successful.
1194:Drivers/MPU6050/inv_mpu_dmp_motion_driver.c ****  */
1195:Drivers/MPU6050/inv_mpu_dmp_motion_driver.c **** static int decode_gesture(unsigned char *gesture)
1196:Drivers/MPU6050/inv_mpu_dmp_motion_driver.c **** {
  29              		.loc 1 1196 1 view -0
  30              		.cfi_startproc
  31              		@ args = 0, pretend = 0, frame = 0
  32              		@ frame_needed = 0, uses_anonymous_args = 0
  33              		.loc 1 1196 1 is_stmt 0 view .LVU1
  34 0000 38B5     		push	{r3, r4, r5, lr}
  35              	.LCFI0:
  36              		.cfi_def_cfa_offset 16
  37              		.cfi_offset 3, -16
  38              		.cfi_offset 4, -12
  39              		.cfi_offset 5, -8
  40              		.cfi_offset 14, -4
  41 0002 0446     		mov	r4, r0
1197:Drivers/MPU6050/inv_mpu_dmp_motion_driver.c ****     unsigned char tap, android_orient;
  42              		.loc 1 1197 5 is_stmt 1 view .LVU2
1198:Drivers/MPU6050/inv_mpu_dmp_motion_driver.c **** 
1199:Drivers/MPU6050/inv_mpu_dmp_motion_driver.c ****     android_orient = gesture[3] & 0xC0;
  43              		.loc 1 1199 5 view .LVU3
  44              		.loc 1 1199 29 is_stmt 0 view .LVU4
  45 0004 C578     		ldrb	r5, [r0, #3]	@ zero_extendqisi2
  46              	.LVL1:
1200:Drivers/MPU6050/inv_mpu_dmp_motion_driver.c ****     tap = 0x3F & gesture[3];
  47              		.loc 1 1200 5 is_stmt 1 view .LVU5
1201:Drivers/MPU6050/inv_mpu_dmp_motion_driver.c **** 
1202:Drivers/MPU6050/inv_mpu_dmp_motion_driver.c ****     if (gesture[1] & INT_SRC_TAP) {
  48              		.loc 1 1202 5 view .LVU6
  49              		.loc 1 1202 16 is_stmt 0 view .LVU7
  50 0006 4378     		ldrb	r3, [r0, #1]	@ zero_extendqisi2
  51              		.loc 1 1202 8 view .LVU8
  52 0008 13F0010F 		tst	r3, #1
  53 000c 09D0     		beq	.L2
ARM GAS  F:\msys64\tmp\ccoK2euk.s 			page 23


  54 000e 05F03F00 		and	r0, r5, #63
  55              	.LVL2:
  56              	.LBB2:
1203:Drivers/MPU6050/inv_mpu_dmp_motion_driver.c ****         unsigned char direction, count;
  57              		.loc 1 1203 9 is_stmt 1 view .LVU9
1204:Drivers/MPU6050/inv_mpu_dmp_motion_driver.c ****         direction = tap >> 3;
  58              		.loc 1 1204 9 view .LVU10
  59              		.loc 1 1204 19 is_stmt 0 view .LVU11
  60 0012 C008     		lsrs	r0, r0, #3
  61              	.LVL3:
1205:Drivers/MPU6050/inv_mpu_dmp_motion_driver.c ****         count = (tap % 8) + 1;
  62              		.loc 1 1205 9 is_stmt 1 view .LVU12
  63              		.loc 1 1205 22 is_stmt 0 view .LVU13
  64 0014 05F00701 		and	r1, r5, #7
  65              		.loc 1 1205 15 view .LVU14
  66 0018 0131     		adds	r1, r1, #1
  67              	.LVL4:
1206:Drivers/MPU6050/inv_mpu_dmp_motion_driver.c ****         if (dmp.tap_cb)
  68              		.loc 1 1206 9 is_stmt 1 view .LVU15
  69              		.loc 1 1206 16 is_stmt 0 view .LVU16
  70 001a 074B     		ldr	r3, .L5
  71 001c 1B68     		ldr	r3, [r3]
  72              		.loc 1 1206 12 view .LVU17
  73 001e 03B1     		cbz	r3, .L2
1207:Drivers/MPU6050/inv_mpu_dmp_motion_driver.c ****             dmp.tap_cb(direction, count);
  74              		.loc 1 1207 13 is_stmt 1 view .LVU18
  75 0020 9847     		blx	r3
  76              	.LVL5:
  77              	.L2:
  78              		.loc 1 1207 13 is_stmt 0 view .LVU19
  79              	.LBE2:
1208:Drivers/MPU6050/inv_mpu_dmp_motion_driver.c ****     }
1209:Drivers/MPU6050/inv_mpu_dmp_motion_driver.c **** 
1210:Drivers/MPU6050/inv_mpu_dmp_motion_driver.c ****     if (gesture[1] & INT_SRC_ANDROID_ORIENT) {
  80              		.loc 1 1210 5 is_stmt 1 view .LVU20
  81              		.loc 1 1210 16 is_stmt 0 view .LVU21
  82 0022 6378     		ldrb	r3, [r4, #1]	@ zero_extendqisi2
  83              		.loc 1 1210 8 view .LVU22
  84 0024 13F0080F 		tst	r3, #8
  85 0028 04D0     		beq	.L3
1211:Drivers/MPU6050/inv_mpu_dmp_motion_driver.c ****         if (dmp.android_orient_cb)
  86              		.loc 1 1211 9 is_stmt 1 view .LVU23
  87              		.loc 1 1211 16 is_stmt 0 view .LVU24
  88 002a 034B     		ldr	r3, .L5
  89 002c 5B68     		ldr	r3, [r3, #4]
  90              		.loc 1 1211 12 view .LVU25
  91 002e 0BB1     		cbz	r3, .L3
1212:Drivers/MPU6050/inv_mpu_dmp_motion_driver.c ****             dmp.android_orient_cb(android_orient >> 6);
  92              		.loc 1 1212 13 is_stmt 1 view .LVU26
  93 0030 A809     		lsrs	r0, r5, #6
  94 0032 9847     		blx	r3
  95              	.LVL6:
  96              	.L3:
1213:Drivers/MPU6050/inv_mpu_dmp_motion_driver.c ****     }
1214:Drivers/MPU6050/inv_mpu_dmp_motion_driver.c **** 
1215:Drivers/MPU6050/inv_mpu_dmp_motion_driver.c ****     return 0;
  97              		.loc 1 1215 5 view .LVU27
ARM GAS  F:\msys64\tmp\ccoK2euk.s 			page 24


1216:Drivers/MPU6050/inv_mpu_dmp_motion_driver.c **** }
  98              		.loc 1 1216 1 is_stmt 0 view .LVU28
  99 0034 0020     		movs	r0, #0
 100 0036 38BD     		pop	{r3, r4, r5, pc}
 101              	.LVL7:
 102              	.L6:
 103              		.loc 1 1216 1 view .LVU29
 104              		.align	2
 105              	.L5:
 106 0038 00000000 		.word	.LANCHOR0
 107              		.cfi_endproc
 108              	.LFE581:
 110              		.section	.text.dmp_load_motion_driver_firmware,"ax",%progbits
 111              		.align	1
 112              		.global	dmp_load_motion_driver_firmware
 113              		.syntax unified
 114              		.thumb
 115              		.thumb_func
 117              	dmp_load_motion_driver_firmware:
 118              	.LFB558:
 511:Drivers/MPU6050/inv_mpu_dmp_motion_driver.c ****     return mpu_load_firmware(DMP_CODE_SIZE, dmp_memory, sStartAddress,
 119              		.loc 1 511 1 is_stmt 1 view -0
 120              		.cfi_startproc
 121              		@ args = 0, pretend = 0, frame = 0
 122              		@ frame_needed = 0, uses_anonymous_args = 0
 123 0000 08B5     		push	{r3, lr}
 124              	.LCFI1:
 125              		.cfi_def_cfa_offset 8
 126              		.cfi_offset 3, -8
 127              		.cfi_offset 14, -4
 512:Drivers/MPU6050/inv_mpu_dmp_motion_driver.c ****         DMP_SAMPLE_RATE);
 128              		.loc 1 512 5 view .LVU31
 512:Drivers/MPU6050/inv_mpu_dmp_motion_driver.c ****         DMP_SAMPLE_RATE);
 129              		.loc 1 512 12 is_stmt 0 view .LVU32
 130 0002 C823     		movs	r3, #200
 131 0004 4FF48062 		mov	r2, #1024
 132 0008 0249     		ldr	r1, .L9
 133 000a 40F6F630 		movw	r0, #3062
 134 000e FFF7FEFF 		bl	mpu_load_firmware
 135              	.LVL8:
 514:Drivers/MPU6050/inv_mpu_dmp_motion_driver.c **** 
 136              		.loc 1 514 1 view .LVU33
 137 0012 08BD     		pop	{r3, pc}
 138              	.L10:
 139              		.align	2
 140              	.L9:
 141 0014 00000000 		.word	.LANCHOR1
 142              		.cfi_endproc
 143              	.LFE558:
 145              		.section	.rodata.dmp_set_orientation.str1.4,"aMS",%progbits,1
 146              		.align	2
 147              	.LC0:
 148 0000 4CCD6C00 		.ascii	"L\315l\000"
 149              		.align	2
 150              	.LC1:
 151 0004 0CC92C00 		.ascii	"\014\311,\000"
 152              		.align	2
ARM GAS  F:\msys64\tmp\ccoK2euk.s 			page 25


 153              	.LC2:
 154 0008 36567600 		.ascii	"6Vv\000"
 155              		.align	2
 156              	.LC3:
 157 000c 26466600 		.ascii	"&Ff\000"
 158              		.section	.text.dmp_set_orientation,"ax",%progbits
 159              		.align	1
 160              		.global	dmp_set_orientation
 161              		.syntax unified
 162              		.thumb
 163              		.thumb_func
 165              	dmp_set_orientation:
 166              	.LVL9:
 167              	.LFB559:
 524:Drivers/MPU6050/inv_mpu_dmp_motion_driver.c ****     unsigned char gyro_regs[3], accel_regs[3];
 168              		.loc 1 524 1 is_stmt 1 view -0
 169              		.cfi_startproc
 170              		@ args = 0, pretend = 0, frame = 24
 171              		@ frame_needed = 0, uses_anonymous_args = 0
 524:Drivers/MPU6050/inv_mpu_dmp_motion_driver.c ****     unsigned char gyro_regs[3], accel_regs[3];
 172              		.loc 1 524 1 is_stmt 0 view .LVU35
 173 0000 10B5     		push	{r4, lr}
 174              	.LCFI2:
 175              		.cfi_def_cfa_offset 8
 176              		.cfi_offset 4, -8
 177              		.cfi_offset 14, -4
 178 0002 86B0     		sub	sp, sp, #24
 179              	.LCFI3:
 180              		.cfi_def_cfa_offset 32
 181 0004 0446     		mov	r4, r0
 525:Drivers/MPU6050/inv_mpu_dmp_motion_driver.c ****     const unsigned char gyro_axes[3] = {DINA4C, DINACD, DINA6C};
 182              		.loc 1 525 5 is_stmt 1 view .LVU36
 526:Drivers/MPU6050/inv_mpu_dmp_motion_driver.c ****     const unsigned char accel_axes[3] = {DINA0C, DINAC9, DINA2C};
 183              		.loc 1 526 5 view .LVU37
 526:Drivers/MPU6050/inv_mpu_dmp_motion_driver.c ****     const unsigned char accel_axes[3] = {DINA0C, DINAC9, DINA2C};
 184              		.loc 1 526 25 is_stmt 0 view .LVU38
 185 0006 4C4B     		ldr	r3, .L21
 186 0008 1B68     		ldr	r3, [r3]
 187 000a ADF80C30 		strh	r3, [sp, #12]	@ movhi
 188 000e 1B0C     		lsrs	r3, r3, #16
 189 0010 8DF80E30 		strb	r3, [sp, #14]
 527:Drivers/MPU6050/inv_mpu_dmp_motion_driver.c ****     const unsigned char gyro_sign[3] = {DINA36, DINA56, DINA76};
 190              		.loc 1 527 5 is_stmt 1 view .LVU39
 527:Drivers/MPU6050/inv_mpu_dmp_motion_driver.c ****     const unsigned char gyro_sign[3] = {DINA36, DINA56, DINA76};
 191              		.loc 1 527 25 is_stmt 0 view .LVU40
 192 0014 494B     		ldr	r3, .L21+4
 193 0016 1B68     		ldr	r3, [r3]
 194 0018 ADF80830 		strh	r3, [sp, #8]	@ movhi
 195 001c 1B0C     		lsrs	r3, r3, #16
 196 001e 8DF80A30 		strb	r3, [sp, #10]
 528:Drivers/MPU6050/inv_mpu_dmp_motion_driver.c ****     const unsigned char accel_sign[3] = {DINA26, DINA46, DINA66};
 197              		.loc 1 528 5 is_stmt 1 view .LVU41
 528:Drivers/MPU6050/inv_mpu_dmp_motion_driver.c ****     const unsigned char accel_sign[3] = {DINA26, DINA46, DINA66};
 198              		.loc 1 528 25 is_stmt 0 view .LVU42
 199 0022 474B     		ldr	r3, .L21+8
 200 0024 1B68     		ldr	r3, [r3]
 201 0026 ADF80430 		strh	r3, [sp, #4]	@ movhi
ARM GAS  F:\msys64\tmp\ccoK2euk.s 			page 26


 202 002a 1B0C     		lsrs	r3, r3, #16
 203 002c 8DF80630 		strb	r3, [sp, #6]
 529:Drivers/MPU6050/inv_mpu_dmp_motion_driver.c **** 
 204              		.loc 1 529 5 is_stmt 1 view .LVU43
 529:Drivers/MPU6050/inv_mpu_dmp_motion_driver.c **** 
 205              		.loc 1 529 25 is_stmt 0 view .LVU44
 206 0030 444B     		ldr	r3, .L21+12
 207 0032 1B68     		ldr	r3, [r3]
 208 0034 ADF80030 		strh	r3, [sp]	@ movhi
 209 0038 1B0C     		lsrs	r3, r3, #16
 210 003a 8DF80230 		strb	r3, [sp, #2]
 531:Drivers/MPU6050/inv_mpu_dmp_motion_driver.c ****     gyro_regs[1] = gyro_axes[(orient >> 3) & 3];
 211              		.loc 1 531 5 is_stmt 1 view .LVU45
 531:Drivers/MPU6050/inv_mpu_dmp_motion_driver.c ****     gyro_regs[1] = gyro_axes[(orient >> 3) & 3];
 212              		.loc 1 531 37 is_stmt 0 view .LVU46
 213 003e 00F00301 		and	r1, r0, #3
 531:Drivers/MPU6050/inv_mpu_dmp_motion_driver.c ****     gyro_regs[1] = gyro_axes[(orient >> 3) & 3];
 214              		.loc 1 531 29 view .LVU47
 215 0042 01F11803 		add	r3, r1, #24
 216 0046 0DEB0301 		add	r1, sp, r3
 217 004a 11F80C3C 		ldrb	r3, [r1, #-12]	@ zero_extendqisi2
 531:Drivers/MPU6050/inv_mpu_dmp_motion_driver.c ****     gyro_regs[1] = gyro_axes[(orient >> 3) & 3];
 218              		.loc 1 531 18 view .LVU48
 219 004e 8DF81430 		strb	r3, [sp, #20]
 532:Drivers/MPU6050/inv_mpu_dmp_motion_driver.c ****     gyro_regs[2] = gyro_axes[(orient >> 6) & 3];
 220              		.loc 1 532 5 is_stmt 1 view .LVU49
 532:Drivers/MPU6050/inv_mpu_dmp_motion_driver.c ****     gyro_regs[2] = gyro_axes[(orient >> 6) & 3];
 221              		.loc 1 532 44 is_stmt 0 view .LVU50
 222 0052 C0F3C102 		ubfx	r2, r0, #3, #2
 532:Drivers/MPU6050/inv_mpu_dmp_motion_driver.c ****     gyro_regs[2] = gyro_axes[(orient >> 6) & 3];
 223              		.loc 1 532 29 view .LVU51
 224 0056 02F11803 		add	r3, r2, #24
 225 005a 0DEB0302 		add	r2, sp, r3
 226 005e 12F80C3C 		ldrb	r3, [r2, #-12]	@ zero_extendqisi2
 532:Drivers/MPU6050/inv_mpu_dmp_motion_driver.c ****     gyro_regs[2] = gyro_axes[(orient >> 6) & 3];
 227              		.loc 1 532 18 view .LVU52
 228 0062 8DF81530 		strb	r3, [sp, #21]
 533:Drivers/MPU6050/inv_mpu_dmp_motion_driver.c ****     accel_regs[0] = accel_axes[orient & 3];
 229              		.loc 1 533 5 is_stmt 1 view .LVU53
 533:Drivers/MPU6050/inv_mpu_dmp_motion_driver.c ****     accel_regs[0] = accel_axes[orient & 3];
 230              		.loc 1 533 44 is_stmt 0 view .LVU54
 231 0066 C0F38113 		ubfx	r3, r0, #6, #2
 533:Drivers/MPU6050/inv_mpu_dmp_motion_driver.c ****     accel_regs[0] = accel_axes[orient & 3];
 232              		.loc 1 533 29 view .LVU55
 233 006a 1833     		adds	r3, r3, #24
 234 006c 6B44     		add	r3, sp, r3
 235 006e 13F80C0C 		ldrb	r0, [r3, #-12]	@ zero_extendqisi2
 236              	.LVL10:
 533:Drivers/MPU6050/inv_mpu_dmp_motion_driver.c ****     accel_regs[0] = accel_axes[orient & 3];
 237              		.loc 1 533 18 view .LVU56
 238 0072 8DF81600 		strb	r0, [sp, #22]
 534:Drivers/MPU6050/inv_mpu_dmp_motion_driver.c ****     accel_regs[1] = accel_axes[(orient >> 3) & 3];
 239              		.loc 1 534 5 is_stmt 1 view .LVU57
 534:Drivers/MPU6050/inv_mpu_dmp_motion_driver.c ****     accel_regs[1] = accel_axes[(orient >> 3) & 3];
 240              		.loc 1 534 31 is_stmt 0 view .LVU58
 241 0076 11F8101C 		ldrb	r1, [r1, #-16]	@ zero_extendqisi2
 534:Drivers/MPU6050/inv_mpu_dmp_motion_driver.c ****     accel_regs[1] = accel_axes[(orient >> 3) & 3];
ARM GAS  F:\msys64\tmp\ccoK2euk.s 			page 27


 242              		.loc 1 534 19 view .LVU59
 243 007a 8DF81010 		strb	r1, [sp, #16]
 535:Drivers/MPU6050/inv_mpu_dmp_motion_driver.c ****     accel_regs[2] = accel_axes[(orient >> 6) & 3];
 244              		.loc 1 535 5 is_stmt 1 view .LVU60
 535:Drivers/MPU6050/inv_mpu_dmp_motion_driver.c ****     accel_regs[2] = accel_axes[(orient >> 6) & 3];
 245              		.loc 1 535 31 is_stmt 0 view .LVU61
 246 007e 12F8102C 		ldrb	r2, [r2, #-16]	@ zero_extendqisi2
 535:Drivers/MPU6050/inv_mpu_dmp_motion_driver.c ****     accel_regs[2] = accel_axes[(orient >> 6) & 3];
 247              		.loc 1 535 19 view .LVU62
 248 0082 8DF81120 		strb	r2, [sp, #17]
 536:Drivers/MPU6050/inv_mpu_dmp_motion_driver.c **** 
 249              		.loc 1 536 5 is_stmt 1 view .LVU63
 536:Drivers/MPU6050/inv_mpu_dmp_motion_driver.c **** 
 250              		.loc 1 536 31 is_stmt 0 view .LVU64
 251 0086 13F8103C 		ldrb	r3, [r3, #-16]	@ zero_extendqisi2
 536:Drivers/MPU6050/inv_mpu_dmp_motion_driver.c **** 
 252              		.loc 1 536 19 view .LVU65
 253 008a 8DF81230 		strb	r3, [sp, #18]
 539:Drivers/MPU6050/inv_mpu_dmp_motion_driver.c ****         return -1;
 254              		.loc 1 539 5 is_stmt 1 view .LVU66
 539:Drivers/MPU6050/inv_mpu_dmp_motion_driver.c ****         return -1;
 255              		.loc 1 539 9 is_stmt 0 view .LVU67
 256 008e 05AA     		add	r2, sp, #20
 257 0090 0321     		movs	r1, #3
 258 0092 40F22640 		movw	r0, #1062
 259 0096 FFF7FEFF 		bl	mpu_write_mem
 260              	.LVL11:
 539:Drivers/MPU6050/inv_mpu_dmp_motion_driver.c ****         return -1;
 261              		.loc 1 539 8 view .LVU68
 262 009a 0028     		cmp	r0, #0
 263 009c 40D1     		bne	.L16
 541:Drivers/MPU6050/inv_mpu_dmp_motion_driver.c ****         return -1;
 264              		.loc 1 541 5 is_stmt 1 view .LVU69
 541:Drivers/MPU6050/inv_mpu_dmp_motion_driver.c ****         return -1;
 265              		.loc 1 541 9 is_stmt 0 view .LVU70
 266 009e 04AA     		add	r2, sp, #16
 267 00a0 0321     		movs	r1, #3
 268 00a2 40F22A40 		movw	r0, #1066
 269 00a6 FFF7FEFF 		bl	mpu_write_mem
 270              	.LVL12:
 541:Drivers/MPU6050/inv_mpu_dmp_motion_driver.c ****         return -1;
 271              		.loc 1 541 8 view .LVU71
 272 00aa 0028     		cmp	r0, #0
 273 00ac 3BD1     		bne	.L17
 544:Drivers/MPU6050/inv_mpu_dmp_motion_driver.c ****     memcpy(accel_regs, accel_sign, 3);
 274              		.loc 1 544 5 is_stmt 1 view .LVU72
 275 00ae 019B     		ldr	r3, [sp, #4]
 276 00b0 ADF81430 		strh	r3, [sp, #20]	@ movhi
 277 00b4 1B0C     		lsrs	r3, r3, #16
 278 00b6 8DF81630 		strb	r3, [sp, #22]
 545:Drivers/MPU6050/inv_mpu_dmp_motion_driver.c ****     if (orient & 4) {
 279              		.loc 1 545 5 view .LVU73
 280 00ba 009B     		ldr	r3, [sp]
 281 00bc ADF81030 		strh	r3, [sp, #16]	@ movhi
 282 00c0 1B0C     		lsrs	r3, r3, #16
 283 00c2 8DF81230 		strb	r3, [sp, #18]
 546:Drivers/MPU6050/inv_mpu_dmp_motion_driver.c ****         gyro_regs[0] |= 1;
ARM GAS  F:\msys64\tmp\ccoK2euk.s 			page 28


 284              		.loc 1 546 5 view .LVU74
 546:Drivers/MPU6050/inv_mpu_dmp_motion_driver.c ****         gyro_regs[0] |= 1;
 285              		.loc 1 546 8 is_stmt 0 view .LVU75
 286 00c6 14F0040F 		tst	r4, #4
 287 00ca 05D0     		beq	.L13
 547:Drivers/MPU6050/inv_mpu_dmp_motion_driver.c ****         accel_regs[0] |= 1;
 288              		.loc 1 547 9 is_stmt 1 view .LVU76
 547:Drivers/MPU6050/inv_mpu_dmp_motion_driver.c ****         accel_regs[0] |= 1;
 289              		.loc 1 547 22 is_stmt 0 view .LVU77
 290 00cc 3723     		movs	r3, #55
 291 00ce 8DF81430 		strb	r3, [sp, #20]
 548:Drivers/MPU6050/inv_mpu_dmp_motion_driver.c ****     }
 292              		.loc 1 548 9 is_stmt 1 view .LVU78
 548:Drivers/MPU6050/inv_mpu_dmp_motion_driver.c ****     }
 293              		.loc 1 548 23 is_stmt 0 view .LVU79
 294 00d2 2723     		movs	r3, #39
 295 00d4 8DF81030 		strb	r3, [sp, #16]
 296              	.L13:
 550:Drivers/MPU6050/inv_mpu_dmp_motion_driver.c ****         gyro_regs[1] |= 1;
 297              		.loc 1 550 5 is_stmt 1 view .LVU80
 550:Drivers/MPU6050/inv_mpu_dmp_motion_driver.c ****         gyro_regs[1] |= 1;
 298              		.loc 1 550 8 is_stmt 0 view .LVU81
 299 00d8 14F0200F 		tst	r4, #32
 300 00dc 05D0     		beq	.L14
 551:Drivers/MPU6050/inv_mpu_dmp_motion_driver.c ****         accel_regs[1] |= 1;
 301              		.loc 1 551 9 is_stmt 1 view .LVU82
 551:Drivers/MPU6050/inv_mpu_dmp_motion_driver.c ****         accel_regs[1] |= 1;
 302              		.loc 1 551 22 is_stmt 0 view .LVU83
 303 00de 5723     		movs	r3, #87
 304 00e0 8DF81530 		strb	r3, [sp, #21]
 552:Drivers/MPU6050/inv_mpu_dmp_motion_driver.c ****     }
 305              		.loc 1 552 9 is_stmt 1 view .LVU84
 552:Drivers/MPU6050/inv_mpu_dmp_motion_driver.c ****     }
 306              		.loc 1 552 23 is_stmt 0 view .LVU85
 307 00e4 4723     		movs	r3, #71
 308 00e6 8DF81130 		strb	r3, [sp, #17]
 309              	.L14:
 554:Drivers/MPU6050/inv_mpu_dmp_motion_driver.c ****         gyro_regs[2] |= 1;
 310              		.loc 1 554 5 is_stmt 1 view .LVU86
 554:Drivers/MPU6050/inv_mpu_dmp_motion_driver.c ****         gyro_regs[2] |= 1;
 311              		.loc 1 554 8 is_stmt 0 view .LVU87
 312 00ea 14F4807F 		tst	r4, #256
 313 00ee 05D0     		beq	.L15
 555:Drivers/MPU6050/inv_mpu_dmp_motion_driver.c ****         accel_regs[2] |= 1;
 314              		.loc 1 555 9 is_stmt 1 view .LVU88
 555:Drivers/MPU6050/inv_mpu_dmp_motion_driver.c ****         accel_regs[2] |= 1;
 315              		.loc 1 555 22 is_stmt 0 view .LVU89
 316 00f0 7723     		movs	r3, #119
 317 00f2 8DF81630 		strb	r3, [sp, #22]
 556:Drivers/MPU6050/inv_mpu_dmp_motion_driver.c ****     }
 318              		.loc 1 556 9 is_stmt 1 view .LVU90
 556:Drivers/MPU6050/inv_mpu_dmp_motion_driver.c ****     }
 319              		.loc 1 556 23 is_stmt 0 view .LVU91
 320 00f6 6723     		movs	r3, #103
 321 00f8 8DF81230 		strb	r3, [sp, #18]
 322              	.L15:
 560:Drivers/MPU6050/inv_mpu_dmp_motion_driver.c ****         return -1;
ARM GAS  F:\msys64\tmp\ccoK2euk.s 			page 29


 323              		.loc 1 560 5 is_stmt 1 view .LVU92
 560:Drivers/MPU6050/inv_mpu_dmp_motion_driver.c ****         return -1;
 324              		.loc 1 560 9 is_stmt 0 view .LVU93
 325 00fc 05AA     		add	r2, sp, #20
 326 00fe 0321     		movs	r1, #3
 327 0100 4FF48860 		mov	r0, #1088
 328 0104 FFF7FEFF 		bl	mpu_write_mem
 329              	.LVL13:
 560:Drivers/MPU6050/inv_mpu_dmp_motion_driver.c ****         return -1;
 330              		.loc 1 560 8 view .LVU94
 331 0108 80B9     		cbnz	r0, .L18
 562:Drivers/MPU6050/inv_mpu_dmp_motion_driver.c ****         return -1;
 332              		.loc 1 562 5 is_stmt 1 view .LVU95
 562:Drivers/MPU6050/inv_mpu_dmp_motion_driver.c ****         return -1;
 333              		.loc 1 562 9 is_stmt 0 view .LVU96
 334 010a 04AA     		add	r2, sp, #16
 335 010c 0321     		movs	r1, #3
 336 010e 40F23140 		movw	r0, #1073
 337 0112 FFF7FEFF 		bl	mpu_write_mem
 338              	.LVL14:
 562:Drivers/MPU6050/inv_mpu_dmp_motion_driver.c ****         return -1;
 339              		.loc 1 562 8 view .LVU97
 340 0116 60B9     		cbnz	r0, .L19
 564:Drivers/MPU6050/inv_mpu_dmp_motion_driver.c ****     return 0;
 341              		.loc 1 564 5 is_stmt 1 view .LVU98
 564:Drivers/MPU6050/inv_mpu_dmp_motion_driver.c ****     return 0;
 342              		.loc 1 564 16 is_stmt 0 view .LVU99
 343 0118 0B4B     		ldr	r3, .L21+16
 344 011a 1C81     		strh	r4, [r3, #8]	@ movhi
 565:Drivers/MPU6050/inv_mpu_dmp_motion_driver.c **** }
 345              		.loc 1 565 5 is_stmt 1 view .LVU100
 346              	.L11:
 566:Drivers/MPU6050/inv_mpu_dmp_motion_driver.c **** 
 347              		.loc 1 566 1 is_stmt 0 view .LVU101
 348 011c 06B0     		add	sp, sp, #24
 349              	.LCFI4:
 350              		.cfi_remember_state
 351              		.cfi_def_cfa_offset 8
 352              		@ sp needed
 353 011e 10BD     		pop	{r4, pc}
 354              	.L16:
 355              	.LCFI5:
 356              		.cfi_restore_state
 540:Drivers/MPU6050/inv_mpu_dmp_motion_driver.c ****     if (mpu_write_mem(FCFG_2, 3, accel_regs))
 357              		.loc 1 540 16 view .LVU102
 358 0120 4FF0FF30 		mov	r0, #-1
 359 0124 FAE7     		b	.L11
 360              	.L17:
 542:Drivers/MPU6050/inv_mpu_dmp_motion_driver.c **** 
 361              		.loc 1 542 16 view .LVU103
 362 0126 4FF0FF30 		mov	r0, #-1
 363 012a F7E7     		b	.L11
 364              	.L18:
 561:Drivers/MPU6050/inv_mpu_dmp_motion_driver.c ****     if (mpu_write_mem(FCFG_7, 3, accel_regs))
 365              		.loc 1 561 16 view .LVU104
 366 012c 4FF0FF30 		mov	r0, #-1
 367 0130 F4E7     		b	.L11
ARM GAS  F:\msys64\tmp\ccoK2euk.s 			page 30


 368              	.L19:
 563:Drivers/MPU6050/inv_mpu_dmp_motion_driver.c ****     dmp.orient = orient;
 369              		.loc 1 563 16 view .LVU105
 370 0132 4FF0FF30 		mov	r0, #-1
 371 0136 F1E7     		b	.L11
 372              	.L22:
 373              		.align	2
 374              	.L21:
 375 0138 00000000 		.word	.LC0
 376 013c 04000000 		.word	.LC1
 377 0140 08000000 		.word	.LC2
 378 0144 0C000000 		.word	.LC3
 379 0148 00000000 		.word	.LANCHOR0
 380              		.cfi_endproc
 381              	.LFE559:
 383              		.section	.text.dmp_set_gyro_bias,"ax",%progbits
 384              		.align	1
 385              		.global	dmp_set_gyro_bias
 386              		.syntax unified
 387              		.thumb
 388              		.thumb_func
 390              	dmp_set_gyro_bias:
 391              	.LVL15:
 392              	.LFB560:
 579:Drivers/MPU6050/inv_mpu_dmp_motion_driver.c ****     long gyro_bias_body[3];
 393              		.loc 1 579 1 is_stmt 1 view -0
 394              		.cfi_startproc
 395              		@ args = 0, pretend = 0, frame = 16
 396              		@ frame_needed = 0, uses_anonymous_args = 0
 579:Drivers/MPU6050/inv_mpu_dmp_motion_driver.c ****     long gyro_bias_body[3];
 397              		.loc 1 579 1 is_stmt 0 view .LVU107
 398 0000 30B5     		push	{r4, r5, lr}
 399              	.LCFI6:
 400              		.cfi_def_cfa_offset 12
 401              		.cfi_offset 4, -12
 402              		.cfi_offset 5, -8
 403              		.cfi_offset 14, -4
 404 0002 85B0     		sub	sp, sp, #20
 405              	.LCFI7:
 406              		.cfi_def_cfa_offset 32
 580:Drivers/MPU6050/inv_mpu_dmp_motion_driver.c ****     unsigned char regs[4];
 407              		.loc 1 580 5 is_stmt 1 view .LVU108
 581:Drivers/MPU6050/inv_mpu_dmp_motion_driver.c **** 
 408              		.loc 1 581 5 view .LVU109
 583:Drivers/MPU6050/inv_mpu_dmp_motion_driver.c ****     if (dmp.orient & 4)
 409              		.loc 1 583 5 view .LVU110
 583:Drivers/MPU6050/inv_mpu_dmp_motion_driver.c ****     if (dmp.orient & 4)
 410              		.loc 1 583 33 is_stmt 0 view .LVU111
 411 0004 404B     		ldr	r3, .L31
 412 0006 1B89     		ldrh	r3, [r3, #8]
 583:Drivers/MPU6050/inv_mpu_dmp_motion_driver.c ****     if (dmp.orient & 4)
 413              		.loc 1 583 41 view .LVU112
 414 0008 03F00302 		and	r2, r3, #3
 583:Drivers/MPU6050/inv_mpu_dmp_motion_driver.c ****     if (dmp.orient & 4)
 415              		.loc 1 583 29 view .LVU113
 416 000c 50F82220 		ldr	r2, [r0, r2, lsl #2]
 583:Drivers/MPU6050/inv_mpu_dmp_motion_driver.c ****     if (dmp.orient & 4)
ARM GAS  F:\msys64\tmp\ccoK2euk.s 			page 31


 417              		.loc 1 583 23 view .LVU114
 418 0010 0192     		str	r2, [sp, #4]
 584:Drivers/MPU6050/inv_mpu_dmp_motion_driver.c ****         gyro_bias_body[0] *= -1;
 419              		.loc 1 584 5 is_stmt 1 view .LVU115
 584:Drivers/MPU6050/inv_mpu_dmp_motion_driver.c ****         gyro_bias_body[0] *= -1;
 420              		.loc 1 584 8 is_stmt 0 view .LVU116
 421 0012 13F0040F 		tst	r3, #4
 422 0016 01D0     		beq	.L24
 585:Drivers/MPU6050/inv_mpu_dmp_motion_driver.c ****     gyro_bias_body[1] = bias[(dmp.orient >> 3) & 3];
 423              		.loc 1 585 9 is_stmt 1 view .LVU117
 585:Drivers/MPU6050/inv_mpu_dmp_motion_driver.c ****     gyro_bias_body[1] = bias[(dmp.orient >> 3) & 3];
 424              		.loc 1 585 27 is_stmt 0 view .LVU118
 425 0018 5242     		rsbs	r2, r2, #0
 426 001a 0192     		str	r2, [sp, #4]
 427              	.L24:
 586:Drivers/MPU6050/inv_mpu_dmp_motion_driver.c ****     if (dmp.orient & 0x20)
 428              		.loc 1 586 5 is_stmt 1 view .LVU119
 586:Drivers/MPU6050/inv_mpu_dmp_motion_driver.c ****     if (dmp.orient & 0x20)
 429              		.loc 1 586 48 is_stmt 0 view .LVU120
 430 001c C3F3C102 		ubfx	r2, r3, #3, #2
 586:Drivers/MPU6050/inv_mpu_dmp_motion_driver.c ****     if (dmp.orient & 0x20)
 431              		.loc 1 586 29 view .LVU121
 432 0020 50F82220 		ldr	r2, [r0, r2, lsl #2]
 586:Drivers/MPU6050/inv_mpu_dmp_motion_driver.c ****     if (dmp.orient & 0x20)
 433              		.loc 1 586 23 view .LVU122
 434 0024 0292     		str	r2, [sp, #8]
 587:Drivers/MPU6050/inv_mpu_dmp_motion_driver.c ****         gyro_bias_body[1] *= -1;
 435              		.loc 1 587 5 is_stmt 1 view .LVU123
 587:Drivers/MPU6050/inv_mpu_dmp_motion_driver.c ****         gyro_bias_body[1] *= -1;
 436              		.loc 1 587 8 is_stmt 0 view .LVU124
 437 0026 13F0200F 		tst	r3, #32
 438 002a 01D0     		beq	.L25
 588:Drivers/MPU6050/inv_mpu_dmp_motion_driver.c ****     gyro_bias_body[2] = bias[(dmp.orient >> 6) & 3];
 439              		.loc 1 588 9 is_stmt 1 view .LVU125
 588:Drivers/MPU6050/inv_mpu_dmp_motion_driver.c ****     gyro_bias_body[2] = bias[(dmp.orient >> 6) & 3];
 440              		.loc 1 588 27 is_stmt 0 view .LVU126
 441 002c 5242     		rsbs	r2, r2, #0
 442 002e 0292     		str	r2, [sp, #8]
 443              	.L25:
 589:Drivers/MPU6050/inv_mpu_dmp_motion_driver.c ****     if (dmp.orient & 0x100)
 444              		.loc 1 589 5 is_stmt 1 view .LVU127
 589:Drivers/MPU6050/inv_mpu_dmp_motion_driver.c ****     if (dmp.orient & 0x100)
 445              		.loc 1 589 48 is_stmt 0 view .LVU128
 446 0030 C3F38112 		ubfx	r2, r3, #6, #2
 589:Drivers/MPU6050/inv_mpu_dmp_motion_driver.c ****     if (dmp.orient & 0x100)
 447              		.loc 1 589 29 view .LVU129
 448 0034 50F82220 		ldr	r2, [r0, r2, lsl #2]
 589:Drivers/MPU6050/inv_mpu_dmp_motion_driver.c ****     if (dmp.orient & 0x100)
 449              		.loc 1 589 23 view .LVU130
 450 0038 0392     		str	r2, [sp, #12]
 590:Drivers/MPU6050/inv_mpu_dmp_motion_driver.c ****         gyro_bias_body[2] *= -1;
 451              		.loc 1 590 5 is_stmt 1 view .LVU131
 590:Drivers/MPU6050/inv_mpu_dmp_motion_driver.c ****         gyro_bias_body[2] *= -1;
 452              		.loc 1 590 8 is_stmt 0 view .LVU132
 453 003a 13F4807F 		tst	r3, #256
 454 003e 01D0     		beq	.L26
 591:Drivers/MPU6050/inv_mpu_dmp_motion_driver.c **** 
ARM GAS  F:\msys64\tmp\ccoK2euk.s 			page 32


 455              		.loc 1 591 9 is_stmt 1 view .LVU133
 591:Drivers/MPU6050/inv_mpu_dmp_motion_driver.c **** 
 456              		.loc 1 591 27 is_stmt 0 view .LVU134
 457 0040 5242     		rsbs	r2, r2, #0
 458 0042 0392     		str	r2, [sp, #12]
 459              	.L26:
 598:Drivers/MPU6050/inv_mpu_dmp_motion_driver.c ****     gyro_bias_body[1] = (long)(((long long)gyro_bias_body[1] * GYRO_SF) >> 30);
 460              		.loc 1 598 5 is_stmt 1 view .LVU135
 598:Drivers/MPU6050/inv_mpu_dmp_motion_driver.c ****     gyro_bias_body[1] = (long)(((long long)gyro_bias_body[1] * GYRO_SF) >> 30);
 461              		.loc 1 598 58 is_stmt 0 view .LVU136
 462 0044 019B     		ldr	r3, [sp, #4]
 598:Drivers/MPU6050/inv_mpu_dmp_motion_driver.c ****     gyro_bias_body[1] = (long)(((long long)gyro_bias_body[1] * GYRO_SF) >> 30);
 463              		.loc 1 598 33 view .LVU137
 464 0046 D817     		asrs	r0, r3, #31
 465              	.LVL16:
 598:Drivers/MPU6050/inv_mpu_dmp_motion_driver.c ****     gyro_bias_body[1] = (long)(((long long)gyro_bias_body[1] * GYRO_SF) >> 30);
 466              		.loc 1 598 62 view .LVU138
 467 0048 304A     		ldr	r2, .L31+4
 468 004a A3FB0231 		umull	r3, r1, r3, r2
 469 004e 02FB0011 		mla	r1, r2, r0, r1
 598:Drivers/MPU6050/inv_mpu_dmp_motion_driver.c ****     gyro_bias_body[1] = (long)(((long long)gyro_bias_body[1] * GYRO_SF) >> 30);
 470              		.loc 1 598 73 view .LVU139
 471 0052 9B0F     		lsrs	r3, r3, #30
 472 0054 43EA8103 		orr	r3, r3, r1, lsl #2
 598:Drivers/MPU6050/inv_mpu_dmp_motion_driver.c ****     gyro_bias_body[1] = (long)(((long long)gyro_bias_body[1] * GYRO_SF) >> 30);
 473              		.loc 1 598 23 view .LVU140
 474 0058 0193     		str	r3, [sp, #4]
 599:Drivers/MPU6050/inv_mpu_dmp_motion_driver.c ****     gyro_bias_body[2] = (long)(((long long)gyro_bias_body[2] * GYRO_SF) >> 30);
 475              		.loc 1 599 5 is_stmt 1 view .LVU141
 599:Drivers/MPU6050/inv_mpu_dmp_motion_driver.c ****     gyro_bias_body[2] = (long)(((long long)gyro_bias_body[2] * GYRO_SF) >> 30);
 476              		.loc 1 599 58 is_stmt 0 view .LVU142
 477 005a 0299     		ldr	r1, [sp, #8]
 599:Drivers/MPU6050/inv_mpu_dmp_motion_driver.c ****     gyro_bias_body[2] = (long)(((long long)gyro_bias_body[2] * GYRO_SF) >> 30);
 478              		.loc 1 599 33 view .LVU143
 479 005c C817     		asrs	r0, r1, #31
 599:Drivers/MPU6050/inv_mpu_dmp_motion_driver.c ****     gyro_bias_body[2] = (long)(((long long)gyro_bias_body[2] * GYRO_SF) >> 30);
 480              		.loc 1 599 62 view .LVU144
 481 005e A1FB0215 		umull	r1, r5, r1, r2
 482 0062 02FB0055 		mla	r5, r2, r0, r5
 599:Drivers/MPU6050/inv_mpu_dmp_motion_driver.c ****     gyro_bias_body[2] = (long)(((long long)gyro_bias_body[2] * GYRO_SF) >> 30);
 483              		.loc 1 599 73 view .LVU145
 484 0066 890F     		lsrs	r1, r1, #30
 485 0068 41EA8505 		orr	r5, r1, r5, lsl #2
 599:Drivers/MPU6050/inv_mpu_dmp_motion_driver.c ****     gyro_bias_body[2] = (long)(((long long)gyro_bias_body[2] * GYRO_SF) >> 30);
 486              		.loc 1 599 23 view .LVU146
 487 006c 0295     		str	r5, [sp, #8]
 600:Drivers/MPU6050/inv_mpu_dmp_motion_driver.c **** #endif
 488              		.loc 1 600 5 is_stmt 1 view .LVU147
 600:Drivers/MPU6050/inv_mpu_dmp_motion_driver.c **** #endif
 489              		.loc 1 600 58 is_stmt 0 view .LVU148
 490 006e 039C     		ldr	r4, [sp, #12]
 600:Drivers/MPU6050/inv_mpu_dmp_motion_driver.c **** #endif
 491              		.loc 1 600 33 view .LVU149
 492 0070 E017     		asrs	r0, r4, #31
 600:Drivers/MPU6050/inv_mpu_dmp_motion_driver.c **** #endif
 493              		.loc 1 600 62 view .LVU150
 494 0072 A4FB0241 		umull	r4, r1, r4, r2
ARM GAS  F:\msys64\tmp\ccoK2euk.s 			page 33


 495 0076 02FB0012 		mla	r2, r2, r0, r1
 600:Drivers/MPU6050/inv_mpu_dmp_motion_driver.c **** #endif
 496              		.loc 1 600 73 view .LVU151
 497 007a A40F     		lsrs	r4, r4, #30
 498 007c 44EA8204 		orr	r4, r4, r2, lsl #2
 600:Drivers/MPU6050/inv_mpu_dmp_motion_driver.c **** #endif
 499              		.loc 1 600 23 view .LVU152
 500 0080 0394     		str	r4, [sp, #12]
 603:Drivers/MPU6050/inv_mpu_dmp_motion_driver.c ****     regs[1] = (unsigned char)((gyro_bias_body[0] >> 16) & 0xFF);
 501              		.loc 1 603 5 is_stmt 1 view .LVU153
 603:Drivers/MPU6050/inv_mpu_dmp_motion_driver.c ****     regs[1] = (unsigned char)((gyro_bias_body[0] >> 16) & 0xFF);
 502              		.loc 1 603 15 is_stmt 0 view .LVU154
 503 0082 1A0E     		lsrs	r2, r3, #24
 603:Drivers/MPU6050/inv_mpu_dmp_motion_driver.c ****     regs[1] = (unsigned char)((gyro_bias_body[0] >> 16) & 0xFF);
 504              		.loc 1 603 13 view .LVU155
 505 0084 8DF80020 		strb	r2, [sp]
 604:Drivers/MPU6050/inv_mpu_dmp_motion_driver.c ****     regs[2] = (unsigned char)((gyro_bias_body[0] >> 8) & 0xFF);
 506              		.loc 1 604 5 is_stmt 1 view .LVU156
 604:Drivers/MPU6050/inv_mpu_dmp_motion_driver.c ****     regs[2] = (unsigned char)((gyro_bias_body[0] >> 8) & 0xFF);
 507              		.loc 1 604 15 is_stmt 0 view .LVU157
 508 0088 C3F30742 		ubfx	r2, r3, #16, #8
 604:Drivers/MPU6050/inv_mpu_dmp_motion_driver.c ****     regs[2] = (unsigned char)((gyro_bias_body[0] >> 8) & 0xFF);
 509              		.loc 1 604 13 view .LVU158
 510 008c 8DF80120 		strb	r2, [sp, #1]
 605:Drivers/MPU6050/inv_mpu_dmp_motion_driver.c ****     regs[3] = (unsigned char)(gyro_bias_body[0] & 0xFF);
 511              		.loc 1 605 5 is_stmt 1 view .LVU159
 605:Drivers/MPU6050/inv_mpu_dmp_motion_driver.c ****     regs[3] = (unsigned char)(gyro_bias_body[0] & 0xFF);
 512              		.loc 1 605 15 is_stmt 0 view .LVU160
 513 0090 C3F30722 		ubfx	r2, r3, #8, #8
 605:Drivers/MPU6050/inv_mpu_dmp_motion_driver.c ****     regs[3] = (unsigned char)(gyro_bias_body[0] & 0xFF);
 514              		.loc 1 605 13 view .LVU161
 515 0094 8DF80220 		strb	r2, [sp, #2]
 606:Drivers/MPU6050/inv_mpu_dmp_motion_driver.c ****     if (mpu_write_mem(D_EXT_GYRO_BIAS_X, 4, regs))
 516              		.loc 1 606 5 is_stmt 1 view .LVU162
 606:Drivers/MPU6050/inv_mpu_dmp_motion_driver.c ****     if (mpu_write_mem(D_EXT_GYRO_BIAS_X, 4, regs))
 517              		.loc 1 606 13 is_stmt 0 view .LVU163
 518 0098 8DF80330 		strb	r3, [sp, #3]
 607:Drivers/MPU6050/inv_mpu_dmp_motion_driver.c ****         return -1;
 519              		.loc 1 607 5 is_stmt 1 view .LVU164
 607:Drivers/MPU6050/inv_mpu_dmp_motion_driver.c ****         return -1;
 520              		.loc 1 607 9 is_stmt 0 view .LVU165
 521 009c 6A46     		mov	r2, sp
 522 009e 0421     		movs	r1, #4
 523 00a0 4FF47470 		mov	r0, #976
 524 00a4 FFF7FEFF 		bl	mpu_write_mem
 525              	.LVL17:
 607:Drivers/MPU6050/inv_mpu_dmp_motion_driver.c ****         return -1;
 526              		.loc 1 607 8 view .LVU166
 527 00a8 40BB     		cbnz	r0, .L28
 610:Drivers/MPU6050/inv_mpu_dmp_motion_driver.c ****     regs[1] = (unsigned char)((gyro_bias_body[1] >> 16) & 0xFF);
 528              		.loc 1 610 5 is_stmt 1 view .LVU167
 610:Drivers/MPU6050/inv_mpu_dmp_motion_driver.c ****     regs[1] = (unsigned char)((gyro_bias_body[1] >> 16) & 0xFF);
 529              		.loc 1 610 15 is_stmt 0 view .LVU168
 530 00aa 2B0E     		lsrs	r3, r5, #24
 610:Drivers/MPU6050/inv_mpu_dmp_motion_driver.c ****     regs[1] = (unsigned char)((gyro_bias_body[1] >> 16) & 0xFF);
 531              		.loc 1 610 13 view .LVU169
 532 00ac 8DF80030 		strb	r3, [sp]
ARM GAS  F:\msys64\tmp\ccoK2euk.s 			page 34


 611:Drivers/MPU6050/inv_mpu_dmp_motion_driver.c ****     regs[2] = (unsigned char)((gyro_bias_body[1] >> 8) & 0xFF);
 533              		.loc 1 611 5 is_stmt 1 view .LVU170
 611:Drivers/MPU6050/inv_mpu_dmp_motion_driver.c ****     regs[2] = (unsigned char)((gyro_bias_body[1] >> 8) & 0xFF);
 534              		.loc 1 611 15 is_stmt 0 view .LVU171
 535 00b0 C5F30743 		ubfx	r3, r5, #16, #8
 611:Drivers/MPU6050/inv_mpu_dmp_motion_driver.c ****     regs[2] = (unsigned char)((gyro_bias_body[1] >> 8) & 0xFF);
 536              		.loc 1 611 13 view .LVU172
 537 00b4 8DF80130 		strb	r3, [sp, #1]
 612:Drivers/MPU6050/inv_mpu_dmp_motion_driver.c ****     regs[3] = (unsigned char)(gyro_bias_body[1] & 0xFF);
 538              		.loc 1 612 5 is_stmt 1 view .LVU173
 612:Drivers/MPU6050/inv_mpu_dmp_motion_driver.c ****     regs[3] = (unsigned char)(gyro_bias_body[1] & 0xFF);
 539              		.loc 1 612 15 is_stmt 0 view .LVU174
 540 00b8 C5F30723 		ubfx	r3, r5, #8, #8
 612:Drivers/MPU6050/inv_mpu_dmp_motion_driver.c ****     regs[3] = (unsigned char)(gyro_bias_body[1] & 0xFF);
 541              		.loc 1 612 13 view .LVU175
 542 00bc 8DF80230 		strb	r3, [sp, #2]
 613:Drivers/MPU6050/inv_mpu_dmp_motion_driver.c ****     if (mpu_write_mem(D_EXT_GYRO_BIAS_Y, 4, regs))
 543              		.loc 1 613 5 is_stmt 1 view .LVU176
 613:Drivers/MPU6050/inv_mpu_dmp_motion_driver.c ****     if (mpu_write_mem(D_EXT_GYRO_BIAS_Y, 4, regs))
 544              		.loc 1 613 13 is_stmt 0 view .LVU177
 545 00c0 8DF80350 		strb	r5, [sp, #3]
 614:Drivers/MPU6050/inv_mpu_dmp_motion_driver.c ****         return -1;
 546              		.loc 1 614 5 is_stmt 1 view .LVU178
 614:Drivers/MPU6050/inv_mpu_dmp_motion_driver.c ****         return -1;
 547              		.loc 1 614 9 is_stmt 0 view .LVU179
 548 00c4 6A46     		mov	r2, sp
 549 00c6 0421     		movs	r1, #4
 550 00c8 4FF47570 		mov	r0, #980
 551 00cc FFF7FEFF 		bl	mpu_write_mem
 552              	.LVL18:
 614:Drivers/MPU6050/inv_mpu_dmp_motion_driver.c ****         return -1;
 553              		.loc 1 614 8 view .LVU180
 554 00d0 B8B9     		cbnz	r0, .L29
 617:Drivers/MPU6050/inv_mpu_dmp_motion_driver.c ****     regs[1] = (unsigned char)((gyro_bias_body[2] >> 16) & 0xFF);
 555              		.loc 1 617 5 is_stmt 1 view .LVU181
 617:Drivers/MPU6050/inv_mpu_dmp_motion_driver.c ****     regs[1] = (unsigned char)((gyro_bias_body[2] >> 16) & 0xFF);
 556              		.loc 1 617 15 is_stmt 0 view .LVU182
 557 00d2 230E     		lsrs	r3, r4, #24
 617:Drivers/MPU6050/inv_mpu_dmp_motion_driver.c ****     regs[1] = (unsigned char)((gyro_bias_body[2] >> 16) & 0xFF);
 558              		.loc 1 617 13 view .LVU183
 559 00d4 8DF80030 		strb	r3, [sp]
 618:Drivers/MPU6050/inv_mpu_dmp_motion_driver.c ****     regs[2] = (unsigned char)((gyro_bias_body[2] >> 8) & 0xFF);
 560              		.loc 1 618 5 is_stmt 1 view .LVU184
 618:Drivers/MPU6050/inv_mpu_dmp_motion_driver.c ****     regs[2] = (unsigned char)((gyro_bias_body[2] >> 8) & 0xFF);
 561              		.loc 1 618 15 is_stmt 0 view .LVU185
 562 00d8 C4F30743 		ubfx	r3, r4, #16, #8
 618:Drivers/MPU6050/inv_mpu_dmp_motion_driver.c ****     regs[2] = (unsigned char)((gyro_bias_body[2] >> 8) & 0xFF);
 563              		.loc 1 618 13 view .LVU186
 564 00dc 8DF80130 		strb	r3, [sp, #1]
 619:Drivers/MPU6050/inv_mpu_dmp_motion_driver.c ****     regs[3] = (unsigned char)(gyro_bias_body[2] & 0xFF);
 565              		.loc 1 619 5 is_stmt 1 view .LVU187
 619:Drivers/MPU6050/inv_mpu_dmp_motion_driver.c ****     regs[3] = (unsigned char)(gyro_bias_body[2] & 0xFF);
 566              		.loc 1 619 15 is_stmt 0 view .LVU188
 567 00e0 C4F30723 		ubfx	r3, r4, #8, #8
 619:Drivers/MPU6050/inv_mpu_dmp_motion_driver.c ****     regs[3] = (unsigned char)(gyro_bias_body[2] & 0xFF);
 568              		.loc 1 619 13 view .LVU189
 569 00e4 8DF80230 		strb	r3, [sp, #2]
ARM GAS  F:\msys64\tmp\ccoK2euk.s 			page 35


 620:Drivers/MPU6050/inv_mpu_dmp_motion_driver.c ****     return mpu_write_mem(D_EXT_GYRO_BIAS_Z, 4, regs);
 570              		.loc 1 620 5 is_stmt 1 view .LVU190
 620:Drivers/MPU6050/inv_mpu_dmp_motion_driver.c ****     return mpu_write_mem(D_EXT_GYRO_BIAS_Z, 4, regs);
 571              		.loc 1 620 13 is_stmt 0 view .LVU191
 572 00e8 8DF80340 		strb	r4, [sp, #3]
 621:Drivers/MPU6050/inv_mpu_dmp_motion_driver.c **** }
 573              		.loc 1 621 5 is_stmt 1 view .LVU192
 621:Drivers/MPU6050/inv_mpu_dmp_motion_driver.c **** }
 574              		.loc 1 621 12 is_stmt 0 view .LVU193
 575 00ec 6A46     		mov	r2, sp
 576 00ee 0421     		movs	r1, #4
 577 00f0 4FF47670 		mov	r0, #984
 578 00f4 FFF7FEFF 		bl	mpu_write_mem
 579              	.LVL19:
 580              	.L23:
 622:Drivers/MPU6050/inv_mpu_dmp_motion_driver.c **** 
 581              		.loc 1 622 1 view .LVU194
 582 00f8 05B0     		add	sp, sp, #20
 583              	.LCFI8:
 584              		.cfi_remember_state
 585              		.cfi_def_cfa_offset 12
 586              		@ sp needed
 587 00fa 30BD     		pop	{r4, r5, pc}
 588              	.L28:
 589              	.LCFI9:
 590              		.cfi_restore_state
 608:Drivers/MPU6050/inv_mpu_dmp_motion_driver.c **** 
 591              		.loc 1 608 16 view .LVU195
 592 00fc 4FF0FF30 		mov	r0, #-1
 593 0100 FAE7     		b	.L23
 594              	.L29:
 615:Drivers/MPU6050/inv_mpu_dmp_motion_driver.c **** 
 595              		.loc 1 615 16 view .LVU196
 596 0102 4FF0FF30 		mov	r0, #-1
 597 0106 F7E7     		b	.L23
 598              	.L32:
 599              		.align	2
 600              	.L31:
 601 0108 00000000 		.word	.LANCHOR0
 602 010c 09E3CA02 		.word	46850825
 603              		.cfi_endproc
 604              	.LFE560:
 606              		.section	.text.dmp_set_accel_bias,"ax",%progbits
 607              		.align	1
 608              		.global	dmp_set_accel_bias
 609              		.syntax unified
 610              		.thumb
 611              		.thumb_func
 613              	dmp_set_accel_bias:
 614              	.LVL20:
 615              	.LFB561:
 631:Drivers/MPU6050/inv_mpu_dmp_motion_driver.c ****     long accel_bias_body[3];
 616              		.loc 1 631 1 is_stmt 1 view -0
 617              		.cfi_startproc
 618              		@ args = 0, pretend = 0, frame = 32
 619              		@ frame_needed = 0, uses_anonymous_args = 0
 631:Drivers/MPU6050/inv_mpu_dmp_motion_driver.c ****     long accel_bias_body[3];
ARM GAS  F:\msys64\tmp\ccoK2euk.s 			page 36


 620              		.loc 1 631 1 is_stmt 0 view .LVU198
 621 0000 10B5     		push	{r4, lr}
 622              	.LCFI10:
 623              		.cfi_def_cfa_offset 8
 624              		.cfi_offset 4, -8
 625              		.cfi_offset 14, -4
 626 0002 88B0     		sub	sp, sp, #32
 627              	.LCFI11:
 628              		.cfi_def_cfa_offset 40
 629 0004 0446     		mov	r4, r0
 632:Drivers/MPU6050/inv_mpu_dmp_motion_driver.c ****     unsigned char regs[12];
 630              		.loc 1 632 5 is_stmt 1 view .LVU199
 633:Drivers/MPU6050/inv_mpu_dmp_motion_driver.c ****     long long accel_sf;
 631              		.loc 1 633 5 view .LVU200
 634:Drivers/MPU6050/inv_mpu_dmp_motion_driver.c ****     unsigned short accel_sens;
 632              		.loc 1 634 5 view .LVU201
 635:Drivers/MPU6050/inv_mpu_dmp_motion_driver.c **** 
 633              		.loc 1 635 5 view .LVU202
 637:Drivers/MPU6050/inv_mpu_dmp_motion_driver.c ****     accel_sf = (long long)accel_sens << 15;
 634              		.loc 1 637 5 view .LVU203
 635 0006 0DF10600 		add	r0, sp, #6
 636              	.LVL21:
 637:Drivers/MPU6050/inv_mpu_dmp_motion_driver.c ****     accel_sf = (long long)accel_sens << 15;
 637              		.loc 1 637 5 is_stmt 0 view .LVU204
 638 000a FFF7FEFF 		bl	mpu_get_accel_sens
 639              	.LVL22:
 638:Drivers/MPU6050/inv_mpu_dmp_motion_driver.c ****     //__no_operation();
 640              		.loc 1 638 5 is_stmt 1 view .LVU205
 638:Drivers/MPU6050/inv_mpu_dmp_motion_driver.c ****     //__no_operation();
 641              		.loc 1 638 16 is_stmt 0 view .LVU206
 642 000e BDF806C0 		ldrh	ip, [sp, #6]
 638:Drivers/MPU6050/inv_mpu_dmp_motion_driver.c ****     //__no_operation();
 643              		.loc 1 638 14 view .LVU207
 644 0012 4FEACC3C 		lsl	ip, ip, #15
 645              	.LVL23:
 641:Drivers/MPU6050/inv_mpu_dmp_motion_driver.c ****     if (dmp.orient & 4)
 646              		.loc 1 641 5 is_stmt 1 view .LVU208
 641:Drivers/MPU6050/inv_mpu_dmp_motion_driver.c ****     if (dmp.orient & 4)
 647              		.loc 1 641 34 is_stmt 0 view .LVU209
 648 0016 364B     		ldr	r3, .L38
 649 0018 1A89     		ldrh	r2, [r3, #8]
 641:Drivers/MPU6050/inv_mpu_dmp_motion_driver.c ****     if (dmp.orient & 4)
 650              		.loc 1 641 42 view .LVU210
 651 001a 02F00303 		and	r3, r2, #3
 641:Drivers/MPU6050/inv_mpu_dmp_motion_driver.c ****     if (dmp.orient & 4)
 652              		.loc 1 641 30 view .LVU211
 653 001e 54F82330 		ldr	r3, [r4, r3, lsl #2]
 641:Drivers/MPU6050/inv_mpu_dmp_motion_driver.c ****     if (dmp.orient & 4)
 654              		.loc 1 641 24 view .LVU212
 655 0022 0593     		str	r3, [sp, #20]
 642:Drivers/MPU6050/inv_mpu_dmp_motion_driver.c ****         accel_bias_body[0] *= -1;
 656              		.loc 1 642 5 is_stmt 1 view .LVU213
 642:Drivers/MPU6050/inv_mpu_dmp_motion_driver.c ****         accel_bias_body[0] *= -1;
 657              		.loc 1 642 8 is_stmt 0 view .LVU214
 658 0024 12F0040F 		tst	r2, #4
 659 0028 01D0     		beq	.L34
 643:Drivers/MPU6050/inv_mpu_dmp_motion_driver.c ****     accel_bias_body[1] = bias[(dmp.orient >> 3) & 3];
ARM GAS  F:\msys64\tmp\ccoK2euk.s 			page 37


 660              		.loc 1 643 9 is_stmt 1 view .LVU215
 643:Drivers/MPU6050/inv_mpu_dmp_motion_driver.c ****     accel_bias_body[1] = bias[(dmp.orient >> 3) & 3];
 661              		.loc 1 643 28 is_stmt 0 view .LVU216
 662 002a 5B42     		rsbs	r3, r3, #0
 663 002c 0593     		str	r3, [sp, #20]
 664              	.L34:
 644:Drivers/MPU6050/inv_mpu_dmp_motion_driver.c ****     if (dmp.orient & 0x20)
 665              		.loc 1 644 5 is_stmt 1 view .LVU217
 644:Drivers/MPU6050/inv_mpu_dmp_motion_driver.c ****     if (dmp.orient & 0x20)
 666              		.loc 1 644 49 is_stmt 0 view .LVU218
 667 002e C2F3C103 		ubfx	r3, r2, #3, #2
 644:Drivers/MPU6050/inv_mpu_dmp_motion_driver.c ****     if (dmp.orient & 0x20)
 668              		.loc 1 644 30 view .LVU219
 669 0032 54F82330 		ldr	r3, [r4, r3, lsl #2]
 644:Drivers/MPU6050/inv_mpu_dmp_motion_driver.c ****     if (dmp.orient & 0x20)
 670              		.loc 1 644 24 view .LVU220
 671 0036 0693     		str	r3, [sp, #24]
 645:Drivers/MPU6050/inv_mpu_dmp_motion_driver.c ****         accel_bias_body[1] *= -1;
 672              		.loc 1 645 5 is_stmt 1 view .LVU221
 645:Drivers/MPU6050/inv_mpu_dmp_motion_driver.c ****         accel_bias_body[1] *= -1;
 673              		.loc 1 645 8 is_stmt 0 view .LVU222
 674 0038 12F0200F 		tst	r2, #32
 675 003c 01D0     		beq	.L35
 646:Drivers/MPU6050/inv_mpu_dmp_motion_driver.c ****     accel_bias_body[2] = bias[(dmp.orient >> 6) & 3];
 676              		.loc 1 646 9 is_stmt 1 view .LVU223
 646:Drivers/MPU6050/inv_mpu_dmp_motion_driver.c ****     accel_bias_body[2] = bias[(dmp.orient >> 6) & 3];
 677              		.loc 1 646 28 is_stmt 0 view .LVU224
 678 003e 5B42     		rsbs	r3, r3, #0
 679 0040 0693     		str	r3, [sp, #24]
 680              	.L35:
 647:Drivers/MPU6050/inv_mpu_dmp_motion_driver.c ****     if (dmp.orient & 0x100)
 681              		.loc 1 647 5 is_stmt 1 view .LVU225
 647:Drivers/MPU6050/inv_mpu_dmp_motion_driver.c ****     if (dmp.orient & 0x100)
 682              		.loc 1 647 49 is_stmt 0 view .LVU226
 683 0042 C2F38113 		ubfx	r3, r2, #6, #2
 647:Drivers/MPU6050/inv_mpu_dmp_motion_driver.c ****     if (dmp.orient & 0x100)
 684              		.loc 1 647 30 view .LVU227
 685 0046 54F82330 		ldr	r3, [r4, r3, lsl #2]
 647:Drivers/MPU6050/inv_mpu_dmp_motion_driver.c ****     if (dmp.orient & 0x100)
 686              		.loc 1 647 24 view .LVU228
 687 004a 0793     		str	r3, [sp, #28]
 648:Drivers/MPU6050/inv_mpu_dmp_motion_driver.c ****         accel_bias_body[2] *= -1;
 688              		.loc 1 648 5 is_stmt 1 view .LVU229
 648:Drivers/MPU6050/inv_mpu_dmp_motion_driver.c ****         accel_bias_body[2] *= -1;
 689              		.loc 1 648 8 is_stmt 0 view .LVU230
 690 004c 12F4807F 		tst	r2, #256
 691 0050 01D0     		beq	.L36
 649:Drivers/MPU6050/inv_mpu_dmp_motion_driver.c **** 
 692              		.loc 1 649 9 is_stmt 1 view .LVU231
 649:Drivers/MPU6050/inv_mpu_dmp_motion_driver.c **** 
 693              		.loc 1 649 28 is_stmt 0 view .LVU232
 694 0052 5B42     		rsbs	r3, r3, #0
 695 0054 0793     		str	r3, [sp, #28]
 696              	.L36:
 656:Drivers/MPU6050/inv_mpu_dmp_motion_driver.c ****     accel_bias_body[1] = (long)(((long long)accel_bias_body[1] * accel_sf) >> 30);
 697              		.loc 1 656 5 is_stmt 1 view .LVU233
 656:Drivers/MPU6050/inv_mpu_dmp_motion_driver.c ****     accel_bias_body[1] = (long)(((long long)accel_bias_body[1] * accel_sf) >> 30);
ARM GAS  F:\msys64\tmp\ccoK2euk.s 			page 38


 698              		.loc 1 656 60 is_stmt 0 view .LVU234
 699 0056 0599     		ldr	r1, [sp, #20]
 656:Drivers/MPU6050/inv_mpu_dmp_motion_driver.c ****     accel_bias_body[1] = (long)(((long long)accel_bias_body[1] * accel_sf) >> 30);
 700              		.loc 1 656 34 view .LVU235
 701 0058 CA17     		asrs	r2, r1, #31
 656:Drivers/MPU6050/inv_mpu_dmp_motion_driver.c ****     accel_bias_body[1] = (long)(((long long)accel_bias_body[1] * accel_sf) >> 30);
 702              		.loc 1 656 64 view .LVU236
 703 005a A1FB0C13 		umull	r1, r3, r1, ip
 704 005e 0CFB0233 		mla	r3, ip, r2, r3
 656:Drivers/MPU6050/inv_mpu_dmp_motion_driver.c ****     accel_bias_body[1] = (long)(((long long)accel_bias_body[1] * accel_sf) >> 30);
 705              		.loc 1 656 76 view .LVU237
 706 0062 890F     		lsrs	r1, r1, #30
 707 0064 41EA8301 		orr	r1, r1, r3, lsl #2
 656:Drivers/MPU6050/inv_mpu_dmp_motion_driver.c ****     accel_bias_body[1] = (long)(((long long)accel_bias_body[1] * accel_sf) >> 30);
 708              		.loc 1 656 24 view .LVU238
 709 0068 0591     		str	r1, [sp, #20]
 657:Drivers/MPU6050/inv_mpu_dmp_motion_driver.c ****     accel_bias_body[2] = (long)(((long long)accel_bias_body[2] * accel_sf) >> 30);
 710              		.loc 1 657 5 is_stmt 1 view .LVU239
 657:Drivers/MPU6050/inv_mpu_dmp_motion_driver.c ****     accel_bias_body[2] = (long)(((long long)accel_bias_body[2] * accel_sf) >> 30);
 711              		.loc 1 657 60 is_stmt 0 view .LVU240
 712 006a 069A     		ldr	r2, [sp, #24]
 657:Drivers/MPU6050/inv_mpu_dmp_motion_driver.c ****     accel_bias_body[2] = (long)(((long long)accel_bias_body[2] * accel_sf) >> 30);
 713              		.loc 1 657 34 view .LVU241
 714 006c D017     		asrs	r0, r2, #31
 657:Drivers/MPU6050/inv_mpu_dmp_motion_driver.c ****     accel_bias_body[2] = (long)(((long long)accel_bias_body[2] * accel_sf) >> 30);
 715              		.loc 1 657 64 view .LVU242
 716 006e A2FB0C23 		umull	r2, r3, r2, ip
 717 0072 0CFB0033 		mla	r3, ip, r0, r3
 657:Drivers/MPU6050/inv_mpu_dmp_motion_driver.c ****     accel_bias_body[2] = (long)(((long long)accel_bias_body[2] * accel_sf) >> 30);
 718              		.loc 1 657 76 view .LVU243
 719 0076 920F     		lsrs	r2, r2, #30
 720 0078 42EA8302 		orr	r2, r2, r3, lsl #2
 657:Drivers/MPU6050/inv_mpu_dmp_motion_driver.c ****     accel_bias_body[2] = (long)(((long long)accel_bias_body[2] * accel_sf) >> 30);
 721              		.loc 1 657 24 view .LVU244
 722 007c 0692     		str	r2, [sp, #24]
 658:Drivers/MPU6050/inv_mpu_dmp_motion_driver.c **** #endif
 723              		.loc 1 658 5 is_stmt 1 view .LVU245
 658:Drivers/MPU6050/inv_mpu_dmp_motion_driver.c **** #endif
 724              		.loc 1 658 60 is_stmt 0 view .LVU246
 725 007e 079B     		ldr	r3, [sp, #28]
 658:Drivers/MPU6050/inv_mpu_dmp_motion_driver.c **** #endif
 726              		.loc 1 658 34 view .LVU247
 727 0080 DC17     		asrs	r4, r3, #31
 728              	.LVL24:
 658:Drivers/MPU6050/inv_mpu_dmp_motion_driver.c **** #endif
 729              		.loc 1 658 64 view .LVU248
 730 0082 A3FB0C30 		umull	r3, r0, r3, ip
 731 0086 0CFB040C 		mla	ip, ip, r4, r0
 732              	.LVL25:
 658:Drivers/MPU6050/inv_mpu_dmp_motion_driver.c **** #endif
 733              		.loc 1 658 76 view .LVU249
 734 008a 9B0F     		lsrs	r3, r3, #30
 735 008c 43EA8C03 		orr	r3, r3, ip, lsl #2
 658:Drivers/MPU6050/inv_mpu_dmp_motion_driver.c **** #endif
 736              		.loc 1 658 24 view .LVU250
 737 0090 0793     		str	r3, [sp, #28]
 661:Drivers/MPU6050/inv_mpu_dmp_motion_driver.c ****     regs[1] = (unsigned char)((accel_bias_body[0] >> 16) & 0xFF);
ARM GAS  F:\msys64\tmp\ccoK2euk.s 			page 39


 738              		.loc 1 661 5 is_stmt 1 view .LVU251
 661:Drivers/MPU6050/inv_mpu_dmp_motion_driver.c ****     regs[1] = (unsigned char)((accel_bias_body[0] >> 16) & 0xFF);
 739              		.loc 1 661 15 is_stmt 0 view .LVU252
 740 0092 080E     		lsrs	r0, r1, #24
 661:Drivers/MPU6050/inv_mpu_dmp_motion_driver.c ****     regs[1] = (unsigned char)((accel_bias_body[0] >> 16) & 0xFF);
 741              		.loc 1 661 13 view .LVU253
 742 0094 8DF80800 		strb	r0, [sp, #8]
 662:Drivers/MPU6050/inv_mpu_dmp_motion_driver.c ****     regs[2] = (unsigned char)((accel_bias_body[0] >> 8) & 0xFF);
 743              		.loc 1 662 5 is_stmt 1 view .LVU254
 662:Drivers/MPU6050/inv_mpu_dmp_motion_driver.c ****     regs[2] = (unsigned char)((accel_bias_body[0] >> 8) & 0xFF);
 744              		.loc 1 662 15 is_stmt 0 view .LVU255
 745 0098 C1F30740 		ubfx	r0, r1, #16, #8
 662:Drivers/MPU6050/inv_mpu_dmp_motion_driver.c ****     regs[2] = (unsigned char)((accel_bias_body[0] >> 8) & 0xFF);
 746              		.loc 1 662 13 view .LVU256
 747 009c 8DF80900 		strb	r0, [sp, #9]
 663:Drivers/MPU6050/inv_mpu_dmp_motion_driver.c ****     regs[3] = (unsigned char)(accel_bias_body[0] & 0xFF);
 748              		.loc 1 663 5 is_stmt 1 view .LVU257
 663:Drivers/MPU6050/inv_mpu_dmp_motion_driver.c ****     regs[3] = (unsigned char)(accel_bias_body[0] & 0xFF);
 749              		.loc 1 663 15 is_stmt 0 view .LVU258
 750 00a0 C1F30720 		ubfx	r0, r1, #8, #8
 663:Drivers/MPU6050/inv_mpu_dmp_motion_driver.c ****     regs[3] = (unsigned char)(accel_bias_body[0] & 0xFF);
 751              		.loc 1 663 13 view .LVU259
 752 00a4 8DF80A00 		strb	r0, [sp, #10]
 664:Drivers/MPU6050/inv_mpu_dmp_motion_driver.c ****     regs[4] = (unsigned char)((accel_bias_body[1] >> 24) & 0xFF);
 753              		.loc 1 664 5 is_stmt 1 view .LVU260
 664:Drivers/MPU6050/inv_mpu_dmp_motion_driver.c ****     regs[4] = (unsigned char)((accel_bias_body[1] >> 24) & 0xFF);
 754              		.loc 1 664 13 is_stmt 0 view .LVU261
 755 00a8 8DF80B10 		strb	r1, [sp, #11]
 665:Drivers/MPU6050/inv_mpu_dmp_motion_driver.c ****     regs[5] = (unsigned char)((accel_bias_body[1] >> 16) & 0xFF);
 756              		.loc 1 665 5 is_stmt 1 view .LVU262
 665:Drivers/MPU6050/inv_mpu_dmp_motion_driver.c ****     regs[5] = (unsigned char)((accel_bias_body[1] >> 16) & 0xFF);
 757              		.loc 1 665 15 is_stmt 0 view .LVU263
 758 00ac 110E     		lsrs	r1, r2, #24
 665:Drivers/MPU6050/inv_mpu_dmp_motion_driver.c ****     regs[5] = (unsigned char)((accel_bias_body[1] >> 16) & 0xFF);
 759              		.loc 1 665 13 view .LVU264
 760 00ae 8DF80C10 		strb	r1, [sp, #12]
 666:Drivers/MPU6050/inv_mpu_dmp_motion_driver.c ****     regs[6] = (unsigned char)((accel_bias_body[1] >> 8) & 0xFF);
 761              		.loc 1 666 5 is_stmt 1 view .LVU265
 666:Drivers/MPU6050/inv_mpu_dmp_motion_driver.c ****     regs[6] = (unsigned char)((accel_bias_body[1] >> 8) & 0xFF);
 762              		.loc 1 666 15 is_stmt 0 view .LVU266
 763 00b2 C2F30741 		ubfx	r1, r2, #16, #8
 666:Drivers/MPU6050/inv_mpu_dmp_motion_driver.c ****     regs[6] = (unsigned char)((accel_bias_body[1] >> 8) & 0xFF);
 764              		.loc 1 666 13 view .LVU267
 765 00b6 8DF80D10 		strb	r1, [sp, #13]
 667:Drivers/MPU6050/inv_mpu_dmp_motion_driver.c ****     regs[7] = (unsigned char)(accel_bias_body[1] & 0xFF);
 766              		.loc 1 667 5 is_stmt 1 view .LVU268
 667:Drivers/MPU6050/inv_mpu_dmp_motion_driver.c ****     regs[7] = (unsigned char)(accel_bias_body[1] & 0xFF);
 767              		.loc 1 667 15 is_stmt 0 view .LVU269
 768 00ba C2F30721 		ubfx	r1, r2, #8, #8
 667:Drivers/MPU6050/inv_mpu_dmp_motion_driver.c ****     regs[7] = (unsigned char)(accel_bias_body[1] & 0xFF);
 769              		.loc 1 667 13 view .LVU270
 770 00be 8DF80E10 		strb	r1, [sp, #14]
 668:Drivers/MPU6050/inv_mpu_dmp_motion_driver.c ****     regs[8] = (unsigned char)((accel_bias_body[2] >> 24) & 0xFF);
 771              		.loc 1 668 5 is_stmt 1 view .LVU271
 668:Drivers/MPU6050/inv_mpu_dmp_motion_driver.c ****     regs[8] = (unsigned char)((accel_bias_body[2] >> 24) & 0xFF);
 772              		.loc 1 668 13 is_stmt 0 view .LVU272
 773 00c2 8DF80F20 		strb	r2, [sp, #15]
ARM GAS  F:\msys64\tmp\ccoK2euk.s 			page 40


 669:Drivers/MPU6050/inv_mpu_dmp_motion_driver.c ****     regs[9] = (unsigned char)((accel_bias_body[2] >> 16) & 0xFF);
 774              		.loc 1 669 5 is_stmt 1 view .LVU273
 669:Drivers/MPU6050/inv_mpu_dmp_motion_driver.c ****     regs[9] = (unsigned char)((accel_bias_body[2] >> 16) & 0xFF);
 775              		.loc 1 669 15 is_stmt 0 view .LVU274
 776 00c6 1A0E     		lsrs	r2, r3, #24
 669:Drivers/MPU6050/inv_mpu_dmp_motion_driver.c ****     regs[9] = (unsigned char)((accel_bias_body[2] >> 16) & 0xFF);
 777              		.loc 1 669 13 view .LVU275
 778 00c8 8DF81020 		strb	r2, [sp, #16]
 670:Drivers/MPU6050/inv_mpu_dmp_motion_driver.c ****     regs[10] = (unsigned char)((accel_bias_body[2] >> 8) & 0xFF);
 779              		.loc 1 670 5 is_stmt 1 view .LVU276
 670:Drivers/MPU6050/inv_mpu_dmp_motion_driver.c ****     regs[10] = (unsigned char)((accel_bias_body[2] >> 8) & 0xFF);
 780              		.loc 1 670 15 is_stmt 0 view .LVU277
 781 00cc C3F30742 		ubfx	r2, r3, #16, #8
 670:Drivers/MPU6050/inv_mpu_dmp_motion_driver.c ****     regs[10] = (unsigned char)((accel_bias_body[2] >> 8) & 0xFF);
 782              		.loc 1 670 13 view .LVU278
 783 00d0 8DF81120 		strb	r2, [sp, #17]
 671:Drivers/MPU6050/inv_mpu_dmp_motion_driver.c ****     regs[11] = (unsigned char)(accel_bias_body[2] & 0xFF);
 784              		.loc 1 671 5 is_stmt 1 view .LVU279
 671:Drivers/MPU6050/inv_mpu_dmp_motion_driver.c ****     regs[11] = (unsigned char)(accel_bias_body[2] & 0xFF);
 785              		.loc 1 671 16 is_stmt 0 view .LVU280
 786 00d4 C3F30722 		ubfx	r2, r3, #8, #8
 671:Drivers/MPU6050/inv_mpu_dmp_motion_driver.c ****     regs[11] = (unsigned char)(accel_bias_body[2] & 0xFF);
 787              		.loc 1 671 14 view .LVU281
 788 00d8 8DF81220 		strb	r2, [sp, #18]
 672:Drivers/MPU6050/inv_mpu_dmp_motion_driver.c ****     return mpu_write_mem(D_ACCEL_BIAS, 12, regs);
 789              		.loc 1 672 5 is_stmt 1 view .LVU282
 672:Drivers/MPU6050/inv_mpu_dmp_motion_driver.c ****     return mpu_write_mem(D_ACCEL_BIAS, 12, regs);
 790              		.loc 1 672 14 is_stmt 0 view .LVU283
 791 00dc 8DF81330 		strb	r3, [sp, #19]
 673:Drivers/MPU6050/inv_mpu_dmp_motion_driver.c **** }
 792              		.loc 1 673 5 is_stmt 1 view .LVU284
 673:Drivers/MPU6050/inv_mpu_dmp_motion_driver.c **** }
 793              		.loc 1 673 12 is_stmt 0 view .LVU285
 794 00e0 02AA     		add	r2, sp, #8
 795 00e2 0C21     		movs	r1, #12
 796 00e4 4FF42570 		mov	r0, #660
 797 00e8 FFF7FEFF 		bl	mpu_write_mem
 798              	.LVL26:
 674:Drivers/MPU6050/inv_mpu_dmp_motion_driver.c **** 
 799              		.loc 1 674 1 view .LVU286
 800 00ec 08B0     		add	sp, sp, #32
 801              	.LCFI12:
 802              		.cfi_def_cfa_offset 8
 803              		@ sp needed
 804 00ee 10BD     		pop	{r4, pc}
 805              	.L39:
 806              		.align	2
 807              	.L38:
 808 00f0 00000000 		.word	.LANCHOR0
 809              		.cfi_endproc
 810              	.LFE561:
 812              		.section	.rodata.dmp_set_fifo_rate.str1.4,"aMS",%progbits,1
 813              		.align	2
 814              	.LC4:
 815 0000 FEF2ABC4 		.ascii	"\376\362\253\304\252\361\337\337\273\257\337\337\000"
 815      AAF1DFDF 
 815      BBAFDFDF 
ARM GAS  F:\msys64\tmp\ccoK2euk.s 			page 41


 815      00
 816              		.section	.text.dmp_set_fifo_rate,"ax",%progbits
 817              		.align	1
 818              		.global	dmp_set_fifo_rate
 819              		.syntax unified
 820              		.thumb
 821              		.thumb_func
 823              	dmp_set_fifo_rate:
 824              	.LVL27:
 825              	.LFB562:
 683:Drivers/MPU6050/inv_mpu_dmp_motion_driver.c ****     const unsigned char regs_end[12] = {DINAFE, DINAF2, DINAAB,
 826              		.loc 1 683 1 is_stmt 1 view -0
 827              		.cfi_startproc
 828              		@ args = 0, pretend = 0, frame = 24
 829              		@ frame_needed = 0, uses_anonymous_args = 0
 683:Drivers/MPU6050/inv_mpu_dmp_motion_driver.c ****     const unsigned char regs_end[12] = {DINAFE, DINAF2, DINAAB,
 830              		.loc 1 683 1 is_stmt 0 view .LVU288
 831 0000 10B5     		push	{r4, lr}
 832              	.LCFI13:
 833              		.cfi_def_cfa_offset 8
 834              		.cfi_offset 4, -8
 835              		.cfi_offset 14, -4
 836 0002 86B0     		sub	sp, sp, #24
 837              	.LCFI14:
 838              		.cfi_def_cfa_offset 32
 839 0004 0446     		mov	r4, r0
 684:Drivers/MPU6050/inv_mpu_dmp_motion_driver.c ****         0xc4, DINAAA, DINAF1, DINADF, DINADF, 0xBB, 0xAF, DINADF, DINADF};
 840              		.loc 1 684 5 is_stmt 1 view .LVU289
 684:Drivers/MPU6050/inv_mpu_dmp_motion_driver.c ****         0xc4, DINAAA, DINAF1, DINADF, DINADF, 0xBB, 0xAF, DINADF, DINADF};
 841              		.loc 1 684 25 is_stmt 0 view .LVU290
 842 0006 164B     		ldr	r3, .L46
 843 0008 93E80700 		ldm	r3, {r0, r1, r2}
 844              	.LVL28:
 684:Drivers/MPU6050/inv_mpu_dmp_motion_driver.c ****         0xc4, DINAAA, DINAF1, DINADF, DINADF, 0xBB, 0xAF, DINADF, DINADF};
 845              		.loc 1 684 25 view .LVU291
 846 000c 06AB     		add	r3, sp, #24
 847 000e 03E90700 		stmdb	r3, {r0, r1, r2}
 686:Drivers/MPU6050/inv_mpu_dmp_motion_driver.c ****     unsigned char tmp[8];
 848              		.loc 1 686 5 is_stmt 1 view .LVU292
 687:Drivers/MPU6050/inv_mpu_dmp_motion_driver.c **** 
 849              		.loc 1 687 5 view .LVU293
 689:Drivers/MPU6050/inv_mpu_dmp_motion_driver.c ****         return -1;
 850              		.loc 1 689 5 view .LVU294
 689:Drivers/MPU6050/inv_mpu_dmp_motion_driver.c ****         return -1;
 851              		.loc 1 689 8 is_stmt 0 view .LVU295
 852 0012 C82C     		cmp	r4, #200
 853 0014 1AD8     		bhi	.L42
 691:Drivers/MPU6050/inv_mpu_dmp_motion_driver.c ****     tmp[0] = (unsigned char)((div >> 8) & 0xFF);
 854              		.loc 1 691 5 is_stmt 1 view .LVU296
 691:Drivers/MPU6050/inv_mpu_dmp_motion_driver.c ****     tmp[0] = (unsigned char)((div >> 8) & 0xFF);
 855              		.loc 1 691 34 is_stmt 0 view .LVU297
 856 0016 C823     		movs	r3, #200
 857 0018 93FBF4F3 		sdiv	r3, r3, r4
 691:Drivers/MPU6050/inv_mpu_dmp_motion_driver.c ****     tmp[0] = (unsigned char)((div >> 8) & 0xFF);
 858              		.loc 1 691 9 view .LVU298
 859 001c 013B     		subs	r3, r3, #1
 860              	.LVL29:
ARM GAS  F:\msys64\tmp\ccoK2euk.s 			page 42


 692:Drivers/MPU6050/inv_mpu_dmp_motion_driver.c ****     tmp[1] = (unsigned char)(div & 0xFF);
 861              		.loc 1 692 5 is_stmt 1 view .LVU299
 692:Drivers/MPU6050/inv_mpu_dmp_motion_driver.c ****     tmp[1] = (unsigned char)(div & 0xFF);
 862              		.loc 1 692 14 is_stmt 0 view .LVU300
 863 001e 1A0E     		lsrs	r2, r3, #24
 692:Drivers/MPU6050/inv_mpu_dmp_motion_driver.c ****     tmp[1] = (unsigned char)(div & 0xFF);
 864              		.loc 1 692 12 view .LVU301
 865 0020 8DF80420 		strb	r2, [sp, #4]
 693:Drivers/MPU6050/inv_mpu_dmp_motion_driver.c ****     if (mpu_write_mem(D_0_22, 2, tmp))
 866              		.loc 1 693 5 is_stmt 1 view .LVU302
 693:Drivers/MPU6050/inv_mpu_dmp_motion_driver.c ****     if (mpu_write_mem(D_0_22, 2, tmp))
 867              		.loc 1 693 12 is_stmt 0 view .LVU303
 868 0024 8DF80530 		strb	r3, [sp, #5]
 694:Drivers/MPU6050/inv_mpu_dmp_motion_driver.c ****         return -1;
 869              		.loc 1 694 5 is_stmt 1 view .LVU304
 694:Drivers/MPU6050/inv_mpu_dmp_motion_driver.c ****         return -1;
 870              		.loc 1 694 9 is_stmt 0 view .LVU305
 871 0028 01AA     		add	r2, sp, #4
 872 002a 0221     		movs	r1, #2
 873 002c 40F21620 		movw	r0, #534
 874 0030 FFF7FEFF 		bl	mpu_write_mem
 875              	.LVL30:
 694:Drivers/MPU6050/inv_mpu_dmp_motion_driver.c ****         return -1;
 876              		.loc 1 694 8 view .LVU306
 877 0034 68B9     		cbnz	r0, .L43
 696:Drivers/MPU6050/inv_mpu_dmp_motion_driver.c ****         return -1;
 878              		.loc 1 696 5 is_stmt 1 view .LVU307
 696:Drivers/MPU6050/inv_mpu_dmp_motion_driver.c ****         return -1;
 879              		.loc 1 696 9 is_stmt 0 view .LVU308
 880 0036 03AA     		add	r2, sp, #12
 881 0038 0C21     		movs	r1, #12
 882 003a 40F6C120 		movw	r0, #2753
 883 003e FFF7FEFF 		bl	mpu_write_mem
 884              	.LVL31:
 696:Drivers/MPU6050/inv_mpu_dmp_motion_driver.c ****         return -1;
 885              		.loc 1 696 8 view .LVU309
 886 0042 48B9     		cbnz	r0, .L44
 699:Drivers/MPU6050/inv_mpu_dmp_motion_driver.c ****     return 0;
 887              		.loc 1 699 5 is_stmt 1 view .LVU310
 699:Drivers/MPU6050/inv_mpu_dmp_motion_driver.c ****     return 0;
 888              		.loc 1 699 19 is_stmt 0 view .LVU311
 889 0044 074B     		ldr	r3, .L46+4
 890 0046 9C81     		strh	r4, [r3, #12]	@ movhi
 700:Drivers/MPU6050/inv_mpu_dmp_motion_driver.c **** }
 891              		.loc 1 700 5 is_stmt 1 view .LVU312
 892              	.LVL32:
 893              	.L40:
 701:Drivers/MPU6050/inv_mpu_dmp_motion_driver.c **** 
 894              		.loc 1 701 1 is_stmt 0 view .LVU313
 895 0048 06B0     		add	sp, sp, #24
 896              	.LCFI15:
 897              		.cfi_remember_state
 898              		.cfi_def_cfa_offset 8
 899              		@ sp needed
 900 004a 10BD     		pop	{r4, pc}
 901              	.L42:
 902              	.LCFI16:
ARM GAS  F:\msys64\tmp\ccoK2euk.s 			page 43


 903              		.cfi_restore_state
 690:Drivers/MPU6050/inv_mpu_dmp_motion_driver.c ****     div = DMP_SAMPLE_RATE / rate - 1;
 904              		.loc 1 690 16 view .LVU314
 905 004c 4FF0FF30 		mov	r0, #-1
 906 0050 FAE7     		b	.L40
 907              	.LVL33:
 908              	.L43:
 695:Drivers/MPU6050/inv_mpu_dmp_motion_driver.c ****     if (mpu_write_mem(CFG_6, 12, (unsigned char*)regs_end))
 909              		.loc 1 695 16 view .LVU315
 910 0052 4FF0FF30 		mov	r0, #-1
 911 0056 F7E7     		b	.L40
 912              	.L44:
 697:Drivers/MPU6050/inv_mpu_dmp_motion_driver.c **** 
 913              		.loc 1 697 16 view .LVU316
 914 0058 4FF0FF30 		mov	r0, #-1
 915 005c F4E7     		b	.L40
 916              	.L47:
 917 005e 00BF     		.align	2
 918              	.L46:
 919 0060 00000000 		.word	.LC4
 920 0064 00000000 		.word	.LANCHOR0
 921              		.cfi_endproc
 922              	.LFE562:
 924              		.section	.text.dmp_get_fifo_rate,"ax",%progbits
 925              		.align	1
 926              		.global	dmp_get_fifo_rate
 927              		.syntax unified
 928              		.thumb
 929              		.thumb_func
 931              	dmp_get_fifo_rate:
 932              	.LVL34:
 933              	.LFB563:
 709:Drivers/MPU6050/inv_mpu_dmp_motion_driver.c ****     rate[0] = dmp.fifo_rate;
 934              		.loc 1 709 1 is_stmt 1 view -0
 935              		.cfi_startproc
 936              		@ args = 0, pretend = 0, frame = 0
 937              		@ frame_needed = 0, uses_anonymous_args = 0
 938              		@ link register save eliminated.
 710:Drivers/MPU6050/inv_mpu_dmp_motion_driver.c ****     return 0;
 939              		.loc 1 710 5 view .LVU318
 710:Drivers/MPU6050/inv_mpu_dmp_motion_driver.c ****     return 0;
 940              		.loc 1 710 18 is_stmt 0 view .LVU319
 941 0000 024B     		ldr	r3, .L49
 942 0002 9B89     		ldrh	r3, [r3, #12]
 710:Drivers/MPU6050/inv_mpu_dmp_motion_driver.c ****     return 0;
 943              		.loc 1 710 13 view .LVU320
 944 0004 0380     		strh	r3, [r0]	@ movhi
 711:Drivers/MPU6050/inv_mpu_dmp_motion_driver.c **** }
 945              		.loc 1 711 5 is_stmt 1 view .LVU321
 712:Drivers/MPU6050/inv_mpu_dmp_motion_driver.c **** 
 946              		.loc 1 712 1 is_stmt 0 view .LVU322
 947 0006 0020     		movs	r0, #0
 948              	.LVL35:
 712:Drivers/MPU6050/inv_mpu_dmp_motion_driver.c **** 
 949              		.loc 1 712 1 view .LVU323
 950 0008 7047     		bx	lr
 951              	.L50:
ARM GAS  F:\msys64\tmp\ccoK2euk.s 			page 44


 952 000a 00BF     		.align	2
 953              	.L49:
 954 000c 00000000 		.word	.LANCHOR0
 955              		.cfi_endproc
 956              	.LFE563:
 958              		.section	.text.dmp_set_tap_thresh,"ax",%progbits
 959              		.align	1
 960              		.global	dmp_set_tap_thresh
 961              		.syntax unified
 962              		.thumb
 963              		.thumb_func
 965              	dmp_set_tap_thresh:
 966              	.LVL36:
 967              	.LFB564:
 721:Drivers/MPU6050/inv_mpu_dmp_motion_driver.c ****     unsigned char tmp[4], accel_fsr;
 968              		.loc 1 721 1 is_stmt 1 view -0
 969              		.cfi_startproc
 970              		@ args = 0, pretend = 0, frame = 8
 971              		@ frame_needed = 0, uses_anonymous_args = 0
 722:Drivers/MPU6050/inv_mpu_dmp_motion_driver.c ****     float scaled_thresh;
 972              		.loc 1 722 5 view .LVU325
 723:Drivers/MPU6050/inv_mpu_dmp_motion_driver.c ****     unsigned short dmp_thresh, dmp_thresh_2;
 973              		.loc 1 723 5 view .LVU326
 724:Drivers/MPU6050/inv_mpu_dmp_motion_driver.c ****     if (!(axis & TAP_XYZ) || thresh > 1600)
 974              		.loc 1 724 5 view .LVU327
 725:Drivers/MPU6050/inv_mpu_dmp_motion_driver.c ****         return -1;
 975              		.loc 1 725 5 view .LVU328
 725:Drivers/MPU6050/inv_mpu_dmp_motion_driver.c ****         return -1;
 976              		.loc 1 725 8 is_stmt 0 view .LVU329
 977 0000 10F0070F 		tst	r0, #7
 978 0004 00F0BE80 		beq	.L61
 721:Drivers/MPU6050/inv_mpu_dmp_motion_driver.c ****     unsigned char tmp[4], accel_fsr;
 979              		.loc 1 721 1 discriminator 1 view .LVU330
 980 0008 10B5     		push	{r4, lr}
 981              	.LCFI17:
 982              		.cfi_def_cfa_offset 8
 983              		.cfi_offset 4, -8
 984              		.cfi_offset 14, -4
 985 000a 2DED028B 		vpush.64	{d8}
 986              	.LCFI18:
 987              		.cfi_def_cfa_offset 16
 988              		.cfi_offset 80, -16
 989              		.cfi_offset 81, -12
 990 000e 82B0     		sub	sp, sp, #8
 991              	.LCFI19:
 992              		.cfi_def_cfa_offset 24
 993 0010 0446     		mov	r4, r0
 725:Drivers/MPU6050/inv_mpu_dmp_motion_driver.c ****         return -1;
 994              		.loc 1 725 27 discriminator 1 view .LVU331
 995 0012 B1F5C86F 		cmp	r1, #1600
 996 0016 00F2B880 		bhi	.L62
 728:Drivers/MPU6050/inv_mpu_dmp_motion_driver.c **** 
 997              		.loc 1 728 5 is_stmt 1 view .LVU332
 728:Drivers/MPU6050/inv_mpu_dmp_motion_driver.c **** 
 998              		.loc 1 728 21 is_stmt 0 view .LVU333
 999 001a 07EE901A 		vmov	s15, r1	@ int
 1000 001e F8EE677A 		vcvt.f32.u32	s15, s15
ARM GAS  F:\msys64\tmp\ccoK2euk.s 			page 45


 728:Drivers/MPU6050/inv_mpu_dmp_motion_driver.c **** 
 1001              		.loc 1 728 19 view .LVU334
 1002 0022 9FED637A 		vldr.32	s14, .L78
 1003 0026 87EE878A 		vdiv.f32	s16, s15, s14
 1004              	.LVL37:
 730:Drivers/MPU6050/inv_mpu_dmp_motion_driver.c ****     switch (accel_fsr) {
 1005              		.loc 1 730 5 is_stmt 1 view .LVU335
 1006 002a 0DF10300 		add	r0, sp, #3
 1007              	.LVL38:
 730:Drivers/MPU6050/inv_mpu_dmp_motion_driver.c ****     switch (accel_fsr) {
 1008              		.loc 1 730 5 is_stmt 0 view .LVU336
 1009 002e FFF7FEFF 		bl	mpu_get_accel_fsr
 1010              	.LVL39:
 731:Drivers/MPU6050/inv_mpu_dmp_motion_driver.c ****     case 2:
 1011              		.loc 1 731 5 is_stmt 1 view .LVU337
 1012 0032 9DF80330 		ldrb	r3, [sp, #3]	@ zero_extendqisi2
 1013 0036 023B     		subs	r3, r3, #2
 1014 0038 0E2B     		cmp	r3, #14
 1015 003a 00F2A980 		bhi	.L63
 1016 003e DFE803F0 		tbb	[pc, r3]
 1017              	.L54:
 1018 0042 08       		.byte	(.L57-.L54)/2
 1019 0043 A7       		.byte	(.L63-.L54)/2
 1020 0044 2F       		.byte	(.L56-.L54)/2
 1021 0045 A7       		.byte	(.L63-.L54)/2
 1022 0046 A7       		.byte	(.L63-.L54)/2
 1023 0047 A7       		.byte	(.L63-.L54)/2
 1024 0048 42       		.byte	(.L55-.L54)/2
 1025 0049 A7       		.byte	(.L63-.L54)/2
 1026 004a A7       		.byte	(.L63-.L54)/2
 1027 004b A7       		.byte	(.L63-.L54)/2
 1028 004c A7       		.byte	(.L63-.L54)/2
 1029 004d A7       		.byte	(.L63-.L54)/2
 1030 004e A7       		.byte	(.L63-.L54)/2
 1031 004f A7       		.byte	(.L63-.L54)/2
 1032 0050 55       		.byte	(.L53-.L54)/2
 1033 0051 00       		.p2align 1
 1034              	.L57:
 733:Drivers/MPU6050/inv_mpu_dmp_motion_driver.c ****         /* dmp_thresh * 0.75 */
 1035              		.loc 1 733 9 view .LVU338
 733:Drivers/MPU6050/inv_mpu_dmp_motion_driver.c ****         /* dmp_thresh * 0.75 */
 1036              		.loc 1 733 53 is_stmt 0 view .LVU339
 1037 0052 DFED587A 		vldr.32	s15, .L78+4
 1038 0056 68EE277A 		vmul.f32	s15, s16, s15
 733:Drivers/MPU6050/inv_mpu_dmp_motion_driver.c ****         /* dmp_thresh * 0.75 */
 1039              		.loc 1 733 20 view .LVU340
 1040 005a FCEEE77A 		vcvt.u32.f32	s15, s15
 1041 005e 17EE903A 		vmov	r3, s15	@ int
 1042 0062 9BB2     		uxth	r3, r3
 1043              	.LVL40:
 735:Drivers/MPU6050/inv_mpu_dmp_motion_driver.c ****         break;
 1044              		.loc 1 735 9 is_stmt 1 view .LVU341
 735:Drivers/MPU6050/inv_mpu_dmp_motion_driver.c ****         break;
 1045              		.loc 1 735 55 is_stmt 0 view .LVU342
 1046 0064 DFED547A 		vldr.32	s15, .L78+8
 1047 0068 28EE278A 		vmul.f32	s16, s16, s15
 1048              	.LVL41:
ARM GAS  F:\msys64\tmp\ccoK2euk.s 			page 46


 735:Drivers/MPU6050/inv_mpu_dmp_motion_driver.c ****         break;
 1049              		.loc 1 735 22 view .LVU343
 1050 006c BCEEC88A 		vcvt.u32.f32	s16, s16
 1051 0070 18EE102A 		vmov	r2, s16	@ int
 1052 0074 92B2     		uxth	r2, r2
 1053              	.LVL42:
 736:Drivers/MPU6050/inv_mpu_dmp_motion_driver.c ****     case 4:
 1054              		.loc 1 736 9 is_stmt 1 view .LVU344
 1055              	.L58:
 755:Drivers/MPU6050/inv_mpu_dmp_motion_driver.c ****     tmp[1] = (unsigned char)(dmp_thresh & 0xFF);
 1056              		.loc 1 755 5 view .LVU345
 755:Drivers/MPU6050/inv_mpu_dmp_motion_driver.c ****     tmp[1] = (unsigned char)(dmp_thresh & 0xFF);
 1057              		.loc 1 755 14 is_stmt 0 view .LVU346
 1058 0076 190A     		lsrs	r1, r3, #8
 755:Drivers/MPU6050/inv_mpu_dmp_motion_driver.c ****     tmp[1] = (unsigned char)(dmp_thresh & 0xFF);
 1059              		.loc 1 755 12 view .LVU347
 1060 0078 8DF80410 		strb	r1, [sp, #4]
 756:Drivers/MPU6050/inv_mpu_dmp_motion_driver.c ****     tmp[2] = (unsigned char)(dmp_thresh_2 >> 8);
 1061              		.loc 1 756 5 is_stmt 1 view .LVU348
 756:Drivers/MPU6050/inv_mpu_dmp_motion_driver.c ****     tmp[2] = (unsigned char)(dmp_thresh_2 >> 8);
 1062              		.loc 1 756 12 is_stmt 0 view .LVU349
 1063 007c 8DF80530 		strb	r3, [sp, #5]
 757:Drivers/MPU6050/inv_mpu_dmp_motion_driver.c ****     tmp[3] = (unsigned char)(dmp_thresh_2 & 0xFF);
 1064              		.loc 1 757 5 is_stmt 1 view .LVU350
 757:Drivers/MPU6050/inv_mpu_dmp_motion_driver.c ****     tmp[3] = (unsigned char)(dmp_thresh_2 & 0xFF);
 1065              		.loc 1 757 14 is_stmt 0 view .LVU351
 1066 0080 130A     		lsrs	r3, r2, #8
 1067              	.LVL43:
 757:Drivers/MPU6050/inv_mpu_dmp_motion_driver.c ****     tmp[3] = (unsigned char)(dmp_thresh_2 & 0xFF);
 1068              		.loc 1 757 12 view .LVU352
 1069 0082 8DF80630 		strb	r3, [sp, #6]
 758:Drivers/MPU6050/inv_mpu_dmp_motion_driver.c **** 
 1070              		.loc 1 758 5 is_stmt 1 view .LVU353
 758:Drivers/MPU6050/inv_mpu_dmp_motion_driver.c **** 
 1071              		.loc 1 758 12 is_stmt 0 view .LVU354
 1072 0086 8DF80720 		strb	r2, [sp, #7]
 760:Drivers/MPU6050/inv_mpu_dmp_motion_driver.c ****         if (mpu_write_mem(DMP_TAP_THX, 2, tmp))
 1073              		.loc 1 760 5 is_stmt 1 view .LVU355
 760:Drivers/MPU6050/inv_mpu_dmp_motion_driver.c ****         if (mpu_write_mem(DMP_TAP_THX, 2, tmp))
 1074              		.loc 1 760 8 is_stmt 0 view .LVU356
 1075 008a 14F0010F 		tst	r4, #1
 1076 008e 40D1     		bne	.L75
 1077              	.LVL44:
 1078              	.L59:
 766:Drivers/MPU6050/inv_mpu_dmp_motion_driver.c ****         if (mpu_write_mem(DMP_TAP_THY, 2, tmp))
 1079              		.loc 1 766 5 is_stmt 1 view .LVU357
 766:Drivers/MPU6050/inv_mpu_dmp_motion_driver.c ****         if (mpu_write_mem(DMP_TAP_THY, 2, tmp))
 1080              		.loc 1 766 8 is_stmt 0 view .LVU358
 1081 0090 14F0020F 		tst	r4, #2
 1082 0094 51D1     		bne	.L76
 1083              	.L60:
 772:Drivers/MPU6050/inv_mpu_dmp_motion_driver.c ****         if (mpu_write_mem(DMP_TAP_THZ, 2, tmp))
 1084              		.loc 1 772 5 is_stmt 1 view .LVU359
 772:Drivers/MPU6050/inv_mpu_dmp_motion_driver.c ****         if (mpu_write_mem(DMP_TAP_THZ, 2, tmp))
 1085              		.loc 1 772 8 is_stmt 0 view .LVU360
 1086 0096 14F0040F 		tst	r4, #4
 1087 009a 61D1     		bne	.L77
ARM GAS  F:\msys64\tmp\ccoK2euk.s 			page 47


 778:Drivers/MPU6050/inv_mpu_dmp_motion_driver.c **** }
 1088              		.loc 1 778 12 view .LVU361
 1089 009c 0020     		movs	r0, #0
 1090 009e 79E0     		b	.L51
 1091              	.LVL45:
 1092              	.L56:
 738:Drivers/MPU6050/inv_mpu_dmp_motion_driver.c ****         /* dmp_thresh * 0.75 */
 1093              		.loc 1 738 9 is_stmt 1 view .LVU362
 738:Drivers/MPU6050/inv_mpu_dmp_motion_driver.c ****         /* dmp_thresh * 0.75 */
 1094              		.loc 1 738 53 is_stmt 0 view .LVU363
 1095 00a0 DFED467A 		vldr.32	s15, .L78+12
 1096 00a4 68EE277A 		vmul.f32	s15, s16, s15
 738:Drivers/MPU6050/inv_mpu_dmp_motion_driver.c ****         /* dmp_thresh * 0.75 */
 1097              		.loc 1 738 20 view .LVU364
 1098 00a8 FCEEE77A 		vcvt.u32.f32	s15, s15
 1099 00ac 17EE903A 		vmov	r3, s15	@ int
 1100 00b0 9BB2     		uxth	r3, r3
 1101              	.LVL46:
 740:Drivers/MPU6050/inv_mpu_dmp_motion_driver.c ****         break;
 1102              		.loc 1 740 9 is_stmt 1 view .LVU365
 740:Drivers/MPU6050/inv_mpu_dmp_motion_driver.c ****         break;
 1103              		.loc 1 740 55 is_stmt 0 view .LVU366
 1104 00b2 DFED437A 		vldr.32	s15, .L78+16
 1105 00b6 28EE278A 		vmul.f32	s16, s16, s15
 1106              	.LVL47:
 740:Drivers/MPU6050/inv_mpu_dmp_motion_driver.c ****         break;
 1107              		.loc 1 740 22 view .LVU367
 1108 00ba BCEEC88A 		vcvt.u32.f32	s16, s16
 1109 00be 18EE102A 		vmov	r2, s16	@ int
 1110 00c2 92B2     		uxth	r2, r2
 1111              	.LVL48:
 741:Drivers/MPU6050/inv_mpu_dmp_motion_driver.c ****     case 8:
 1112              		.loc 1 741 9 is_stmt 1 view .LVU368
 1113 00c4 D7E7     		b	.L58
 1114              	.LVL49:
 1115              	.L55:
 743:Drivers/MPU6050/inv_mpu_dmp_motion_driver.c ****         /* dmp_thresh * 0.75 */
 1116              		.loc 1 743 9 view .LVU369
 743:Drivers/MPU6050/inv_mpu_dmp_motion_driver.c ****         /* dmp_thresh * 0.75 */
 1117              		.loc 1 743 53 is_stmt 0 view .LVU370
 1118 00c6 DFED3F7A 		vldr.32	s15, .L78+20
 1119 00ca 68EE277A 		vmul.f32	s15, s16, s15
 743:Drivers/MPU6050/inv_mpu_dmp_motion_driver.c ****         /* dmp_thresh * 0.75 */
 1120              		.loc 1 743 20 view .LVU371
 1121 00ce FCEEE77A 		vcvt.u32.f32	s15, s15
 1122 00d2 17EE903A 		vmov	r3, s15	@ int
 1123 00d6 9BB2     		uxth	r3, r3
 1124              	.LVL50:
 745:Drivers/MPU6050/inv_mpu_dmp_motion_driver.c ****         break;
 1125              		.loc 1 745 9 is_stmt 1 view .LVU372
 745:Drivers/MPU6050/inv_mpu_dmp_motion_driver.c ****         break;
 1126              		.loc 1 745 55 is_stmt 0 view .LVU373
 1127 00d8 DFED3B7A 		vldr.32	s15, .L78+24
 1128 00dc 28EE278A 		vmul.f32	s16, s16, s15
 1129              	.LVL51:
 745:Drivers/MPU6050/inv_mpu_dmp_motion_driver.c ****         break;
 1130              		.loc 1 745 22 view .LVU374
ARM GAS  F:\msys64\tmp\ccoK2euk.s 			page 48


 1131 00e0 BCEEC88A 		vcvt.u32.f32	s16, s16
 1132 00e4 18EE102A 		vmov	r2, s16	@ int
 1133 00e8 92B2     		uxth	r2, r2
 1134              	.LVL52:
 746:Drivers/MPU6050/inv_mpu_dmp_motion_driver.c ****     case 16:
 1135              		.loc 1 746 9 is_stmt 1 view .LVU375
 1136 00ea C4E7     		b	.L58
 1137              	.LVL53:
 1138              	.L53:
 748:Drivers/MPU6050/inv_mpu_dmp_motion_driver.c ****         /* dmp_thresh * 0.75 */
 1139              		.loc 1 748 9 view .LVU376
 748:Drivers/MPU6050/inv_mpu_dmp_motion_driver.c ****         /* dmp_thresh * 0.75 */
 1140              		.loc 1 748 53 is_stmt 0 view .LVU377
 1141 00ec DFED377A 		vldr.32	s15, .L78+28
 1142 00f0 68EE277A 		vmul.f32	s15, s16, s15
 748:Drivers/MPU6050/inv_mpu_dmp_motion_driver.c ****         /* dmp_thresh * 0.75 */
 1143              		.loc 1 748 20 view .LVU378
 1144 00f4 FCEEE77A 		vcvt.u32.f32	s15, s15
 1145 00f8 17EE903A 		vmov	r3, s15	@ int
 1146 00fc 9BB2     		uxth	r3, r3
 1147              	.LVL54:
 750:Drivers/MPU6050/inv_mpu_dmp_motion_driver.c ****         break;
 1148              		.loc 1 750 9 is_stmt 1 view .LVU379
 750:Drivers/MPU6050/inv_mpu_dmp_motion_driver.c ****         break;
 1149              		.loc 1 750 55 is_stmt 0 view .LVU380
 1150 00fe DFED347A 		vldr.32	s15, .L78+32
 1151 0102 28EE278A 		vmul.f32	s16, s16, s15
 1152              	.LVL55:
 750:Drivers/MPU6050/inv_mpu_dmp_motion_driver.c ****         break;
 1153              		.loc 1 750 22 view .LVU381
 1154 0106 BCEEC88A 		vcvt.u32.f32	s16, s16
 1155 010a 18EE102A 		vmov	r2, s16	@ int
 1156 010e 92B2     		uxth	r2, r2
 1157              	.LVL56:
 751:Drivers/MPU6050/inv_mpu_dmp_motion_driver.c ****     default:
 1158              		.loc 1 751 9 is_stmt 1 view .LVU382
 1159 0110 B1E7     		b	.L58
 1160              	.LVL57:
 1161              	.L75:
 761:Drivers/MPU6050/inv_mpu_dmp_motion_driver.c ****             return -1;
 1162              		.loc 1 761 9 view .LVU383
 761:Drivers/MPU6050/inv_mpu_dmp_motion_driver.c ****             return -1;
 1163              		.loc 1 761 13 is_stmt 0 view .LVU384
 1164 0112 01AA     		add	r2, sp, #4
 1165              	.LVL58:
 761:Drivers/MPU6050/inv_mpu_dmp_motion_driver.c ****             return -1;
 1166              		.loc 1 761 13 view .LVU385
 1167 0114 0221     		movs	r1, #2
 1168 0116 4FF4EA70 		mov	r0, #468
 1169 011a FFF7FEFF 		bl	mpu_write_mem
 1170              	.LVL59:
 761:Drivers/MPU6050/inv_mpu_dmp_motion_driver.c ****             return -1;
 1171              		.loc 1 761 12 view .LVU386
 1172 011e 0028     		cmp	r0, #0
 1173 0120 3CD1     		bne	.L64
 763:Drivers/MPU6050/inv_mpu_dmp_motion_driver.c ****             return -1;
 1174              		.loc 1 763 9 is_stmt 1 view .LVU387
ARM GAS  F:\msys64\tmp\ccoK2euk.s 			page 49


 763:Drivers/MPU6050/inv_mpu_dmp_motion_driver.c ****             return -1;
 1175              		.loc 1 763 13 is_stmt 0 view .LVU388
 1176 0122 0DF10602 		add	r2, sp, #6
 1177 0126 0221     		movs	r1, #2
 1178 0128 4FF49270 		mov	r0, #292
 1179 012c FFF7FEFF 		bl	mpu_write_mem
 1180              	.LVL60:
 763:Drivers/MPU6050/inv_mpu_dmp_motion_driver.c ****             return -1;
 1181              		.loc 1 763 12 view .LVU389
 1182 0130 0028     		cmp	r0, #0
 1183 0132 ADD0     		beq	.L59
 764:Drivers/MPU6050/inv_mpu_dmp_motion_driver.c ****     }
 1184              		.loc 1 764 20 view .LVU390
 1185 0134 4FF0FF30 		mov	r0, #-1
 1186 0138 2CE0     		b	.L51
 1187              	.L76:
 767:Drivers/MPU6050/inv_mpu_dmp_motion_driver.c ****             return -1;
 1188              		.loc 1 767 9 is_stmt 1 view .LVU391
 767:Drivers/MPU6050/inv_mpu_dmp_motion_driver.c ****             return -1;
 1189              		.loc 1 767 13 is_stmt 0 view .LVU392
 1190 013a 01AA     		add	r2, sp, #4
 1191 013c 0221     		movs	r1, #2
 1192 013e 4FF4EC70 		mov	r0, #472
 1193 0142 FFF7FEFF 		bl	mpu_write_mem
 1194              	.LVL61:
 767:Drivers/MPU6050/inv_mpu_dmp_motion_driver.c ****             return -1;
 1195              		.loc 1 767 12 view .LVU393
 1196 0146 60BB     		cbnz	r0, .L66
 769:Drivers/MPU6050/inv_mpu_dmp_motion_driver.c ****             return -1;
 1197              		.loc 1 769 9 is_stmt 1 view .LVU394
 769:Drivers/MPU6050/inv_mpu_dmp_motion_driver.c ****             return -1;
 1198              		.loc 1 769 13 is_stmt 0 view .LVU395
 1199 0148 0DF10602 		add	r2, sp, #6
 1200 014c 0221     		movs	r1, #2
 1201 014e 4FF49470 		mov	r0, #296
 1202 0152 FFF7FEFF 		bl	mpu_write_mem
 1203              	.LVL62:
 769:Drivers/MPU6050/inv_mpu_dmp_motion_driver.c ****             return -1;
 1204              		.loc 1 769 12 view .LVU396
 1205 0156 0028     		cmp	r0, #0
 1206 0158 9DD0     		beq	.L60
 770:Drivers/MPU6050/inv_mpu_dmp_motion_driver.c ****     }
 1207              		.loc 1 770 20 view .LVU397
 1208 015a 4FF0FF30 		mov	r0, #-1
 1209 015e 19E0     		b	.L51
 1210              	.L77:
 773:Drivers/MPU6050/inv_mpu_dmp_motion_driver.c ****             return -1;
 1211              		.loc 1 773 9 is_stmt 1 view .LVU398
 773:Drivers/MPU6050/inv_mpu_dmp_motion_driver.c ****             return -1;
 1212              		.loc 1 773 13 is_stmt 0 view .LVU399
 1213 0160 01AA     		add	r2, sp, #4
 1214 0162 0221     		movs	r1, #2
 1215 0164 4FF4EE70 		mov	r0, #476
 1216 0168 FFF7FEFF 		bl	mpu_write_mem
 1217              	.LVL63:
 773:Drivers/MPU6050/inv_mpu_dmp_motion_driver.c ****             return -1;
 1218              		.loc 1 773 12 view .LVU400
ARM GAS  F:\msys64\tmp\ccoK2euk.s 			page 50


 1219 016c E0B9     		cbnz	r0, .L69
 775:Drivers/MPU6050/inv_mpu_dmp_motion_driver.c ****             return -1;
 1220              		.loc 1 775 9 is_stmt 1 view .LVU401
 775:Drivers/MPU6050/inv_mpu_dmp_motion_driver.c ****             return -1;
 1221              		.loc 1 775 13 is_stmt 0 view .LVU402
 1222 016e 0DF10602 		add	r2, sp, #6
 1223 0172 0221     		movs	r1, #2
 1224 0174 4FF49670 		mov	r0, #300
 1225 0178 FFF7FEFF 		bl	mpu_write_mem
 1226              	.LVL64:
 775:Drivers/MPU6050/inv_mpu_dmp_motion_driver.c ****             return -1;
 1227              		.loc 1 775 12 view .LVU403
 1228 017c 50B1     		cbz	r0, .L51
 776:Drivers/MPU6050/inv_mpu_dmp_motion_driver.c ****     }
 1229              		.loc 1 776 20 view .LVU404
 1230 017e 4FF0FF30 		mov	r0, #-1
 1231 0182 07E0     		b	.L51
 1232              	.LVL65:
 1233              	.L61:
 1234              	.LCFI20:
 1235              		.cfi_def_cfa_offset 0
 1236              		.cfi_restore 4
 1237              		.cfi_restore 14
 1238              		.cfi_restore 80
 1239              		.cfi_restore 81
 726:Drivers/MPU6050/inv_mpu_dmp_motion_driver.c **** 
 1240              		.loc 1 726 16 view .LVU405
 1241 0184 4FF0FF30 		mov	r0, #-1
 1242              	.LVL66:
 779:Drivers/MPU6050/inv_mpu_dmp_motion_driver.c **** 
 1243              		.loc 1 779 1 view .LVU406
 1244 0188 7047     		bx	lr
 1245              	.LVL67:
 1246              	.L62:
 1247              	.LCFI21:
 1248              		.cfi_def_cfa_offset 24
 1249              		.cfi_offset 4, -8
 1250              		.cfi_offset 14, -4
 1251              		.cfi_offset 80, -16
 1252              		.cfi_offset 81, -12
 726:Drivers/MPU6050/inv_mpu_dmp_motion_driver.c **** 
 1253              		.loc 1 726 16 view .LVU407
 1254 018a 4FF0FF30 		mov	r0, #-1
 1255              	.LVL68:
 726:Drivers/MPU6050/inv_mpu_dmp_motion_driver.c **** 
 1256              		.loc 1 726 16 view .LVU408
 1257 018e 01E0     		b	.L51
 1258              	.LVL69:
 1259              	.L63:
 731:Drivers/MPU6050/inv_mpu_dmp_motion_driver.c ****     case 2:
 1260              		.loc 1 731 5 view .LVU409
 1261 0190 4FF0FF30 		mov	r0, #-1
 1262              	.LVL70:
 1263              	.L51:
 779:Drivers/MPU6050/inv_mpu_dmp_motion_driver.c **** 
 1264              		.loc 1 779 1 view .LVU410
 1265 0194 02B0     		add	sp, sp, #8
ARM GAS  F:\msys64\tmp\ccoK2euk.s 			page 51


 1266              	.LCFI22:
 1267              		.cfi_remember_state
 1268              		.cfi_def_cfa_offset 16
 1269              		@ sp needed
 1270 0196 BDEC028B 		vldm	sp!, {d8}
 1271              	.LCFI23:
 1272              		.cfi_restore 80
 1273              		.cfi_restore 81
 1274              		.cfi_def_cfa_offset 8
 1275 019a 10BD     		pop	{r4, pc}
 1276              	.L64:
 1277              	.LCFI24:
 1278              		.cfi_restore_state
 762:Drivers/MPU6050/inv_mpu_dmp_motion_driver.c ****         if (mpu_write_mem(D_1_36, 2, tmp+2))
 1279              		.loc 1 762 20 view .LVU411
 1280 019c 4FF0FF30 		mov	r0, #-1
 1281 01a0 F8E7     		b	.L51
 1282              	.L66:
 768:Drivers/MPU6050/inv_mpu_dmp_motion_driver.c ****         if (mpu_write_mem(D_1_40, 2, tmp+2))
 1283              		.loc 1 768 20 view .LVU412
 1284 01a2 4FF0FF30 		mov	r0, #-1
 1285 01a6 F5E7     		b	.L51
 1286              	.L69:
 774:Drivers/MPU6050/inv_mpu_dmp_motion_driver.c ****         if (mpu_write_mem(D_1_44, 2, tmp+2))
 1287              		.loc 1 774 20 view .LVU413
 1288 01a8 4FF0FF30 		mov	r0, #-1
 1289 01ac F2E7     		b	.L51
 1290              	.L79:
 1291 01ae 00BF     		.align	2
 1292              	.L78:
 1293 01b0 00004843 		.word	1128792064
 1294 01b4 00008046 		.word	1182793728
 1295 01b8 00004046 		.word	1178599424
 1296 01bc 00000046 		.word	1174405120
 1297 01c0 0000C045 		.word	1170210816
 1298 01c4 00008045 		.word	1166016512
 1299 01c8 00004045 		.word	1161822208
 1300 01cc 00000045 		.word	1157627904
 1301 01d0 0000C044 		.word	1153433600
 1302              		.cfi_endproc
 1303              	.LFE564:
 1305              		.section	.text.dmp_set_tap_axes,"ax",%progbits
 1306              		.align	1
 1307              		.global	dmp_set_tap_axes
 1308              		.syntax unified
 1309              		.thumb
 1310              		.thumb_func
 1312              	dmp_set_tap_axes:
 1313              	.LVL71:
 1314              	.LFB565:
 787:Drivers/MPU6050/inv_mpu_dmp_motion_driver.c ****     unsigned char tmp = 0;
 1315              		.loc 1 787 1 is_stmt 1 view -0
 1316              		.cfi_startproc
 1317              		@ args = 0, pretend = 0, frame = 8
 1318              		@ frame_needed = 0, uses_anonymous_args = 0
 787:Drivers/MPU6050/inv_mpu_dmp_motion_driver.c ****     unsigned char tmp = 0;
 1319              		.loc 1 787 1 is_stmt 0 view .LVU415
ARM GAS  F:\msys64\tmp\ccoK2euk.s 			page 52


 1320 0000 00B5     		push	{lr}
 1321              	.LCFI25:
 1322              		.cfi_def_cfa_offset 4
 1323              		.cfi_offset 14, -4
 1324 0002 83B0     		sub	sp, sp, #12
 1325              	.LCFI26:
 1326              		.cfi_def_cfa_offset 16
 788:Drivers/MPU6050/inv_mpu_dmp_motion_driver.c **** 
 1327              		.loc 1 788 5 is_stmt 1 view .LVU416
 788:Drivers/MPU6050/inv_mpu_dmp_motion_driver.c **** 
 1328              		.loc 1 788 19 is_stmt 0 view .LVU417
 1329 0004 0023     		movs	r3, #0
 1330 0006 8DF80730 		strb	r3, [sp, #7]
 790:Drivers/MPU6050/inv_mpu_dmp_motion_driver.c ****         tmp |= 0x30;
 1331              		.loc 1 790 5 is_stmt 1 view .LVU418
 790:Drivers/MPU6050/inv_mpu_dmp_motion_driver.c ****         tmp |= 0x30;
 1332              		.loc 1 790 8 is_stmt 0 view .LVU419
 1333 000a 10F0010F 		tst	r0, #1
 1334 000e 02D0     		beq	.L81
 791:Drivers/MPU6050/inv_mpu_dmp_motion_driver.c ****     if (axis & TAP_Y)
 1335              		.loc 1 791 9 is_stmt 1 view .LVU420
 791:Drivers/MPU6050/inv_mpu_dmp_motion_driver.c ****     if (axis & TAP_Y)
 1336              		.loc 1 791 13 is_stmt 0 view .LVU421
 1337 0010 3023     		movs	r3, #48
 1338 0012 8DF80730 		strb	r3, [sp, #7]
 1339              	.L81:
 792:Drivers/MPU6050/inv_mpu_dmp_motion_driver.c ****         tmp |= 0x0C;
 1340              		.loc 1 792 5 is_stmt 1 view .LVU422
 792:Drivers/MPU6050/inv_mpu_dmp_motion_driver.c ****         tmp |= 0x0C;
 1341              		.loc 1 792 8 is_stmt 0 view .LVU423
 1342 0016 10F0020F 		tst	r0, #2
 1343 001a 05D0     		beq	.L82
 793:Drivers/MPU6050/inv_mpu_dmp_motion_driver.c ****     if (axis & TAP_Z)
 1344              		.loc 1 793 9 is_stmt 1 view .LVU424
 793:Drivers/MPU6050/inv_mpu_dmp_motion_driver.c ****     if (axis & TAP_Z)
 1345              		.loc 1 793 13 is_stmt 0 view .LVU425
 1346 001c 9DF80730 		ldrb	r3, [sp, #7]	@ zero_extendqisi2
 1347 0020 43F00C03 		orr	r3, r3, #12
 1348 0024 8DF80730 		strb	r3, [sp, #7]
 1349              	.L82:
 794:Drivers/MPU6050/inv_mpu_dmp_motion_driver.c ****         tmp |= 0x03;
 1350              		.loc 1 794 5 is_stmt 1 view .LVU426
 794:Drivers/MPU6050/inv_mpu_dmp_motion_driver.c ****         tmp |= 0x03;
 1351              		.loc 1 794 8 is_stmt 0 view .LVU427
 1352 0028 10F0040F 		tst	r0, #4
 1353 002c 05D0     		beq	.L83
 795:Drivers/MPU6050/inv_mpu_dmp_motion_driver.c ****     return mpu_write_mem(D_1_72, 1, &tmp);
 1354              		.loc 1 795 9 is_stmt 1 view .LVU428
 795:Drivers/MPU6050/inv_mpu_dmp_motion_driver.c ****     return mpu_write_mem(D_1_72, 1, &tmp);
 1355              		.loc 1 795 13 is_stmt 0 view .LVU429
 1356 002e 9DF80730 		ldrb	r3, [sp, #7]	@ zero_extendqisi2
 1357 0032 43F00303 		orr	r3, r3, #3
 1358 0036 8DF80730 		strb	r3, [sp, #7]
 1359              	.L83:
 796:Drivers/MPU6050/inv_mpu_dmp_motion_driver.c **** }
 1360              		.loc 1 796 5 is_stmt 1 view .LVU430
 796:Drivers/MPU6050/inv_mpu_dmp_motion_driver.c **** }
ARM GAS  F:\msys64\tmp\ccoK2euk.s 			page 53


 1361              		.loc 1 796 12 is_stmt 0 view .LVU431
 1362 003a 0DF10702 		add	r2, sp, #7
 1363 003e 0121     		movs	r1, #1
 1364 0040 4FF4A470 		mov	r0, #328
 1365              	.LVL72:
 796:Drivers/MPU6050/inv_mpu_dmp_motion_driver.c **** }
 1366              		.loc 1 796 12 view .LVU432
 1367 0044 FFF7FEFF 		bl	mpu_write_mem
 1368              	.LVL73:
 797:Drivers/MPU6050/inv_mpu_dmp_motion_driver.c **** 
 1369              		.loc 1 797 1 view .LVU433
 1370 0048 03B0     		add	sp, sp, #12
 1371              	.LCFI27:
 1372              		.cfi_def_cfa_offset 4
 1373              		@ sp needed
 1374 004a 5DF804FB 		ldr	pc, [sp], #4
 1375              		.cfi_endproc
 1376              	.LFE565:
 1378              		.section	.text.dmp_set_tap_count,"ax",%progbits
 1379              		.align	1
 1380              		.global	dmp_set_tap_count
 1381              		.syntax unified
 1382              		.thumb
 1383              		.thumb_func
 1385              	dmp_set_tap_count:
 1386              	.LVL74:
 1387              	.LFB566:
 805:Drivers/MPU6050/inv_mpu_dmp_motion_driver.c ****     unsigned char tmp;
 1388              		.loc 1 805 1 is_stmt 1 view -0
 1389              		.cfi_startproc
 1390              		@ args = 0, pretend = 0, frame = 8
 1391              		@ frame_needed = 0, uses_anonymous_args = 0
 805:Drivers/MPU6050/inv_mpu_dmp_motion_driver.c ****     unsigned char tmp;
 1392              		.loc 1 805 1 is_stmt 0 view .LVU435
 1393 0000 00B5     		push	{lr}
 1394              	.LCFI28:
 1395              		.cfi_def_cfa_offset 4
 1396              		.cfi_offset 14, -4
 1397 0002 83B0     		sub	sp, sp, #12
 1398              	.LCFI29:
 1399              		.cfi_def_cfa_offset 16
 806:Drivers/MPU6050/inv_mpu_dmp_motion_driver.c **** 
 1400              		.loc 1 806 5 is_stmt 1 view .LVU436
 808:Drivers/MPU6050/inv_mpu_dmp_motion_driver.c ****         min_taps = 1;
 1401              		.loc 1 808 5 view .LVU437
 808:Drivers/MPU6050/inv_mpu_dmp_motion_driver.c ****         min_taps = 1;
 1402              		.loc 1 808 8 is_stmt 0 view .LVU438
 1403 0004 20B1     		cbz	r0, .L87
 1404 0006 0346     		mov	r3, r0
 810:Drivers/MPU6050/inv_mpu_dmp_motion_driver.c ****         min_taps = 4;
 1405              		.loc 1 810 10 is_stmt 1 view .LVU439
 810:Drivers/MPU6050/inv_mpu_dmp_motion_driver.c ****         min_taps = 4;
 1406              		.loc 1 810 13 is_stmt 0 view .LVU440
 1407 0008 0428     		cmp	r0, #4
 1408 000a 02D9     		bls	.L86
 811:Drivers/MPU6050/inv_mpu_dmp_motion_driver.c **** 
 1409              		.loc 1 811 18 view .LVU441
ARM GAS  F:\msys64\tmp\ccoK2euk.s 			page 54


 1410 000c 0423     		movs	r3, #4
 1411 000e 00E0     		b	.L86
 1412              	.L87:
 809:Drivers/MPU6050/inv_mpu_dmp_motion_driver.c ****     else if (min_taps > 4)
 1413              		.loc 1 809 18 view .LVU442
 1414 0010 0123     		movs	r3, #1
 1415              	.L86:
 1416              	.LVL75:
 813:Drivers/MPU6050/inv_mpu_dmp_motion_driver.c ****     return mpu_write_mem(D_1_79, 1, &tmp);
 1417              		.loc 1 813 5 is_stmt 1 view .LVU443
 813:Drivers/MPU6050/inv_mpu_dmp_motion_driver.c ****     return mpu_write_mem(D_1_79, 1, &tmp);
 1418              		.loc 1 813 20 is_stmt 0 view .LVU444
 1419 0012 013B     		subs	r3, r3, #1
 1420              	.LVL76:
 813:Drivers/MPU6050/inv_mpu_dmp_motion_driver.c ****     return mpu_write_mem(D_1_79, 1, &tmp);
 1421              		.loc 1 813 9 view .LVU445
 1422 0014 8DF80730 		strb	r3, [sp, #7]
 814:Drivers/MPU6050/inv_mpu_dmp_motion_driver.c **** }
 1423              		.loc 1 814 5 is_stmt 1 view .LVU446
 814:Drivers/MPU6050/inv_mpu_dmp_motion_driver.c **** }
 1424              		.loc 1 814 12 is_stmt 0 view .LVU447
 1425 0018 0DF10702 		add	r2, sp, #7
 1426 001c 0121     		movs	r1, #1
 1427 001e 40F24F10 		movw	r0, #335
 1428 0022 FFF7FEFF 		bl	mpu_write_mem
 1429              	.LVL77:
 815:Drivers/MPU6050/inv_mpu_dmp_motion_driver.c **** 
 1430              		.loc 1 815 1 view .LVU448
 1431 0026 03B0     		add	sp, sp, #12
 1432              	.LCFI30:
 1433              		.cfi_def_cfa_offset 4
 1434              		@ sp needed
 1435 0028 5DF804FB 		ldr	pc, [sp], #4
 1436              		.cfi_endproc
 1437              	.LFE566:
 1439              		.section	.text.dmp_set_tap_time,"ax",%progbits
 1440              		.align	1
 1441              		.global	dmp_set_tap_time
 1442              		.syntax unified
 1443              		.thumb
 1444              		.thumb_func
 1446              	dmp_set_tap_time:
 1447              	.LVL78:
 1448              	.LFB567:
 823:Drivers/MPU6050/inv_mpu_dmp_motion_driver.c ****     unsigned short dmp_time;
 1449              		.loc 1 823 1 is_stmt 1 view -0
 1450              		.cfi_startproc
 1451              		@ args = 0, pretend = 0, frame = 8
 1452              		@ frame_needed = 0, uses_anonymous_args = 0
 823:Drivers/MPU6050/inv_mpu_dmp_motion_driver.c ****     unsigned short dmp_time;
 1453              		.loc 1 823 1 is_stmt 0 view .LVU450
 1454 0000 00B5     		push	{lr}
 1455              	.LCFI31:
 1456              		.cfi_def_cfa_offset 4
 1457              		.cfi_offset 14, -4
 1458 0002 83B0     		sub	sp, sp, #12
 1459              	.LCFI32:
ARM GAS  F:\msys64\tmp\ccoK2euk.s 			page 55


 1460              		.cfi_def_cfa_offset 16
 824:Drivers/MPU6050/inv_mpu_dmp_motion_driver.c ****     unsigned char tmp[2];
 1461              		.loc 1 824 5 is_stmt 1 view .LVU451
 825:Drivers/MPU6050/inv_mpu_dmp_motion_driver.c **** 
 1462              		.loc 1 825 5 view .LVU452
 827:Drivers/MPU6050/inv_mpu_dmp_motion_driver.c ****     tmp[0] = (unsigned char)(dmp_time >> 8);
 1463              		.loc 1 827 5 view .LVU453
 827:Drivers/MPU6050/inv_mpu_dmp_motion_driver.c ****     tmp[0] = (unsigned char)(dmp_time >> 8);
 1464              		.loc 1 827 14 is_stmt 0 view .LVU454
 1465 0004 094B     		ldr	r3, .L92
 1466 0006 A3FB0030 		umull	r3, r0, r3, r0
 1467              	.LVL79:
 828:Drivers/MPU6050/inv_mpu_dmp_motion_driver.c ****     tmp[1] = (unsigned char)(dmp_time & 0xFF);
 1468              		.loc 1 828 5 is_stmt 1 view .LVU455
 828:Drivers/MPU6050/inv_mpu_dmp_motion_driver.c ****     tmp[1] = (unsigned char)(dmp_time & 0xFF);
 1469              		.loc 1 828 14 is_stmt 0 view .LVU456
 1470 000a 830A     		lsrs	r3, r0, #10
 828:Drivers/MPU6050/inv_mpu_dmp_motion_driver.c ****     tmp[1] = (unsigned char)(dmp_time & 0xFF);
 1471              		.loc 1 828 12 view .LVU457
 1472 000c 8DF80430 		strb	r3, [sp, #4]
 829:Drivers/MPU6050/inv_mpu_dmp_motion_driver.c ****     return mpu_write_mem(DMP_TAPW_MIN, 2, tmp);
 1473              		.loc 1 829 5 is_stmt 1 view .LVU458
 829:Drivers/MPU6050/inv_mpu_dmp_motion_driver.c ****     return mpu_write_mem(DMP_TAPW_MIN, 2, tmp);
 1474              		.loc 1 829 14 is_stmt 0 view .LVU459
 1475 0010 C0F38700 		ubfx	r0, r0, #2, #8
 1476              	.LVL80:
 829:Drivers/MPU6050/inv_mpu_dmp_motion_driver.c ****     return mpu_write_mem(DMP_TAPW_MIN, 2, tmp);
 1477              		.loc 1 829 12 view .LVU460
 1478 0014 8DF80500 		strb	r0, [sp, #5]
 830:Drivers/MPU6050/inv_mpu_dmp_motion_driver.c **** }
 1479              		.loc 1 830 5 is_stmt 1 view .LVU461
 830:Drivers/MPU6050/inv_mpu_dmp_motion_driver.c **** }
 1480              		.loc 1 830 12 is_stmt 0 view .LVU462
 1481 0018 01AA     		add	r2, sp, #4
 1482 001a 0221     		movs	r1, #2
 1483 001c 4FF4EF70 		mov	r0, #478
 1484 0020 FFF7FEFF 		bl	mpu_write_mem
 1485              	.LVL81:
 831:Drivers/MPU6050/inv_mpu_dmp_motion_driver.c **** 
 1486              		.loc 1 831 1 view .LVU463
 1487 0024 03B0     		add	sp, sp, #12
 1488              	.LCFI33:
 1489              		.cfi_def_cfa_offset 4
 1490              		@ sp needed
 1491 0026 5DF804FB 		ldr	pc, [sp], #4
 1492              	.L93:
 1493 002a 00BF     		.align	2
 1494              	.L92:
 1495 002c CDCCCCCC 		.word	-858993459
 1496              		.cfi_endproc
 1497              	.LFE567:
 1499              		.section	.text.dmp_set_tap_time_multi,"ax",%progbits
 1500              		.align	1
 1501              		.global	dmp_set_tap_time_multi
 1502              		.syntax unified
 1503              		.thumb
 1504              		.thumb_func
ARM GAS  F:\msys64\tmp\ccoK2euk.s 			page 56


 1506              	dmp_set_tap_time_multi:
 1507              	.LVL82:
 1508              	.LFB568:
 839:Drivers/MPU6050/inv_mpu_dmp_motion_driver.c ****     unsigned short dmp_time;
 1509              		.loc 1 839 1 is_stmt 1 view -0
 1510              		.cfi_startproc
 1511              		@ args = 0, pretend = 0, frame = 8
 1512              		@ frame_needed = 0, uses_anonymous_args = 0
 839:Drivers/MPU6050/inv_mpu_dmp_motion_driver.c ****     unsigned short dmp_time;
 1513              		.loc 1 839 1 is_stmt 0 view .LVU465
 1514 0000 00B5     		push	{lr}
 1515              	.LCFI34:
 1516              		.cfi_def_cfa_offset 4
 1517              		.cfi_offset 14, -4
 1518 0002 83B0     		sub	sp, sp, #12
 1519              	.LCFI35:
 1520              		.cfi_def_cfa_offset 16
 840:Drivers/MPU6050/inv_mpu_dmp_motion_driver.c ****     unsigned char tmp[2];
 1521              		.loc 1 840 5 is_stmt 1 view .LVU466
 841:Drivers/MPU6050/inv_mpu_dmp_motion_driver.c **** 
 1522              		.loc 1 841 5 view .LVU467
 843:Drivers/MPU6050/inv_mpu_dmp_motion_driver.c ****     tmp[0] = (unsigned char)(dmp_time >> 8);
 1523              		.loc 1 843 5 view .LVU468
 843:Drivers/MPU6050/inv_mpu_dmp_motion_driver.c ****     tmp[0] = (unsigned char)(dmp_time >> 8);
 1524              		.loc 1 843 14 is_stmt 0 view .LVU469
 1525 0004 094B     		ldr	r3, .L96
 1526 0006 A3FB0030 		umull	r3, r0, r3, r0
 1527              	.LVL83:
 844:Drivers/MPU6050/inv_mpu_dmp_motion_driver.c ****     tmp[1] = (unsigned char)(dmp_time & 0xFF);
 1528              		.loc 1 844 5 is_stmt 1 view .LVU470
 844:Drivers/MPU6050/inv_mpu_dmp_motion_driver.c ****     tmp[1] = (unsigned char)(dmp_time & 0xFF);
 1529              		.loc 1 844 14 is_stmt 0 view .LVU471
 1530 000a 830A     		lsrs	r3, r0, #10
 844:Drivers/MPU6050/inv_mpu_dmp_motion_driver.c ****     tmp[1] = (unsigned char)(dmp_time & 0xFF);
 1531              		.loc 1 844 12 view .LVU472
 1532 000c 8DF80430 		strb	r3, [sp, #4]
 845:Drivers/MPU6050/inv_mpu_dmp_motion_driver.c ****     return mpu_write_mem(D_1_218, 2, tmp);
 1533              		.loc 1 845 5 is_stmt 1 view .LVU473
 845:Drivers/MPU6050/inv_mpu_dmp_motion_driver.c ****     return mpu_write_mem(D_1_218, 2, tmp);
 1534              		.loc 1 845 14 is_stmt 0 view .LVU474
 1535 0010 C0F38700 		ubfx	r0, r0, #2, #8
 1536              	.LVL84:
 845:Drivers/MPU6050/inv_mpu_dmp_motion_driver.c ****     return mpu_write_mem(D_1_218, 2, tmp);
 1537              		.loc 1 845 12 view .LVU475
 1538 0014 8DF80500 		strb	r0, [sp, #5]
 846:Drivers/MPU6050/inv_mpu_dmp_motion_driver.c **** }
 1539              		.loc 1 846 5 is_stmt 1 view .LVU476
 846:Drivers/MPU6050/inv_mpu_dmp_motion_driver.c **** }
 1540              		.loc 1 846 12 is_stmt 0 view .LVU477
 1541 0018 01AA     		add	r2, sp, #4
 1542 001a 0221     		movs	r1, #2
 1543 001c 4FF4ED70 		mov	r0, #474
 1544 0020 FFF7FEFF 		bl	mpu_write_mem
 1545              	.LVL85:
 847:Drivers/MPU6050/inv_mpu_dmp_motion_driver.c **** 
 1546              		.loc 1 847 1 view .LVU478
 1547 0024 03B0     		add	sp, sp, #12
ARM GAS  F:\msys64\tmp\ccoK2euk.s 			page 57


 1548              	.LCFI36:
 1549              		.cfi_def_cfa_offset 4
 1550              		@ sp needed
 1551 0026 5DF804FB 		ldr	pc, [sp], #4
 1552              	.L97:
 1553 002a 00BF     		.align	2
 1554              	.L96:
 1555 002c CDCCCCCC 		.word	-858993459
 1556              		.cfi_endproc
 1557              	.LFE568:
 1559              		.section	.text.dmp_set_shake_reject_thresh,"ax",%progbits
 1560              		.align	1
 1561              		.global	dmp_set_shake_reject_thresh
 1562              		.syntax unified
 1563              		.thumb
 1564              		.thumb_func
 1566              	dmp_set_shake_reject_thresh:
 1567              	.LVL86:
 1568              	.LFB569:
 857:Drivers/MPU6050/inv_mpu_dmp_motion_driver.c ****     unsigned char tmp[4];
 1569              		.loc 1 857 1 is_stmt 1 view -0
 1570              		.cfi_startproc
 1571              		@ args = 0, pretend = 0, frame = 8
 1572              		@ frame_needed = 0, uses_anonymous_args = 0
 857:Drivers/MPU6050/inv_mpu_dmp_motion_driver.c ****     unsigned char tmp[4];
 1573              		.loc 1 857 1 is_stmt 0 view .LVU480
 1574 0000 00B5     		push	{lr}
 1575              	.LCFI37:
 1576              		.cfi_def_cfa_offset 4
 1577              		.cfi_offset 14, -4
 1578 0002 83B0     		sub	sp, sp, #12
 1579              	.LCFI38:
 1580              		.cfi_def_cfa_offset 16
 858:Drivers/MPU6050/inv_mpu_dmp_motion_driver.c ****     long thresh_scaled = sf / 1000 * thresh;
 1581              		.loc 1 858 5 is_stmt 1 view .LVU481
 859:Drivers/MPU6050/inv_mpu_dmp_motion_driver.c ****     tmp[0] = (unsigned char)(((long)thresh_scaled >> 24) & 0xFF);
 1582              		.loc 1 859 5 view .LVU482
 859:Drivers/MPU6050/inv_mpu_dmp_motion_driver.c ****     tmp[0] = (unsigned char)(((long)thresh_scaled >> 24) & 0xFF);
 1583              		.loc 1 859 29 is_stmt 0 view .LVU483
 1584 0004 0E4B     		ldr	r3, .L100
 1585 0006 83FB0023 		smull	r2, r3, r3, r0
 1586 000a C017     		asrs	r0, r0, #31
 1587              	.LVL87:
 859:Drivers/MPU6050/inv_mpu_dmp_motion_driver.c ****     tmp[0] = (unsigned char)(((long)thresh_scaled >> 24) & 0xFF);
 1588              		.loc 1 859 29 view .LVU484
 1589 000c C0EBA310 		rsb	r0, r0, r3, asr #6
 859:Drivers/MPU6050/inv_mpu_dmp_motion_driver.c ****     tmp[0] = (unsigned char)(((long)thresh_scaled >> 24) & 0xFF);
 1590              		.loc 1 859 10 view .LVU485
 1591 0010 00FB01F1 		mul	r1, r0, r1
 1592              	.LVL88:
 860:Drivers/MPU6050/inv_mpu_dmp_motion_driver.c ****     tmp[1] = (unsigned char)(((long)thresh_scaled >> 16) & 0xFF);
 1593              		.loc 1 860 5 is_stmt 1 view .LVU486
 860:Drivers/MPU6050/inv_mpu_dmp_motion_driver.c ****     tmp[1] = (unsigned char)(((long)thresh_scaled >> 16) & 0xFF);
 1594              		.loc 1 860 14 is_stmt 0 view .LVU487
 1595 0014 0B0E     		lsrs	r3, r1, #24
 860:Drivers/MPU6050/inv_mpu_dmp_motion_driver.c ****     tmp[1] = (unsigned char)(((long)thresh_scaled >> 16) & 0xFF);
 1596              		.loc 1 860 12 view .LVU488
ARM GAS  F:\msys64\tmp\ccoK2euk.s 			page 58


 1597 0016 8DF80430 		strb	r3, [sp, #4]
 861:Drivers/MPU6050/inv_mpu_dmp_motion_driver.c ****     tmp[2] = (unsigned char)(((long)thresh_scaled >> 8) & 0xFF);
 1598              		.loc 1 861 5 is_stmt 1 view .LVU489
 861:Drivers/MPU6050/inv_mpu_dmp_motion_driver.c ****     tmp[2] = (unsigned char)(((long)thresh_scaled >> 8) & 0xFF);
 1599              		.loc 1 861 14 is_stmt 0 view .LVU490
 1600 001a C1F30743 		ubfx	r3, r1, #16, #8
 861:Drivers/MPU6050/inv_mpu_dmp_motion_driver.c ****     tmp[2] = (unsigned char)(((long)thresh_scaled >> 8) & 0xFF);
 1601              		.loc 1 861 12 view .LVU491
 1602 001e 8DF80530 		strb	r3, [sp, #5]
 862:Drivers/MPU6050/inv_mpu_dmp_motion_driver.c ****     tmp[3] = (unsigned char)((long)thresh_scaled & 0xFF);
 1603              		.loc 1 862 5 is_stmt 1 view .LVU492
 862:Drivers/MPU6050/inv_mpu_dmp_motion_driver.c ****     tmp[3] = (unsigned char)((long)thresh_scaled & 0xFF);
 1604              		.loc 1 862 14 is_stmt 0 view .LVU493
 1605 0022 C1F30723 		ubfx	r3, r1, #8, #8
 862:Drivers/MPU6050/inv_mpu_dmp_motion_driver.c ****     tmp[3] = (unsigned char)((long)thresh_scaled & 0xFF);
 1606              		.loc 1 862 12 view .LVU494
 1607 0026 8DF80630 		strb	r3, [sp, #6]
 863:Drivers/MPU6050/inv_mpu_dmp_motion_driver.c ****     return mpu_write_mem(D_1_92, 4, tmp);
 1608              		.loc 1 863 5 is_stmt 1 view .LVU495
 863:Drivers/MPU6050/inv_mpu_dmp_motion_driver.c ****     return mpu_write_mem(D_1_92, 4, tmp);
 1609              		.loc 1 863 12 is_stmt 0 view .LVU496
 1610 002a 8DF80710 		strb	r1, [sp, #7]
 864:Drivers/MPU6050/inv_mpu_dmp_motion_driver.c **** }
 1611              		.loc 1 864 5 is_stmt 1 view .LVU497
 864:Drivers/MPU6050/inv_mpu_dmp_motion_driver.c **** }
 1612              		.loc 1 864 12 is_stmt 0 view .LVU498
 1613 002e 01AA     		add	r2, sp, #4
 1614 0030 0421     		movs	r1, #4
 1615              	.LVL89:
 864:Drivers/MPU6050/inv_mpu_dmp_motion_driver.c **** }
 1616              		.loc 1 864 12 view .LVU499
 1617 0032 4FF4AE70 		mov	r0, #348
 864:Drivers/MPU6050/inv_mpu_dmp_motion_driver.c **** }
 1618              		.loc 1 864 12 view .LVU500
 1619 0036 FFF7FEFF 		bl	mpu_write_mem
 1620              	.LVL90:
 865:Drivers/MPU6050/inv_mpu_dmp_motion_driver.c **** 
 1621              		.loc 1 865 1 view .LVU501
 1622 003a 03B0     		add	sp, sp, #12
 1623              	.LCFI39:
 1624              		.cfi_def_cfa_offset 4
 1625              		@ sp needed
 1626 003c 5DF804FB 		ldr	pc, [sp], #4
 1627              	.L101:
 1628              		.align	2
 1629              	.L100:
 1630 0040 D34D6210 		.word	274877907
 1631              		.cfi_endproc
 1632              	.LFE569:
 1634              		.section	.text.dmp_set_shake_reject_time,"ax",%progbits
 1635              		.align	1
 1636              		.global	dmp_set_shake_reject_time
 1637              		.syntax unified
 1638              		.thumb
 1639              		.thumb_func
 1641              	dmp_set_shake_reject_time:
 1642              	.LVL91:
ARM GAS  F:\msys64\tmp\ccoK2euk.s 			page 59


 1643              	.LFB570:
 876:Drivers/MPU6050/inv_mpu_dmp_motion_driver.c ****     unsigned char tmp[2];
 1644              		.loc 1 876 1 is_stmt 1 view -0
 1645              		.cfi_startproc
 1646              		@ args = 0, pretend = 0, frame = 8
 1647              		@ frame_needed = 0, uses_anonymous_args = 0
 876:Drivers/MPU6050/inv_mpu_dmp_motion_driver.c ****     unsigned char tmp[2];
 1648              		.loc 1 876 1 is_stmt 0 view .LVU503
 1649 0000 00B5     		push	{lr}
 1650              	.LCFI40:
 1651              		.cfi_def_cfa_offset 4
 1652              		.cfi_offset 14, -4
 1653 0002 83B0     		sub	sp, sp, #12
 1654              	.LCFI41:
 1655              		.cfi_def_cfa_offset 16
 877:Drivers/MPU6050/inv_mpu_dmp_motion_driver.c **** 
 1656              		.loc 1 877 5 is_stmt 1 view .LVU504
 879:Drivers/MPU6050/inv_mpu_dmp_motion_driver.c ****     tmp[0] = time >> 8;
 1657              		.loc 1 879 5 view .LVU505
 879:Drivers/MPU6050/inv_mpu_dmp_motion_driver.c ****     tmp[0] = time >> 8;
 1658              		.loc 1 879 10 is_stmt 0 view .LVU506
 1659 0004 084B     		ldr	r3, .L104
 1660 0006 A3FB0030 		umull	r3, r0, r3, r0
 1661              	.LVL92:
 879:Drivers/MPU6050/inv_mpu_dmp_motion_driver.c ****     tmp[0] = time >> 8;
 1662              		.loc 1 879 10 view .LVU507
 1663 000a 8308     		lsrs	r3, r0, #2
 1664              	.LVL93:
 880:Drivers/MPU6050/inv_mpu_dmp_motion_driver.c ****     tmp[1] = time & 0xFF;
 1665              		.loc 1 880 5 is_stmt 1 view .LVU508
 880:Drivers/MPU6050/inv_mpu_dmp_motion_driver.c ****     tmp[1] = time & 0xFF;
 1666              		.loc 1 880 12 is_stmt 0 view .LVU509
 1667 000c 800A     		lsrs	r0, r0, #10
 1668 000e 8DF80400 		strb	r0, [sp, #4]
 881:Drivers/MPU6050/inv_mpu_dmp_motion_driver.c ****     return mpu_write_mem(D_1_90,2,tmp);
 1669              		.loc 1 881 5 is_stmt 1 view .LVU510
 881:Drivers/MPU6050/inv_mpu_dmp_motion_driver.c ****     return mpu_write_mem(D_1_90,2,tmp);
 1670              		.loc 1 881 12 is_stmt 0 view .LVU511
 1671 0012 8DF80530 		strb	r3, [sp, #5]
 882:Drivers/MPU6050/inv_mpu_dmp_motion_driver.c **** }
 1672              		.loc 1 882 5 is_stmt 1 view .LVU512
 882:Drivers/MPU6050/inv_mpu_dmp_motion_driver.c **** }
 1673              		.loc 1 882 12 is_stmt 0 view .LVU513
 1674 0016 01AA     		add	r2, sp, #4
 1675 0018 0221     		movs	r1, #2
 1676 001a 4FF4AD70 		mov	r0, #346
 1677 001e FFF7FEFF 		bl	mpu_write_mem
 1678              	.LVL94:
 883:Drivers/MPU6050/inv_mpu_dmp_motion_driver.c **** 
 1679              		.loc 1 883 1 view .LVU514
 1680 0022 03B0     		add	sp, sp, #12
 1681              	.LCFI42:
 1682              		.cfi_def_cfa_offset 4
 1683              		@ sp needed
 1684 0024 5DF804FB 		ldr	pc, [sp], #4
 1685              	.L105:
 1686              		.align	2
ARM GAS  F:\msys64\tmp\ccoK2euk.s 			page 60


 1687              	.L104:
 1688 0028 CDCCCCCC 		.word	-858993459
 1689              		.cfi_endproc
 1690              	.LFE570:
 1692              		.section	.text.dmp_set_shake_reject_timeout,"ax",%progbits
 1693              		.align	1
 1694              		.global	dmp_set_shake_reject_timeout
 1695              		.syntax unified
 1696              		.thumb
 1697              		.thumb_func
 1699              	dmp_set_shake_reject_timeout:
 1700              	.LVL95:
 1701              	.LFB571:
 894:Drivers/MPU6050/inv_mpu_dmp_motion_driver.c ****     unsigned char tmp[2];
 1702              		.loc 1 894 1 is_stmt 1 view -0
 1703              		.cfi_startproc
 1704              		@ args = 0, pretend = 0, frame = 8
 1705              		@ frame_needed = 0, uses_anonymous_args = 0
 894:Drivers/MPU6050/inv_mpu_dmp_motion_driver.c ****     unsigned char tmp[2];
 1706              		.loc 1 894 1 is_stmt 0 view .LVU516
 1707 0000 00B5     		push	{lr}
 1708              	.LCFI43:
 1709              		.cfi_def_cfa_offset 4
 1710              		.cfi_offset 14, -4
 1711 0002 83B0     		sub	sp, sp, #12
 1712              	.LCFI44:
 1713              		.cfi_def_cfa_offset 16
 895:Drivers/MPU6050/inv_mpu_dmp_motion_driver.c **** 
 1714              		.loc 1 895 5 is_stmt 1 view .LVU517
 897:Drivers/MPU6050/inv_mpu_dmp_motion_driver.c ****     tmp[0] = time >> 8;
 1715              		.loc 1 897 5 view .LVU518
 897:Drivers/MPU6050/inv_mpu_dmp_motion_driver.c ****     tmp[0] = time >> 8;
 1716              		.loc 1 897 10 is_stmt 0 view .LVU519
 1717 0004 084B     		ldr	r3, .L108
 1718 0006 A3FB0030 		umull	r3, r0, r3, r0
 1719              	.LVL96:
 897:Drivers/MPU6050/inv_mpu_dmp_motion_driver.c ****     tmp[0] = time >> 8;
 1720              		.loc 1 897 10 view .LVU520
 1721 000a 8308     		lsrs	r3, r0, #2
 1722              	.LVL97:
 898:Drivers/MPU6050/inv_mpu_dmp_motion_driver.c ****     tmp[1] = time & 0xFF;
 1723              		.loc 1 898 5 is_stmt 1 view .LVU521
 898:Drivers/MPU6050/inv_mpu_dmp_motion_driver.c ****     tmp[1] = time & 0xFF;
 1724              		.loc 1 898 12 is_stmt 0 view .LVU522
 1725 000c 800A     		lsrs	r0, r0, #10
 1726 000e 8DF80400 		strb	r0, [sp, #4]
 899:Drivers/MPU6050/inv_mpu_dmp_motion_driver.c ****     return mpu_write_mem(D_1_88,2,tmp);
 1727              		.loc 1 899 5 is_stmt 1 view .LVU523
 899:Drivers/MPU6050/inv_mpu_dmp_motion_driver.c ****     return mpu_write_mem(D_1_88,2,tmp);
 1728              		.loc 1 899 12 is_stmt 0 view .LVU524
 1729 0012 8DF80530 		strb	r3, [sp, #5]
 900:Drivers/MPU6050/inv_mpu_dmp_motion_driver.c **** }
 1730              		.loc 1 900 5 is_stmt 1 view .LVU525
 900:Drivers/MPU6050/inv_mpu_dmp_motion_driver.c **** }
 1731              		.loc 1 900 12 is_stmt 0 view .LVU526
 1732 0016 01AA     		add	r2, sp, #4
 1733 0018 0221     		movs	r1, #2
ARM GAS  F:\msys64\tmp\ccoK2euk.s 			page 61


 1734 001a 4FF4AC70 		mov	r0, #344
 1735 001e FFF7FEFF 		bl	mpu_write_mem
 1736              	.LVL98:
 901:Drivers/MPU6050/inv_mpu_dmp_motion_driver.c **** 
 1737              		.loc 1 901 1 view .LVU527
 1738 0022 03B0     		add	sp, sp, #12
 1739              	.LCFI45:
 1740              		.cfi_def_cfa_offset 4
 1741              		@ sp needed
 1742 0024 5DF804FB 		ldr	pc, [sp], #4
 1743              	.L109:
 1744              		.align	2
 1745              	.L108:
 1746 0028 CDCCCCCC 		.word	-858993459
 1747              		.cfi_endproc
 1748              	.LFE571:
 1750              		.section	.text.dmp_get_pedometer_step_count,"ax",%progbits
 1751              		.align	1
 1752              		.global	dmp_get_pedometer_step_count
 1753              		.syntax unified
 1754              		.thumb
 1755              		.thumb_func
 1757              	dmp_get_pedometer_step_count:
 1758              	.LVL99:
 1759              	.LFB572:
 909:Drivers/MPU6050/inv_mpu_dmp_motion_driver.c ****     unsigned char tmp[4];
 1760              		.loc 1 909 1 is_stmt 1 view -0
 1761              		.cfi_startproc
 1762              		@ args = 0, pretend = 0, frame = 8
 1763              		@ frame_needed = 0, uses_anonymous_args = 0
 910:Drivers/MPU6050/inv_mpu_dmp_motion_driver.c ****     if (!count)
 1764              		.loc 1 910 5 view .LVU529
 911:Drivers/MPU6050/inv_mpu_dmp_motion_driver.c ****         return -1;
 1765              		.loc 1 911 5 view .LVU530
 911:Drivers/MPU6050/inv_mpu_dmp_motion_driver.c ****         return -1;
 1766              		.loc 1 911 8 is_stmt 0 view .LVU531
 1767 0000 D0B1     		cbz	r0, .L112
 909:Drivers/MPU6050/inv_mpu_dmp_motion_driver.c ****     unsigned char tmp[4];
 1768              		.loc 1 909 1 view .LVU532
 1769 0002 10B5     		push	{r4, lr}
 1770              	.LCFI46:
 1771              		.cfi_def_cfa_offset 8
 1772              		.cfi_offset 4, -8
 1773              		.cfi_offset 14, -4
 1774 0004 82B0     		sub	sp, sp, #8
 1775              	.LCFI47:
 1776              		.cfi_def_cfa_offset 16
 1777 0006 0446     		mov	r4, r0
 914:Drivers/MPU6050/inv_mpu_dmp_motion_driver.c ****         return -1;
 1778              		.loc 1 914 5 is_stmt 1 view .LVU533
 914:Drivers/MPU6050/inv_mpu_dmp_motion_driver.c ****         return -1;
 1779              		.loc 1 914 9 is_stmt 0 view .LVU534
 1780 0008 01AA     		add	r2, sp, #4
 1781 000a 0421     		movs	r1, #4
 1782 000c 4FF45870 		mov	r0, #864
 1783              	.LVL100:
 914:Drivers/MPU6050/inv_mpu_dmp_motion_driver.c ****         return -1;
ARM GAS  F:\msys64\tmp\ccoK2euk.s 			page 62


 1784              		.loc 1 914 9 view .LVU535
 1785 0010 FFF7FEFF 		bl	mpu_read_mem
 1786              	.LVL101:
 914:Drivers/MPU6050/inv_mpu_dmp_motion_driver.c ****         return -1;
 1787              		.loc 1 914 8 view .LVU536
 1788 0014 98B9     		cbnz	r0, .L113
 917:Drivers/MPU6050/inv_mpu_dmp_motion_driver.c ****         ((unsigned long)tmp[2] << 8) | tmp[3];
 1789              		.loc 1 917 5 is_stmt 1 view .LVU537
 917:Drivers/MPU6050/inv_mpu_dmp_motion_driver.c ****         ((unsigned long)tmp[2] << 8) | tmp[3];
 1790              		.loc 1 917 35 is_stmt 0 view .LVU538
 1791 0016 9DF80420 		ldrb	r2, [sp, #4]	@ zero_extendqisi2
 917:Drivers/MPU6050/inv_mpu_dmp_motion_driver.c ****         ((unsigned long)tmp[2] << 8) | tmp[3];
 1792              		.loc 1 917 67 view .LVU539
 1793 001a 9DF80530 		ldrb	r3, [sp, #5]	@ zero_extendqisi2
 917:Drivers/MPU6050/inv_mpu_dmp_motion_driver.c ****         ((unsigned long)tmp[2] << 8) | tmp[3];
 1794              		.loc 1 917 71 view .LVU540
 1795 001e 1B04     		lsls	r3, r3, #16
 917:Drivers/MPU6050/inv_mpu_dmp_motion_driver.c ****         ((unsigned long)tmp[2] << 8) | tmp[3];
 1796              		.loc 1 917 46 view .LVU541
 1797 0020 43EA0263 		orr	r3, r3, r2, lsl #24
 918:Drivers/MPU6050/inv_mpu_dmp_motion_driver.c ****     return 0;
 1798              		.loc 1 918 28 view .LVU542
 1799 0024 9DF80620 		ldrb	r2, [sp, #6]	@ zero_extendqisi2
 917:Drivers/MPU6050/inv_mpu_dmp_motion_driver.c ****         ((unsigned long)tmp[2] << 8) | tmp[3];
 1800              		.loc 1 917 78 view .LVU543
 1801 0028 43EA0223 		orr	r3, r3, r2, lsl #8
 918:Drivers/MPU6050/inv_mpu_dmp_motion_driver.c ****     return 0;
 1802              		.loc 1 918 43 view .LVU544
 1803 002c 9DF80720 		ldrb	r2, [sp, #7]	@ zero_extendqisi2
 918:Drivers/MPU6050/inv_mpu_dmp_motion_driver.c ****     return 0;
 1804              		.loc 1 918 38 view .LVU545
 1805 0030 1343     		orrs	r3, r3, r2
 917:Drivers/MPU6050/inv_mpu_dmp_motion_driver.c ****         ((unsigned long)tmp[2] << 8) | tmp[3];
 1806              		.loc 1 917 14 view .LVU546
 1807 0032 2360     		str	r3, [r4]
 919:Drivers/MPU6050/inv_mpu_dmp_motion_driver.c **** }
 1808              		.loc 1 919 5 is_stmt 1 view .LVU547
 1809              	.L110:
 920:Drivers/MPU6050/inv_mpu_dmp_motion_driver.c **** 
 1810              		.loc 1 920 1 is_stmt 0 view .LVU548
 1811 0034 02B0     		add	sp, sp, #8
 1812              	.LCFI48:
 1813              		.cfi_def_cfa_offset 8
 1814              		@ sp needed
 1815 0036 10BD     		pop	{r4, pc}
 1816              	.LVL102:
 1817              	.L112:
 1818              	.LCFI49:
 1819              		.cfi_def_cfa_offset 0
 1820              		.cfi_restore 4
 1821              		.cfi_restore 14
 912:Drivers/MPU6050/inv_mpu_dmp_motion_driver.c **** 
 1822              		.loc 1 912 16 view .LVU549
 1823 0038 4FF0FF30 		mov	r0, #-1
 1824              	.LVL103:
 920:Drivers/MPU6050/inv_mpu_dmp_motion_driver.c **** 
 1825              		.loc 1 920 1 view .LVU550
ARM GAS  F:\msys64\tmp\ccoK2euk.s 			page 63


 1826 003c 7047     		bx	lr
 1827              	.LVL104:
 1828              	.L113:
 1829              	.LCFI50:
 1830              		.cfi_def_cfa_offset 16
 1831              		.cfi_offset 4, -8
 1832              		.cfi_offset 14, -4
 915:Drivers/MPU6050/inv_mpu_dmp_motion_driver.c **** 
 1833              		.loc 1 915 16 view .LVU551
 1834 003e 4FF0FF30 		mov	r0, #-1
 1835 0042 F7E7     		b	.L110
 1836              		.cfi_endproc
 1837              	.LFE572:
 1839              		.section	.text.dmp_set_pedometer_step_count,"ax",%progbits
 1840              		.align	1
 1841              		.global	dmp_set_pedometer_step_count
 1842              		.syntax unified
 1843              		.thumb
 1844              		.thumb_func
 1846              	dmp_set_pedometer_step_count:
 1847              	.LVL105:
 1848              	.LFB573:
 930:Drivers/MPU6050/inv_mpu_dmp_motion_driver.c ****     unsigned char tmp[4];
 1849              		.loc 1 930 1 is_stmt 1 view -0
 1850              		.cfi_startproc
 1851              		@ args = 0, pretend = 0, frame = 8
 1852              		@ frame_needed = 0, uses_anonymous_args = 0
 930:Drivers/MPU6050/inv_mpu_dmp_motion_driver.c ****     unsigned char tmp[4];
 1853              		.loc 1 930 1 is_stmt 0 view .LVU553
 1854 0000 00B5     		push	{lr}
 1855              	.LCFI51:
 1856              		.cfi_def_cfa_offset 4
 1857              		.cfi_offset 14, -4
 1858 0002 83B0     		sub	sp, sp, #12
 1859              	.LCFI52:
 1860              		.cfi_def_cfa_offset 16
 931:Drivers/MPU6050/inv_mpu_dmp_motion_driver.c **** 
 1861              		.loc 1 931 5 is_stmt 1 view .LVU554
 933:Drivers/MPU6050/inv_mpu_dmp_motion_driver.c ****     tmp[1] = (unsigned char)((count >> 16) & 0xFF);
 1862              		.loc 1 933 5 view .LVU555
 933:Drivers/MPU6050/inv_mpu_dmp_motion_driver.c ****     tmp[1] = (unsigned char)((count >> 16) & 0xFF);
 1863              		.loc 1 933 14 is_stmt 0 view .LVU556
 1864 0004 030E     		lsrs	r3, r0, #24
 933:Drivers/MPU6050/inv_mpu_dmp_motion_driver.c ****     tmp[1] = (unsigned char)((count >> 16) & 0xFF);
 1865              		.loc 1 933 12 view .LVU557
 1866 0006 8DF80430 		strb	r3, [sp, #4]
 934:Drivers/MPU6050/inv_mpu_dmp_motion_driver.c ****     tmp[2] = (unsigned char)((count >> 8) & 0xFF);
 1867              		.loc 1 934 5 is_stmt 1 view .LVU558
 934:Drivers/MPU6050/inv_mpu_dmp_motion_driver.c ****     tmp[2] = (unsigned char)((count >> 8) & 0xFF);
 1868              		.loc 1 934 14 is_stmt 0 view .LVU559
 1869 000a C0F30743 		ubfx	r3, r0, #16, #8
 934:Drivers/MPU6050/inv_mpu_dmp_motion_driver.c ****     tmp[2] = (unsigned char)((count >> 8) & 0xFF);
 1870              		.loc 1 934 12 view .LVU560
 1871 000e 8DF80530 		strb	r3, [sp, #5]
 935:Drivers/MPU6050/inv_mpu_dmp_motion_driver.c ****     tmp[3] = (unsigned char)(count & 0xFF);
 1872              		.loc 1 935 5 is_stmt 1 view .LVU561
 935:Drivers/MPU6050/inv_mpu_dmp_motion_driver.c ****     tmp[3] = (unsigned char)(count & 0xFF);
ARM GAS  F:\msys64\tmp\ccoK2euk.s 			page 64


 1873              		.loc 1 935 14 is_stmt 0 view .LVU562
 1874 0012 C0F30723 		ubfx	r3, r0, #8, #8
 935:Drivers/MPU6050/inv_mpu_dmp_motion_driver.c ****     tmp[3] = (unsigned char)(count & 0xFF);
 1875              		.loc 1 935 12 view .LVU563
 1876 0016 8DF80630 		strb	r3, [sp, #6]
 936:Drivers/MPU6050/inv_mpu_dmp_motion_driver.c ****     return mpu_write_mem(D_PEDSTD_STEPCTR, 4, tmp);
 1877              		.loc 1 936 5 is_stmt 1 view .LVU564
 936:Drivers/MPU6050/inv_mpu_dmp_motion_driver.c ****     return mpu_write_mem(D_PEDSTD_STEPCTR, 4, tmp);
 1878              		.loc 1 936 12 is_stmt 0 view .LVU565
 1879 001a 8DF80700 		strb	r0, [sp, #7]
 937:Drivers/MPU6050/inv_mpu_dmp_motion_driver.c **** }
 1880              		.loc 1 937 5 is_stmt 1 view .LVU566
 937:Drivers/MPU6050/inv_mpu_dmp_motion_driver.c **** }
 1881              		.loc 1 937 12 is_stmt 0 view .LVU567
 1882 001e 01AA     		add	r2, sp, #4
 1883 0020 0421     		movs	r1, #4
 1884 0022 4FF45870 		mov	r0, #864
 1885              	.LVL106:
 937:Drivers/MPU6050/inv_mpu_dmp_motion_driver.c **** }
 1886              		.loc 1 937 12 view .LVU568
 1887 0026 FFF7FEFF 		bl	mpu_write_mem
 1888              	.LVL107:
 938:Drivers/MPU6050/inv_mpu_dmp_motion_driver.c **** 
 1889              		.loc 1 938 1 view .LVU569
 1890 002a 03B0     		add	sp, sp, #12
 1891              	.LCFI53:
 1892              		.cfi_def_cfa_offset 4
 1893              		@ sp needed
 1894 002c 5DF804FB 		ldr	pc, [sp], #4
 1895              		.cfi_endproc
 1896              	.LFE573:
 1898              		.section	.text.dmp_get_pedometer_walk_time,"ax",%progbits
 1899              		.align	1
 1900              		.global	dmp_get_pedometer_walk_time
 1901              		.syntax unified
 1902              		.thumb
 1903              		.thumb_func
 1905              	dmp_get_pedometer_walk_time:
 1906              	.LVL108:
 1907              	.LFB574:
 946:Drivers/MPU6050/inv_mpu_dmp_motion_driver.c ****     unsigned char tmp[4];
 1908              		.loc 1 946 1 is_stmt 1 view -0
 1909              		.cfi_startproc
 1910              		@ args = 0, pretend = 0, frame = 8
 1911              		@ frame_needed = 0, uses_anonymous_args = 0
 947:Drivers/MPU6050/inv_mpu_dmp_motion_driver.c ****     if (!time)
 1912              		.loc 1 947 5 view .LVU571
 948:Drivers/MPU6050/inv_mpu_dmp_motion_driver.c ****         return -1;
 1913              		.loc 1 948 5 view .LVU572
 948:Drivers/MPU6050/inv_mpu_dmp_motion_driver.c ****         return -1;
 1914              		.loc 1 948 8 is_stmt 0 view .LVU573
 1915 0000 E8B1     		cbz	r0, .L122
 946:Drivers/MPU6050/inv_mpu_dmp_motion_driver.c ****     unsigned char tmp[4];
 1916              		.loc 1 946 1 view .LVU574
 1917 0002 10B5     		push	{r4, lr}
 1918              	.LCFI54:
 1919              		.cfi_def_cfa_offset 8
ARM GAS  F:\msys64\tmp\ccoK2euk.s 			page 65


 1920              		.cfi_offset 4, -8
 1921              		.cfi_offset 14, -4
 1922 0004 82B0     		sub	sp, sp, #8
 1923              	.LCFI55:
 1924              		.cfi_def_cfa_offset 16
 1925 0006 0446     		mov	r4, r0
 951:Drivers/MPU6050/inv_mpu_dmp_motion_driver.c ****         return -1;
 1926              		.loc 1 951 5 is_stmt 1 view .LVU575
 951:Drivers/MPU6050/inv_mpu_dmp_motion_driver.c ****         return -1;
 1927              		.loc 1 951 9 is_stmt 0 view .LVU576
 1928 0008 01AA     		add	r2, sp, #4
 1929 000a 0421     		movs	r1, #4
 1930 000c 4FF47170 		mov	r0, #964
 1931              	.LVL109:
 951:Drivers/MPU6050/inv_mpu_dmp_motion_driver.c ****         return -1;
 1932              		.loc 1 951 9 view .LVU577
 1933 0010 FFF7FEFF 		bl	mpu_read_mem
 1934              	.LVL110:
 951:Drivers/MPU6050/inv_mpu_dmp_motion_driver.c ****         return -1;
 1935              		.loc 1 951 8 view .LVU578
 1936 0014 B0B9     		cbnz	r0, .L123
 954:Drivers/MPU6050/inv_mpu_dmp_motion_driver.c ****         ((unsigned long)tmp[2] << 8) | tmp[3]) * 20;
 1937              		.loc 1 954 5 is_stmt 1 view .LVU579
 954:Drivers/MPU6050/inv_mpu_dmp_motion_driver.c ****         ((unsigned long)tmp[2] << 8) | tmp[3]) * 20;
 1938              		.loc 1 954 35 is_stmt 0 view .LVU580
 1939 0016 9DF80420 		ldrb	r2, [sp, #4]	@ zero_extendqisi2
 954:Drivers/MPU6050/inv_mpu_dmp_motion_driver.c ****         ((unsigned long)tmp[2] << 8) | tmp[3]) * 20;
 1940              		.loc 1 954 67 view .LVU581
 1941 001a 9DF80530 		ldrb	r3, [sp, #5]	@ zero_extendqisi2
 954:Drivers/MPU6050/inv_mpu_dmp_motion_driver.c ****         ((unsigned long)tmp[2] << 8) | tmp[3]) * 20;
 1942              		.loc 1 954 71 view .LVU582
 1943 001e 1B04     		lsls	r3, r3, #16
 954:Drivers/MPU6050/inv_mpu_dmp_motion_driver.c ****         ((unsigned long)tmp[2] << 8) | tmp[3]) * 20;
 1944              		.loc 1 954 46 view .LVU583
 1945 0020 43EA0263 		orr	r3, r3, r2, lsl #24
 955:Drivers/MPU6050/inv_mpu_dmp_motion_driver.c ****     return 0;
 1946              		.loc 1 955 28 view .LVU584
 1947 0024 9DF80620 		ldrb	r2, [sp, #6]	@ zero_extendqisi2
 954:Drivers/MPU6050/inv_mpu_dmp_motion_driver.c ****         ((unsigned long)tmp[2] << 8) | tmp[3]) * 20;
 1948              		.loc 1 954 78 view .LVU585
 1949 0028 43EA0223 		orr	r3, r3, r2, lsl #8
 955:Drivers/MPU6050/inv_mpu_dmp_motion_driver.c ****     return 0;
 1950              		.loc 1 955 43 view .LVU586
 1951 002c 9DF80720 		ldrb	r2, [sp, #7]	@ zero_extendqisi2
 955:Drivers/MPU6050/inv_mpu_dmp_motion_driver.c ****     return 0;
 1952              		.loc 1 955 38 view .LVU587
 1953 0030 1343     		orrs	r3, r3, r2
 955:Drivers/MPU6050/inv_mpu_dmp_motion_driver.c ****     return 0;
 1954              		.loc 1 955 48 view .LVU588
 1955 0032 03EB8303 		add	r3, r3, r3, lsl #2
 1956 0036 9B00     		lsls	r3, r3, #2
 954:Drivers/MPU6050/inv_mpu_dmp_motion_driver.c ****         ((unsigned long)tmp[2] << 8) | tmp[3]) * 20;
 1957              		.loc 1 954 13 view .LVU589
 1958 0038 2360     		str	r3, [r4]
 956:Drivers/MPU6050/inv_mpu_dmp_motion_driver.c **** }
 1959              		.loc 1 956 5 is_stmt 1 view .LVU590
 1960              	.L120:
ARM GAS  F:\msys64\tmp\ccoK2euk.s 			page 66


 957:Drivers/MPU6050/inv_mpu_dmp_motion_driver.c **** 
 1961              		.loc 1 957 1 is_stmt 0 view .LVU591
 1962 003a 02B0     		add	sp, sp, #8
 1963              	.LCFI56:
 1964              		.cfi_def_cfa_offset 8
 1965              		@ sp needed
 1966 003c 10BD     		pop	{r4, pc}
 1967              	.LVL111:
 1968              	.L122:
 1969              	.LCFI57:
 1970              		.cfi_def_cfa_offset 0
 1971              		.cfi_restore 4
 1972              		.cfi_restore 14
 949:Drivers/MPU6050/inv_mpu_dmp_motion_driver.c **** 
 1973              		.loc 1 949 16 view .LVU592
 1974 003e 4FF0FF30 		mov	r0, #-1
 1975              	.LVL112:
 957:Drivers/MPU6050/inv_mpu_dmp_motion_driver.c **** 
 1976              		.loc 1 957 1 view .LVU593
 1977 0042 7047     		bx	lr
 1978              	.LVL113:
 1979              	.L123:
 1980              	.LCFI58:
 1981              		.cfi_def_cfa_offset 16
 1982              		.cfi_offset 4, -8
 1983              		.cfi_offset 14, -4
 952:Drivers/MPU6050/inv_mpu_dmp_motion_driver.c **** 
 1984              		.loc 1 952 16 view .LVU594
 1985 0044 4FF0FF30 		mov	r0, #-1
 1986 0048 F7E7     		b	.L120
 1987              		.cfi_endproc
 1988              	.LFE574:
 1990              		.section	.text.dmp_set_pedometer_walk_time,"ax",%progbits
 1991              		.align	1
 1992              		.global	dmp_set_pedometer_walk_time
 1993              		.syntax unified
 1994              		.thumb
 1995              		.thumb_func
 1997              	dmp_set_pedometer_walk_time:
 1998              	.LVL114:
 1999              	.LFB575:
 966:Drivers/MPU6050/inv_mpu_dmp_motion_driver.c ****     unsigned char tmp[4];
 2000              		.loc 1 966 1 is_stmt 1 view -0
 2001              		.cfi_startproc
 2002              		@ args = 0, pretend = 0, frame = 8
 2003              		@ frame_needed = 0, uses_anonymous_args = 0
 966:Drivers/MPU6050/inv_mpu_dmp_motion_driver.c ****     unsigned char tmp[4];
 2004              		.loc 1 966 1 is_stmt 0 view .LVU596
 2005 0000 00B5     		push	{lr}
 2006              	.LCFI59:
 2007              		.cfi_def_cfa_offset 4
 2008              		.cfi_offset 14, -4
 2009 0002 83B0     		sub	sp, sp, #12
 2010              	.LCFI60:
 2011              		.cfi_def_cfa_offset 16
 967:Drivers/MPU6050/inv_mpu_dmp_motion_driver.c **** 
 2012              		.loc 1 967 5 is_stmt 1 view .LVU597
ARM GAS  F:\msys64\tmp\ccoK2euk.s 			page 67


 969:Drivers/MPU6050/inv_mpu_dmp_motion_driver.c **** 
 2013              		.loc 1 969 5 view .LVU598
 969:Drivers/MPU6050/inv_mpu_dmp_motion_driver.c **** 
 2014              		.loc 1 969 10 is_stmt 0 view .LVU599
 2015 0004 0D4B     		ldr	r3, .L130
 2016 0006 A3FB0030 		umull	r3, r0, r3, r0
 2017              	.LVL115:
 971:Drivers/MPU6050/inv_mpu_dmp_motion_driver.c ****     tmp[1] = (unsigned char)((time >> 16) & 0xFF);
 2018              		.loc 1 971 5 is_stmt 1 view .LVU600
 971:Drivers/MPU6050/inv_mpu_dmp_motion_driver.c ****     tmp[1] = (unsigned char)((time >> 16) & 0xFF);
 2019              		.loc 1 971 14 is_stmt 0 view .LVU601
 2020 000a 030F     		lsrs	r3, r0, #28
 971:Drivers/MPU6050/inv_mpu_dmp_motion_driver.c ****     tmp[1] = (unsigned char)((time >> 16) & 0xFF);
 2021              		.loc 1 971 12 view .LVU602
 2022 000c 8DF80430 		strb	r3, [sp, #4]
 972:Drivers/MPU6050/inv_mpu_dmp_motion_driver.c ****     tmp[2] = (unsigned char)((time >> 8) & 0xFF);
 2023              		.loc 1 972 5 is_stmt 1 view .LVU603
 972:Drivers/MPU6050/inv_mpu_dmp_motion_driver.c ****     tmp[2] = (unsigned char)((time >> 8) & 0xFF);
 2024              		.loc 1 972 14 is_stmt 0 view .LVU604
 2025 0010 C0F30753 		ubfx	r3, r0, #20, #8
 972:Drivers/MPU6050/inv_mpu_dmp_motion_driver.c ****     tmp[2] = (unsigned char)((time >> 8) & 0xFF);
 2026              		.loc 1 972 12 view .LVU605
 2027 0014 8DF80530 		strb	r3, [sp, #5]
 973:Drivers/MPU6050/inv_mpu_dmp_motion_driver.c ****     tmp[3] = (unsigned char)(time & 0xFF);
 2028              		.loc 1 973 5 is_stmt 1 view .LVU606
 973:Drivers/MPU6050/inv_mpu_dmp_motion_driver.c ****     tmp[3] = (unsigned char)(time & 0xFF);
 2029              		.loc 1 973 14 is_stmt 0 view .LVU607
 2030 0018 C0F30733 		ubfx	r3, r0, #12, #8
 973:Drivers/MPU6050/inv_mpu_dmp_motion_driver.c ****     tmp[3] = (unsigned char)(time & 0xFF);
 2031              		.loc 1 973 12 view .LVU608
 2032 001c 8DF80630 		strb	r3, [sp, #6]
 974:Drivers/MPU6050/inv_mpu_dmp_motion_driver.c ****     return mpu_write_mem(D_PEDSTD_TIMECTR, 4, tmp);
 2033              		.loc 1 974 5 is_stmt 1 view .LVU609
 974:Drivers/MPU6050/inv_mpu_dmp_motion_driver.c ****     return mpu_write_mem(D_PEDSTD_TIMECTR, 4, tmp);
 2034              		.loc 1 974 14 is_stmt 0 view .LVU610
 2035 0020 C0F30710 		ubfx	r0, r0, #4, #8
 2036              	.LVL116:
 974:Drivers/MPU6050/inv_mpu_dmp_motion_driver.c ****     return mpu_write_mem(D_PEDSTD_TIMECTR, 4, tmp);
 2037              		.loc 1 974 12 view .LVU611
 2038 0024 8DF80700 		strb	r0, [sp, #7]
 975:Drivers/MPU6050/inv_mpu_dmp_motion_driver.c **** }
 2039              		.loc 1 975 5 is_stmt 1 view .LVU612
 975:Drivers/MPU6050/inv_mpu_dmp_motion_driver.c **** }
 2040              		.loc 1 975 12 is_stmt 0 view .LVU613
 2041 0028 01AA     		add	r2, sp, #4
 2042 002a 0421     		movs	r1, #4
 2043 002c 4FF47170 		mov	r0, #964
 2044 0030 FFF7FEFF 		bl	mpu_write_mem
 2045              	.LVL117:
 976:Drivers/MPU6050/inv_mpu_dmp_motion_driver.c **** 
 2046              		.loc 1 976 1 view .LVU614
 2047 0034 03B0     		add	sp, sp, #12
 2048              	.LCFI61:
 2049              		.cfi_def_cfa_offset 4
 2050              		@ sp needed
 2051 0036 5DF804FB 		ldr	pc, [sp], #4
 2052              	.L131:
ARM GAS  F:\msys64\tmp\ccoK2euk.s 			page 68


 2053 003a 00BF     		.align	2
 2054              	.L130:
 2055 003c CDCCCCCC 		.word	-858993459
 2056              		.cfi_endproc
 2057              	.LFE575:
 2059              		.section	.text.dmp_get_enabled_features,"ax",%progbits
 2060              		.align	1
 2061              		.global	dmp_get_enabled_features
 2062              		.syntax unified
 2063              		.thumb
 2064              		.thumb_func
 2066              	dmp_get_enabled_features:
 2067              	.LVL118:
 2068              	.LFB577:
1118:Drivers/MPU6050/inv_mpu_dmp_motion_driver.c ****     mask[0] = dmp.feature_mask;
 2069              		.loc 1 1118 1 is_stmt 1 view -0
 2070              		.cfi_startproc
 2071              		@ args = 0, pretend = 0, frame = 0
 2072              		@ frame_needed = 0, uses_anonymous_args = 0
 2073              		@ link register save eliminated.
1119:Drivers/MPU6050/inv_mpu_dmp_motion_driver.c ****     return 0;
 2074              		.loc 1 1119 5 view .LVU616
1119:Drivers/MPU6050/inv_mpu_dmp_motion_driver.c ****     return 0;
 2075              		.loc 1 1119 18 is_stmt 0 view .LVU617
 2076 0000 024B     		ldr	r3, .L133
 2077 0002 5B89     		ldrh	r3, [r3, #10]
1119:Drivers/MPU6050/inv_mpu_dmp_motion_driver.c ****     return 0;
 2078              		.loc 1 1119 13 view .LVU618
 2079 0004 0380     		strh	r3, [r0]	@ movhi
1120:Drivers/MPU6050/inv_mpu_dmp_motion_driver.c **** }
 2080              		.loc 1 1120 5 is_stmt 1 view .LVU619
1121:Drivers/MPU6050/inv_mpu_dmp_motion_driver.c **** 
 2081              		.loc 1 1121 1 is_stmt 0 view .LVU620
 2082 0006 0020     		movs	r0, #0
 2083              	.LVL119:
1121:Drivers/MPU6050/inv_mpu_dmp_motion_driver.c **** 
 2084              		.loc 1 1121 1 view .LVU621
 2085 0008 7047     		bx	lr
 2086              	.L134:
 2087 000a 00BF     		.align	2
 2088              	.L133:
 2089 000c 00000000 		.word	.LANCHOR0
 2090              		.cfi_endproc
 2091              	.LFE577:
 2093              		.section	.rodata.dmp_enable_gyro_cal.str1.4,"aMS",%progbits,1
 2094              		.align	2
 2095              	.LC5:
 2096 0000 B8AAB38D 		.ascii	"\270\252\263\215\264\230\0155]\000"
 2096      B4980D35 
 2096      5D00
 2097 000a 0000     		.align	2
 2098              	.LC6:
 2099 000c B8AAAAAA 		.ascii	"\270\252\252\252\260\210\303\305\307\000"
 2099      B088C3C5 
 2099      C700
 2100              		.section	.text.dmp_enable_gyro_cal,"ax",%progbits
 2101              		.align	1
ARM GAS  F:\msys64\tmp\ccoK2euk.s 			page 69


 2102              		.global	dmp_enable_gyro_cal
 2103              		.syntax unified
 2104              		.thumb
 2105              		.thumb_func
 2107              	dmp_enable_gyro_cal:
 2108              	.LVL120:
 2109              	.LFB578:
1133:Drivers/MPU6050/inv_mpu_dmp_motion_driver.c ****     if (enable) {
 2110              		.loc 1 1133 1 is_stmt 1 view -0
 2111              		.cfi_startproc
 2112              		@ args = 0, pretend = 0, frame = 16
 2113              		@ frame_needed = 0, uses_anonymous_args = 0
1133:Drivers/MPU6050/inv_mpu_dmp_motion_driver.c ****     if (enable) {
 2114              		.loc 1 1133 1 is_stmt 0 view .LVU623
 2115 0000 00B5     		push	{lr}
 2116              	.LCFI62:
 2117              		.cfi_def_cfa_offset 4
 2118              		.cfi_offset 14, -4
 2119 0002 85B0     		sub	sp, sp, #20
 2120              	.LCFI63:
 2121              		.cfi_def_cfa_offset 24
1134:Drivers/MPU6050/inv_mpu_dmp_motion_driver.c ****         unsigned char regs[9] = {0xb8, 0xaa, 0xb3, 0x8d, 0xb4, 0x98, 0x0d, 0x35, 0x5d};
 2122              		.loc 1 1134 5 is_stmt 1 view .LVU624
1134:Drivers/MPU6050/inv_mpu_dmp_motion_driver.c ****         unsigned char regs[9] = {0xb8, 0xaa, 0xb3, 0x8d, 0xb4, 0x98, 0x0d, 0x35, 0x5d};
 2123              		.loc 1 1134 8 is_stmt 0 view .LVU625
 2124 0004 68B1     		cbz	r0, .L136
 2125              	.LBB3:
1135:Drivers/MPU6050/inv_mpu_dmp_motion_driver.c ****         return mpu_write_mem(CFG_MOTION_BIAS, 9, regs);
 2126              		.loc 1 1135 9 is_stmt 1 view .LVU626
1135:Drivers/MPU6050/inv_mpu_dmp_motion_driver.c ****         return mpu_write_mem(CFG_MOTION_BIAS, 9, regs);
 2127              		.loc 1 1135 23 is_stmt 0 view .LVU627
 2128 0006 0D4A     		ldr	r2, .L139
 2129 0008 01AB     		add	r3, sp, #4
 2130 000a 07CA     		ldm	r2, {r0, r1, r2}
 2131              	.LVL121:
1135:Drivers/MPU6050/inv_mpu_dmp_motion_driver.c ****         return mpu_write_mem(CFG_MOTION_BIAS, 9, regs);
 2132              		.loc 1 1135 23 view .LVU628
 2133 000c 03C3     		stmia	r3!, {r0, r1}
 2134 000e 1A70     		strb	r2, [r3]
1136:Drivers/MPU6050/inv_mpu_dmp_motion_driver.c ****     } else {
 2135              		.loc 1 1136 9 is_stmt 1 view .LVU629
1136:Drivers/MPU6050/inv_mpu_dmp_motion_driver.c ****     } else {
 2136              		.loc 1 1136 16 is_stmt 0 view .LVU630
 2137 0010 01AA     		add	r2, sp, #4
 2138 0012 0921     		movs	r1, #9
 2139 0014 4FF49760 		mov	r0, #1208
 2140 0018 FFF7FEFF 		bl	mpu_write_mem
 2141              	.LVL122:
 2142              	.L135:
 2143              	.LBE3:
1141:Drivers/MPU6050/inv_mpu_dmp_motion_driver.c **** 
 2144              		.loc 1 1141 1 view .LVU631
 2145 001c 05B0     		add	sp, sp, #20
 2146              	.LCFI64:
 2147              		.cfi_remember_state
 2148              		.cfi_def_cfa_offset 4
 2149              		@ sp needed
ARM GAS  F:\msys64\tmp\ccoK2euk.s 			page 70


 2150 001e 5DF804FB 		ldr	pc, [sp], #4
 2151              	.LVL123:
 2152              	.L136:
 2153              	.LCFI65:
 2154              		.cfi_restore_state
 2155              	.LBB4:
1138:Drivers/MPU6050/inv_mpu_dmp_motion_driver.c ****         return mpu_write_mem(CFG_MOTION_BIAS, 9, regs);
 2156              		.loc 1 1138 9 is_stmt 1 view .LVU632
1138:Drivers/MPU6050/inv_mpu_dmp_motion_driver.c ****         return mpu_write_mem(CFG_MOTION_BIAS, 9, regs);
 2157              		.loc 1 1138 23 is_stmt 0 view .LVU633
 2158 0022 074A     		ldr	r2, .L139+4
 2159 0024 01AB     		add	r3, sp, #4
 2160 0026 07CA     		ldm	r2, {r0, r1, r2}
 2161              	.LVL124:
1138:Drivers/MPU6050/inv_mpu_dmp_motion_driver.c ****         return mpu_write_mem(CFG_MOTION_BIAS, 9, regs);
 2162              		.loc 1 1138 23 view .LVU634
 2163 0028 03C3     		stmia	r3!, {r0, r1}
 2164 002a 1A70     		strb	r2, [r3]
1139:Drivers/MPU6050/inv_mpu_dmp_motion_driver.c ****     }
 2165              		.loc 1 1139 9 is_stmt 1 view .LVU635
1139:Drivers/MPU6050/inv_mpu_dmp_motion_driver.c ****     }
 2166              		.loc 1 1139 16 is_stmt 0 view .LVU636
 2167 002c 01AA     		add	r2, sp, #4
 2168 002e 0921     		movs	r1, #9
 2169 0030 4FF49760 		mov	r0, #1208
 2170 0034 FFF7FEFF 		bl	mpu_write_mem
 2171              	.LVL125:
 2172 0038 F0E7     		b	.L135
 2173              	.L140:
 2174 003a 00BF     		.align	2
 2175              	.L139:
 2176 003c 00000000 		.word	.LC5
 2177 0040 0C000000 		.word	.LC6
 2178              	.LBE4:
 2179              		.cfi_endproc
 2180              	.LFE578:
 2182              		.section	.text.dmp_enable_lp_quat,"ax",%progbits
 2183              		.align	1
 2184              		.global	dmp_enable_lp_quat
 2185              		.syntax unified
 2186              		.thumb
 2187              		.thumb_func
 2189              	dmp_enable_lp_quat:
 2190              	.LVL126:
 2191              	.LFB579:
1151:Drivers/MPU6050/inv_mpu_dmp_motion_driver.c ****     unsigned char regs[4];
 2192              		.loc 1 1151 1 is_stmt 1 view -0
 2193              		.cfi_startproc
 2194              		@ args = 0, pretend = 0, frame = 8
 2195              		@ frame_needed = 0, uses_anonymous_args = 0
1151:Drivers/MPU6050/inv_mpu_dmp_motion_driver.c ****     unsigned char regs[4];
 2196              		.loc 1 1151 1 is_stmt 0 view .LVU638
 2197 0000 00B5     		push	{lr}
 2198              	.LCFI66:
 2199              		.cfi_def_cfa_offset 4
 2200              		.cfi_offset 14, -4
 2201 0002 83B0     		sub	sp, sp, #12
ARM GAS  F:\msys64\tmp\ccoK2euk.s 			page 71


 2202              	.LCFI67:
 2203              		.cfi_def_cfa_offset 16
1152:Drivers/MPU6050/inv_mpu_dmp_motion_driver.c ****     if (enable) {
 2204              		.loc 1 1152 5 is_stmt 1 view .LVU639
1153:Drivers/MPU6050/inv_mpu_dmp_motion_driver.c ****         regs[0] = DINBC0;
 2205              		.loc 1 1153 5 view .LVU640
1153:Drivers/MPU6050/inv_mpu_dmp_motion_driver.c ****         regs[0] = DINBC0;
 2206              		.loc 1 1153 8 is_stmt 0 view .LVU641
 2207 0004 B0B1     		cbz	r0, .L142
1154:Drivers/MPU6050/inv_mpu_dmp_motion_driver.c ****         regs[1] = DINBC2;
 2208              		.loc 1 1154 9 is_stmt 1 view .LVU642
1154:Drivers/MPU6050/inv_mpu_dmp_motion_driver.c ****         regs[1] = DINBC2;
 2209              		.loc 1 1154 17 is_stmt 0 view .LVU643
 2210 0006 C023     		movs	r3, #192
 2211 0008 8DF80430 		strb	r3, [sp, #4]
1155:Drivers/MPU6050/inv_mpu_dmp_motion_driver.c ****         regs[2] = DINBC4;
 2212              		.loc 1 1155 9 is_stmt 1 view .LVU644
1155:Drivers/MPU6050/inv_mpu_dmp_motion_driver.c ****         regs[2] = DINBC4;
 2213              		.loc 1 1155 17 is_stmt 0 view .LVU645
 2214 000c C223     		movs	r3, #194
 2215 000e 8DF80530 		strb	r3, [sp, #5]
1156:Drivers/MPU6050/inv_mpu_dmp_motion_driver.c ****         regs[3] = DINBC6;
 2216              		.loc 1 1156 9 is_stmt 1 view .LVU646
1156:Drivers/MPU6050/inv_mpu_dmp_motion_driver.c ****         regs[3] = DINBC6;
 2217              		.loc 1 1156 17 is_stmt 0 view .LVU647
 2218 0012 C423     		movs	r3, #196
 2219 0014 8DF80630 		strb	r3, [sp, #6]
1157:Drivers/MPU6050/inv_mpu_dmp_motion_driver.c ****     }
 2220              		.loc 1 1157 9 is_stmt 1 view .LVU648
1157:Drivers/MPU6050/inv_mpu_dmp_motion_driver.c ****     }
 2221              		.loc 1 1157 17 is_stmt 0 view .LVU649
 2222 0018 C623     		movs	r3, #198
 2223 001a 8DF80730 		strb	r3, [sp, #7]
 2224              	.L143:
1162:Drivers/MPU6050/inv_mpu_dmp_motion_driver.c **** 
 2225              		.loc 1 1162 5 is_stmt 1 view .LVU650
 2226 001e 01AA     		add	r2, sp, #4
 2227 0020 0421     		movs	r1, #4
 2228 0022 40F69820 		movw	r0, #2712
 2229              	.LVL127:
1162:Drivers/MPU6050/inv_mpu_dmp_motion_driver.c **** 
 2230              		.loc 1 1162 5 is_stmt 0 view .LVU651
 2231 0026 FFF7FEFF 		bl	mpu_write_mem
 2232              	.LVL128:
1164:Drivers/MPU6050/inv_mpu_dmp_motion_driver.c **** }
 2233              		.loc 1 1164 5 is_stmt 1 view .LVU652
1164:Drivers/MPU6050/inv_mpu_dmp_motion_driver.c **** }
 2234              		.loc 1 1164 12 is_stmt 0 view .LVU653
 2235 002a FFF7FEFF 		bl	mpu_reset_fifo
 2236              	.LVL129:
1165:Drivers/MPU6050/inv_mpu_dmp_motion_driver.c **** 
 2237              		.loc 1 1165 1 view .LVU654
 2238 002e 03B0     		add	sp, sp, #12
 2239              	.LCFI68:
 2240              		.cfi_remember_state
 2241              		.cfi_def_cfa_offset 4
 2242              		@ sp needed
ARM GAS  F:\msys64\tmp\ccoK2euk.s 			page 72


 2243 0030 5DF804FB 		ldr	pc, [sp], #4
 2244              	.LVL130:
 2245              	.L142:
 2246              	.LCFI69:
 2247              		.cfi_restore_state
1160:Drivers/MPU6050/inv_mpu_dmp_motion_driver.c **** 
 2248              		.loc 1 1160 9 is_stmt 1 view .LVU655
 2249 0034 4FF08B33 		mov	r3, #-1953789045
 2250 0038 0193     		str	r3, [sp, #4]
 2251 003a F0E7     		b	.L143
 2252              		.cfi_endproc
 2253              	.LFE579:
 2255              		.section	.text.dmp_enable_6x_lp_quat,"ax",%progbits
 2256              		.align	1
 2257              		.global	dmp_enable_6x_lp_quat
 2258              		.syntax unified
 2259              		.thumb
 2260              		.thumb_func
 2262              	dmp_enable_6x_lp_quat:
 2263              	.LVL131:
 2264              	.LFB580:
1175:Drivers/MPU6050/inv_mpu_dmp_motion_driver.c ****     unsigned char regs[4];
 2265              		.loc 1 1175 1 view -0
 2266              		.cfi_startproc
 2267              		@ args = 0, pretend = 0, frame = 8
 2268              		@ frame_needed = 0, uses_anonymous_args = 0
1175:Drivers/MPU6050/inv_mpu_dmp_motion_driver.c ****     unsigned char regs[4];
 2269              		.loc 1 1175 1 is_stmt 0 view .LVU657
 2270 0000 00B5     		push	{lr}
 2271              	.LCFI70:
 2272              		.cfi_def_cfa_offset 4
 2273              		.cfi_offset 14, -4
 2274 0002 83B0     		sub	sp, sp, #12
 2275              	.LCFI71:
 2276              		.cfi_def_cfa_offset 16
1176:Drivers/MPU6050/inv_mpu_dmp_motion_driver.c ****     if (enable) {
 2277              		.loc 1 1176 5 is_stmt 1 view .LVU658
1177:Drivers/MPU6050/inv_mpu_dmp_motion_driver.c ****         regs[0] = DINA20;
 2278              		.loc 1 1177 5 view .LVU659
1177:Drivers/MPU6050/inv_mpu_dmp_motion_driver.c ****         regs[0] = DINA20;
 2279              		.loc 1 1177 8 is_stmt 0 view .LVU660
 2280 0004 B0B1     		cbz	r0, .L146
1178:Drivers/MPU6050/inv_mpu_dmp_motion_driver.c ****         regs[1] = DINA28;
 2281              		.loc 1 1178 9 is_stmt 1 view .LVU661
1178:Drivers/MPU6050/inv_mpu_dmp_motion_driver.c ****         regs[1] = DINA28;
 2282              		.loc 1 1178 17 is_stmt 0 view .LVU662
 2283 0006 2023     		movs	r3, #32
 2284 0008 8DF80430 		strb	r3, [sp, #4]
1179:Drivers/MPU6050/inv_mpu_dmp_motion_driver.c ****         regs[2] = DINA30;
 2285              		.loc 1 1179 9 is_stmt 1 view .LVU663
1179:Drivers/MPU6050/inv_mpu_dmp_motion_driver.c ****         regs[2] = DINA30;
 2286              		.loc 1 1179 17 is_stmt 0 view .LVU664
 2287 000c 2823     		movs	r3, #40
 2288 000e 8DF80530 		strb	r3, [sp, #5]
1180:Drivers/MPU6050/inv_mpu_dmp_motion_driver.c ****         regs[3] = DINA38;
 2289              		.loc 1 1180 9 is_stmt 1 view .LVU665
1180:Drivers/MPU6050/inv_mpu_dmp_motion_driver.c ****         regs[3] = DINA38;
ARM GAS  F:\msys64\tmp\ccoK2euk.s 			page 73


 2290              		.loc 1 1180 17 is_stmt 0 view .LVU666
 2291 0012 3023     		movs	r3, #48
 2292 0014 8DF80630 		strb	r3, [sp, #6]
1181:Drivers/MPU6050/inv_mpu_dmp_motion_driver.c ****     } else
 2293              		.loc 1 1181 9 is_stmt 1 view .LVU667
1181:Drivers/MPU6050/inv_mpu_dmp_motion_driver.c ****     } else
 2294              		.loc 1 1181 17 is_stmt 0 view .LVU668
 2295 0018 3823     		movs	r3, #56
 2296 001a 8DF80730 		strb	r3, [sp, #7]
 2297              	.L147:
1185:Drivers/MPU6050/inv_mpu_dmp_motion_driver.c **** 
 2298              		.loc 1 1185 5 is_stmt 1 view .LVU669
 2299 001e 01AA     		add	r2, sp, #4
 2300 0020 0421     		movs	r1, #4
 2301 0022 40F69E20 		movw	r0, #2718
 2302              	.LVL132:
1185:Drivers/MPU6050/inv_mpu_dmp_motion_driver.c **** 
 2303              		.loc 1 1185 5 is_stmt 0 view .LVU670
 2304 0026 FFF7FEFF 		bl	mpu_write_mem
 2305              	.LVL133:
1187:Drivers/MPU6050/inv_mpu_dmp_motion_driver.c **** }
 2306              		.loc 1 1187 5 is_stmt 1 view .LVU671
1187:Drivers/MPU6050/inv_mpu_dmp_motion_driver.c **** }
 2307              		.loc 1 1187 12 is_stmt 0 view .LVU672
 2308 002a FFF7FEFF 		bl	mpu_reset_fifo
 2309              	.LVL134:
1188:Drivers/MPU6050/inv_mpu_dmp_motion_driver.c **** 
 2310              		.loc 1 1188 1 view .LVU673
 2311 002e 03B0     		add	sp, sp, #12
 2312              	.LCFI72:
 2313              		.cfi_remember_state
 2314              		.cfi_def_cfa_offset 4
 2315              		@ sp needed
 2316 0030 5DF804FB 		ldr	pc, [sp], #4
 2317              	.LVL135:
 2318              	.L146:
 2319              	.LCFI73:
 2320              		.cfi_restore_state
1183:Drivers/MPU6050/inv_mpu_dmp_motion_driver.c **** 
 2321              		.loc 1 1183 9 is_stmt 1 view .LVU674
 2322 0034 4FF0A333 		mov	r3, #-1549556829
 2323 0038 0193     		str	r3, [sp, #4]
 2324 003a F0E7     		b	.L147
 2325              		.cfi_endproc
 2326              	.LFE580:
 2328              		.section	.text.dmp_enable_feature,"ax",%progbits
 2329              		.align	1
 2330              		.global	dmp_enable_feature
 2331              		.syntax unified
 2332              		.thumb
 2333              		.thumb_func
 2335              	dmp_enable_feature:
 2336              	.LVL136:
 2337              	.LFB576:
 996:Drivers/MPU6050/inv_mpu_dmp_motion_driver.c ****     unsigned char tmp[10];
 2338              		.loc 1 996 1 view -0
 2339              		.cfi_startproc
ARM GAS  F:\msys64\tmp\ccoK2euk.s 			page 74


 2340              		@ args = 0, pretend = 0, frame = 16
 2341              		@ frame_needed = 0, uses_anonymous_args = 0
 996:Drivers/MPU6050/inv_mpu_dmp_motion_driver.c ****     unsigned char tmp[10];
 2342              		.loc 1 996 1 is_stmt 0 view .LVU676
 2343 0000 2DE9F041 		push	{r4, r5, r6, r7, r8, lr}
 2344              	.LCFI74:
 2345              		.cfi_def_cfa_offset 24
 2346              		.cfi_offset 4, -24
 2347              		.cfi_offset 5, -20
 2348              		.cfi_offset 6, -16
 2349              		.cfi_offset 7, -12
 2350              		.cfi_offset 8, -8
 2351              		.cfi_offset 14, -4
 2352 0004 84B0     		sub	sp, sp, #16
 2353              	.LCFI75:
 2354              		.cfi_def_cfa_offset 40
 2355 0006 0446     		mov	r4, r0
 997:Drivers/MPU6050/inv_mpu_dmp_motion_driver.c **** 
 2356              		.loc 1 997 5 is_stmt 1 view .LVU677
1003:Drivers/MPU6050/inv_mpu_dmp_motion_driver.c ****     tmp[1] = (unsigned char)((GYRO_SF >> 16) & 0xFF);
 2357              		.loc 1 1003 5 view .LVU678
1003:Drivers/MPU6050/inv_mpu_dmp_motion_driver.c ****     tmp[1] = (unsigned char)((GYRO_SF >> 16) & 0xFF);
 2358              		.loc 1 1003 12 is_stmt 0 view .LVU679
 2359 0008 0223     		movs	r3, #2
 2360 000a 8DF80430 		strb	r3, [sp, #4]
1004:Drivers/MPU6050/inv_mpu_dmp_motion_driver.c ****     tmp[2] = (unsigned char)((GYRO_SF >> 8) & 0xFF);
 2361              		.loc 1 1004 5 is_stmt 1 view .LVU680
1004:Drivers/MPU6050/inv_mpu_dmp_motion_driver.c ****     tmp[2] = (unsigned char)((GYRO_SF >> 8) & 0xFF);
 2362              		.loc 1 1004 12 is_stmt 0 view .LVU681
 2363 000e CA23     		movs	r3, #202
 2364 0010 8DF80530 		strb	r3, [sp, #5]
1005:Drivers/MPU6050/inv_mpu_dmp_motion_driver.c ****     tmp[3] = (unsigned char)(GYRO_SF & 0xFF);
 2365              		.loc 1 1005 5 is_stmt 1 view .LVU682
1005:Drivers/MPU6050/inv_mpu_dmp_motion_driver.c ****     tmp[3] = (unsigned char)(GYRO_SF & 0xFF);
 2366              		.loc 1 1005 12 is_stmt 0 view .LVU683
 2367 0014 E323     		movs	r3, #227
 2368 0016 8DF80630 		strb	r3, [sp, #6]
1006:Drivers/MPU6050/inv_mpu_dmp_motion_driver.c ****     mpu_write_mem(D_0_104, 4, tmp);
 2369              		.loc 1 1006 5 is_stmt 1 view .LVU684
1006:Drivers/MPU6050/inv_mpu_dmp_motion_driver.c ****     mpu_write_mem(D_0_104, 4, tmp);
 2370              		.loc 1 1006 12 is_stmt 0 view .LVU685
 2371 001a 0923     		movs	r3, #9
 2372 001c 8DF80730 		strb	r3, [sp, #7]
1007:Drivers/MPU6050/inv_mpu_dmp_motion_driver.c **** 
 2373              		.loc 1 1007 5 is_stmt 1 view .LVU686
 2374 0020 01AA     		add	r2, sp, #4
 2375 0022 0421     		movs	r1, #4
 2376 0024 6820     		movs	r0, #104
 2377              	.LVL137:
1007:Drivers/MPU6050/inv_mpu_dmp_motion_driver.c **** 
 2378              		.loc 1 1007 5 is_stmt 0 view .LVU687
 2379 0026 FFF7FEFF 		bl	mpu_write_mem
 2380              	.LVL138:
1010:Drivers/MPU6050/inv_mpu_dmp_motion_driver.c ****     if (mask & DMP_FEATURE_SEND_RAW_ACCEL) {
 2381              		.loc 1 1010 5 is_stmt 1 view .LVU688
1010:Drivers/MPU6050/inv_mpu_dmp_motion_driver.c ****     if (mask & DMP_FEATURE_SEND_RAW_ACCEL) {
 2382              		.loc 1 1010 12 is_stmt 0 view .LVU689
ARM GAS  F:\msys64\tmp\ccoK2euk.s 			page 75


 2383 002a A323     		movs	r3, #163
 2384 002c 8DF80430 		strb	r3, [sp, #4]
1011:Drivers/MPU6050/inv_mpu_dmp_motion_driver.c ****         tmp[1] = 0xC0;
 2385              		.loc 1 1011 5 is_stmt 1 view .LVU690
1011:Drivers/MPU6050/inv_mpu_dmp_motion_driver.c ****         tmp[1] = 0xC0;
 2386              		.loc 1 1011 8 is_stmt 0 view .LVU691
 2387 0030 14F04008 		ands	r8, r4, #64
 2388 0034 00F0B080 		beq	.L150
1012:Drivers/MPU6050/inv_mpu_dmp_motion_driver.c ****         tmp[2] = 0xC8;
 2389              		.loc 1 1012 9 is_stmt 1 view .LVU692
1012:Drivers/MPU6050/inv_mpu_dmp_motion_driver.c ****         tmp[2] = 0xC8;
 2390              		.loc 1 1012 16 is_stmt 0 view .LVU693
 2391 0038 C023     		movs	r3, #192
 2392 003a 8DF80530 		strb	r3, [sp, #5]
1013:Drivers/MPU6050/inv_mpu_dmp_motion_driver.c ****         tmp[3] = 0xC2;
 2393              		.loc 1 1013 9 is_stmt 1 view .LVU694
1013:Drivers/MPU6050/inv_mpu_dmp_motion_driver.c ****         tmp[3] = 0xC2;
 2394              		.loc 1 1013 16 is_stmt 0 view .LVU695
 2395 003e C823     		movs	r3, #200
 2396 0040 8DF80630 		strb	r3, [sp, #6]
1014:Drivers/MPU6050/inv_mpu_dmp_motion_driver.c ****     } else {
 2397              		.loc 1 1014 9 is_stmt 1 view .LVU696
1014:Drivers/MPU6050/inv_mpu_dmp_motion_driver.c ****     } else {
 2398              		.loc 1 1014 16 is_stmt 0 view .LVU697
 2399 0044 C223     		movs	r3, #194
 2400 0046 8DF80730 		strb	r3, [sp, #7]
 2401              	.L151:
1020:Drivers/MPU6050/inv_mpu_dmp_motion_driver.c ****         tmp[4] = 0xC4;
 2402              		.loc 1 1020 5 is_stmt 1 view .LVU698
1020:Drivers/MPU6050/inv_mpu_dmp_motion_driver.c ****         tmp[4] = 0xC4;
 2403              		.loc 1 1020 8 is_stmt 0 view .LVU699
 2404 004a 14F4C075 		ands	r5, r4, #384
 2405 004e 00F0AB80 		beq	.L152
1021:Drivers/MPU6050/inv_mpu_dmp_motion_driver.c ****         tmp[5] = 0xCC;
 2406              		.loc 1 1021 9 is_stmt 1 view .LVU700
1021:Drivers/MPU6050/inv_mpu_dmp_motion_driver.c ****         tmp[5] = 0xCC;
 2407              		.loc 1 1021 16 is_stmt 0 view .LVU701
 2408 0052 C423     		movs	r3, #196
 2409 0054 8DF80830 		strb	r3, [sp, #8]
1022:Drivers/MPU6050/inv_mpu_dmp_motion_driver.c ****         tmp[6] = 0xC6;
 2410              		.loc 1 1022 9 is_stmt 1 view .LVU702
1022:Drivers/MPU6050/inv_mpu_dmp_motion_driver.c ****         tmp[6] = 0xC6;
 2411              		.loc 1 1022 16 is_stmt 0 view .LVU703
 2412 0058 CC23     		movs	r3, #204
 2413 005a 8DF80930 		strb	r3, [sp, #9]
1023:Drivers/MPU6050/inv_mpu_dmp_motion_driver.c ****     } else {
 2414              		.loc 1 1023 9 is_stmt 1 view .LVU704
1023:Drivers/MPU6050/inv_mpu_dmp_motion_driver.c ****     } else {
 2415              		.loc 1 1023 16 is_stmt 0 view .LVU705
 2416 005e C623     		movs	r3, #198
 2417 0060 8DF80A30 		strb	r3, [sp, #10]
 2418              	.L153:
1029:Drivers/MPU6050/inv_mpu_dmp_motion_driver.c ****     tmp[8] = 0xA3;
 2419              		.loc 1 1029 5 is_stmt 1 view .LVU706
1029:Drivers/MPU6050/inv_mpu_dmp_motion_driver.c ****     tmp[8] = 0xA3;
 2420              		.loc 1 1029 12 is_stmt 0 view .LVU707
 2421 0064 A323     		movs	r3, #163
ARM GAS  F:\msys64\tmp\ccoK2euk.s 			page 76


 2422 0066 8DF80B30 		strb	r3, [sp, #11]
1030:Drivers/MPU6050/inv_mpu_dmp_motion_driver.c ****     tmp[9] = 0xA3;
 2423              		.loc 1 1030 5 is_stmt 1 view .LVU708
1030:Drivers/MPU6050/inv_mpu_dmp_motion_driver.c ****     tmp[9] = 0xA3;
 2424              		.loc 1 1030 12 is_stmt 0 view .LVU709
 2425 006a 8DF80C30 		strb	r3, [sp, #12]
1031:Drivers/MPU6050/inv_mpu_dmp_motion_driver.c ****     mpu_write_mem(CFG_15,10,tmp);
 2426              		.loc 1 1031 5 is_stmt 1 view .LVU710
1031:Drivers/MPU6050/inv_mpu_dmp_motion_driver.c ****     mpu_write_mem(CFG_15,10,tmp);
 2427              		.loc 1 1031 12 is_stmt 0 view .LVU711
 2428 006e 8DF80D30 		strb	r3, [sp, #13]
1032:Drivers/MPU6050/inv_mpu_dmp_motion_driver.c **** 
 2429              		.loc 1 1032 5 is_stmt 1 view .LVU712
 2430 0072 01AA     		add	r2, sp, #4
 2431 0074 0A21     		movs	r1, #10
 2432 0076 40F6A720 		movw	r0, #2727
 2433 007a FFF7FEFF 		bl	mpu_write_mem
 2434              	.LVL139:
1035:Drivers/MPU6050/inv_mpu_dmp_motion_driver.c ****         tmp[0] = DINA20;
 2435              		.loc 1 1035 5 view .LVU713
1035:Drivers/MPU6050/inv_mpu_dmp_motion_driver.c ****         tmp[0] = DINA20;
 2436              		.loc 1 1035 8 is_stmt 0 view .LVU714
 2437 007e 14F00307 		ands	r7, r4, #3
 2438 0082 00F09980 		beq	.L154
1036:Drivers/MPU6050/inv_mpu_dmp_motion_driver.c ****     else
 2439              		.loc 1 1036 9 is_stmt 1 view .LVU715
1036:Drivers/MPU6050/inv_mpu_dmp_motion_driver.c ****     else
 2440              		.loc 1 1036 16 is_stmt 0 view .LVU716
 2441 0086 2023     		movs	r3, #32
 2442 0088 8DF80430 		strb	r3, [sp, #4]
 2443              	.L155:
1039:Drivers/MPU6050/inv_mpu_dmp_motion_driver.c **** 
 2444              		.loc 1 1039 5 is_stmt 1 view .LVU717
 2445 008c 01AA     		add	r2, sp, #4
 2446 008e 0121     		movs	r1, #1
 2447 0090 40F6B620 		movw	r0, #2742
 2448 0094 FFF7FEFF 		bl	mpu_write_mem
 2449              	.LVL140:
1041:Drivers/MPU6050/inv_mpu_dmp_motion_driver.c ****         dmp_enable_gyro_cal(1);
 2450              		.loc 1 1041 5 view .LVU718
1041:Drivers/MPU6050/inv_mpu_dmp_motion_driver.c ****         dmp_enable_gyro_cal(1);
 2451              		.loc 1 1041 8 is_stmt 0 view .LVU719
 2452 0098 14F0200F 		tst	r4, #32
 2453 009c 00F09080 		beq	.L156
1042:Drivers/MPU6050/inv_mpu_dmp_motion_driver.c ****     else
 2454              		.loc 1 1042 9 is_stmt 1 view .LVU720
 2455 00a0 0120     		movs	r0, #1
 2456 00a2 FFF7FEFF 		bl	dmp_enable_gyro_cal
 2457              	.LVL141:
 2458              	.L157:
1046:Drivers/MPU6050/inv_mpu_dmp_motion_driver.c ****         if (mask & DMP_FEATURE_SEND_CAL_GYRO) {
 2459              		.loc 1 1046 5 view .LVU721
1046:Drivers/MPU6050/inv_mpu_dmp_motion_driver.c ****         if (mask & DMP_FEATURE_SEND_CAL_GYRO) {
 2460              		.loc 1 1046 8 is_stmt 0 view .LVU722
 2461 00a6 ADB1     		cbz	r5, .L158
1047:Drivers/MPU6050/inv_mpu_dmp_motion_driver.c ****             tmp[0] = 0xB2;
 2462              		.loc 1 1047 9 is_stmt 1 view .LVU723
ARM GAS  F:\msys64\tmp\ccoK2euk.s 			page 77


1047:Drivers/MPU6050/inv_mpu_dmp_motion_driver.c ****             tmp[0] = 0xB2;
 2463              		.loc 1 1047 12 is_stmt 0 view .LVU724
 2464 00a8 14F4807F 		tst	r4, #256
 2465 00ac 00F08C80 		beq	.L159
1048:Drivers/MPU6050/inv_mpu_dmp_motion_driver.c ****             tmp[1] = 0x8B;
 2466              		.loc 1 1048 13 is_stmt 1 view .LVU725
1048:Drivers/MPU6050/inv_mpu_dmp_motion_driver.c ****             tmp[1] = 0x8B;
 2467              		.loc 1 1048 20 is_stmt 0 view .LVU726
 2468 00b0 B223     		movs	r3, #178
 2469 00b2 8DF80430 		strb	r3, [sp, #4]
1049:Drivers/MPU6050/inv_mpu_dmp_motion_driver.c ****             tmp[2] = 0xB6;
 2470              		.loc 1 1049 13 is_stmt 1 view .LVU727
1049:Drivers/MPU6050/inv_mpu_dmp_motion_driver.c ****             tmp[2] = 0xB6;
 2471              		.loc 1 1049 20 is_stmt 0 view .LVU728
 2472 00b6 8B23     		movs	r3, #139
 2473 00b8 8DF80530 		strb	r3, [sp, #5]
1050:Drivers/MPU6050/inv_mpu_dmp_motion_driver.c ****             tmp[3] = 0x9B;
 2474              		.loc 1 1050 13 is_stmt 1 view .LVU729
1050:Drivers/MPU6050/inv_mpu_dmp_motion_driver.c ****             tmp[3] = 0x9B;
 2475              		.loc 1 1050 20 is_stmt 0 view .LVU730
 2476 00bc B623     		movs	r3, #182
 2477 00be 8DF80630 		strb	r3, [sp, #6]
1051:Drivers/MPU6050/inv_mpu_dmp_motion_driver.c ****         } else {
 2478              		.loc 1 1051 13 is_stmt 1 view .LVU731
1051:Drivers/MPU6050/inv_mpu_dmp_motion_driver.c ****         } else {
 2479              		.loc 1 1051 20 is_stmt 0 view .LVU732
 2480 00c2 9B23     		movs	r3, #155
 2481 00c4 8DF80730 		strb	r3, [sp, #7]
 2482              	.L160:
1058:Drivers/MPU6050/inv_mpu_dmp_motion_driver.c ****     }
 2483              		.loc 1 1058 9 is_stmt 1 view .LVU733
 2484 00c8 01AA     		add	r2, sp, #4
 2485 00ca 0421     		movs	r1, #4
 2486 00cc 40F6A220 		movw	r0, #2722
 2487 00d0 FFF7FEFF 		bl	mpu_write_mem
 2488              	.LVL142:
 2489              	.L158:
1061:Drivers/MPU6050/inv_mpu_dmp_motion_driver.c ****         /* Enable tap. */
 2490              		.loc 1 1061 5 view .LVU734
1061:Drivers/MPU6050/inv_mpu_dmp_motion_driver.c ****         /* Enable tap. */
 2491              		.loc 1 1061 8 is_stmt 0 view .LVU735
 2492 00d4 14F0010F 		tst	r4, #1
 2493 00d8 00F08380 		beq	.L161
1063:Drivers/MPU6050/inv_mpu_dmp_motion_driver.c ****         mpu_write_mem(CFG_20, 1, tmp);
 2494              		.loc 1 1063 9 is_stmt 1 view .LVU736
1063:Drivers/MPU6050/inv_mpu_dmp_motion_driver.c ****         mpu_write_mem(CFG_20, 1, tmp);
 2495              		.loc 1 1063 16 is_stmt 0 view .LVU737
 2496 00dc F823     		movs	r3, #248
 2497 00de 8DF80430 		strb	r3, [sp, #4]
1064:Drivers/MPU6050/inv_mpu_dmp_motion_driver.c ****         dmp_set_tap_thresh(TAP_XYZ, 250);
 2498              		.loc 1 1064 9 is_stmt 1 view .LVU738
 2499 00e2 01AA     		add	r2, sp, #4
 2500 00e4 0121     		movs	r1, #1
 2501 00e6 4FF40B60 		mov	r0, #2224
 2502 00ea FFF7FEFF 		bl	mpu_write_mem
 2503              	.LVL143:
1065:Drivers/MPU6050/inv_mpu_dmp_motion_driver.c ****         dmp_set_tap_axes(TAP_XYZ);
ARM GAS  F:\msys64\tmp\ccoK2euk.s 			page 78


 2504              		.loc 1 1065 9 view .LVU739
 2505 00ee FA21     		movs	r1, #250
 2506 00f0 0720     		movs	r0, #7
 2507 00f2 FFF7FEFF 		bl	dmp_set_tap_thresh
 2508              	.LVL144:
1066:Drivers/MPU6050/inv_mpu_dmp_motion_driver.c ****         dmp_set_tap_count(1);
 2509              		.loc 1 1066 9 view .LVU740
 2510 00f6 0720     		movs	r0, #7
 2511 00f8 FFF7FEFF 		bl	dmp_set_tap_axes
 2512              	.LVL145:
1067:Drivers/MPU6050/inv_mpu_dmp_motion_driver.c ****         dmp_set_tap_time(100);
 2513              		.loc 1 1067 9 view .LVU741
 2514 00fc 0120     		movs	r0, #1
 2515 00fe FFF7FEFF 		bl	dmp_set_tap_count
 2516              	.LVL146:
1068:Drivers/MPU6050/inv_mpu_dmp_motion_driver.c ****         dmp_set_tap_time_multi(500);
 2517              		.loc 1 1068 9 view .LVU742
 2518 0102 6420     		movs	r0, #100
 2519 0104 FFF7FEFF 		bl	dmp_set_tap_time
 2520              	.LVL147:
1069:Drivers/MPU6050/inv_mpu_dmp_motion_driver.c **** 
 2521              		.loc 1 1069 9 view .LVU743
 2522 0108 4FF4FA70 		mov	r0, #500
 2523 010c FFF7FEFF 		bl	dmp_set_tap_time_multi
 2524              	.LVL148:
1071:Drivers/MPU6050/inv_mpu_dmp_motion_driver.c ****         dmp_set_shake_reject_time(40);
 2525              		.loc 1 1071 9 view .LVU744
 2526 0110 C821     		movs	r1, #200
 2527 0112 3F48     		ldr	r0, .L174
 2528 0114 FFF7FEFF 		bl	dmp_set_shake_reject_thresh
 2529              	.LVL149:
1072:Drivers/MPU6050/inv_mpu_dmp_motion_driver.c ****         dmp_set_shake_reject_timeout(10);
 2530              		.loc 1 1072 9 view .LVU745
 2531 0118 2820     		movs	r0, #40
 2532 011a FFF7FEFF 		bl	dmp_set_shake_reject_time
 2533              	.LVL150:
1073:Drivers/MPU6050/inv_mpu_dmp_motion_driver.c ****     } else {
 2534              		.loc 1 1073 9 view .LVU746
 2535 011e 0A20     		movs	r0, #10
 2536 0120 FFF7FEFF 		bl	dmp_set_shake_reject_timeout
 2537              	.LVL151:
 2538              	.L162:
1079:Drivers/MPU6050/inv_mpu_dmp_motion_driver.c ****         tmp[0] = 0xD9;
 2539              		.loc 1 1079 5 view .LVU747
1079:Drivers/MPU6050/inv_mpu_dmp_motion_driver.c ****         tmp[0] = 0xD9;
 2540              		.loc 1 1079 8 is_stmt 0 view .LVU748
 2541 0124 14F0020F 		tst	r4, #2
 2542 0128 65D0     		beq	.L163
1080:Drivers/MPU6050/inv_mpu_dmp_motion_driver.c ****     } else
 2543              		.loc 1 1080 9 is_stmt 1 view .LVU749
1080:Drivers/MPU6050/inv_mpu_dmp_motion_driver.c ****     } else
 2544              		.loc 1 1080 16 is_stmt 0 view .LVU750
 2545 012a D923     		movs	r3, #217
 2546 012c 8DF80430 		strb	r3, [sp, #4]
 2547              	.L164:
1083:Drivers/MPU6050/inv_mpu_dmp_motion_driver.c **** 
 2548              		.loc 1 1083 5 is_stmt 1 view .LVU751
ARM GAS  F:\msys64\tmp\ccoK2euk.s 			page 79


 2549 0130 01AA     		add	r2, sp, #4
 2550 0132 0121     		movs	r1, #1
 2551 0134 40F23D70 		movw	r0, #1853
 2552 0138 FFF7FEFF 		bl	mpu_write_mem
 2553              	.LVL152:
1085:Drivers/MPU6050/inv_mpu_dmp_motion_driver.c ****         dmp_enable_lp_quat(1);
 2554              		.loc 1 1085 5 view .LVU752
1085:Drivers/MPU6050/inv_mpu_dmp_motion_driver.c ****         dmp_enable_lp_quat(1);
 2555              		.loc 1 1085 8 is_stmt 0 view .LVU753
 2556 013c 14F0040F 		tst	r4, #4
 2557 0140 5DD0     		beq	.L165
1086:Drivers/MPU6050/inv_mpu_dmp_motion_driver.c ****     else
 2558              		.loc 1 1086 9 is_stmt 1 view .LVU754
 2559 0142 0120     		movs	r0, #1
 2560 0144 FFF7FEFF 		bl	dmp_enable_lp_quat
 2561              	.LVL153:
 2562              	.L166:
1090:Drivers/MPU6050/inv_mpu_dmp_motion_driver.c ****         dmp_enable_6x_lp_quat(1);
 2563              		.loc 1 1090 5 view .LVU755
1090:Drivers/MPU6050/inv_mpu_dmp_motion_driver.c ****         dmp_enable_6x_lp_quat(1);
 2564              		.loc 1 1090 8 is_stmt 0 view .LVU756
 2565 0148 14F0100F 		tst	r4, #16
 2566 014c 5BD0     		beq	.L167
1091:Drivers/MPU6050/inv_mpu_dmp_motion_driver.c ****     else
 2567              		.loc 1 1091 9 is_stmt 1 view .LVU757
 2568 014e 0120     		movs	r0, #1
 2569 0150 FFF7FEFF 		bl	dmp_enable_6x_lp_quat
 2570              	.LVL154:
 2571              	.L168:
1096:Drivers/MPU6050/inv_mpu_dmp_motion_driver.c ****     mpu_reset_fifo();
 2572              		.loc 1 1096 5 view .LVU758
1096:Drivers/MPU6050/inv_mpu_dmp_motion_driver.c ****     mpu_reset_fifo();
 2573              		.loc 1 1096 22 is_stmt 0 view .LVU759
 2574 0154 2F4E     		ldr	r6, .L174+4
 2575 0156 44F00803 		orr	r3, r4, #8
 2576 015a 7381     		strh	r3, [r6, #10]	@ movhi
1097:Drivers/MPU6050/inv_mpu_dmp_motion_driver.c **** 
 2577              		.loc 1 1097 5 is_stmt 1 view .LVU760
 2578 015c FFF7FEFF 		bl	mpu_reset_fifo
 2579              	.LVL155:
1099:Drivers/MPU6050/inv_mpu_dmp_motion_driver.c ****     if (mask & DMP_FEATURE_SEND_RAW_ACCEL)
 2580              		.loc 1 1099 5 view .LVU761
1099:Drivers/MPU6050/inv_mpu_dmp_motion_driver.c ****     if (mask & DMP_FEATURE_SEND_RAW_ACCEL)
 2581              		.loc 1 1099 23 is_stmt 0 view .LVU762
 2582 0160 0023     		movs	r3, #0
 2583 0162 B373     		strb	r3, [r6, #14]
1100:Drivers/MPU6050/inv_mpu_dmp_motion_driver.c ****         dmp.packet_length += 6;
 2584              		.loc 1 1100 5 is_stmt 1 view .LVU763
1100:Drivers/MPU6050/inv_mpu_dmp_motion_driver.c ****         dmp.packet_length += 6;
 2585              		.loc 1 1100 8 is_stmt 0 view .LVU764
 2586 0164 B8F1000F 		cmp	r8, #0
 2587 0168 01D0     		beq	.L169
1101:Drivers/MPU6050/inv_mpu_dmp_motion_driver.c ****     if (mask & DMP_FEATURE_SEND_ANY_GYRO)
 2588              		.loc 1 1101 9 is_stmt 1 view .LVU765
1101:Drivers/MPU6050/inv_mpu_dmp_motion_driver.c ****     if (mask & DMP_FEATURE_SEND_ANY_GYRO)
 2589              		.loc 1 1101 27 is_stmt 0 view .LVU766
 2590 016a 0622     		movs	r2, #6
ARM GAS  F:\msys64\tmp\ccoK2euk.s 			page 80


 2591 016c B273     		strb	r2, [r6, #14]
 2592              	.L169:
1102:Drivers/MPU6050/inv_mpu_dmp_motion_driver.c ****         dmp.packet_length += 6;
 2593              		.loc 1 1102 5 is_stmt 1 view .LVU767
1102:Drivers/MPU6050/inv_mpu_dmp_motion_driver.c ****         dmp.packet_length += 6;
 2594              		.loc 1 1102 8 is_stmt 0 view .LVU768
 2595 016e 1DB1     		cbz	r5, .L170
1103:Drivers/MPU6050/inv_mpu_dmp_motion_driver.c ****     if (mask & (DMP_FEATURE_LP_QUAT | DMP_FEATURE_6X_LP_QUAT))
 2596              		.loc 1 1103 9 is_stmt 1 view .LVU769
1103:Drivers/MPU6050/inv_mpu_dmp_motion_driver.c ****     if (mask & (DMP_FEATURE_LP_QUAT | DMP_FEATURE_6X_LP_QUAT))
 2597              		.loc 1 1103 27 is_stmt 0 view .LVU770
 2598 0170 284A     		ldr	r2, .L174+4
 2599 0172 937B     		ldrb	r3, [r2, #14]	@ zero_extendqisi2
 2600 0174 0633     		adds	r3, r3, #6
 2601 0176 9373     		strb	r3, [r2, #14]
 2602              	.L170:
1104:Drivers/MPU6050/inv_mpu_dmp_motion_driver.c ****         dmp.packet_length += 16;
 2603              		.loc 1 1104 5 is_stmt 1 view .LVU771
1104:Drivers/MPU6050/inv_mpu_dmp_motion_driver.c ****         dmp.packet_length += 16;
 2604              		.loc 1 1104 8 is_stmt 0 view .LVU772
 2605 0178 14F0140F 		tst	r4, #20
 2606 017c 03D0     		beq	.L171
1105:Drivers/MPU6050/inv_mpu_dmp_motion_driver.c ****     if (mask & (DMP_FEATURE_TAP | DMP_FEATURE_ANDROID_ORIENT))
 2607              		.loc 1 1105 9 is_stmt 1 view .LVU773
1105:Drivers/MPU6050/inv_mpu_dmp_motion_driver.c ****     if (mask & (DMP_FEATURE_TAP | DMP_FEATURE_ANDROID_ORIENT))
 2608              		.loc 1 1105 27 is_stmt 0 view .LVU774
 2609 017e 254A     		ldr	r2, .L174+4
 2610 0180 937B     		ldrb	r3, [r2, #14]	@ zero_extendqisi2
 2611 0182 1033     		adds	r3, r3, #16
 2612 0184 9373     		strb	r3, [r2, #14]
 2613              	.L171:
1106:Drivers/MPU6050/inv_mpu_dmp_motion_driver.c ****         dmp.packet_length += 4;
 2614              		.loc 1 1106 5 is_stmt 1 view .LVU775
1106:Drivers/MPU6050/inv_mpu_dmp_motion_driver.c ****         dmp.packet_length += 4;
 2615              		.loc 1 1106 8 is_stmt 0 view .LVU776
 2616 0186 1FB1     		cbz	r7, .L172
1107:Drivers/MPU6050/inv_mpu_dmp_motion_driver.c **** 
 2617              		.loc 1 1107 9 is_stmt 1 view .LVU777
1107:Drivers/MPU6050/inv_mpu_dmp_motion_driver.c **** 
 2618              		.loc 1 1107 27 is_stmt 0 view .LVU778
 2619 0188 224A     		ldr	r2, .L174+4
 2620 018a 937B     		ldrb	r3, [r2, #14]	@ zero_extendqisi2
 2621 018c 0433     		adds	r3, r3, #4
 2622 018e 9373     		strb	r3, [r2, #14]
 2623              	.L172:
1109:Drivers/MPU6050/inv_mpu_dmp_motion_driver.c **** }
 2624              		.loc 1 1109 5 is_stmt 1 view .LVU779
1110:Drivers/MPU6050/inv_mpu_dmp_motion_driver.c **** 
 2625              		.loc 1 1110 1 is_stmt 0 view .LVU780
 2626 0190 0020     		movs	r0, #0
 2627 0192 04B0     		add	sp, sp, #16
 2628              	.LCFI76:
 2629              		.cfi_remember_state
 2630              		.cfi_def_cfa_offset 24
 2631              		@ sp needed
 2632 0194 BDE8F081 		pop	{r4, r5, r6, r7, r8, pc}
 2633              	.L150:
ARM GAS  F:\msys64\tmp\ccoK2euk.s 			page 81


 2634              	.LCFI77:
 2635              		.cfi_restore_state
1016:Drivers/MPU6050/inv_mpu_dmp_motion_driver.c ****         tmp[2] = 0xA3;
 2636              		.loc 1 1016 9 is_stmt 1 view .LVU781
1016:Drivers/MPU6050/inv_mpu_dmp_motion_driver.c ****         tmp[2] = 0xA3;
 2637              		.loc 1 1016 16 is_stmt 0 view .LVU782
 2638 0198 A323     		movs	r3, #163
 2639 019a 8DF80530 		strb	r3, [sp, #5]
1017:Drivers/MPU6050/inv_mpu_dmp_motion_driver.c ****         tmp[3] = 0xA3;
 2640              		.loc 1 1017 9 is_stmt 1 view .LVU783
1017:Drivers/MPU6050/inv_mpu_dmp_motion_driver.c ****         tmp[3] = 0xA3;
 2641              		.loc 1 1017 16 is_stmt 0 view .LVU784
 2642 019e 8DF80630 		strb	r3, [sp, #6]
1018:Drivers/MPU6050/inv_mpu_dmp_motion_driver.c ****     }
 2643              		.loc 1 1018 9 is_stmt 1 view .LVU785
1018:Drivers/MPU6050/inv_mpu_dmp_motion_driver.c ****     }
 2644              		.loc 1 1018 16 is_stmt 0 view .LVU786
 2645 01a2 8DF80730 		strb	r3, [sp, #7]
 2646 01a6 50E7     		b	.L151
 2647              	.L152:
1025:Drivers/MPU6050/inv_mpu_dmp_motion_driver.c ****         tmp[5] = 0xA3;
 2648              		.loc 1 1025 9 is_stmt 1 view .LVU787
1025:Drivers/MPU6050/inv_mpu_dmp_motion_driver.c ****         tmp[5] = 0xA3;
 2649              		.loc 1 1025 16 is_stmt 0 view .LVU788
 2650 01a8 A323     		movs	r3, #163
 2651 01aa 8DF80830 		strb	r3, [sp, #8]
1026:Drivers/MPU6050/inv_mpu_dmp_motion_driver.c ****         tmp[6] = 0xA3;
 2652              		.loc 1 1026 9 is_stmt 1 view .LVU789
1026:Drivers/MPU6050/inv_mpu_dmp_motion_driver.c ****         tmp[6] = 0xA3;
 2653              		.loc 1 1026 16 is_stmt 0 view .LVU790
 2654 01ae 8DF80930 		strb	r3, [sp, #9]
1027:Drivers/MPU6050/inv_mpu_dmp_motion_driver.c ****     }
 2655              		.loc 1 1027 9 is_stmt 1 view .LVU791
1027:Drivers/MPU6050/inv_mpu_dmp_motion_driver.c ****     }
 2656              		.loc 1 1027 16 is_stmt 0 view .LVU792
 2657 01b2 8DF80A30 		strb	r3, [sp, #10]
 2658 01b6 55E7     		b	.L153
 2659              	.L154:
1038:Drivers/MPU6050/inv_mpu_dmp_motion_driver.c ****     mpu_write_mem(CFG_27,1,tmp);
 2660              		.loc 1 1038 9 is_stmt 1 view .LVU793
1038:Drivers/MPU6050/inv_mpu_dmp_motion_driver.c ****     mpu_write_mem(CFG_27,1,tmp);
 2661              		.loc 1 1038 16 is_stmt 0 view .LVU794
 2662 01b8 D823     		movs	r3, #216
 2663 01ba 8DF80430 		strb	r3, [sp, #4]
 2664 01be 65E7     		b	.L155
 2665              	.L156:
1044:Drivers/MPU6050/inv_mpu_dmp_motion_driver.c **** 
 2666              		.loc 1 1044 9 is_stmt 1 view .LVU795
 2667 01c0 0020     		movs	r0, #0
 2668 01c2 FFF7FEFF 		bl	dmp_enable_gyro_cal
 2669              	.LVL156:
 2670 01c6 6EE7     		b	.L157
 2671              	.L159:
1053:Drivers/MPU6050/inv_mpu_dmp_motion_driver.c ****             tmp[1] = DINA80;
 2672              		.loc 1 1053 13 view .LVU796
1053:Drivers/MPU6050/inv_mpu_dmp_motion_driver.c ****             tmp[1] = DINA80;
 2673              		.loc 1 1053 20 is_stmt 0 view .LVU797
ARM GAS  F:\msys64\tmp\ccoK2euk.s 			page 82


 2674 01c8 B023     		movs	r3, #176
 2675 01ca 8DF80430 		strb	r3, [sp, #4]
1054:Drivers/MPU6050/inv_mpu_dmp_motion_driver.c ****             tmp[2] = DINAC2;
 2676              		.loc 1 1054 13 is_stmt 1 view .LVU798
1054:Drivers/MPU6050/inv_mpu_dmp_motion_driver.c ****             tmp[2] = DINAC2;
 2677              		.loc 1 1054 20 is_stmt 0 view .LVU799
 2678 01ce 8023     		movs	r3, #128
 2679 01d0 8DF80530 		strb	r3, [sp, #5]
1055:Drivers/MPU6050/inv_mpu_dmp_motion_driver.c ****             tmp[3] = DINA90;
 2680              		.loc 1 1055 13 is_stmt 1 view .LVU800
1055:Drivers/MPU6050/inv_mpu_dmp_motion_driver.c ****             tmp[3] = DINA90;
 2681              		.loc 1 1055 20 is_stmt 0 view .LVU801
 2682 01d4 B423     		movs	r3, #180
 2683 01d6 8DF80630 		strb	r3, [sp, #6]
1056:Drivers/MPU6050/inv_mpu_dmp_motion_driver.c ****         }
 2684              		.loc 1 1056 13 is_stmt 1 view .LVU802
1056:Drivers/MPU6050/inv_mpu_dmp_motion_driver.c ****         }
 2685              		.loc 1 1056 20 is_stmt 0 view .LVU803
 2686 01da 9023     		movs	r3, #144
 2687 01dc 8DF80730 		strb	r3, [sp, #7]
 2688 01e0 72E7     		b	.L160
 2689              	.L161:
1075:Drivers/MPU6050/inv_mpu_dmp_motion_driver.c ****         mpu_write_mem(CFG_20, 1, tmp);
 2690              		.loc 1 1075 9 is_stmt 1 view .LVU804
1075:Drivers/MPU6050/inv_mpu_dmp_motion_driver.c ****         mpu_write_mem(CFG_20, 1, tmp);
 2691              		.loc 1 1075 16 is_stmt 0 view .LVU805
 2692 01e2 D823     		movs	r3, #216
 2693 01e4 8DF80430 		strb	r3, [sp, #4]
1076:Drivers/MPU6050/inv_mpu_dmp_motion_driver.c ****     }
 2694              		.loc 1 1076 9 is_stmt 1 view .LVU806
 2695 01e8 01AA     		add	r2, sp, #4
 2696 01ea 0121     		movs	r1, #1
 2697 01ec 4FF40B60 		mov	r0, #2224
 2698 01f0 FFF7FEFF 		bl	mpu_write_mem
 2699              	.LVL157:
 2700 01f4 96E7     		b	.L162
 2701              	.L163:
1082:Drivers/MPU6050/inv_mpu_dmp_motion_driver.c ****     mpu_write_mem(CFG_ANDROID_ORIENT_INT, 1, tmp);
 2702              		.loc 1 1082 9 view .LVU807
1082:Drivers/MPU6050/inv_mpu_dmp_motion_driver.c ****     mpu_write_mem(CFG_ANDROID_ORIENT_INT, 1, tmp);
 2703              		.loc 1 1082 16 is_stmt 0 view .LVU808
 2704 01f6 D823     		movs	r3, #216
 2705 01f8 8DF80430 		strb	r3, [sp, #4]
 2706 01fc 98E7     		b	.L164
 2707              	.L165:
1088:Drivers/MPU6050/inv_mpu_dmp_motion_driver.c **** 
 2708              		.loc 1 1088 9 is_stmt 1 view .LVU809
 2709 01fe 0020     		movs	r0, #0
 2710 0200 FFF7FEFF 		bl	dmp_enable_lp_quat
 2711              	.LVL158:
 2712 0204 A0E7     		b	.L166
 2713              	.L167:
1093:Drivers/MPU6050/inv_mpu_dmp_motion_driver.c **** 
 2714              		.loc 1 1093 9 view .LVU810
 2715 0206 0020     		movs	r0, #0
 2716 0208 FFF7FEFF 		bl	dmp_enable_6x_lp_quat
 2717              	.LVL159:
ARM GAS  F:\msys64\tmp\ccoK2euk.s 			page 83


 2718 020c A2E7     		b	.L168
 2719              	.L175:
 2720 020e 00BF     		.align	2
 2721              	.L174:
 2722 0210 09E3CA02 		.word	46850825
 2723 0214 00000000 		.word	.LANCHOR0
 2724              		.cfi_endproc
 2725              	.LFE576:
 2727              		.section	.rodata.dmp_set_interrupt_mode.str1.4,"aMS",%progbits,1
 2728              		.align	2
 2729              	.LC7:
 2730 0000 D8B1B9F3 		.ascii	"\330\261\271\363\213\243\221\266\011\264\331\000"
 2730      8BA391B6 
 2730      09B4D900 
 2731              		.align	2
 2732              	.LC8:
 2733 000c DAB1B9F3 		.ascii	"\332\261\271\363\213\243\221\266\332\264\332\000"
 2733      8BA391B6 
 2733      DAB4DA00 
 2734              		.section	.text.dmp_set_interrupt_mode,"ax",%progbits
 2735              		.align	1
 2736              		.global	dmp_set_interrupt_mode
 2737              		.syntax unified
 2738              		.thumb
 2739              		.thumb_func
 2741              	dmp_set_interrupt_mode:
 2742              	.LVL160:
 2743              	.LFB582:
1217:Drivers/MPU6050/inv_mpu_dmp_motion_driver.c **** 
1218:Drivers/MPU6050/inv_mpu_dmp_motion_driver.c **** /**
1219:Drivers/MPU6050/inv_mpu_dmp_motion_driver.c ****  *  @brief      Specify when a DMP interrupt should occur.
1220:Drivers/MPU6050/inv_mpu_dmp_motion_driver.c ****  *  A DMP interrupt can be configured to trigger on either of the two
1221:Drivers/MPU6050/inv_mpu_dmp_motion_driver.c ****  *  conditions below:
1222:Drivers/MPU6050/inv_mpu_dmp_motion_driver.c ****  *  \n a. One FIFO period has elapsed (set by @e mpu_set_sample_rate).
1223:Drivers/MPU6050/inv_mpu_dmp_motion_driver.c ****  *  \n b. A tap event has been detected.
1224:Drivers/MPU6050/inv_mpu_dmp_motion_driver.c ****  *  @param[in]  mode    DMP_INT_GESTURE or DMP_INT_CONTINUOUS.
1225:Drivers/MPU6050/inv_mpu_dmp_motion_driver.c ****  *  @return     0 if successful.
1226:Drivers/MPU6050/inv_mpu_dmp_motion_driver.c ****  */
1227:Drivers/MPU6050/inv_mpu_dmp_motion_driver.c **** int dmp_set_interrupt_mode(unsigned char mode)
1228:Drivers/MPU6050/inv_mpu_dmp_motion_driver.c **** {
 2744              		.loc 1 1228 1 view -0
 2745              		.cfi_startproc
 2746              		@ args = 0, pretend = 0, frame = 24
 2747              		@ frame_needed = 0, uses_anonymous_args = 0
 2748              		.loc 1 1228 1 is_stmt 0 view .LVU812
 2749 0000 00B5     		push	{lr}
 2750              	.LCFI78:
 2751              		.cfi_def_cfa_offset 4
 2752              		.cfi_offset 14, -4
 2753 0002 87B0     		sub	sp, sp, #28
 2754              	.LCFI79:
 2755              		.cfi_def_cfa_offset 32
 2756 0004 8446     		mov	ip, r0
1229:Drivers/MPU6050/inv_mpu_dmp_motion_driver.c ****     const unsigned char regs_continuous[11] =
 2757              		.loc 1 1229 5 is_stmt 1 view .LVU813
 2758              		.loc 1 1229 25 is_stmt 0 view .LVU814
 2759 0006 144A     		ldr	r2, .L181
ARM GAS  F:\msys64\tmp\ccoK2euk.s 			page 84


 2760 0008 03AB     		add	r3, sp, #12
 2761 000a 07CA     		ldm	r2, {r0, r1, r2}
 2762              	.LVL161:
 2763              		.loc 1 1229 25 view .LVU815
 2764 000c 03C3     		stmia	r3!, {r0, r1}
 2765 000e 23F8022B 		strh	r2, [r3], #2	@ movhi
 2766 0012 120C     		lsrs	r2, r2, #16
 2767 0014 1A70     		strb	r2, [r3]
1230:Drivers/MPU6050/inv_mpu_dmp_motion_driver.c ****         {0xd8, 0xb1, 0xb9, 0xf3, 0x8b, 0xa3, 0x91, 0xb6, 0x09, 0xb4, 0xd9};
1231:Drivers/MPU6050/inv_mpu_dmp_motion_driver.c ****     const unsigned char regs_gesture[11] =
 2768              		.loc 1 1231 5 is_stmt 1 view .LVU816
 2769              		.loc 1 1231 25 is_stmt 0 view .LVU817
 2770 0016 114A     		ldr	r2, .L181+4
 2771 0018 6B46     		mov	r3, sp
 2772 001a 07CA     		ldm	r2, {r0, r1, r2}
 2773 001c 03C3     		stmia	r3!, {r0, r1}
 2774 001e 23F8022B 		strh	r2, [r3], #2	@ movhi
 2775 0022 120C     		lsrs	r2, r2, #16
 2776 0024 1A70     		strb	r2, [r3]
1232:Drivers/MPU6050/inv_mpu_dmp_motion_driver.c ****         {0xda, 0xb1, 0xb9, 0xf3, 0x8b, 0xa3, 0x91, 0xb6, 0xda, 0xb4, 0xda};
1233:Drivers/MPU6050/inv_mpu_dmp_motion_driver.c **** 
1234:Drivers/MPU6050/inv_mpu_dmp_motion_driver.c ****     switch (mode) {
 2777              		.loc 1 1234 5 is_stmt 1 view .LVU818
 2778 0026 BCF1010F 		cmp	ip, #1
 2779 002a 09D0     		beq	.L177
 2780 002c BCF1020F 		cmp	ip, #2
 2781 0030 0DD1     		bne	.L179
1235:Drivers/MPU6050/inv_mpu_dmp_motion_driver.c ****     case DMP_INT_CONTINUOUS:
1236:Drivers/MPU6050/inv_mpu_dmp_motion_driver.c ****         return mpu_write_mem(CFG_FIFO_ON_EVENT, 11,
 2782              		.loc 1 1236 9 view .LVU819
 2783              		.loc 1 1236 16 is_stmt 0 view .LVU820
 2784 0032 03AA     		add	r2, sp, #12
 2785 0034 0B21     		movs	r1, #11
 2786 0036 40F68220 		movw	r0, #2690
 2787 003a FFF7FEFF 		bl	mpu_write_mem
 2788              	.LVL162:
 2789 003e 08E0     		b	.L176
 2790              	.L177:
1237:Drivers/MPU6050/inv_mpu_dmp_motion_driver.c ****             (unsigned char*)regs_continuous);
1238:Drivers/MPU6050/inv_mpu_dmp_motion_driver.c ****     case DMP_INT_GESTURE:
1239:Drivers/MPU6050/inv_mpu_dmp_motion_driver.c ****         return mpu_write_mem(CFG_FIFO_ON_EVENT, 11,
 2791              		.loc 1 1239 9 is_stmt 1 view .LVU821
 2792              		.loc 1 1239 16 is_stmt 0 view .LVU822
 2793 0040 6A46     		mov	r2, sp
 2794 0042 0B21     		movs	r1, #11
 2795 0044 40F68220 		movw	r0, #2690
 2796 0048 FFF7FEFF 		bl	mpu_write_mem
 2797              	.LVL163:
 2798 004c 01E0     		b	.L176
 2799              	.L179:
1234:Drivers/MPU6050/inv_mpu_dmp_motion_driver.c ****     case DMP_INT_CONTINUOUS:
 2800              		.loc 1 1234 5 view .LVU823
 2801 004e 4FF0FF30 		mov	r0, #-1
 2802              	.L176:
1240:Drivers/MPU6050/inv_mpu_dmp_motion_driver.c ****             (unsigned char*)regs_gesture);
1241:Drivers/MPU6050/inv_mpu_dmp_motion_driver.c ****     default:
1242:Drivers/MPU6050/inv_mpu_dmp_motion_driver.c ****         return -1;
ARM GAS  F:\msys64\tmp\ccoK2euk.s 			page 85


1243:Drivers/MPU6050/inv_mpu_dmp_motion_driver.c ****     }
1244:Drivers/MPU6050/inv_mpu_dmp_motion_driver.c **** }
 2803              		.loc 1 1244 1 view .LVU824
 2804 0052 07B0     		add	sp, sp, #28
 2805              	.LCFI80:
 2806              		.cfi_def_cfa_offset 4
 2807              		@ sp needed
 2808 0054 5DF804FB 		ldr	pc, [sp], #4
 2809              	.L182:
 2810              		.align	2
 2811              	.L181:
 2812 0058 00000000 		.word	.LC7
 2813 005c 0C000000 		.word	.LC8
 2814              		.cfi_endproc
 2815              	.LFE582:
 2817              		.section	.text.dmp_read_fifo,"ax",%progbits
 2818              		.align	1
 2819              		.global	dmp_read_fifo
 2820              		.syntax unified
 2821              		.thumb
 2822              		.thumb_func
 2824              	dmp_read_fifo:
 2825              	.LVL164:
 2826              	.LFB583:
1245:Drivers/MPU6050/inv_mpu_dmp_motion_driver.c **** 
1246:Drivers/MPU6050/inv_mpu_dmp_motion_driver.c **** /**
1247:Drivers/MPU6050/inv_mpu_dmp_motion_driver.c ****  *  @brief      Get one packet from the FIFO.
1248:Drivers/MPU6050/inv_mpu_dmp_motion_driver.c ****  *  If @e sensors does not contain a particular sensor, disregard the data
1249:Drivers/MPU6050/inv_mpu_dmp_motion_driver.c ****  *  returned to that pointer.
1250:Drivers/MPU6050/inv_mpu_dmp_motion_driver.c ****  *  \n @e sensors can contain a combination of the following flags:
1251:Drivers/MPU6050/inv_mpu_dmp_motion_driver.c ****  *  \n INV_X_GYRO, INV_Y_GYRO, INV_Z_GYRO
1252:Drivers/MPU6050/inv_mpu_dmp_motion_driver.c ****  *  \n INV_XYZ_GYRO
1253:Drivers/MPU6050/inv_mpu_dmp_motion_driver.c ****  *  \n INV_XYZ_ACCEL
1254:Drivers/MPU6050/inv_mpu_dmp_motion_driver.c ****  *  \n INV_WXYZ_QUAT
1255:Drivers/MPU6050/inv_mpu_dmp_motion_driver.c ****  *  \n If the FIFO has no new data, @e sensors will be zero.
1256:Drivers/MPU6050/inv_mpu_dmp_motion_driver.c ****  *  \n If the FIFO is disabled, @e sensors will be zero and this function will
1257:Drivers/MPU6050/inv_mpu_dmp_motion_driver.c ****  *  return a non-zero error code.
1258:Drivers/MPU6050/inv_mpu_dmp_motion_driver.c ****  *  @param[out] gyro        Gyro data in hardware units.
1259:Drivers/MPU6050/inv_mpu_dmp_motion_driver.c ****  *  @param[out] accel       Accel data in hardware units.
1260:Drivers/MPU6050/inv_mpu_dmp_motion_driver.c ****  *  @param[out] quat        3-axis quaternion data in hardware units.
1261:Drivers/MPU6050/inv_mpu_dmp_motion_driver.c ****  *  @param[out] timestamp   Timestamp in milliseconds.
1262:Drivers/MPU6050/inv_mpu_dmp_motion_driver.c ****  *  @param[out] sensors     Mask of sensors read from FIFO.
1263:Drivers/MPU6050/inv_mpu_dmp_motion_driver.c ****  *  @param[out] more        Number of remaining packets.
1264:Drivers/MPU6050/inv_mpu_dmp_motion_driver.c ****  *  @return     0 if successful.
1265:Drivers/MPU6050/inv_mpu_dmp_motion_driver.c ****  */
1266:Drivers/MPU6050/inv_mpu_dmp_motion_driver.c **** int dmp_read_fifo(short *gyro, short *accel, long *quat,
1267:Drivers/MPU6050/inv_mpu_dmp_motion_driver.c ****     unsigned long *timestamp, short *sensors, unsigned char *more)
1268:Drivers/MPU6050/inv_mpu_dmp_motion_driver.c **** {
 2827              		.loc 1 1268 1 is_stmt 1 view -0
 2828              		.cfi_startproc
 2829              		@ args = 8, pretend = 0, frame = 48
 2830              		@ frame_needed = 0, uses_anonymous_args = 0
 2831              		.loc 1 1268 1 is_stmt 0 view .LVU826
 2832 0000 2DE9F041 		push	{r4, r5, r6, r7, r8, lr}
 2833              	.LCFI81:
 2834              		.cfi_def_cfa_offset 24
 2835              		.cfi_offset 4, -24
ARM GAS  F:\msys64\tmp\ccoK2euk.s 			page 86


 2836              		.cfi_offset 5, -20
 2837              		.cfi_offset 6, -16
 2838              		.cfi_offset 7, -12
 2839              		.cfi_offset 8, -8
 2840              		.cfi_offset 14, -4
 2841 0004 8CB0     		sub	sp, sp, #48
 2842              	.LCFI82:
 2843              		.cfi_def_cfa_offset 72
 2844 0006 0546     		mov	r5, r0
 2845 0008 0E46     		mov	r6, r1
 2846 000a 9046     		mov	r8, r2
 2847 000c 129C     		ldr	r4, [sp, #72]
1269:Drivers/MPU6050/inv_mpu_dmp_motion_driver.c ****     unsigned char fifo_data[MAX_PACKET_LENGTH];
 2848              		.loc 1 1269 5 is_stmt 1 view .LVU827
1270:Drivers/MPU6050/inv_mpu_dmp_motion_driver.c ****     unsigned char ii = 0;
 2849              		.loc 1 1270 5 view .LVU828
 2850              	.LVL165:
1271:Drivers/MPU6050/inv_mpu_dmp_motion_driver.c **** 
1272:Drivers/MPU6050/inv_mpu_dmp_motion_driver.c ****     /* TODO: sensors[0] only changes when dmp_enable_feature is called. We can
1273:Drivers/MPU6050/inv_mpu_dmp_motion_driver.c ****      * cache this value and save some cycles.
1274:Drivers/MPU6050/inv_mpu_dmp_motion_driver.c ****      */
1275:Drivers/MPU6050/inv_mpu_dmp_motion_driver.c ****     sensors[0] = 0;
 2851              		.loc 1 1275 5 view .LVU829
 2852              		.loc 1 1275 16 is_stmt 0 view .LVU830
 2853 000e 0023     		movs	r3, #0
 2854              	.LVL166:
 2855              		.loc 1 1275 16 view .LVU831
 2856 0010 2380     		strh	r3, [r4]	@ movhi
1276:Drivers/MPU6050/inv_mpu_dmp_motion_driver.c **** 
1277:Drivers/MPU6050/inv_mpu_dmp_motion_driver.c ****     /* Get a packet. */
1278:Drivers/MPU6050/inv_mpu_dmp_motion_driver.c ****     if (mpu_read_fifo_stream(dmp.packet_length, fifo_data, more))
 2857              		.loc 1 1278 5 is_stmt 1 view .LVU832
 2858              		.loc 1 1278 9 is_stmt 0 view .LVU833
 2859 0012 139A     		ldr	r2, [sp, #76]
 2860              	.LVL167:
 2861              		.loc 1 1278 9 view .LVU834
 2862 0014 04A9     		add	r1, sp, #16
 2863              	.LVL168:
 2864              		.loc 1 1278 9 view .LVU835
 2865 0016 754B     		ldr	r3, .L194
 2866 0018 987B     		ldrb	r0, [r3, #14]	@ zero_extendqisi2
 2867              	.LVL169:
 2868              		.loc 1 1278 9 view .LVU836
 2869 001a FFF7FEFF 		bl	mpu_read_fifo_stream
 2870              	.LVL170:
 2871              		.loc 1 1278 8 view .LVU837
 2872 001e 0028     		cmp	r0, #0
 2873 0020 40F0E080 		bne	.L189
 2874 0024 0746     		mov	r7, r0
1279:Drivers/MPU6050/inv_mpu_dmp_motion_driver.c ****         return -1;
1280:Drivers/MPU6050/inv_mpu_dmp_motion_driver.c **** 
1281:Drivers/MPU6050/inv_mpu_dmp_motion_driver.c ****     /* Parse DMP packet. */
1282:Drivers/MPU6050/inv_mpu_dmp_motion_driver.c ****     if (dmp.feature_mask & (DMP_FEATURE_LP_QUAT | DMP_FEATURE_6X_LP_QUAT)) {
 2875              		.loc 1 1282 5 is_stmt 1 view .LVU838
 2876              		.loc 1 1282 12 is_stmt 0 view .LVU839
 2877 0026 714B     		ldr	r3, .L194
 2878 0028 5A89     		ldrh	r2, [r3, #10]
ARM GAS  F:\msys64\tmp\ccoK2euk.s 			page 87


 2879              		.loc 1 1282 8 view .LVU840
 2880 002a 12F0140F 		tst	r2, #20
 2881 002e 66D0     		beq	.L190
 2882              	.LBB5:
1283:Drivers/MPU6050/inv_mpu_dmp_motion_driver.c **** #ifdef FIFO_CORRUPTION_CHECK
1284:Drivers/MPU6050/inv_mpu_dmp_motion_driver.c ****         long quat_q14[4], quat_mag_sq;
 2883              		.loc 1 1284 9 is_stmt 1 view .LVU841
1285:Drivers/MPU6050/inv_mpu_dmp_motion_driver.c **** #endif
1286:Drivers/MPU6050/inv_mpu_dmp_motion_driver.c ****         quat[0] = ((long)fifo_data[0] << 24) | ((long)fifo_data[1] << 16) |
 2884              		.loc 1 1286 9 view .LVU842
 2885              		.loc 1 1286 35 is_stmt 0 view .LVU843
 2886 0030 9DF81030 		ldrb	r3, [sp, #16]	@ zero_extendqisi2
 2887              		.loc 1 1286 64 view .LVU844
 2888 0034 9DF81100 		ldrb	r0, [sp, #17]	@ zero_extendqisi2
 2889              		.loc 1 1286 68 view .LVU845
 2890 0038 0004     		lsls	r0, r0, #16
 2891              		.loc 1 1286 46 view .LVU846
 2892 003a 40EA0360 		orr	r0, r0, r3, lsl #24
1287:Drivers/MPU6050/inv_mpu_dmp_motion_driver.c ****             ((long)fifo_data[2] << 8) | fifo_data[3];
 2893              		.loc 1 1287 29 view .LVU847
 2894 003e 9DF81210 		ldrb	r1, [sp, #18]	@ zero_extendqisi2
1286:Drivers/MPU6050/inv_mpu_dmp_motion_driver.c ****             ((long)fifo_data[2] << 8) | fifo_data[3];
 2895              		.loc 1 1286 75 view .LVU848
 2896 0042 40EA0120 		orr	r0, r0, r1, lsl #8
 2897              		.loc 1 1287 50 view .LVU849
 2898 0046 9DF81310 		ldrb	r1, [sp, #19]	@ zero_extendqisi2
 2899              		.loc 1 1287 39 view .LVU850
 2900 004a 0843     		orrs	r0, r0, r1
1286:Drivers/MPU6050/inv_mpu_dmp_motion_driver.c ****             ((long)fifo_data[2] << 8) | fifo_data[3];
 2901              		.loc 1 1286 17 view .LVU851
 2902 004c C8F80000 		str	r0, [r8]
1288:Drivers/MPU6050/inv_mpu_dmp_motion_driver.c ****         quat[1] = ((long)fifo_data[4] << 24) | ((long)fifo_data[5] << 16) |
 2903              		.loc 1 1288 9 is_stmt 1 view .LVU852
 2904              		.loc 1 1288 35 is_stmt 0 view .LVU853
 2905 0050 9DF81430 		ldrb	r3, [sp, #20]	@ zero_extendqisi2
 2906              		.loc 1 1288 64 view .LVU854
 2907 0054 9DF815C0 		ldrb	ip, [sp, #21]	@ zero_extendqisi2
 2908              		.loc 1 1288 68 view .LVU855
 2909 0058 4FEA0C4C 		lsl	ip, ip, #16
 2910              		.loc 1 1288 46 view .LVU856
 2911 005c 4CEA036C 		orr	ip, ip, r3, lsl #24
1289:Drivers/MPU6050/inv_mpu_dmp_motion_driver.c ****             ((long)fifo_data[6] << 8) | fifo_data[7];
 2912              		.loc 1 1289 29 view .LVU857
 2913 0060 9DF81630 		ldrb	r3, [sp, #22]	@ zero_extendqisi2
1288:Drivers/MPU6050/inv_mpu_dmp_motion_driver.c ****         quat[1] = ((long)fifo_data[4] << 24) | ((long)fifo_data[5] << 16) |
 2914              		.loc 1 1288 75 view .LVU858
 2915 0064 4CEA032C 		orr	ip, ip, r3, lsl #8
 2916              		.loc 1 1289 50 view .LVU859
 2917 0068 9DF81710 		ldrb	r1, [sp, #23]	@ zero_extendqisi2
 2918              		.loc 1 1289 39 view .LVU860
 2919 006c 4CEA010C 		orr	ip, ip, r1
1288:Drivers/MPU6050/inv_mpu_dmp_motion_driver.c ****         quat[1] = ((long)fifo_data[4] << 24) | ((long)fifo_data[5] << 16) |
 2920              		.loc 1 1288 17 view .LVU861
 2921 0070 C8F804C0 		str	ip, [r8, #4]
1290:Drivers/MPU6050/inv_mpu_dmp_motion_driver.c ****         quat[2] = ((long)fifo_data[8] << 24) | ((long)fifo_data[9] << 16) |
 2922              		.loc 1 1290 9 is_stmt 1 view .LVU862
 2923              		.loc 1 1290 35 is_stmt 0 view .LVU863
ARM GAS  F:\msys64\tmp\ccoK2euk.s 			page 88


 2924 0074 9DF81830 		ldrb	r3, [sp, #24]	@ zero_extendqisi2
 2925              		.loc 1 1290 64 view .LVU864
 2926 0078 9DF81910 		ldrb	r1, [sp, #25]	@ zero_extendqisi2
 2927              		.loc 1 1290 68 view .LVU865
 2928 007c 0904     		lsls	r1, r1, #16
 2929              		.loc 1 1290 46 view .LVU866
 2930 007e 41EA0361 		orr	r1, r1, r3, lsl #24
1291:Drivers/MPU6050/inv_mpu_dmp_motion_driver.c ****             ((long)fifo_data[10] << 8) | fifo_data[11];
 2931              		.loc 1 1291 29 view .LVU867
 2932 0082 9DF81A30 		ldrb	r3, [sp, #26]	@ zero_extendqisi2
1290:Drivers/MPU6050/inv_mpu_dmp_motion_driver.c ****         quat[2] = ((long)fifo_data[8] << 24) | ((long)fifo_data[9] << 16) |
 2933              		.loc 1 1290 75 view .LVU868
 2934 0086 41EA0321 		orr	r1, r1, r3, lsl #8
 2935              		.loc 1 1291 51 view .LVU869
 2936 008a 9DF81B30 		ldrb	r3, [sp, #27]	@ zero_extendqisi2
 2937              		.loc 1 1291 40 view .LVU870
 2938 008e 1943     		orrs	r1, r1, r3
1290:Drivers/MPU6050/inv_mpu_dmp_motion_driver.c ****         quat[2] = ((long)fifo_data[8] << 24) | ((long)fifo_data[9] << 16) |
 2939              		.loc 1 1290 17 view .LVU871
 2940 0090 C8F80810 		str	r1, [r8, #8]
1292:Drivers/MPU6050/inv_mpu_dmp_motion_driver.c ****         quat[3] = ((long)fifo_data[12] << 24) | ((long)fifo_data[13] << 16) |
 2941              		.loc 1 1292 9 is_stmt 1 view .LVU872
 2942              		.loc 1 1292 35 is_stmt 0 view .LVU873
 2943 0094 9DF81CE0 		ldrb	lr, [sp, #28]	@ zero_extendqisi2
 2944              		.loc 1 1292 65 view .LVU874
 2945 0098 9DF81D30 		ldrb	r3, [sp, #29]	@ zero_extendqisi2
 2946              		.loc 1 1292 70 view .LVU875
 2947 009c 1B04     		lsls	r3, r3, #16
 2948              		.loc 1 1292 47 view .LVU876
 2949 009e 43EA0E63 		orr	r3, r3, lr, lsl #24
1293:Drivers/MPU6050/inv_mpu_dmp_motion_driver.c ****             ((long)fifo_data[14] << 8) | fifo_data[15];
 2950              		.loc 1 1293 29 view .LVU877
 2951 00a2 9DF81EE0 		ldrb	lr, [sp, #30]	@ zero_extendqisi2
1292:Drivers/MPU6050/inv_mpu_dmp_motion_driver.c ****         quat[3] = ((long)fifo_data[12] << 24) | ((long)fifo_data[13] << 16) |
 2952              		.loc 1 1292 77 view .LVU878
 2953 00a6 43EA0E23 		orr	r3, r3, lr, lsl #8
 2954              		.loc 1 1293 51 view .LVU879
 2955 00aa 9DF81FE0 		ldrb	lr, [sp, #31]	@ zero_extendqisi2
 2956              		.loc 1 1293 40 view .LVU880
 2957 00ae 43EA0E03 		orr	r3, r3, lr
1292:Drivers/MPU6050/inv_mpu_dmp_motion_driver.c ****         quat[3] = ((long)fifo_data[12] << 24) | ((long)fifo_data[13] << 16) |
 2958              		.loc 1 1292 17 view .LVU881
 2959 00b2 C8F80C30 		str	r3, [r8, #12]
1294:Drivers/MPU6050/inv_mpu_dmp_motion_driver.c ****         ii += 16;
 2960              		.loc 1 1294 9 is_stmt 1 view .LVU882
 2961              	.LVL171:
1295:Drivers/MPU6050/inv_mpu_dmp_motion_driver.c **** #ifdef FIFO_CORRUPTION_CHECK
1296:Drivers/MPU6050/inv_mpu_dmp_motion_driver.c ****         /* We can detect a corrupted FIFO by monitoring the quaternion data and
1297:Drivers/MPU6050/inv_mpu_dmp_motion_driver.c ****          * ensuring that the magnitude is always normalized to one. This
1298:Drivers/MPU6050/inv_mpu_dmp_motion_driver.c ****          * shouldn't happen in normal operation, but if an I2C error occurs,
1299:Drivers/MPU6050/inv_mpu_dmp_motion_driver.c ****          * the FIFO reads might become misaligned.
1300:Drivers/MPU6050/inv_mpu_dmp_motion_driver.c ****          *
1301:Drivers/MPU6050/inv_mpu_dmp_motion_driver.c ****          * Let's start by scaling down the quaternion data to avoid long long
1302:Drivers/MPU6050/inv_mpu_dmp_motion_driver.c ****          * math.
1303:Drivers/MPU6050/inv_mpu_dmp_motion_driver.c ****          */
1304:Drivers/MPU6050/inv_mpu_dmp_motion_driver.c ****         quat_q14[0] = quat[0] >> 16;
 2962              		.loc 1 1304 9 view .LVU883
ARM GAS  F:\msys64\tmp\ccoK2euk.s 			page 89


 2963              		.loc 1 1304 31 is_stmt 0 view .LVU884
 2964 00b6 0014     		asrs	r0, r0, #16
 2965              		.loc 1 1304 21 view .LVU885
 2966 00b8 0090     		str	r0, [sp]
1305:Drivers/MPU6050/inv_mpu_dmp_motion_driver.c ****         quat_q14[1] = quat[1] >> 16;
 2967              		.loc 1 1305 9 is_stmt 1 view .LVU886
 2968              		.loc 1 1305 31 is_stmt 0 view .LVU887
 2969 00ba 4FEA2C4C 		asr	ip, ip, #16
 2970              		.loc 1 1305 21 view .LVU888
 2971 00be CDF804C0 		str	ip, [sp, #4]
1306:Drivers/MPU6050/inv_mpu_dmp_motion_driver.c ****         quat_q14[2] = quat[2] >> 16;
 2972              		.loc 1 1306 9 is_stmt 1 view .LVU889
 2973              		.loc 1 1306 31 is_stmt 0 view .LVU890
 2974 00c2 0914     		asrs	r1, r1, #16
 2975              		.loc 1 1306 21 view .LVU891
 2976 00c4 0291     		str	r1, [sp, #8]
1307:Drivers/MPU6050/inv_mpu_dmp_motion_driver.c ****         quat_q14[3] = quat[3] >> 16;
 2977              		.loc 1 1307 9 is_stmt 1 view .LVU892
 2978              		.loc 1 1307 31 is_stmt 0 view .LVU893
 2979 00c6 1B14     		asrs	r3, r3, #16
 2980              		.loc 1 1307 21 view .LVU894
 2981 00c8 0393     		str	r3, [sp, #12]
1308:Drivers/MPU6050/inv_mpu_dmp_motion_driver.c ****         quat_mag_sq = quat_q14[0] * quat_q14[0] + quat_q14[1] * quat_q14[1] +
 2982              		.loc 1 1308 9 is_stmt 1 view .LVU895
 2983              		.loc 1 1308 63 is_stmt 0 view .LVU896
 2984 00ca 0CFB0CFC 		mul	ip, ip, ip
 2985              		.loc 1 1308 49 view .LVU897
 2986 00ce 00FB00C0 		mla	r0, r0, r0, ip
 2987              		.loc 1 1308 77 view .LVU898
 2988 00d2 01FB0101 		mla	r1, r1, r1, r0
 2989              		.loc 1 1308 21 view .LVU899
 2990 00d6 03FB0313 		mla	r3, r3, r3, r1
 2991              	.LVL172:
1309:Drivers/MPU6050/inv_mpu_dmp_motion_driver.c ****             quat_q14[2] * quat_q14[2] + quat_q14[3] * quat_q14[3];
1310:Drivers/MPU6050/inv_mpu_dmp_motion_driver.c ****         if ((quat_mag_sq < QUAT_MAG_SQ_MIN) ||
 2992              		.loc 1 1310 9 is_stmt 1 view .LVU900
 2993              		.loc 1 1310 45 is_stmt 0 view .LVU901
 2994 00da 03F17143 		add	r3, r3, #-251658240
 2995              	.LVL173:
 2996              		.loc 1 1310 12 view .LVU902
 2997 00de B3F1007F 		cmp	r3, #33554432
 2998 00e2 05D8     		bhi	.L192
1311:Drivers/MPU6050/inv_mpu_dmp_motion_driver.c ****             (quat_mag_sq > QUAT_MAG_SQ_MAX)) {
1312:Drivers/MPU6050/inv_mpu_dmp_motion_driver.c ****             /* Quaternion is outside of the acceptable threshold. */
1313:Drivers/MPU6050/inv_mpu_dmp_motion_driver.c ****             mpu_reset_fifo();
1314:Drivers/MPU6050/inv_mpu_dmp_motion_driver.c ****             sensors[0] = 0;
1315:Drivers/MPU6050/inv_mpu_dmp_motion_driver.c ****             return -1;
1316:Drivers/MPU6050/inv_mpu_dmp_motion_driver.c ****         }
1317:Drivers/MPU6050/inv_mpu_dmp_motion_driver.c ****         sensors[0] |= INV_WXYZ_QUAT;
 2999              		.loc 1 1317 9 is_stmt 1 view .LVU903
 3000              		.loc 1 1317 20 is_stmt 0 view .LVU904
 3001 00e4 2388     		ldrh	r3, [r4]
 3002              	.LVL174:
 3003              		.loc 1 1317 20 view .LVU905
 3004 00e6 43F48073 		orr	r3, r3, #256
 3005 00ea 2380     		strh	r3, [r4]	@ movhi
1294:Drivers/MPU6050/inv_mpu_dmp_motion_driver.c **** #ifdef FIFO_CORRUPTION_CHECK
ARM GAS  F:\msys64\tmp\ccoK2euk.s 			page 90


 3006              		.loc 1 1294 12 view .LVU906
 3007 00ec 1023     		movs	r3, #16
 3008 00ee 07E0     		b	.L185
 3009              	.L192:
1313:Drivers/MPU6050/inv_mpu_dmp_motion_driver.c ****             sensors[0] = 0;
 3010              		.loc 1 1313 13 is_stmt 1 view .LVU907
 3011 00f0 FFF7FEFF 		bl	mpu_reset_fifo
 3012              	.LVL175:
1314:Drivers/MPU6050/inv_mpu_dmp_motion_driver.c ****             return -1;
 3013              		.loc 1 1314 13 view .LVU908
1314:Drivers/MPU6050/inv_mpu_dmp_motion_driver.c ****             return -1;
 3014              		.loc 1 1314 24 is_stmt 0 view .LVU909
 3015 00f4 0023     		movs	r3, #0
 3016 00f6 2380     		strh	r3, [r4]	@ movhi
1315:Drivers/MPU6050/inv_mpu_dmp_motion_driver.c ****         }
 3017              		.loc 1 1315 13 is_stmt 1 view .LVU910
1315:Drivers/MPU6050/inv_mpu_dmp_motion_driver.c ****         }
 3018              		.loc 1 1315 20 is_stmt 0 view .LVU911
 3019 00f8 4FF0FF37 		mov	r7, #-1
 3020 00fc 69E0     		b	.L183
 3021              	.LVL176:
 3022              	.L190:
1315:Drivers/MPU6050/inv_mpu_dmp_motion_driver.c ****         }
 3023              		.loc 1 1315 20 view .LVU912
 3024              	.LBE5:
1270:Drivers/MPU6050/inv_mpu_dmp_motion_driver.c **** 
 3025              		.loc 1 1270 19 view .LVU913
 3026 00fe 0023     		movs	r3, #0
 3027              	.LVL177:
 3028              	.L185:
1318:Drivers/MPU6050/inv_mpu_dmp_motion_driver.c **** #endif
1319:Drivers/MPU6050/inv_mpu_dmp_motion_driver.c ****     }
1320:Drivers/MPU6050/inv_mpu_dmp_motion_driver.c **** 
1321:Drivers/MPU6050/inv_mpu_dmp_motion_driver.c ****     if (dmp.feature_mask & DMP_FEATURE_SEND_RAW_ACCEL) {
 3029              		.loc 1 1321 5 is_stmt 1 view .LVU914
 3030              		.loc 1 1321 8 is_stmt 0 view .LVU915
 3031 0100 12F0400F 		tst	r2, #64
 3032 0104 2FD0     		beq	.L187
1322:Drivers/MPU6050/inv_mpu_dmp_motion_driver.c ****         accel[0] = ((short)fifo_data[ii+0] << 8) | fifo_data[ii+1];
 3033              		.loc 1 1322 9 is_stmt 1 view .LVU916
 3034              		.loc 1 1322 37 is_stmt 0 view .LVU917
 3035 0106 03F13001 		add	r1, r3, #48
 3036 010a 6944     		add	r1, sp, r1
 3037 010c 11F820CC 		ldrb	ip, [r1, #-32]	@ zero_extendqisi2
 3038              		.loc 1 1322 61 view .LVU918
 3039 0110 03F13101 		add	r1, r3, #49
 3040 0114 0DEB0100 		add	r0, sp, r1
 3041 0118 10F8201C 		ldrb	r1, [r0, #-32]	@ zero_extendqisi2
 3042              		.loc 1 1322 50 view .LVU919
 3043 011c 41EA0C21 		orr	r1, r1, ip, lsl #8
 3044              		.loc 1 1322 18 view .LVU920
 3045 0120 3180     		strh	r1, [r6]	@ movhi
1323:Drivers/MPU6050/inv_mpu_dmp_motion_driver.c ****         accel[1] = ((short)fifo_data[ii+2] << 8) | fifo_data[ii+3];
 3046              		.loc 1 1323 9 is_stmt 1 view .LVU921
 3047              		.loc 1 1323 37 is_stmt 0 view .LVU922
 3048 0122 03F13201 		add	r1, r3, #50
 3049 0126 6944     		add	r1, sp, r1
ARM GAS  F:\msys64\tmp\ccoK2euk.s 			page 91


 3050 0128 11F820CC 		ldrb	ip, [r1, #-32]	@ zero_extendqisi2
 3051              		.loc 1 1323 61 view .LVU923
 3052 012c 03F13301 		add	r1, r3, #51
 3053 0130 0DEB0100 		add	r0, sp, r1
 3054 0134 10F8201C 		ldrb	r1, [r0, #-32]	@ zero_extendqisi2
 3055              		.loc 1 1323 50 view .LVU924
 3056 0138 41EA0C21 		orr	r1, r1, ip, lsl #8
 3057              		.loc 1 1323 18 view .LVU925
 3058 013c 7180     		strh	r1, [r6, #2]	@ movhi
1324:Drivers/MPU6050/inv_mpu_dmp_motion_driver.c ****         accel[2] = ((short)fifo_data[ii+4] << 8) | fifo_data[ii+5];
 3059              		.loc 1 1324 9 is_stmt 1 view .LVU926
 3060              		.loc 1 1324 37 is_stmt 0 view .LVU927
 3061 013e 03F13401 		add	r1, r3, #52
 3062 0142 6944     		add	r1, sp, r1
 3063 0144 11F820CC 		ldrb	ip, [r1, #-32]	@ zero_extendqisi2
 3064              		.loc 1 1324 61 view .LVU928
 3065 0148 03F13501 		add	r1, r3, #53
 3066 014c 0DEB0100 		add	r0, sp, r1
 3067 0150 10F8201C 		ldrb	r1, [r0, #-32]	@ zero_extendqisi2
 3068              		.loc 1 1324 50 view .LVU929
 3069 0154 41EA0C21 		orr	r1, r1, ip, lsl #8
 3070              		.loc 1 1324 18 view .LVU930
 3071 0158 B180     		strh	r1, [r6, #4]	@ movhi
1325:Drivers/MPU6050/inv_mpu_dmp_motion_driver.c ****         ii += 6;
 3072              		.loc 1 1325 9 is_stmt 1 view .LVU931
 3073              		.loc 1 1325 12 is_stmt 0 view .LVU932
 3074 015a 0633     		adds	r3, r3, #6
 3075              	.LVL178:
 3076              		.loc 1 1325 12 view .LVU933
 3077 015c DBB2     		uxtb	r3, r3
 3078              	.LVL179:
1326:Drivers/MPU6050/inv_mpu_dmp_motion_driver.c ****         sensors[0] |= INV_XYZ_ACCEL;
 3079              		.loc 1 1326 9 is_stmt 1 view .LVU934
 3080              		.loc 1 1326 20 is_stmt 0 view .LVU935
 3081 015e 2188     		ldrh	r1, [r4]
 3082 0160 41F00801 		orr	r1, r1, #8
 3083 0164 2180     		strh	r1, [r4]	@ movhi
 3084              	.L187:
1327:Drivers/MPU6050/inv_mpu_dmp_motion_driver.c ****     }
1328:Drivers/MPU6050/inv_mpu_dmp_motion_driver.c **** 
1329:Drivers/MPU6050/inv_mpu_dmp_motion_driver.c ****     if (dmp.feature_mask & DMP_FEATURE_SEND_ANY_GYRO) {
 3085              		.loc 1 1329 5 is_stmt 1 view .LVU936
 3086              		.loc 1 1329 8 is_stmt 0 view .LVU937
 3087 0166 12F4C07F 		tst	r2, #384
 3088 016a 2FD0     		beq	.L188
1330:Drivers/MPU6050/inv_mpu_dmp_motion_driver.c ****         gyro[0] = ((short)fifo_data[ii+0] << 8) | fifo_data[ii+1];
 3089              		.loc 1 1330 9 is_stmt 1 view .LVU938
 3090              		.loc 1 1330 36 is_stmt 0 view .LVU939
 3091 016c 03F13001 		add	r1, r3, #48
 3092 0170 6944     		add	r1, sp, r1
 3093 0172 11F8206C 		ldrb	r6, [r1, #-32]	@ zero_extendqisi2
 3094              	.LVL180:
 3095              		.loc 1 1330 60 view .LVU940
 3096 0176 03F13101 		add	r1, r3, #49
 3097 017a 0DEB0100 		add	r0, sp, r1
 3098 017e 10F8201C 		ldrb	r1, [r0, #-32]	@ zero_extendqisi2
 3099              		.loc 1 1330 49 view .LVU941
ARM GAS  F:\msys64\tmp\ccoK2euk.s 			page 92


 3100 0182 41EA0621 		orr	r1, r1, r6, lsl #8
 3101              		.loc 1 1330 17 view .LVU942
 3102 0186 2980     		strh	r1, [r5]	@ movhi
1331:Drivers/MPU6050/inv_mpu_dmp_motion_driver.c ****         gyro[1] = ((short)fifo_data[ii+2] << 8) | fifo_data[ii+3];
 3103              		.loc 1 1331 9 is_stmt 1 view .LVU943
 3104              		.loc 1 1331 36 is_stmt 0 view .LVU944
 3105 0188 03F13201 		add	r1, r3, #50
 3106 018c 6944     		add	r1, sp, r1
 3107 018e 11F8206C 		ldrb	r6, [r1, #-32]	@ zero_extendqisi2
 3108              		.loc 1 1331 60 view .LVU945
 3109 0192 03F13301 		add	r1, r3, #51
 3110 0196 0DEB0100 		add	r0, sp, r1
 3111 019a 10F8201C 		ldrb	r1, [r0, #-32]	@ zero_extendqisi2
 3112              		.loc 1 1331 49 view .LVU946
 3113 019e 41EA0621 		orr	r1, r1, r6, lsl #8
 3114              		.loc 1 1331 17 view .LVU947
 3115 01a2 6980     		strh	r1, [r5, #2]	@ movhi
1332:Drivers/MPU6050/inv_mpu_dmp_motion_driver.c ****         gyro[2] = ((short)fifo_data[ii+4] << 8) | fifo_data[ii+5];
 3116              		.loc 1 1332 9 is_stmt 1 view .LVU948
 3117              		.loc 1 1332 36 is_stmt 0 view .LVU949
 3118 01a4 03F13401 		add	r1, r3, #52
 3119 01a8 6944     		add	r1, sp, r1
 3120 01aa 11F8206C 		ldrb	r6, [r1, #-32]	@ zero_extendqisi2
 3121              		.loc 1 1332 60 view .LVU950
 3122 01ae 03F13501 		add	r1, r3, #53
 3123 01b2 0DEB0100 		add	r0, sp, r1
 3124 01b6 10F8201C 		ldrb	r1, [r0, #-32]	@ zero_extendqisi2
 3125              		.loc 1 1332 49 view .LVU951
 3126 01ba 41EA0621 		orr	r1, r1, r6, lsl #8
 3127              		.loc 1 1332 17 view .LVU952
 3128 01be A980     		strh	r1, [r5, #4]	@ movhi
1333:Drivers/MPU6050/inv_mpu_dmp_motion_driver.c ****         ii += 6;
 3129              		.loc 1 1333 9 is_stmt 1 view .LVU953
 3130              		.loc 1 1333 12 is_stmt 0 view .LVU954
 3131 01c0 0633     		adds	r3, r3, #6
 3132              	.LVL181:
 3133              		.loc 1 1333 12 view .LVU955
 3134 01c2 DBB2     		uxtb	r3, r3
 3135              	.LVL182:
1334:Drivers/MPU6050/inv_mpu_dmp_motion_driver.c ****         sensors[0] |= INV_XYZ_GYRO;
 3136              		.loc 1 1334 9 is_stmt 1 view .LVU956
 3137              		.loc 1 1334 20 is_stmt 0 view .LVU957
 3138 01c4 2188     		ldrh	r1, [r4]
 3139 01c6 41F07001 		orr	r1, r1, #112
 3140 01ca 2180     		strh	r1, [r4]	@ movhi
 3141              	.L188:
1335:Drivers/MPU6050/inv_mpu_dmp_motion_driver.c ****     }
1336:Drivers/MPU6050/inv_mpu_dmp_motion_driver.c **** 
1337:Drivers/MPU6050/inv_mpu_dmp_motion_driver.c ****     /* Gesture data is at the end of the DMP packet. Parse it and call
1338:Drivers/MPU6050/inv_mpu_dmp_motion_driver.c ****      * the gesture callbacks (if registered).
1339:Drivers/MPU6050/inv_mpu_dmp_motion_driver.c ****      */
1340:Drivers/MPU6050/inv_mpu_dmp_motion_driver.c ****     if (dmp.feature_mask & (DMP_FEATURE_TAP | DMP_FEATURE_ANDROID_ORIENT))
 3142              		.loc 1 1340 5 is_stmt 1 view .LVU958
 3143              		.loc 1 1340 8 is_stmt 0 view .LVU959
 3144 01cc 12F0030F 		tst	r2, #3
 3145 01d0 03D1     		bne	.L193
 3146              	.LVL183:
ARM GAS  F:\msys64\tmp\ccoK2euk.s 			page 93


 3147              	.L183:
1341:Drivers/MPU6050/inv_mpu_dmp_motion_driver.c ****         decode_gesture(fifo_data + ii);
1342:Drivers/MPU6050/inv_mpu_dmp_motion_driver.c **** 
1343:Drivers/MPU6050/inv_mpu_dmp_motion_driver.c **** //    get_ms(timestamp);
1344:Drivers/MPU6050/inv_mpu_dmp_motion_driver.c ****     return 0;
1345:Drivers/MPU6050/inv_mpu_dmp_motion_driver.c **** }
 3148              		.loc 1 1345 1 view .LVU960
 3149 01d2 3846     		mov	r0, r7
 3150 01d4 0CB0     		add	sp, sp, #48
 3151              	.LCFI83:
 3152              		.cfi_remember_state
 3153              		.cfi_def_cfa_offset 24
 3154              		@ sp needed
 3155 01d6 BDE8F081 		pop	{r4, r5, r6, r7, r8, pc}
 3156              	.LVL184:
 3157              	.L193:
 3158              	.LCFI84:
 3159              		.cfi_restore_state
1341:Drivers/MPU6050/inv_mpu_dmp_motion_driver.c ****         decode_gesture(fifo_data + ii);
 3160              		.loc 1 1341 9 is_stmt 1 view .LVU961
 3161 01da 04AA     		add	r2, sp, #16
 3162 01dc D018     		adds	r0, r2, r3
 3163 01de FFF7FEFF 		bl	decode_gesture
 3164              	.LVL185:
1341:Drivers/MPU6050/inv_mpu_dmp_motion_driver.c ****         decode_gesture(fifo_data + ii);
 3165              		.loc 1 1341 9 is_stmt 0 view .LVU962
 3166 01e2 F6E7     		b	.L183
 3167              	.LVL186:
 3168              	.L189:
1279:Drivers/MPU6050/inv_mpu_dmp_motion_driver.c **** 
 3169              		.loc 1 1279 16 view .LVU963
 3170 01e4 4FF0FF37 		mov	r7, #-1
 3171 01e8 F3E7     		b	.L183
 3172              	.L195:
 3173 01ea 00BF     		.align	2
 3174              	.L194:
 3175 01ec 00000000 		.word	.LANCHOR0
 3176              		.cfi_endproc
 3177              	.LFE583:
 3179              		.section	.text.dmp_register_tap_cb,"ax",%progbits
 3180              		.align	1
 3181              		.global	dmp_register_tap_cb
 3182              		.syntax unified
 3183              		.thumb
 3184              		.thumb_func
 3186              	dmp_register_tap_cb:
 3187              	.LVL187:
 3188              	.LFB584:
1346:Drivers/MPU6050/inv_mpu_dmp_motion_driver.c **** 
1347:Drivers/MPU6050/inv_mpu_dmp_motion_driver.c **** /**
1348:Drivers/MPU6050/inv_mpu_dmp_motion_driver.c ****  *  @brief      Register a function to be executed on a tap event.
1349:Drivers/MPU6050/inv_mpu_dmp_motion_driver.c ****  *  The tap direction is represented by one of the following:
1350:Drivers/MPU6050/inv_mpu_dmp_motion_driver.c ****  *  \n TAP_X_UP
1351:Drivers/MPU6050/inv_mpu_dmp_motion_driver.c ****  *  \n TAP_X_DOWN
1352:Drivers/MPU6050/inv_mpu_dmp_motion_driver.c ****  *  \n TAP_Y_UP
1353:Drivers/MPU6050/inv_mpu_dmp_motion_driver.c ****  *  \n TAP_Y_DOWN
1354:Drivers/MPU6050/inv_mpu_dmp_motion_driver.c ****  *  \n TAP_Z_UP
ARM GAS  F:\msys64\tmp\ccoK2euk.s 			page 94


1355:Drivers/MPU6050/inv_mpu_dmp_motion_driver.c ****  *  \n TAP_Z_DOWN
1356:Drivers/MPU6050/inv_mpu_dmp_motion_driver.c ****  *  @param[in]  func    Callback function.
1357:Drivers/MPU6050/inv_mpu_dmp_motion_driver.c ****  *  @return     0 if successful.
1358:Drivers/MPU6050/inv_mpu_dmp_motion_driver.c ****  */
1359:Drivers/MPU6050/inv_mpu_dmp_motion_driver.c **** int dmp_register_tap_cb(void (*func)(unsigned char, unsigned char))
1360:Drivers/MPU6050/inv_mpu_dmp_motion_driver.c **** {
 3189              		.loc 1 1360 1 is_stmt 1 view -0
 3190              		.cfi_startproc
 3191              		@ args = 0, pretend = 0, frame = 0
 3192              		@ frame_needed = 0, uses_anonymous_args = 0
 3193              		@ link register save eliminated.
1361:Drivers/MPU6050/inv_mpu_dmp_motion_driver.c ****     dmp.tap_cb = func;
 3194              		.loc 1 1361 5 view .LVU965
 3195              		.loc 1 1361 16 is_stmt 0 view .LVU966
 3196 0000 014B     		ldr	r3, .L197
 3197 0002 1860     		str	r0, [r3]
1362:Drivers/MPU6050/inv_mpu_dmp_motion_driver.c ****     return 0;
 3198              		.loc 1 1362 5 is_stmt 1 view .LVU967
1363:Drivers/MPU6050/inv_mpu_dmp_motion_driver.c **** }
 3199              		.loc 1 1363 1 is_stmt 0 view .LVU968
 3200 0004 0020     		movs	r0, #0
 3201              	.LVL188:
 3202              		.loc 1 1363 1 view .LVU969
 3203 0006 7047     		bx	lr
 3204              	.L198:
 3205              		.align	2
 3206              	.L197:
 3207 0008 00000000 		.word	.LANCHOR0
 3208              		.cfi_endproc
 3209              	.LFE584:
 3211              		.section	.text.dmp_register_android_orient_cb,"ax",%progbits
 3212              		.align	1
 3213              		.global	dmp_register_android_orient_cb
 3214              		.syntax unified
 3215              		.thumb
 3216              		.thumb_func
 3218              	dmp_register_android_orient_cb:
 3219              	.LVL189:
 3220              	.LFB585:
1364:Drivers/MPU6050/inv_mpu_dmp_motion_driver.c **** 
1365:Drivers/MPU6050/inv_mpu_dmp_motion_driver.c **** /**
1366:Drivers/MPU6050/inv_mpu_dmp_motion_driver.c ****  *  @brief      Register a function to be executed on a android orientation event.
1367:Drivers/MPU6050/inv_mpu_dmp_motion_driver.c ****  *  @param[in]  func    Callback function.
1368:Drivers/MPU6050/inv_mpu_dmp_motion_driver.c ****  *  @return     0 if successful.
1369:Drivers/MPU6050/inv_mpu_dmp_motion_driver.c ****  */
1370:Drivers/MPU6050/inv_mpu_dmp_motion_driver.c **** int dmp_register_android_orient_cb(void (*func)(unsigned char))
1371:Drivers/MPU6050/inv_mpu_dmp_motion_driver.c **** {
 3221              		.loc 1 1371 1 is_stmt 1 view -0
 3222              		.cfi_startproc
 3223              		@ args = 0, pretend = 0, frame = 0
 3224              		@ frame_needed = 0, uses_anonymous_args = 0
 3225              		@ link register save eliminated.
1372:Drivers/MPU6050/inv_mpu_dmp_motion_driver.c ****     dmp.android_orient_cb = func;
 3226              		.loc 1 1372 5 view .LVU971
 3227              		.loc 1 1372 27 is_stmt 0 view .LVU972
 3228 0000 014B     		ldr	r3, .L200
 3229 0002 5860     		str	r0, [r3, #4]
ARM GAS  F:\msys64\tmp\ccoK2euk.s 			page 95


1373:Drivers/MPU6050/inv_mpu_dmp_motion_driver.c ****     return 0;
 3230              		.loc 1 1373 5 is_stmt 1 view .LVU973
1374:Drivers/MPU6050/inv_mpu_dmp_motion_driver.c **** }
 3231              		.loc 1 1374 1 is_stmt 0 view .LVU974
 3232 0004 0020     		movs	r0, #0
 3233              	.LVL190:
 3234              		.loc 1 1374 1 view .LVU975
 3235 0006 7047     		bx	lr
 3236              	.L201:
 3237              		.align	2
 3238              	.L200:
 3239 0008 00000000 		.word	.LANCHOR0
 3240              		.cfi_endproc
 3241              	.LFE585:
 3243              		.section	.bss.dmp,"aw",%nobits
 3244              		.align	2
 3245              		.set	.LANCHOR0,. + 0
 3248              	dmp:
 3249 0000 00000000 		.space	16
 3249      00000000 
 3249      00000000 
 3249      00000000 
 3250              		.section	.rodata.dmp_memory,"a"
 3251              		.align	2
 3252              		.set	.LANCHOR1,. + 0
 3255              	dmp_memory:
 3256 0000 00007000 		.ascii	"\000\000p\000\000\000\000$\000\000\000\002\000\003\000"
 3256      00000024 
 3256      00000002 
 3256      000300
 3257 000f 00006500 		.ascii	"\000\000e\000T\377\357\000\000\372\200\000\013\022\202"
 3257      54FFEF00 
 3257      00FA8000 
 3257      0B1282
 3258 001e 0001030C 		.ascii	"\000\001\003\0140\303\016\214\214\351\024\325@\002\023"
 3258      30C30E8C 
 3258      8CE914D5 
 3258      400213
 3259 002d 710F8E38 		.ascii	"q\017\2168\203\370\2030\000\370\203%\216\370\2030\000"
 3259      83F88330 
 3259      00F88325 
 3259      8EF88330 
 3259      00
 3260 003e F883FFFF 		.ascii	"\370\203\377\377\377\377\017\376\251\326$\000\004\000"
 3260      FFFF0FFE 
 3260      A9D62400 
 3260      0400
 3261 004c 1A8279A1 		.ascii	"\032\202y\241\000\000\000<\377\377\000\000\000\020\000"
 3261      0000003C 
 3261      FFFF0000 
 3261      001000
 3262 005b 0038836F 		.ascii	"\0008\203o\242\000>\0030@\000\000\000\002\312\343\011"
 3262      A2003E03 
 3262      30400000 
 3262      0002CAE3 
 3262      09
 3263 006c 3E800000 		.ascii	">\200\000\000 \000\000\000\000\000\000\000@\000\000"
ARM GAS  F:\msys64\tmp\ccoK2euk.s 			page 96


 3263      20000000 
 3263      00000000 
 3263      400000
 3264 007b 00600000 		.ascii	"\000`\000\000\000\000\014\000\000\000\014\030n\000\000"
 3264      00000C00 
 3264      00000C18 
 3264      6E0000
 3265 008a 06920A16 		.ascii	"\006\222\012\026\300\337\377\377\002V\375\214\323w\377"
 3265      C0DFFFFF 
 3265      0256FD8C 
 3265      D377FF
 3266 0099 E1C496E0 		.ascii	"\341\304\226\340\305\276\252\000\000\000\000\377\377"
 3266      C5BEAA00 
 3266      000000FF 
 3266      FF
 3267 00a6 0B2B0000 		.ascii	"\013+\000\000\026W\000\000\003Y@\000\000\000\000\000"
 3267      16570000 
 3267      03594000 
 3267      00000000 
 3268 00b6 1DFA0002 		.ascii	"\035\372\000\002l\035\000\000\000\000?\377\337\353\000"
 3268      6C1D0000 
 3268      00003FFF 
 3268      DFEB00
 3269 00c5 3EB3B600 		.ascii	">\263\266\000\015\"x\000\000/<\000\000\000\000\000\031"
 3269      0D227800 
 3269      002F3C00 
 3269      00000000 
 3269      19
 3270 00d6 42B50000 		.ascii	"B\265\000\0009\242\000\000\263e\331\016\237\311\035"
 3270      39A20000 
 3270      B365D90E 
 3270      9FC91D
 3271 00e5 CF4C3430 		.ascii	"\317L40\000\000\000P\000\000\000;\266z\350\000d\000"
 3271      00000050 
 3271      0000003B 
 3271      B67AE800 
 3271      6400
 3272 00f7 0000C800 		.ascii	"\000\000\310\000\000\000\000\000\000\020\000\000\000"
 3272      00000000 
 3272      00100000 
 3272      00
 3273 0104 1000FA92 		.ascii	"\020\000\372\222\020\000\"^\000\015\"\237\000\001\000"
 3273      1000225E 
 3273      000D229F 
 3273      000100
 3274 0113 00003200 		.ascii	"\000\0002\000\000\377F\000\000c\324\000\000\020\000"
 3274      00FF4600 
 3274      0063D400 
 3274      001000
 3275 0122 000004D6 		.ascii	"\000\000\004\326\000\000\004\314\000\000\004\314\000"
 3275      000004CC 
 3275      000004CC 
 3275      00
 3276 012f 00000010 		.ascii	"\000\000\000\020r\000\000\000@\000\000\000\000\000\000"
 3276      72000000 
 3276      40000000 
 3276      000000
ARM GAS  F:\msys64\tmp\ccoK2euk.s 			page 97


 3277 013e 00000006 		.ascii	"\000\000\000\006\000\002\000\005\000\007\000\000\000"
 3277      00020005 
 3277      00070000 
 3277      00
 3278 014b 00006400 		.ascii	"\000\000d\000\000\000\000\000\000\000\000\000\005\000"
 3278      00000000 
 3278      00000000 
 3278      0500
 3279 0159 05006400 		.ascii	"\005\000d\000 \000\000\000\000\000\000\000\000\000\000"
 3279      20000000 
 3279      00000000 
 3279      000000
 3280 0168 00004000 		.ascii	"\000\000@\000\000\000\003\000\000\000\0002\370\230\000"
 3280      00000300 
 3280      00000032 
 3280      F89800
 3281 0177 00FF6500 		.ascii	"\000\377e\000\000\203\017\000\000\377\233\374\000\000"
 3281      00830F00 
 3281      00FF9BFC 
 3281      0000
 3282 0185 00000000 		.ascii	"\000\000\000\000\000\000\000\000\000\000\000\000\000"
 3282      00000000 
 3282      00000000 
 3282      00
 3283 0192 00000000 		.ascii	"\000\000\000\000\000\000\000\000\000\000\000\000\000"
 3283      00000000 
 3283      00000000 
 3283      00
 3284 019f 00000000 		.ascii	"\000\000\000\000\000\000\000\000\000\000\000\000\000"
 3284      00000000 
 3284      00000000 
 3284      00
 3285 01ac 00001000 		.ascii	"\000\000\020\000@\000\000\000\000\000\000\006\000\000"
 3285      40000000 
 3285      00000006 
 3285      0000
 3286 01ba B26A0002 		.ascii	"\262j\000\002\000\000\000\001\373\203\000h\000\000\000"
 3286      00000001 
 3286      FB830068 
 3286      000000
 3287 01c9 D9FC007C 		.ascii	"\331\374\000|\361\377\203\000\000\000\000\000e\000\000"
 3287      F1FF8300 
 3287      00000000 
 3287      650000
 3288 01d8 006403E8 		.ascii	"\000d\003\350\000d\000(\000\000\000%\000\000\000\000"
 3288      00640028 
 3288      00000025 
 3288      00000000 
 3289 01e8 16A00000 		.ascii	"\026\240\000\000\000\000\020\000\000\000\020\000\000"
 3289      00001000 
 3289      00001000 
 3289      00
 3290 01f5 2F000000 		.ascii	"/\000\000\000\000\001\364\000\000\020\000\000(\000\000"
 3290      0001F400 
 3290      00100000 
 3290      280000
 3291 0204 FFFF4581 		.ascii	"\377\377E\201\377\377\372r\000\000\000\000\000\000\000"
ARM GAS  F:\msys64\tmp\ccoK2euk.s 			page 98


 3291      FFFFFA72 
 3291      00000000 
 3291      000000
 3292 0213 00004400 		.ascii	"\000\000D\000\005\000\005\272\306\000Gx\242\000\000"
 3292      050005BA 
 3292      C6004778 
 3292      A20000
 3293 0222 00010000 		.ascii	"\000\001\000\000\000\000\000\000\006\000\000\000\000"
 3293      00000000 
 3293      06000000 
 3293      00
 3294 022f 14000025 		.ascii	"\024\000\000%M\000/pm\000\000\005\256\000\014\002\320"
 3294      4D002F70 
 3294      6D000005 
 3294      AE000C02 
 3294      D0
 3295 0240 00000000 		.ascii	"\000\000\000\000\000\000\000\000\000\000\000\000\000"
 3295      00000000 
 3295      00000000 
 3295      00
 3296 024d 00000000 		.ascii	"\000\000\000\000\033\000\000\000\000\000\000\000\000"
 3296      1B000000 
 3296      00000000 
 3296      00
 3297 025a 00000000 		.ascii	"\000\000\000\000\000\000\000d\000\000\000\010\000\000"
 3297      00000064 
 3297      00000008 
 3297      0000
 3298 0268 00000000 		.ascii	"\000\000\000\000\000\000\000\000\000\000\000\000\000"
 3298      00000000 
 3298      00000000 
 3298      00
 3299 0275 00000000 		.ascii	"\000\000\000\000\000\000\000\000\000\000\000\000\000"
 3299      00000000 
 3299      00000000 
 3299      00
 3300 0282 00000000 		.ascii	"\000\000\000\000\000\000\000\000\000\000\000\000\000"
 3300      00000000 
 3300      00000000 
 3300      00
 3301 028f 00000000 		.ascii	"\000\000\000\000\000\000\000\000\000\000\000\000\000"
 3301      00000000 
 3301      00000000 
 3301      00
 3302 029c 00000000 		.ascii	"\000\000\000\000\000\000\000\000\000\000\000\000\000"
 3302      00000000 
 3302      00000000 
 3302      00
 3303 02a9 00000000 		.ascii	"\000\000\000\000\000\000\000\000\000\000\000\000\000"
 3303      00000000 
 3303      00000000 
 3303      00
 3304 02b6 00000000 		.ascii	"\000\000\000\000\000\000\000\000\000\000\000\033\000"
 3304      00000000 
 3304      0000001B 
 3304      00
 3305 02c3 00000000 		.ascii	"\000\000\000\000\000\000\000\000\000\000\016\000\016"
ARM GAS  F:\msys64\tmp\ccoK2euk.s 			page 99


 3305      00000000 
 3305      00000E00 
 3305      0E
 3306 02d0 00000AC7 		.ascii	"\000\000\012\307\000\004\000\000\000\000\0002\377\377"
 3306      00040000 
 3306      00000032 
 3306      FFFF
 3307 02de FF9C0000 		.ascii	"\377\234\000\000\013+\000\000\000\002\000\000\000\001"
 3307      0B2B0000 
 3307      00020000 
 3307      0001
 3308 02ec 00000064 		.ascii	"\000\000\000d\377\345\000\000\000\000\000\000\000\000"
 3308      FFE50000 
 3308      00000000 
 3308      0000
 3309 02fa 00000000 		.ascii	"\000\000\000\000\000\000\000\000\000\001\000\000\000"
 3309      00000000 
 3309      00010000 
 3309      00
 3310 0307 00000100 		.ascii	"\000\000\001\000\000\000\000\000\000\000\001\200\000"
 3310      00000000 
 3310      00000180 
 3310      00
 3311 0314 00018000 		.ascii	"\000\001\200\000\000\001\200\000\000$&\323\000\000\000"
 3311      00018000 
 3311      002426D3 
 3311      000000
 3312 0323 00000000 		.ascii	"\000\000\000\000\000\000\006\000\020\000\226\000<\000"
 3312      00000600 
 3312      10009600 
 3312      3C00
 3313 0331 00000000 		.ascii	"\000\000\000\000\000\000\000\000\000\000\000\000\000"
 3313      00000000 
 3313      00000000 
 3313      00
 3314 033e 00000C0A 		.ascii	"\000\000\014\012Nh\315\317w\011P\026gY\306\031\316\202"
 3314      4E68CDCF 
 3314      77095016 
 3314      6759C619 
 3314      CE82
 3315 0350 00000000 		.ascii	"\000\000\000\000\000\000\000\000\000\000\000\000\000"
 3315      00000000 
 3315      00000000 
 3315      00
 3316 035d 00000000 		.ascii	"\000\000\000\000\000\000\000\000\000\000\000\027\327"
 3316      00000000 
 3316      00000017 
 3316      D7
 3317 036a 84000300 		.ascii	"\204\000\003\000\000\000\000\000\000\000\000\000\000"
 3317      00000000 
 3317      00000000 
 3317      00
 3318 0377 00C7938F 		.ascii	"\000\307\223\217\235\036\033\034\031\000\000\000\000"
 3318      9D1E1B1C 
 3318      19000000 
 3318      00
 3319 0384 00000000 		.ascii	"\000\000\000\000\000\000\000\000\000\000\000\000\000"
ARM GAS  F:\msys64\tmp\ccoK2euk.s 			page 100


 3319      00000000 
 3319      00000000 
 3319      00
 3320 0391 00000000 		.ascii	"\000\000\000\000\000\000\000\002\003\030\205\000\000"
 3320      00000002 
 3320      03188500 
 3320      00
 3321 039e 40000000 		.ascii	"@\000\000\000\000\003\000\000\000\003\000\000\000\000"
 3321      00030000 
 3321      00030000 
 3321      0000
 3322 03ac 00000000 		.ascii	"\000\000\000\000@\000\000\000\000\000\000\000\000\000"
 3322      40000000 
 3322      00000000 
 3322      0000
 3323 03ba 00000000 		.ascii	"\000\000\000\000\000\000\000\000\000\000\000\000\000"
 3323      00000000 
 3323      00000000 
 3323      00
 3324 03c7 00000000 		.ascii	"\000\000\000\000\000\000\000\000\000\000\000\000\000"
 3324      00000000 
 3324      00000000 
 3324      00
 3325 03d4 00000000 		.ascii	"\000\000\000\000\000\000\000\000\000\000\000\000\000"
 3325      00000000 
 3325      00000000 
 3325      00
 3326 03e1 00000067 		.ascii	"\000\000\000g}\337~r\220.UL\366\346\210\000\000\000"
 3326      7DDF7E72 
 3326      902E554C 
 3326      F6E68800 
 3326      0000
 3327 03f3 00000000 		.ascii	"\000\000\000\000\000\000\000\000\000\000\000\000\000"
 3327      00000000 
 3327      00000000 
 3327      00
 3328 0400 D8DCB4B8 		.ascii	"\330\334\264\270\260\330\271\253\363\370\372\263\267"
 3328      B0D8B9AB 
 3328      F3F8FAB3 
 3328      B7
 3329 040d BB8E9EAE 		.ascii	"\273\216\236\256\3612\365\033\361\264\270\260\200\227"
 3329      F132F51B 
 3329      F1B4B8B0 
 3329      8097
 3330 041b F1A9DFDF 		.ascii	"\361\251\337\337\337\252\337\337\337\362\252\305\315"
 3330      DFAADFDF 
 3330      DFF2AAC5 
 3330      CD
 3331 0428 C7A90CC9 		.ascii	"\307\251\014\311,\227\361\251\211&Ff\262\211\231\251"
 3331      2C97F1A9 
 3331      89264666 
 3331      B28999A9 
 3332 0438 2D557DB0 		.ascii	"-U}\260\260\212\250\2266Vv\361\272\243\264\262\200\300"
 3332      B08AA896 
 3332      365676F1 
 3332      BAA3B4B2 
 3332      80C0
ARM GAS  F:\msys64\tmp\ccoK2euk.s 			page 101


 3333 044a B8A89711 		.ascii	"\270\250\227\021\262\203\230\272\243\360$\010D\020d"
 3333      B28398BA 
 3333      A3F02408 
 3333      441064
 3334 0459 18B2B9B4 		.ascii	"\030\262\271\264\230\203\361\243)U}\272\265\261\243"
 3334      9883F1A3 
 3334      29557DBA 
 3334      B5B1A3
 3335 0468 8393F000 		.ascii	"\203\223\360\000(P\365\262\266\252\203\223(T|\361\271"
 3335      2850F5B2 
 3335      B6AA8393 
 3335      28547CF1 
 3335      B9
 3336 0479 A3829361 		.ascii	"\243\202\223a\272\242\332\336\337\333\201\232\271\256"
 3336      BAA2DADE 
 3336      DFDB819A 
 3336      B9AE
 3337 0487 F5606870 		.ascii	"\365`hp\361\332\272\242\337\331\272\242\372\271\243"
 3337      F1DABAA2 
 3337      DFD9BAA2 
 3337      FAB9A3
 3338 0496 8292DB31 		.ascii	"\202\222\3331\272\242\331\272\242\370\337\205\244\320"
 3338      BAA2D9BA 
 3338      A2F8DF85 
 3338      A4D0
 3339 04a4 C1BBAD83 		.ascii	"\301\273\255\203\302\305\307\270\242\337\337\337\272"
 3339      C2C5C7B8 
 3339      A2DFDFDF 
 3339      BA
 3340 04b1 A0DFDFDF 		.ascii	"\240\337\337\337\330\330\361\270\252\263\215\264\230"
 3340      D8D8F1B8 
 3340      AAB38DB4 
 3340      98
 3341 04be 0D355DB2 		.ascii	"\0155]\262\266\272\257\214\226\031\217\237\247\016\026"
 3341      B6BAAF8C 
 3341      96198F9F 
 3341      A70E16
 3342 04cd 1EB49AB8 		.ascii	"\036\264\232\270\252\207,T|\272\244\260\212\266\221"
 3342      AA872C54 
 3342      7CBAA4B0 
 3342      8AB691
 3343 04dc 325676B2 		.ascii	"2Vv\262\204\224\244\310\010\315\330\270\264\260\361"
 3343      8494A4C8 
 3343      08CDD8B8 
 3343      B4B0F1
 3344 04eb 9982A82D 		.ascii	"\231\202\250-U}\230\250\016\026\036\242,T|\222\244\360"
 3344      557D98A8 
 3344      0E161EA2 
 3344      2C547C92 
 3344      A4F0
 3345 04fd 2C5078F1 		.ascii	",Px\361\204\250\230\304\315\374\330\015\333\250\374"
 3345      84A898C4 
 3345      CDFCD80D 
 3345      DBA8FC
 3346 050c 2DF3D9BA 		.ascii	"-\363\331\272\246\370\332\272\246\336\330\272\262\266"
 3346      A6F8DABA 
 3346      A6DED8BA 
ARM GAS  F:\msys64\tmp\ccoK2euk.s 			page 102


 3346      B2B6
 3347 051a 8696A6D0 		.ascii	"\206\226\246\320\363\310A\332\246\310\370\330\260\264"
 3347      F3C841DA 
 3347      A6C8F8D8 
 3347      B0B4
 3348 0528 B882A892 		.ascii	"\270\202\250\222\365,T\210\230\3615\331\364\030\330"
 3348      F52C5488 
 3348      98F135D9 
 3348      F418D8
 3349 0537 F1A2D0F8 		.ascii	"\361\242\320\370\371\250\204\331\307\337\370\370\203"
 3349      F9A884D9 
 3349      C7DFF8F8 
 3349      83
 3350 0544 C5DADF69 		.ascii	"\305\332\337i\337\203\301\330\364\001\024\361\250\202"
 3350      DF83C1D8 
 3350      F40114F1 
 3350      A882
 3351 0552 4EA884F3 		.ascii	"N\250\204\363\021\321\202\365\331\222(\227\210\361\011"
 3351      11D182F5 
 3351      D9922897 
 3351      88F109
 3352 0561 F41C1CD8 		.ascii	"\364\034\034\330\204\250\363\300\371\321\331\227\202"
 3352      84A8F3C0 
 3352      F9D1D997 
 3352      82
 3353 056e F129F40D 		.ascii	"\361)\364\015\330\363\371\371\321\331\202\364\302\003"
 3353      D8F3F9F9 
 3353      D1D982F4 
 3353      C203
 3354 057c D8DEDF1A 		.ascii	"\330\336\337\032\330\361\242\372\371\250\204\230\331"
 3354      D8F1A2FA 
 3354      F9A88498 
 3354      D9
 3355 0589 C7DFF8F8 		.ascii	"\307\337\370\370\370\203\307\332\337i\337\370\203\303"
 3355      F883C7DA 
 3355      DF69DFF8 
 3355      83C3
 3356 0597 D8F40114 		.ascii	"\330\364\001\024\361\230\250\202.\250\204\363\021\321"
 3356      F198A882 
 3356      2EA884F3 
 3356      11D1
 3357 05a5 82F5D992 		.ascii	"\202\365\331\222P\227\210\361\011\364\034\330\204\250"
 3357      509788F1 
 3357      09F41CD8 
 3357      84A8
 3358 05b3 F3C0F8F9 		.ascii	"\363\300\370\371\321\331\227\202\361I\364\015\330\363"
 3358      D1D99782 
 3358      F149F40D 
 3358      D8F3
 3359 05c1 F9F9D1D9 		.ascii	"\371\371\321\331\202\364\304\003\330\336\337\330\361"
 3359      82F4C403 
 3359      D8DEDFD8 
 3359      F1
 3360 05ce AD8898CC 		.ascii	"\255\210\230\314\250\011\371\331\202\222\250\365|\361"
 3360      A809F9D9 
 3360      8292A8F5 
 3360      7CF1
ARM GAS  F:\msys64\tmp\ccoK2euk.s 			page 103


 3361 05dc 883ACF94 		.ascii	"\210:\317\224Jn\230\333i1\332\255\362\336\371\330\207"
 3361      4A6E98DB 
 3361      6931DAAD 
 3361      F2DEF9D8 
 3361      87
 3362 05ed 95A8F221 		.ascii	"\225\250\362!\321\332\245\371\364\027\331\361\256\216"
 3362      D1DAA5F9 
 3362      F417D9F1 
 3362      AE8E
 3363 05fb D0C0C3AE 		.ascii	"\320\300\303\256\202\306\204\303\250\205\225\310\245"
 3363      82C684C3 
 3363      A88595C8 
 3363      A5
 3364 0608 88F2C0F1 		.ascii	"\210\362\300\361\364\001\016\361\216\236\250\306>V\365"
 3364      F4010EF1 
 3364      8E9EA8C6 
 3364      3E56F5
 3365 0617 54F18872 		.ascii	"T\361\210r\364\001\025\361\230E\205n\365\216\236\004"
 3365      F40115F1 
 3365      9845856E 
 3365      F58E9E04 
 3366 0627 88F14298 		.ascii	"\210\361B\230Z\216\236\006\210i\364\001\034\361\230"
 3366      5A8E9E06 
 3366      8869F401 
 3366      1CF198
 3367 0636 1E1108D0 		.ascii	"\036\021\010\320\365\004\361\036\227\002\002\2306%\333"
 3367      F504F11E 
 3367      97020298 
 3367      3625DB
 3368 0645 F9D985A5 		.ascii	"\371\331\205\245\363\301\332\205\245\363\337\330\205"
 3368      F3C1DA85 
 3368      A5F3DFD8 
 3368      85
 3369 0652 95A8F309 		.ascii	"\225\250\363\011\332\245\372\330\202\222\250\365x\361"
 3369      DAA5FAD8 
 3369      8292A8F5 
 3369      78F1
 3370 0660 881A849F 		.ascii	"\210\032\204\237&\210\230!\332\364\035\363\330\207\237"
 3370      26889821 
 3370      DAF41DF3 
 3370      D8879F
 3371 066f 39D1AFD9 		.ascii	"9\321\257\331\337\337\373\371\364\014\363\330\372\320"
 3371      DFDFFBF9 
 3371      F40CF3D8 
 3371      FAD0
 3372 067d F8DAF9F9 		.ascii	"\370\332\371\371\320\337\331\371\330\364\013\330\363"
 3372      D0DFD9F9 
 3372      D8F40BD8 
 3372      F3
 3373 068a 879F39D1 		.ascii	"\207\2379\321\257\331\337\337\364\035\363\330\372\374"
 3373      AFD9DFDF 
 3373      F41DF3D8 
 3373      FAFC
 3374 0698 A869F9F9 		.ascii	"\250i\371\371\257\320\332\336\372\331\370\217\237\250"
 3374      AFD0DADE 
 3374      FAD9F88F 
 3374      9FA8
ARM GAS  F:\msys64\tmp\ccoK2euk.s 			page 104


 3375 06a6 F1CCF398 		.ascii	"\361\314\363\230\333E\331\257\337\320\370\330\361\217"
 3375      DB45D9AF 
 3375      DFD0F8D8 
 3375      F18F
 3376 06b4 9FA8CAF3 		.ascii	"\237\250\312\363\210\011\332\257\217\313\370\330\362"
 3376      8809DAAF 
 3376      8FCBF8D8 
 3376      F2
 3377 06c1 AD978D0C 		.ascii	"\255\227\215\014\331\245\337\371\272\246\363\372\364"
 3377      D9A5DFF9 
 3377      BAA6F3FA 
 3377      F4
 3378 06ce 12F2D895 		.ascii	"\022\362\330\225\015\321\331\272\246\363\372\332\245"
 3378      0DD1D9BA 
 3378      A6F3FADA 
 3378      A5
 3379 06db F2C1BAA6 		.ascii	"\362\301\272\246\363\337\330\361\272\262\266\206\226"
 3379      F3DFD8F1 
 3379      BAB2B686 
 3379      96
 3380 06e8 A6D0CAF3 		.ascii	"\246\320\312\363I\332\246\313\370\330\260\264\270\330"
 3380      49DAA6CB 
 3380      F8D8B0B4 
 3380      B8D8
 3381 06f6 AD84F2C0 		.ascii	"\255\204\362\300\337\361\217\313\303\250\262\266\206"
 3381      DFF18FCB 
 3381      C3A8B2B6 
 3381      86
 3382 0703 96C8C1CB 		.ascii	"\226\310\301\313\303\363\260\264\210\230\250!\333q\215"
 3382      C3F3B0B4 
 3382      8898A821 
 3382      DB718D
 3383 0712 9D718595 		.ascii	"\235q\205\225!\331\255\362\372\330\205\227\250(\331"
 3383      21D9ADF2 
 3383      FAD88597 
 3383      A828D9
 3384 0721 F408D8F2 		.ascii	"\364\010\330\362\215)\332\364\005\331\362\205\244\302"
 3384      8D29DAF4 
 3384      05D9F285 
 3384      A4C2
 3385 072f F2D8A88D 		.ascii	"\362\330\250\215\224\001\321\331\364\021\362\330\207"
 3385      9401D1D9 
 3385      F411F2D8 
 3385      87
 3386 073c 21D8F40A 		.ascii	"!\330\364\012\330\362\204\230\250\310\001\321\331\364"
 3386      D8F28498 
 3386      A8C801D1 
 3386      D9F4
 3387 074a 11D8F3A4 		.ascii	"\021\330\363\244\310\273\257\320\362\336\370\370\370"
 3387      C8BBAFD0 
 3387      F2DEF8F8 
 3387      F8
 3388 0757 F8F8F8F8 		.ascii	"\370\370\370\370\370\330\361\270\366\265\271\260\212"
 3388      F8D8F1B8 
 3388      F6B5B9B0 
 3388      8A
 3389 0764 95A3DE3C 		.ascii	"\225\243\336<\243\331\370\330\\\243\331\370\330|\243"
ARM GAS  F:\msys64\tmp\ccoK2euk.s 			page 105


 3389      A3D9F8D8 
 3389      5CA3D9F8 
 3389      D87CA3
 3390 0773 D9F8D8F8 		.ascii	"\331\370\330\370\371\321\245\331\337\332\372\330\261"
 3390      F9D1A5D9 
 3390      DFDAFAD8 
 3390      B1
 3391 0780 8530F7D9 		.ascii	"\2050\367\331\336\330\3700\255\332\336\330\362\264\214"
 3391      DED8F830 
 3391      ADDADED8 
 3391      F2B48C
 3392 078f 99A32D55 		.ascii	"\231\243-U}\240\203\337\337\337\265\221\240\366)\331"
 3392      7DA083DF 
 3392      DFDFB591 
 3392      A0F629D9 
 3393 079f FBD8A0FC 		.ascii	"\373\330\240\374)\331\372\330\240\320Q\331\370\330\374"
 3393      29D9FAD8 
 3393      A0D051D9 
 3393      F8D8FC
 3394 07ae 51D9F9D8 		.ascii	"Q\331\371\330y\331\373\330\240\320\374y\331\372\330"
 3394      79D9FBD8 
 3394      A0D0FC79 
 3394      D9FAD8
 3395 07bd A1F9F9F9 		.ascii	"\241\371\371\371\371\371\240\332\337\337\337\330\241"
 3395      F9F9A0DA 
 3395      DFDFDFD8 
 3395      A1
 3396 07ca F8F8F8F8 		.ascii	"\370\370\370\370\370\254"
 3396      F8AC
 3397 07d0 DEF8ADDE 		.ascii	"\336\370\255\336\203\223\254,T|\361\250\337\337\337"
 3397      8393AC2C 
 3397      547CF1A8 
 3397      DFDFDF
 3398 07df F69D2CDA 		.ascii	"\366\235,\332\240\337\331\372\333-\370\330\250P\332"
 3398      A0DFD9FA 
 3398      DB2DF8D8 
 3398      A850DA
 3399 07ee A0D0DED9 		.ascii	"\240\320\336\331\320\370\370\370\333U\370\330\250x\332"
 3399      D0F8F8F8 
 3399      DB55F8D8 
 3399      A878DA
 3400 07fd A0D0DFD9 		.ascii	"\240\320\337\331\320\372\370\370\370\370\333}\370\330"
 3400      D0FAF8F8 
 3400      F8F8DB7D 
 3400      F8D8
 3401 080b 9CA88CF5 		.ascii	"\234\250\214\3650\3338\331\320\336\337\240\320\336\337"
 3401      30DB38D9 
 3401      D0DEDFA0 
 3401      D0DEDF
 3402 081a D8A848DB 		.ascii	"\330\250H\333X\331\337\320\336\240\337\320\336\330\250"
 3402      58D9DFD0 
 3402      DEA0DFD0 
 3402      DED8A8
 3403 0829 68DB70D9 		.ascii	"h\333p\331\337\337\240\337\337\330\361\250\210\220,"
 3403      DFDFA0DF 
 3403      DFD8F1A8 
 3403      88902C
ARM GAS  F:\msys64\tmp\ccoK2euk.s 			page 106


 3404 0838 547C98A8 		.ascii	"T|\230\250\320\\8\321\332\362\256\214\337\371\330\260"
 3404      D05C38D1 
 3404      DAF2AE8C 
 3404      DFF9D8B0 
 3405 0848 87A8C1C1 		.ascii	"\207\250\301\301\261\210\250\306\371\371\3326\330\250"
 3405      B188A8C6 
 3405      F9F9DA36 
 3405      D8A8
 3406 0856 F9DA36D8 		.ascii	"\371\3326\330\250\371\3326\330\250\371\3326\330\250"
 3406      A8F9DA36 
 3406      D8A8F9DA 
 3406      36D8A8
 3407 0865 F9DA36D8 		.ascii	"\371\3326\330\367\215\235\255\370\030\332\362\256\337"
 3407      F78D9DAD 
 3407      F818DAF2 
 3407      AEDF
 3408 0873 D8F7ADFA 		.ascii	"\330\367\255\3720\331\244\336\371\330\362\256\336\372"
 3408      30D9A4DE 
 3408      F9D8F2AE 
 3408      DEFA
 3409 0881 F983A7D9 		.ascii	"\371\203\247\331\303\305\307\361\210\233\247z\255\367"
 3409      C3C5C7F1 
 3409      889BA77A 
 3409      ADF7
 3410 088f DEDFA4F8 		.ascii	"\336\337\244\370\204\224\010\247\227\363\000\256\362"
 3410      849408A7 
 3410      97F300AE 
 3410      F2
 3411 089c 9819A488 		.ascii	"\230\031\244\210\306\243\224\210\3662\337\362\203\223"
 3411      C6A39488 
 3411      F632DFF2 
 3411      8393
 3412 08aa DB09D9F2 		.ascii	"\333\011\331\362\252\337\330\330\256\370\371\321\332"
 3412      AADFD8D8 
 3412      AEF8F9D1 
 3412      DA
 3413 08b7 F3A4DEA7 		.ascii	"\363\244\336\247\361\210\233z\330\363\204\224\256\031"
 3413      F1889B7A 
 3413      D8F38494 
 3413      AE19
 3414 08c5 F9DAAAF1 		.ascii	"\371\332\252\361\337\330\250\201\300\303\305\307\243"
 3414      DFD8A881 
 3414      C0C3C5C7 
 3414      A3
 3415 08d2 9283F628 		.ascii	"\222\203\366(\255\336\331\370\330\243P\255\331\370\330"
 3415      ADDED9F8 
 3415      D8A350AD 
 3415      D9F8D8
 3416 08e1 A378ADD9 		.ascii	"\243x\255\331\370\330\370\371\321\241\332\336\303\305"
 3416      F8D8F8F9 
 3416      D1A1DADE 
 3416      C3C5
 3417 08ef C7D8A181 		.ascii	"\307\330\241\201\224\370\030\362\260\211\254\303\305"
 3417      94F818F2 
 3417      B089ACC3 
 3417      C5
 3418 08fc C7F1D8B8 		.ascii	"\307\361\330\270\264\260\227\206\2501\233\006\231\007"
ARM GAS  F:\msys64\tmp\ccoK2euk.s 			page 107


 3418      B4B09786 
 3418      A8319B06 
 3418      9907
 3419 090a AB972888 		.ascii	"\253\227(\210\233\360\014 \024@\260\264\270\360\250"
 3419      9BF00C20 
 3419      1440B0B4 
 3419      B8F0A8
 3420 0919 8A9A2850 		.ascii	"\212\232(Px\267\233\250)Qy$pYDi8dH1\361\273\253\210"
 3420      78B79BA8 
 3420      29517924 
 3420      70594469 
 3420      38644831 
 3421 0931 002C547C 		.ascii	"\000,T|\360\263\213\270\250\004(Px\361\260\210\264\227"
 3421      F0B38BB8 
 3421      A8042850 
 3421      78F1B088 
 3421      B497
 3422 0943 26A85998 		.ascii	"&\250Y\230\273\253\263\213\002&Ff\260\270\360\212\234"
 3422      BBABB38B 
 3422      02264666 
 3422      B0B8F08A 
 3422      9C
 3423 0954 A8295179 		.ascii	"\250)Qy\213)Qy\212$pY\213 Xq\212Di8\2139@h\212dH1\213"
 3423      8B295179 
 3423      8A247059 
 3423      8B205871 
 3423      8A446938 
 3424 0971 30496088 		.ascii	"0I`\210\361\254\000,T|\360\214\250\004(Px\361\210\227"
 3424      F1AC002C 
 3424      547CF08C 
 3424      A8042850 
 3424      78F18897 
 3425 0985 26A85998 		.ascii	"&\250Y\230\254\214\002&Ff\360\211\234\250)Qy$pYDi8d"
 3425      AC8C0226 
 3425      4666F089 
 3425      9CA82951 
 3425      79247059 
 3426 099d 4831A988 		.ascii	"H1\251\210\011 Yp\253\0218@i\250\0311H`\214\250<A\\"
 3426      09205970 
 3426      AB113840 
 3426      69A81931 
 3426      48608CA8 
 3427 09b4 207C00F1 		.ascii	" |\000\361\207\230\031\206\250nv~\251\231\210-U}\330"
 3427      87981986 
 3427      A86E767E 
 3427      A999882D 
 3427      557DD8
 3428 09c7 B1B5B9A3 		.ascii	"\261\265\271\243\337\337\337\256\320\337\252\320\336"
 3428      DFDFDFAE 
 3428      D0DFAAD0 
 3428      DE
 3429 09d4 F2ABF8F9 		.ascii	"\362\253\370\371\331\260\207\304\252\361\337\337\273"
 3429      D9B087C4 
 3429      AAF1DFDF 
 3429      BB
 3430 09e1 AFDFDFB9 		.ascii	"\257\337\337\271\330\261\361\243\227\216`\337\260\204"
 3430      D8B1F1A3 
ARM GAS  F:\msys64\tmp\ccoK2euk.s 			page 108


 3430      978E60DF 
 3430      B084
 3431 09ef F2C8F8F9 		.ascii	"\362\310\370\371\331\336\330\223\205\361J\261\203\243"
 3431      D9DED893 
 3431      85F14AB1 
 3431      83A3
 3432 09fd 08B5839A 		.ascii	"\010\265\203\232\010\020\267\237\020\330\361\260\272"
 3432      0810B79F 
 3432      10D8F1B0 
 3432      BA
 3433 0a0a AEB08AC2 		.ascii	"\256\260\212\302\262\266\216\236\361\373\331\364\035"
 3433      B2B68E9E 
 3433      F1FBD9F4 
 3433      1D
 3434 0a17 D8F9D90C 		.ascii	"\330\371\331\014\361\330\370\370\255a\331\256\373\330"
 3434      F1D8F8F8 
 3434      AD61D9AE 
 3434      FBD8
 3435 0a25 F40CF1D8 		.ascii	"\364\014\361\330\370\370\255\031\331\256\373\337\330"
 3435      F8F8AD19 
 3435      D9AEFBDF 
 3435      D8
 3436 0a32 F416F1D8 		.ascii	"\364\026\361\330\370\255\215a\331\364\364\254\365\234"
 3436      F8AD8D61 
 3436      D9F4F4AC 
 3436      F59C
 3437 0a40 9C8DDF2B 		.ascii	"\234\215\337+\272\266\256\372\370\364\013\330\361\256"
 3437      BAB6AEFA 
 3437      F8F40BD8 
 3437      F1AE
 3438 0a4e D0F8AD51 		.ascii	"\320\370\255Q\332\256\372\370\361\330\271\261\266\243"
 3438      DAAEFAF8 
 3438      F1D8B9B1 
 3438      B6A3
 3439 0a5c 839C08B9 		.ascii	"\203\234\010\271\261\203\232\265\252\300\3750\203\267"
 3439      B1839AB5 
 3439      AAC0FD30 
 3439      83B7
 3440 0a6a 9F10B58B 		.ascii	"\237\020\265\213\223\362\002\002\321\253\332\336\330"
 3440      93F20202 
 3440      D1ABDADE 
 3440      D8
 3441 0a77 F1B080BA 		.ascii	"\361\260\200\272\253\300\303\262\204\301\303\330\261"
 3441      ABC0C3B2 
 3441      84C1C3D8 
 3441      B1
 3442 0a84 B9F38BA3 		.ascii	"\271\363\213\243\221\266\011\264\331\253\336\260\207"
 3442      91B609B4 
 3442      D9ABDEB0 
 3442      87
 3443 0a91 9CB9A3DD 		.ascii	"\234\271\243\335\361\263\213\213\213\213\213\260\207"
 3443      F1B38B8B 
 3443      8B8B8BB0 
 3443      87
 3444 0a9e A3A3A3A3 		.ascii	"\243\243\243\243\262\213\266\233\362\243\243\243\243"
 3444      B28BB69B 
 3444      F2A3A3A3 
ARM GAS  F:\msys64\tmp\ccoK2euk.s 			page 109


 3444      A3
 3445 0aab A3A3A3A3 		.ascii	"\243\243\243\243\243\243\361\260\207\265\232\243\363"
 3445      A3A3F1B0 
 3445      87B59AA3 
 3445      F3
 3446 0ab8 9BA3A3DC 		.ascii	"\233\243\243\334\272\254\337\271\243\243\243\243\243"
 3446      BAACDFB9 
 3446      A3A3A3A3 
 3446      A3
 3447 0ac5 A3A3A3A3 		.ascii	"\243\243\243\243\243\243\243\243\243\243\243\330\330"
 3447      A3A3A3A3 
 3447      A3A3A3D8 
 3447      D8
 3448 0ad2 D8BBB3B7 		.ascii	"\330\273\263\267\361\252\371\332\377\331\200\232\252"
 3448      F1AAF9DA 
 3448      FFD9809A 
 3448      AA
 3449 0adf 28B48098 		.ascii	"(\264\200\230\247 \267\227\207\250f\210\360yQ\361\220"
 3449      A720B797 
 3449      87A86688 
 3449      F07951F1 
 3449      90
 3450 0af0 2C870CA7 		.ascii	",\207\014\247\201\227b\223\360qq`\205\224\001)Qy\220"
 3450      81976293 
 3450      F0717160 
 3450      85940129 
 3450      517990
 3451 0b03 A5F1284C 		.ascii	"\245\361(Ll\207\014\225\030\205x\243\203\220(Ll\210"
 3451      6C870C95 
 3451      188578A3 
 3451      8390284C 
 3451      6C88
 3452 0b15 6CD8F3A2 		.ascii	"l\330\363\242\202\000\362\020\250\222\031\200\242\362"
 3452      8200F210 
 3452      A8921980 
 3452      A2F2
 3453 0b23 D926D8F1 		.ascii	"\331&\330\361\210\250M\331H\330\226\2509\200\331<\330"
 3453      88A84DD9 
 3453      48D896A8 
 3453      3980D93C 
 3453      D8
 3454 0b34 9580A839 		.ascii	"\225\200\2509\246\206\230\331,\332\207\247,\330\250"
 3454      A68698D9 
 3454      2CDA87A7 
 3454      2CD8A8
 3455 0b43 899519A9 		.ascii	"\211\225\031\251\200\3318\330\250\2119\251\200\332<"
 3455      80D938D8 
 3455      A88939A9 
 3455      80DA3C
 3456 0b52 D8A82EA8 		.ascii	"\330\250.\2509\220\331\014\330\250\2251\230\331\014"
 3456      3990D90C 
 3456      D8A89531 
 3456      98D90C
 3457 0b61 D8A809D9 		.ascii	"\330\250\011\331\377\330\001\332\377\330\2259\251\332"
 3457      FFD801DA 
 3457      FFD89539 
 3457      A9DA
ARM GAS  F:\msys64\tmp\ccoK2euk.s 			page 110


 3458 0b6f 26FFD890 		.ascii	"&\377\330\220\250\015\211\231\250\020\200\230!\332."
 3458      A80D8999 
 3458      A8108098 
 3458      21DA2E
 3459 0b7e D88999A8 		.ascii	"\330\211\231\2501\200\332.\330\250\206\2261\200\332"
 3459      3180DA2E 
 3459      D8A88696 
 3459      3180DA
 3460 0b8d 2ED8A887 		.ascii	".\330\250\2071\200\332.\330\250\202\222\363A\200\361"
 3460      3180DA2E 
 3460      D8A88292 
 3460      F34180F1 
 3461 0b9d D92ED8A8 		.ascii	"\331.\330\250\202\363\031\200\361\331.\330\202\254\363"
 3461      82F31980 
 3461      F1D92ED8 
 3461      82ACF3
 3462 0bac C0A28022 		.ascii	"\300\242\200\"\361\246.\247.\251\"\230\250)\332\254"
 3462      F1A62EA7 
 3462      2EA92298 
 3462      A829DAAC 
 3463 0bbc DEFFD8A2 		.ascii	"\336\377\330\242\362*\361\251.\202\222\250\3621\200"
 3463      F22AF1A9 
 3463      2E8292A8 
 3463      F23180
 3464 0bcb A696F1D9 		.ascii	"\246\226\361\331\000\254\214\234\0140\254\336\320\336"
 3464      00AC8C9C 
 3464      0C30ACDE 
 3464      D0DE
 3465 0bd9 FFD88C9C 		.ascii	"\377\330\214\234\254\320\020\254\336\200\222\242\362"
 3465      ACD010AC 
 3465      DE8092A2 
 3465      F2
 3466 0be6 4C82A8F1 		.ascii	"L\202\250\361\312\3625\361\226\210\246\331\000\330\361"
 3466      CAF235F1 
 3466      9688A6D9 
 3466      00D8F1
 3467 0bf5 FF       		.ascii	"\377"
 3468              		.text
 3469              	.Letext0:
 3470              		.file 2 "f:\\stm32\\win-dev-tools\\gcc-arm-none-eabi\\arm-none-eabi\\include\\machine\\_default_ty
 3471              		.file 3 "f:\\stm32\\win-dev-tools\\gcc-arm-none-eabi\\arm-none-eabi\\include\\sys\\_stdint.h"
 3472              		.file 4 "Drivers/STM32F4xx_HAL_Driver/Inc/stm32f4xx_ll_dma.h"
 3473              		.file 5 "Drivers/MPU6050/inv_mpu.h"
ARM GAS  F:\msys64\tmp\ccoK2euk.s 			page 111


DEFINED SYMBOLS
                            *ABS*:00000000 inv_mpu_dmp_motion_driver.c
F:\msys64\tmp\ccoK2euk.s:20     .text.decode_gesture:00000000 $t
F:\msys64\tmp\ccoK2euk.s:25     .text.decode_gesture:00000000 decode_gesture
F:\msys64\tmp\ccoK2euk.s:106    .text.decode_gesture:00000038 $d
F:\msys64\tmp\ccoK2euk.s:111    .text.dmp_load_motion_driver_firmware:00000000 $t
F:\msys64\tmp\ccoK2euk.s:117    .text.dmp_load_motion_driver_firmware:00000000 dmp_load_motion_driver_firmware
F:\msys64\tmp\ccoK2euk.s:141    .text.dmp_load_motion_driver_firmware:00000014 $d
F:\msys64\tmp\ccoK2euk.s:146    .rodata.dmp_set_orientation.str1.4:00000000 $d
F:\msys64\tmp\ccoK2euk.s:159    .text.dmp_set_orientation:00000000 $t
F:\msys64\tmp\ccoK2euk.s:165    .text.dmp_set_orientation:00000000 dmp_set_orientation
F:\msys64\tmp\ccoK2euk.s:375    .text.dmp_set_orientation:00000138 $d
F:\msys64\tmp\ccoK2euk.s:384    .text.dmp_set_gyro_bias:00000000 $t
F:\msys64\tmp\ccoK2euk.s:390    .text.dmp_set_gyro_bias:00000000 dmp_set_gyro_bias
F:\msys64\tmp\ccoK2euk.s:601    .text.dmp_set_gyro_bias:00000108 $d
F:\msys64\tmp\ccoK2euk.s:607    .text.dmp_set_accel_bias:00000000 $t
F:\msys64\tmp\ccoK2euk.s:613    .text.dmp_set_accel_bias:00000000 dmp_set_accel_bias
F:\msys64\tmp\ccoK2euk.s:808    .text.dmp_set_accel_bias:000000f0 $d
F:\msys64\tmp\ccoK2euk.s:813    .rodata.dmp_set_fifo_rate.str1.4:00000000 $d
F:\msys64\tmp\ccoK2euk.s:817    .text.dmp_set_fifo_rate:00000000 $t
F:\msys64\tmp\ccoK2euk.s:823    .text.dmp_set_fifo_rate:00000000 dmp_set_fifo_rate
F:\msys64\tmp\ccoK2euk.s:919    .text.dmp_set_fifo_rate:00000060 $d
F:\msys64\tmp\ccoK2euk.s:925    .text.dmp_get_fifo_rate:00000000 $t
F:\msys64\tmp\ccoK2euk.s:931    .text.dmp_get_fifo_rate:00000000 dmp_get_fifo_rate
F:\msys64\tmp\ccoK2euk.s:954    .text.dmp_get_fifo_rate:0000000c $d
F:\msys64\tmp\ccoK2euk.s:959    .text.dmp_set_tap_thresh:00000000 $t
F:\msys64\tmp\ccoK2euk.s:965    .text.dmp_set_tap_thresh:00000000 dmp_set_tap_thresh
F:\msys64\tmp\ccoK2euk.s:1018   .text.dmp_set_tap_thresh:00000042 $d
F:\msys64\tmp\ccoK2euk.s:1293   .text.dmp_set_tap_thresh:000001b0 $d
F:\msys64\tmp\ccoK2euk.s:1306   .text.dmp_set_tap_axes:00000000 $t
F:\msys64\tmp\ccoK2euk.s:1312   .text.dmp_set_tap_axes:00000000 dmp_set_tap_axes
F:\msys64\tmp\ccoK2euk.s:1379   .text.dmp_set_tap_count:00000000 $t
F:\msys64\tmp\ccoK2euk.s:1385   .text.dmp_set_tap_count:00000000 dmp_set_tap_count
F:\msys64\tmp\ccoK2euk.s:1440   .text.dmp_set_tap_time:00000000 $t
F:\msys64\tmp\ccoK2euk.s:1446   .text.dmp_set_tap_time:00000000 dmp_set_tap_time
F:\msys64\tmp\ccoK2euk.s:1495   .text.dmp_set_tap_time:0000002c $d
F:\msys64\tmp\ccoK2euk.s:1500   .text.dmp_set_tap_time_multi:00000000 $t
F:\msys64\tmp\ccoK2euk.s:1506   .text.dmp_set_tap_time_multi:00000000 dmp_set_tap_time_multi
F:\msys64\tmp\ccoK2euk.s:1555   .text.dmp_set_tap_time_multi:0000002c $d
F:\msys64\tmp\ccoK2euk.s:1560   .text.dmp_set_shake_reject_thresh:00000000 $t
F:\msys64\tmp\ccoK2euk.s:1566   .text.dmp_set_shake_reject_thresh:00000000 dmp_set_shake_reject_thresh
F:\msys64\tmp\ccoK2euk.s:1630   .text.dmp_set_shake_reject_thresh:00000040 $d
F:\msys64\tmp\ccoK2euk.s:1635   .text.dmp_set_shake_reject_time:00000000 $t
F:\msys64\tmp\ccoK2euk.s:1641   .text.dmp_set_shake_reject_time:00000000 dmp_set_shake_reject_time
F:\msys64\tmp\ccoK2euk.s:1688   .text.dmp_set_shake_reject_time:00000028 $d
F:\msys64\tmp\ccoK2euk.s:1693   .text.dmp_set_shake_reject_timeout:00000000 $t
F:\msys64\tmp\ccoK2euk.s:1699   .text.dmp_set_shake_reject_timeout:00000000 dmp_set_shake_reject_timeout
F:\msys64\tmp\ccoK2euk.s:1746   .text.dmp_set_shake_reject_timeout:00000028 $d
F:\msys64\tmp\ccoK2euk.s:1751   .text.dmp_get_pedometer_step_count:00000000 $t
F:\msys64\tmp\ccoK2euk.s:1757   .text.dmp_get_pedometer_step_count:00000000 dmp_get_pedometer_step_count
F:\msys64\tmp\ccoK2euk.s:1840   .text.dmp_set_pedometer_step_count:00000000 $t
F:\msys64\tmp\ccoK2euk.s:1846   .text.dmp_set_pedometer_step_count:00000000 dmp_set_pedometer_step_count
F:\msys64\tmp\ccoK2euk.s:1899   .text.dmp_get_pedometer_walk_time:00000000 $t
F:\msys64\tmp\ccoK2euk.s:1905   .text.dmp_get_pedometer_walk_time:00000000 dmp_get_pedometer_walk_time
F:\msys64\tmp\ccoK2euk.s:1991   .text.dmp_set_pedometer_walk_time:00000000 $t
F:\msys64\tmp\ccoK2euk.s:1997   .text.dmp_set_pedometer_walk_time:00000000 dmp_set_pedometer_walk_time
F:\msys64\tmp\ccoK2euk.s:2055   .text.dmp_set_pedometer_walk_time:0000003c $d
ARM GAS  F:\msys64\tmp\ccoK2euk.s 			page 112


F:\msys64\tmp\ccoK2euk.s:2060   .text.dmp_get_enabled_features:00000000 $t
F:\msys64\tmp\ccoK2euk.s:2066   .text.dmp_get_enabled_features:00000000 dmp_get_enabled_features
F:\msys64\tmp\ccoK2euk.s:2089   .text.dmp_get_enabled_features:0000000c $d
F:\msys64\tmp\ccoK2euk.s:2094   .rodata.dmp_enable_gyro_cal.str1.4:00000000 $d
F:\msys64\tmp\ccoK2euk.s:2101   .text.dmp_enable_gyro_cal:00000000 $t
F:\msys64\tmp\ccoK2euk.s:2107   .text.dmp_enable_gyro_cal:00000000 dmp_enable_gyro_cal
F:\msys64\tmp\ccoK2euk.s:2176   .text.dmp_enable_gyro_cal:0000003c $d
F:\msys64\tmp\ccoK2euk.s:2183   .text.dmp_enable_lp_quat:00000000 $t
F:\msys64\tmp\ccoK2euk.s:2189   .text.dmp_enable_lp_quat:00000000 dmp_enable_lp_quat
F:\msys64\tmp\ccoK2euk.s:2256   .text.dmp_enable_6x_lp_quat:00000000 $t
F:\msys64\tmp\ccoK2euk.s:2262   .text.dmp_enable_6x_lp_quat:00000000 dmp_enable_6x_lp_quat
F:\msys64\tmp\ccoK2euk.s:2329   .text.dmp_enable_feature:00000000 $t
F:\msys64\tmp\ccoK2euk.s:2335   .text.dmp_enable_feature:00000000 dmp_enable_feature
F:\msys64\tmp\ccoK2euk.s:2722   .text.dmp_enable_feature:00000210 $d
F:\msys64\tmp\ccoK2euk.s:2728   .rodata.dmp_set_interrupt_mode.str1.4:00000000 $d
F:\msys64\tmp\ccoK2euk.s:2735   .text.dmp_set_interrupt_mode:00000000 $t
F:\msys64\tmp\ccoK2euk.s:2741   .text.dmp_set_interrupt_mode:00000000 dmp_set_interrupt_mode
F:\msys64\tmp\ccoK2euk.s:2812   .text.dmp_set_interrupt_mode:00000058 $d
F:\msys64\tmp\ccoK2euk.s:2818   .text.dmp_read_fifo:00000000 $t
F:\msys64\tmp\ccoK2euk.s:2824   .text.dmp_read_fifo:00000000 dmp_read_fifo
F:\msys64\tmp\ccoK2euk.s:3175   .text.dmp_read_fifo:000001ec $d
F:\msys64\tmp\ccoK2euk.s:3180   .text.dmp_register_tap_cb:00000000 $t
F:\msys64\tmp\ccoK2euk.s:3186   .text.dmp_register_tap_cb:00000000 dmp_register_tap_cb
F:\msys64\tmp\ccoK2euk.s:3207   .text.dmp_register_tap_cb:00000008 $d
F:\msys64\tmp\ccoK2euk.s:3212   .text.dmp_register_android_orient_cb:00000000 $t
F:\msys64\tmp\ccoK2euk.s:3218   .text.dmp_register_android_orient_cb:00000000 dmp_register_android_orient_cb
F:\msys64\tmp\ccoK2euk.s:3239   .text.dmp_register_android_orient_cb:00000008 $d
F:\msys64\tmp\ccoK2euk.s:3244   .bss.dmp:00000000 $d
F:\msys64\tmp\ccoK2euk.s:3248   .bss.dmp:00000000 dmp
F:\msys64\tmp\ccoK2euk.s:3251   .rodata.dmp_memory:00000000 $d
F:\msys64\tmp\ccoK2euk.s:3255   .rodata.dmp_memory:00000000 dmp_memory
F:\msys64\tmp\ccoK2euk.s:1033   .text.dmp_set_tap_thresh:00000051 $d
F:\msys64\tmp\ccoK2euk.s:1033   .text.dmp_set_tap_thresh:00000052 $t

UNDEFINED SYMBOLS
mpu_load_firmware
mpu_write_mem
mpu_get_accel_sens
mpu_get_accel_fsr
mpu_read_mem
mpu_reset_fifo
mpu_read_fifo_stream
