ARM GAS  F:\msys64\tmp\ccpH52O2.s 			page 1


   1              		.cpu cortex-m4
   2              		.arch armv7e-m
   3              		.fpu fpv4-sp-d16
   4              		.eabi_attribute 27, 1
   5              		.eabi_attribute 28, 1
   6              		.eabi_attribute 20, 1
   7              		.eabi_attribute 21, 1
   8              		.eabi_attribute 23, 3
   9              		.eabi_attribute 24, 1
  10              		.eabi_attribute 25, 1
  11              		.eabi_attribute 26, 1
  12              		.eabi_attribute 30, 1
  13              		.eabi_attribute 34, 1
  14              		.eabi_attribute 18, 4
  15              		.file	"LCDConf_FlexColor_Template.c"
  16              		.text
  17              	.Ltext0:
  18              		.cfi_sections	.debug_frame
  19              		.section	.text.LCD_X_Config,"ax",%progbits
  20              		.align	1
  21              		.global	LCD_X_Config
  22              		.syntax unified
  23              		.thumb
  24              		.thumb_func
  26              	LCD_X_Config:
  27              	.LFB559:
  28              		.file 1 "Drivers/STemWin/Config/LCDConf_FlexColor_Template.c"
   1:Drivers/STemWin/Config/LCDConf_FlexColor_Template.c **** /*********************************************************************
   2:Drivers/STemWin/Config/LCDConf_FlexColor_Template.c **** *                SEGGER Microcontroller GmbH & Co. KG                *
   3:Drivers/STemWin/Config/LCDConf_FlexColor_Template.c **** *        Solutions for real time microcontroller applications        *
   4:Drivers/STemWin/Config/LCDConf_FlexColor_Template.c **** **********************************************************************
   5:Drivers/STemWin/Config/LCDConf_FlexColor_Template.c **** *                                                                    *
   6:Drivers/STemWin/Config/LCDConf_FlexColor_Template.c **** *        (c) 1996 - 2017  SEGGER Microcontroller GmbH & Co. KG       *
   7:Drivers/STemWin/Config/LCDConf_FlexColor_Template.c **** *                                                                    *
   8:Drivers/STemWin/Config/LCDConf_FlexColor_Template.c **** *        Internet: www.segger.com    Support:  support@segger.com    *
   9:Drivers/STemWin/Config/LCDConf_FlexColor_Template.c **** *                                                                    *
  10:Drivers/STemWin/Config/LCDConf_FlexColor_Template.c **** **********************************************************************
  11:Drivers/STemWin/Config/LCDConf_FlexColor_Template.c **** 
  12:Drivers/STemWin/Config/LCDConf_FlexColor_Template.c **** ** emWin V5.44 - Graphical user interface for embedded applications **
  13:Drivers/STemWin/Config/LCDConf_FlexColor_Template.c **** All  Intellectual Property rights  in the Software belongs to  SEGGER.
  14:Drivers/STemWin/Config/LCDConf_FlexColor_Template.c **** emWin is protected by  international copyright laws.  Knowledge of the
  15:Drivers/STemWin/Config/LCDConf_FlexColor_Template.c **** source code may not be used to write a similar product.  This file may
  16:Drivers/STemWin/Config/LCDConf_FlexColor_Template.c **** only be used in accordance with the following terms:
  17:Drivers/STemWin/Config/LCDConf_FlexColor_Template.c **** 
  18:Drivers/STemWin/Config/LCDConf_FlexColor_Template.c **** The  software has  been licensed  to STMicroelectronics International
  19:Drivers/STemWin/Config/LCDConf_FlexColor_Template.c **** N.V. a Dutch company with a Swiss branch and its headquarters in Plan-
  20:Drivers/STemWin/Config/LCDConf_FlexColor_Template.c **** les-Ouates, Geneva, 39 Chemin du Champ des Filles, Switzerland for the
  21:Drivers/STemWin/Config/LCDConf_FlexColor_Template.c **** purposes of creating libraries for ARM Cortex-M-based 32-bit microcon_
  22:Drivers/STemWin/Config/LCDConf_FlexColor_Template.c **** troller products commercialized by Licensee only, sublicensed and dis_
  23:Drivers/STemWin/Config/LCDConf_FlexColor_Template.c **** tributed under the terms and conditions of the End User License Agree_
  24:Drivers/STemWin/Config/LCDConf_FlexColor_Template.c **** ment supplied by STMicroelectronics International N.V.
  25:Drivers/STemWin/Config/LCDConf_FlexColor_Template.c **** Full source code is available at: www.segger.com
  26:Drivers/STemWin/Config/LCDConf_FlexColor_Template.c **** 
  27:Drivers/STemWin/Config/LCDConf_FlexColor_Template.c **** We appreciate your understanding and fairness.
  28:Drivers/STemWin/Config/LCDConf_FlexColor_Template.c **** ----------------------------------------------------------------------
  29:Drivers/STemWin/Config/LCDConf_FlexColor_Template.c **** File        : LCDConf_FlexColor_Template.c
  30:Drivers/STemWin/Config/LCDConf_FlexColor_Template.c **** Purpose     : Display controller configuration (single layer)
ARM GAS  F:\msys64\tmp\ccpH52O2.s 			page 2


  31:Drivers/STemWin/Config/LCDConf_FlexColor_Template.c **** ---------------------------END-OF-HEADER------------------------------
  32:Drivers/STemWin/Config/LCDConf_FlexColor_Template.c **** */
  33:Drivers/STemWin/Config/LCDConf_FlexColor_Template.c **** 
  34:Drivers/STemWin/Config/LCDConf_FlexColor_Template.c **** /**
  35:Drivers/STemWin/Config/LCDConf_FlexColor_Template.c ****   ******************************************************************************
  36:Drivers/STemWin/Config/LCDConf_FlexColor_Template.c ****   * @attention
  37:Drivers/STemWin/Config/LCDConf_FlexColor_Template.c ****   *
  38:Drivers/STemWin/Config/LCDConf_FlexColor_Template.c ****   * <h2><center>&copy; Copyright (c) 2018 STMicroelectronics. 
  39:Drivers/STemWin/Config/LCDConf_FlexColor_Template.c ****   * All rights reserved.</center></h2>
  40:Drivers/STemWin/Config/LCDConf_FlexColor_Template.c ****   *
  41:Drivers/STemWin/Config/LCDConf_FlexColor_Template.c ****   * This software component is licensed by ST under Ultimate Liberty license SLA0044,
  42:Drivers/STemWin/Config/LCDConf_FlexColor_Template.c ****   * the "License"; You may not use this file except in compliance with the License.
  43:Drivers/STemWin/Config/LCDConf_FlexColor_Template.c ****   * You may obtain a copy of the License at:
  44:Drivers/STemWin/Config/LCDConf_FlexColor_Template.c ****   *                      http://www.st.com/SLA0044
  45:Drivers/STemWin/Config/LCDConf_FlexColor_Template.c ****   *
  46:Drivers/STemWin/Config/LCDConf_FlexColor_Template.c ****   ******************************************************************************
  47:Drivers/STemWin/Config/LCDConf_FlexColor_Template.c ****   */
  48:Drivers/STemWin/Config/LCDConf_FlexColor_Template.c **** 
  49:Drivers/STemWin/Config/LCDConf_FlexColor_Template.c **** #include "GUI.h"
  50:Drivers/STemWin/Config/LCDConf_FlexColor_Template.c **** #include "GUIDRV_FlexColor.h"
  51:Drivers/STemWin/Config/LCDConf_FlexColor_Template.c **** #include "lcd_drv.h"
  52:Drivers/STemWin/Config/LCDConf_FlexColor_Template.c **** 
  53:Drivers/STemWin/Config/LCDConf_FlexColor_Template.c **** /*********************************************************************
  54:Drivers/STemWin/Config/LCDConf_FlexColor_Template.c **** *
  55:Drivers/STemWin/Config/LCDConf_FlexColor_Template.c **** *       Layer configuration (to be modified)
  56:Drivers/STemWin/Config/LCDConf_FlexColor_Template.c **** *
  57:Drivers/STemWin/Config/LCDConf_FlexColor_Template.c **** **********************************************************************
  58:Drivers/STemWin/Config/LCDConf_FlexColor_Template.c **** */
  59:Drivers/STemWin/Config/LCDConf_FlexColor_Template.c **** 
  60:Drivers/STemWin/Config/LCDConf_FlexColor_Template.c **** //
  61:Drivers/STemWin/Config/LCDConf_FlexColor_Template.c **** // Physical display size
  62:Drivers/STemWin/Config/LCDConf_FlexColor_Template.c **** //
  63:Drivers/STemWin/Config/LCDConf_FlexColor_Template.c **** #define XSIZE_PHYS  320 // To be adapted to x-screen size
  64:Drivers/STemWin/Config/LCDConf_FlexColor_Template.c **** #define YSIZE_PHYS  240 // To be adapted to y-screen size
  65:Drivers/STemWin/Config/LCDConf_FlexColor_Template.c **** 
  66:Drivers/STemWin/Config/LCDConf_FlexColor_Template.c **** /*********************************************************************
  67:Drivers/STemWin/Config/LCDConf_FlexColor_Template.c **** *
  68:Drivers/STemWin/Config/LCDConf_FlexColor_Template.c **** *       Configuration checking
  69:Drivers/STemWin/Config/LCDConf_FlexColor_Template.c **** *
  70:Drivers/STemWin/Config/LCDConf_FlexColor_Template.c **** **********************************************************************
  71:Drivers/STemWin/Config/LCDConf_FlexColor_Template.c **** */
  72:Drivers/STemWin/Config/LCDConf_FlexColor_Template.c **** #ifndef   VXSIZE_PHYS
  73:Drivers/STemWin/Config/LCDConf_FlexColor_Template.c ****   #define VXSIZE_PHYS XSIZE_PHYS
  74:Drivers/STemWin/Config/LCDConf_FlexColor_Template.c **** #endif
  75:Drivers/STemWin/Config/LCDConf_FlexColor_Template.c **** #ifndef   VYSIZE_PHYS
  76:Drivers/STemWin/Config/LCDConf_FlexColor_Template.c ****   #define VYSIZE_PHYS YSIZE_PHYS
  77:Drivers/STemWin/Config/LCDConf_FlexColor_Template.c **** #endif
  78:Drivers/STemWin/Config/LCDConf_FlexColor_Template.c **** #ifndef   XSIZE_PHYS
  79:Drivers/STemWin/Config/LCDConf_FlexColor_Template.c ****   #error Physical X size of display is not defined!
  80:Drivers/STemWin/Config/LCDConf_FlexColor_Template.c **** #endif
  81:Drivers/STemWin/Config/LCDConf_FlexColor_Template.c **** #ifndef   YSIZE_PHYS
  82:Drivers/STemWin/Config/LCDConf_FlexColor_Template.c ****   #error Physical Y size of display is not defined!
  83:Drivers/STemWin/Config/LCDConf_FlexColor_Template.c **** #endif
  84:Drivers/STemWin/Config/LCDConf_FlexColor_Template.c **** #ifndef   GUICC_565
  85:Drivers/STemWin/Config/LCDConf_FlexColor_Template.c ****   #error Color conversion not defined!
  86:Drivers/STemWin/Config/LCDConf_FlexColor_Template.c **** #endif
  87:Drivers/STemWin/Config/LCDConf_FlexColor_Template.c **** #ifndef   GUIDRV_FLEXCOLOR
ARM GAS  F:\msys64\tmp\ccpH52O2.s 			page 3


  88:Drivers/STemWin/Config/LCDConf_FlexColor_Template.c ****   #error No display driver defined!
  89:Drivers/STemWin/Config/LCDConf_FlexColor_Template.c **** #endif
  90:Drivers/STemWin/Config/LCDConf_FlexColor_Template.c **** 
  91:Drivers/STemWin/Config/LCDConf_FlexColor_Template.c **** /*********************************************************************
  92:Drivers/STemWin/Config/LCDConf_FlexColor_Template.c **** *
  93:Drivers/STemWin/Config/LCDConf_FlexColor_Template.c **** *       Local functions
  94:Drivers/STemWin/Config/LCDConf_FlexColor_Template.c **** *
  95:Drivers/STemWin/Config/LCDConf_FlexColor_Template.c **** **********************************************************************
  96:Drivers/STemWin/Config/LCDConf_FlexColor_Template.c **** */
  97:Drivers/STemWin/Config/LCDConf_FlexColor_Template.c **** /********************************************************************
  98:Drivers/STemWin/Config/LCDConf_FlexColor_Template.c **** *
  99:Drivers/STemWin/Config/LCDConf_FlexColor_Template.c **** *       LcdWriteReg
 100:Drivers/STemWin/Config/LCDConf_FlexColor_Template.c **** *
 101:Drivers/STemWin/Config/LCDConf_FlexColor_Template.c **** * Function description:
 102:Drivers/STemWin/Config/LCDConf_FlexColor_Template.c **** *   Sets display register
 103:Drivers/STemWin/Config/LCDConf_FlexColor_Template.c **** */
 104:Drivers/STemWin/Config/LCDConf_FlexColor_Template.c **** static void LcdWriteReg(U16 Data) {
 105:Drivers/STemWin/Config/LCDConf_FlexColor_Template.c ****   // ... TBD by user
 106:Drivers/STemWin/Config/LCDConf_FlexColor_Template.c **** }
 107:Drivers/STemWin/Config/LCDConf_FlexColor_Template.c **** 
 108:Drivers/STemWin/Config/LCDConf_FlexColor_Template.c **** /********************************************************************
 109:Drivers/STemWin/Config/LCDConf_FlexColor_Template.c **** *
 110:Drivers/STemWin/Config/LCDConf_FlexColor_Template.c **** *       LcdWriteData
 111:Drivers/STemWin/Config/LCDConf_FlexColor_Template.c **** *
 112:Drivers/STemWin/Config/LCDConf_FlexColor_Template.c **** * Function description:
 113:Drivers/STemWin/Config/LCDConf_FlexColor_Template.c **** *   Writes a value to a display register
 114:Drivers/STemWin/Config/LCDConf_FlexColor_Template.c **** */
 115:Drivers/STemWin/Config/LCDConf_FlexColor_Template.c **** static void LcdWriteData(U16 Data) {
 116:Drivers/STemWin/Config/LCDConf_FlexColor_Template.c ****   // ... TBD by user
 117:Drivers/STemWin/Config/LCDConf_FlexColor_Template.c **** }
 118:Drivers/STemWin/Config/LCDConf_FlexColor_Template.c **** 
 119:Drivers/STemWin/Config/LCDConf_FlexColor_Template.c **** /********************************************************************
 120:Drivers/STemWin/Config/LCDConf_FlexColor_Template.c **** *
 121:Drivers/STemWin/Config/LCDConf_FlexColor_Template.c **** *       LcdWriteDataMultiple
 122:Drivers/STemWin/Config/LCDConf_FlexColor_Template.c **** *
 123:Drivers/STemWin/Config/LCDConf_FlexColor_Template.c **** * Function description:
 124:Drivers/STemWin/Config/LCDConf_FlexColor_Template.c **** *   Writes multiple values to a display register.
 125:Drivers/STemWin/Config/LCDConf_FlexColor_Template.c **** */
 126:Drivers/STemWin/Config/LCDConf_FlexColor_Template.c **** static void LcdWriteDataMultiple(U16 * pData, int NumItems) {
 127:Drivers/STemWin/Config/LCDConf_FlexColor_Template.c ****   while (NumItems--) {
 128:Drivers/STemWin/Config/LCDConf_FlexColor_Template.c ****     // ... TBD by user
 129:Drivers/STemWin/Config/LCDConf_FlexColor_Template.c ****   }
 130:Drivers/STemWin/Config/LCDConf_FlexColor_Template.c **** }
 131:Drivers/STemWin/Config/LCDConf_FlexColor_Template.c **** 
 132:Drivers/STemWin/Config/LCDConf_FlexColor_Template.c **** /********************************************************************
 133:Drivers/STemWin/Config/LCDConf_FlexColor_Template.c **** *
 134:Drivers/STemWin/Config/LCDConf_FlexColor_Template.c **** *       LcdReadDataMultiple
 135:Drivers/STemWin/Config/LCDConf_FlexColor_Template.c **** *
 136:Drivers/STemWin/Config/LCDConf_FlexColor_Template.c **** * Function description:
 137:Drivers/STemWin/Config/LCDConf_FlexColor_Template.c **** *   Reads multiple values from a display register.
 138:Drivers/STemWin/Config/LCDConf_FlexColor_Template.c **** */
 139:Drivers/STemWin/Config/LCDConf_FlexColor_Template.c **** static void LcdReadDataMultiple(U16 * pData, int NumItems) {
 140:Drivers/STemWin/Config/LCDConf_FlexColor_Template.c ****   while (NumItems--) {
 141:Drivers/STemWin/Config/LCDConf_FlexColor_Template.c ****     // ... TBD by user
 142:Drivers/STemWin/Config/LCDConf_FlexColor_Template.c ****   }
 143:Drivers/STemWin/Config/LCDConf_FlexColor_Template.c **** }
 144:Drivers/STemWin/Config/LCDConf_FlexColor_Template.c **** 
ARM GAS  F:\msys64\tmp\ccpH52O2.s 			page 4


 145:Drivers/STemWin/Config/LCDConf_FlexColor_Template.c **** /*********************************************************************
 146:Drivers/STemWin/Config/LCDConf_FlexColor_Template.c **** *
 147:Drivers/STemWin/Config/LCDConf_FlexColor_Template.c **** *       Public functions
 148:Drivers/STemWin/Config/LCDConf_FlexColor_Template.c **** *
 149:Drivers/STemWin/Config/LCDConf_FlexColor_Template.c **** **********************************************************************
 150:Drivers/STemWin/Config/LCDConf_FlexColor_Template.c **** */
 151:Drivers/STemWin/Config/LCDConf_FlexColor_Template.c **** /*********************************************************************
 152:Drivers/STemWin/Config/LCDConf_FlexColor_Template.c **** *
 153:Drivers/STemWin/Config/LCDConf_FlexColor_Template.c **** *       LCD_X_Config
 154:Drivers/STemWin/Config/LCDConf_FlexColor_Template.c **** *
 155:Drivers/STemWin/Config/LCDConf_FlexColor_Template.c **** * Function description:
 156:Drivers/STemWin/Config/LCDConf_FlexColor_Template.c **** *   Called during the initialization process in order to set up the
 157:Drivers/STemWin/Config/LCDConf_FlexColor_Template.c **** *   display driver configuration.
 158:Drivers/STemWin/Config/LCDConf_FlexColor_Template.c **** *
 159:Drivers/STemWin/Config/LCDConf_FlexColor_Template.c **** */
 160:Drivers/STemWin/Config/LCDConf_FlexColor_Template.c **** void LCD_X_Config(void) {
  29              		.loc 1 160 25 view -0
  30              		.cfi_startproc
  31              		@ args = 0, pretend = 0, frame = 0
  32              		@ frame_needed = 0, uses_anonymous_args = 0
  33 0000 08B5     		push	{r3, lr}
  34              	.LCFI0:
  35              		.cfi_def_cfa_offset 8
  36              		.cfi_offset 3, -8
  37              		.cfi_offset 14, -4
 161:Drivers/STemWin/Config/LCDConf_FlexColor_Template.c ****   GUI_DEVICE * pDevice;
  38              		.loc 1 161 3 view .LVU1
 162:Drivers/STemWin/Config/LCDConf_FlexColor_Template.c **** //  CONFIG_FLEXCOLOR Config = {0};
 163:Drivers/STemWin/Config/LCDConf_FlexColor_Template.c **** //  GUI_PORT_API PortAPI = {0};
 164:Drivers/STemWin/Config/LCDConf_FlexColor_Template.c ****   //
 165:Drivers/STemWin/Config/LCDConf_FlexColor_Template.c ****   // Set display driver and color conversion
 166:Drivers/STemWin/Config/LCDConf_FlexColor_Template.c ****   //
 167:Drivers/STemWin/Config/LCDConf_FlexColor_Template.c **** //  pDevice = GUI_DEVICE_CreateAndLink(GUIDRV_FLEXCOLOR, GUICC_565, 0, 0);
 168:Drivers/STemWin/Config/LCDConf_FlexColor_Template.c ****   pDevice = GUI_DEVICE_CreateAndLink(GUIDRV_TEMPLATE, GUICC_M565, 0, 0);
  39              		.loc 1 168 3 view .LVU2
  40              		.loc 1 168 13 is_stmt 0 view .LVU3
  41 0002 0023     		movs	r3, #0
  42 0004 1A46     		mov	r2, r3
  43 0006 0849     		ldr	r1, .L3
  44 0008 0848     		ldr	r0, .L3+4
  45 000a FFF7FEFF 		bl	GUI_DEVICE_CreateAndLink
  46              	.LVL0:
 169:Drivers/STemWin/Config/LCDConf_FlexColor_Template.c ****   //
 170:Drivers/STemWin/Config/LCDConf_FlexColor_Template.c ****   // Display driver configuration, required for Lin-driver
 171:Drivers/STemWin/Config/LCDConf_FlexColor_Template.c ****   //
 172:Drivers/STemWin/Config/LCDConf_FlexColor_Template.c ****   LCD_SetSizeEx (0, XSIZE_PHYS , YSIZE_PHYS);
  47              		.loc 1 172 3 is_stmt 1 view .LVU4
  48 000e F022     		movs	r2, #240
  49 0010 4FF4A071 		mov	r1, #320
  50 0014 0020     		movs	r0, #0
  51 0016 FFF7FEFF 		bl	LCD_SetSizeEx
  52              	.LVL1:
 173:Drivers/STemWin/Config/LCDConf_FlexColor_Template.c ****   LCD_SetVSizeEx(0, VXSIZE_PHYS, VYSIZE_PHYS);
  53              		.loc 1 173 3 view .LVU5
  54 001a F022     		movs	r2, #240
  55 001c 4FF4A071 		mov	r1, #320
  56 0020 0020     		movs	r0, #0
ARM GAS  F:\msys64\tmp\ccpH52O2.s 			page 5


  57 0022 FFF7FEFF 		bl	LCD_SetVSizeEx
  58              	.LVL2:
 174:Drivers/STemWin/Config/LCDConf_FlexColor_Template.c **** //  //
 175:Drivers/STemWin/Config/LCDConf_FlexColor_Template.c **** //  // Orientation
 176:Drivers/STemWin/Config/LCDConf_FlexColor_Template.c **** //  //
 177:Drivers/STemWin/Config/LCDConf_FlexColor_Template.c **** //  Config.Orientation = GUI_SWAP_XY | GUI_MIRROR_Y;
 178:Drivers/STemWin/Config/LCDConf_FlexColor_Template.c **** //  GUIDRV_FlexColor_Config(pDevice, &Config);
 179:Drivers/STemWin/Config/LCDConf_FlexColor_Template.c **** //  //
 180:Drivers/STemWin/Config/LCDConf_FlexColor_Template.c **** //  // Set controller and operation mode
 181:Drivers/STemWin/Config/LCDConf_FlexColor_Template.c **** //  //
 182:Drivers/STemWin/Config/LCDConf_FlexColor_Template.c **** //  PortAPI.pfWrite16_A0  = LcdWriteReg;
 183:Drivers/STemWin/Config/LCDConf_FlexColor_Template.c **** //  PortAPI.pfWrite16_A1  = LcdWriteData;
 184:Drivers/STemWin/Config/LCDConf_FlexColor_Template.c **** //  PortAPI.pfWriteM16_A1 = LcdWriteDataMultiple;
 185:Drivers/STemWin/Config/LCDConf_FlexColor_Template.c **** //  PortAPI.pfReadM16_A1  = LcdReadDataMultiple;
 186:Drivers/STemWin/Config/LCDConf_FlexColor_Template.c **** //  GUIDRV_FlexColor_SetFunc(pDevice, &PortAPI, GUIDRV_FLEXCOLOR_F66708, GUIDRV_FLEXCOLOR_M16C0B16)
 187:Drivers/STemWin/Config/LCDConf_FlexColor_Template.c **** }
  59              		.loc 1 187 1 is_stmt 0 view .LVU6
  60 0026 08BD     		pop	{r3, pc}
  61              	.L4:
  62              		.align	2
  63              	.L3:
  64 0028 00000000 		.word	LCD_API_ColorConv_M565
  65 002c 00000000 		.word	GUIDRV_Template_API
  66              		.cfi_endproc
  67              	.LFE559:
  69              		.section	.text.LCD_X_DisplayDriver,"ax",%progbits
  70              		.align	1
  71              		.global	LCD_X_DisplayDriver
  72              		.syntax unified
  73              		.thumb
  74              		.thumb_func
  76              	LCD_X_DisplayDriver:
  77              	.LVL3:
  78              	.LFB560:
 188:Drivers/STemWin/Config/LCDConf_FlexColor_Template.c **** 
 189:Drivers/STemWin/Config/LCDConf_FlexColor_Template.c **** /*********************************************************************
 190:Drivers/STemWin/Config/LCDConf_FlexColor_Template.c **** *
 191:Drivers/STemWin/Config/LCDConf_FlexColor_Template.c **** *       LCD_X_DisplayDriver
 192:Drivers/STemWin/Config/LCDConf_FlexColor_Template.c **** *
 193:Drivers/STemWin/Config/LCDConf_FlexColor_Template.c **** * Function description:
 194:Drivers/STemWin/Config/LCDConf_FlexColor_Template.c **** *   This function is called by the display driver for several purposes.
 195:Drivers/STemWin/Config/LCDConf_FlexColor_Template.c **** *   To support the according task the routine needs to be adapted to
 196:Drivers/STemWin/Config/LCDConf_FlexColor_Template.c **** *   the display controller. Please note that the commands marked with
 197:Drivers/STemWin/Config/LCDConf_FlexColor_Template.c **** *   'optional' are not cogently required and should only be adapted if
 198:Drivers/STemWin/Config/LCDConf_FlexColor_Template.c **** *   the display controller supports these features.
 199:Drivers/STemWin/Config/LCDConf_FlexColor_Template.c **** *
 200:Drivers/STemWin/Config/LCDConf_FlexColor_Template.c **** * Parameter:
 201:Drivers/STemWin/Config/LCDConf_FlexColor_Template.c **** *   LayerIndex - Index of layer to be configured
 202:Drivers/STemWin/Config/LCDConf_FlexColor_Template.c **** *   Cmd        - Please refer to the details in the switch statement below
 203:Drivers/STemWin/Config/LCDConf_FlexColor_Template.c **** *   pData      - Pointer to a LCD_X_DATA structure
 204:Drivers/STemWin/Config/LCDConf_FlexColor_Template.c **** *
 205:Drivers/STemWin/Config/LCDConf_FlexColor_Template.c **** * Return Value:
 206:Drivers/STemWin/Config/LCDConf_FlexColor_Template.c **** *   < -1 - Error
 207:Drivers/STemWin/Config/LCDConf_FlexColor_Template.c **** *     -1 - Command not handled
 208:Drivers/STemWin/Config/LCDConf_FlexColor_Template.c **** *      0 - Ok
 209:Drivers/STemWin/Config/LCDConf_FlexColor_Template.c **** */
 210:Drivers/STemWin/Config/LCDConf_FlexColor_Template.c **** int LCD_X_DisplayDriver(unsigned LayerIndex, unsigned Cmd, void * pData) {
ARM GAS  F:\msys64\tmp\ccpH52O2.s 			page 6


  79              		.loc 1 210 74 is_stmt 1 view -0
  80              		.cfi_startproc
  81              		@ args = 0, pretend = 0, frame = 0
  82              		@ frame_needed = 0, uses_anonymous_args = 0
 211:Drivers/STemWin/Config/LCDConf_FlexColor_Template.c ****   int r;
  83              		.loc 1 211 3 view .LVU8
 212:Drivers/STemWin/Config/LCDConf_FlexColor_Template.c ****   (void) LayerIndex;
  84              		.loc 1 212 3 view .LVU9
 213:Drivers/STemWin/Config/LCDConf_FlexColor_Template.c ****   (void) pData;
  85              		.loc 1 213 3 view .LVU10
 214:Drivers/STemWin/Config/LCDConf_FlexColor_Template.c ****   
 215:Drivers/STemWin/Config/LCDConf_FlexColor_Template.c ****   switch (Cmd) {
  86              		.loc 1 215 3 view .LVU11
  87 0000 0129     		cmp	r1, #1
  88 0002 04D1     		bne	.L7
 210:Drivers/STemWin/Config/LCDConf_FlexColor_Template.c ****   int r;
  89              		.loc 1 210 74 is_stmt 0 view .LVU12
  90 0004 08B5     		push	{r3, lr}
  91              	.LCFI1:
  92              		.cfi_def_cfa_offset 8
  93              		.cfi_offset 3, -8
  94              		.cfi_offset 14, -4
 216:Drivers/STemWin/Config/LCDConf_FlexColor_Template.c ****   case LCD_X_INITCONTROLLER: {
 217:Drivers/STemWin/Config/LCDConf_FlexColor_Template.c ****     //
 218:Drivers/STemWin/Config/LCDConf_FlexColor_Template.c ****     // Called during the initialization process in order to set up the
 219:Drivers/STemWin/Config/LCDConf_FlexColor_Template.c ****     // display controller and put it into operation. If the display
 220:Drivers/STemWin/Config/LCDConf_FlexColor_Template.c ****     // controller is not initialized by any external routine this needs
 221:Drivers/STemWin/Config/LCDConf_FlexColor_Template.c ****     // to be adapted by the customer...
 222:Drivers/STemWin/Config/LCDConf_FlexColor_Template.c ****     //
 223:Drivers/STemWin/Config/LCDConf_FlexColor_Template.c ****     // ...
 224:Drivers/STemWin/Config/LCDConf_FlexColor_Template.c **** 		Lcd_Initialize();
  95              		.loc 1 224 3 is_stmt 1 view .LVU13
  96 0006 FFF7FEFF 		bl	Lcd_Initialize
  97              	.LVL4:
 225:Drivers/STemWin/Config/LCDConf_FlexColor_Template.c ****     return 0;
  98              		.loc 1 225 5 view .LVU14
  99              		.loc 1 225 12 is_stmt 0 view .LVU15
 100 000a 0020     		movs	r0, #0
 226:Drivers/STemWin/Config/LCDConf_FlexColor_Template.c ****   }
 227:Drivers/STemWin/Config/LCDConf_FlexColor_Template.c ****   default:
 228:Drivers/STemWin/Config/LCDConf_FlexColor_Template.c ****     r = -1;
 229:Drivers/STemWin/Config/LCDConf_FlexColor_Template.c ****   }
 230:Drivers/STemWin/Config/LCDConf_FlexColor_Template.c ****   return r;
 231:Drivers/STemWin/Config/LCDConf_FlexColor_Template.c **** }
 101              		.loc 1 231 1 view .LVU16
 102 000c 08BD     		pop	{r3, pc}
 103              	.LVL5:
 104              	.L7:
 105              	.LCFI2:
 106              		.cfi_def_cfa_offset 0
 107              		.cfi_restore 3
 108              		.cfi_restore 14
 230:Drivers/STemWin/Config/LCDConf_FlexColor_Template.c **** }
 109              		.loc 1 230 10 view .LVU17
 110 000e 4FF0FF30 		mov	r0, #-1
 111              	.LVL6:
 112              		.loc 1 231 1 view .LVU18
ARM GAS  F:\msys64\tmp\ccpH52O2.s 			page 7


 113 0012 7047     		bx	lr
 114              		.cfi_endproc
 115              	.LFE560:
 117              		.text
 118              	.Letext0:
 119              		.file 2 "Drivers/STemWin/inc/LCD.h"
 120              		.file 3 "Drivers/STemWin/inc/GUI.h"
 121              		.file 4 "f:\\stm32\\win-dev-tools\\gcc-arm-none-eabi\\arm-none-eabi\\include\\machine\\_default_ty
 122              		.file 5 "f:\\stm32\\win-dev-tools\\gcc-arm-none-eabi\\arm-none-eabi\\include\\sys\\_stdint.h"
 123              		.file 6 "Drivers/LCD/lcd_drv.h"
 124              		.file 7 "Drivers/STM32F4xx_HAL_Driver/Inc/stm32f4xx_ll_dma.h"
ARM GAS  F:\msys64\tmp\ccpH52O2.s 			page 8

