ARM GAS  F:\msys64\tmp\ccgRoccj.s 			page 1


   1              		.cpu cortex-m4
   2              		.arch armv7e-m
   3              		.fpu fpv4-sp-d16
   4              		.eabi_attribute 27, 1
   5              		.eabi_attribute 28, 1
   6              		.eabi_attribute 20, 1
   7              		.eabi_attribute 21, 1
   8              		.eabi_attribute 23, 3
   9              		.eabi_attribute 24, 1
  10              		.eabi_attribute 25, 1
  11              		.eabi_attribute 26, 1
  12              		.eabi_attribute 30, 1
  13              		.eabi_attribute 34, 1
  14              		.eabi_attribute 18, 4
  15              		.file	"GUIDRV_Template.c"
  16              		.text
  17              	.Ltext0:
  18              		.cfi_sections	.debug_frame
  19              		.section	.text._GetDevProp,"ax",%progbits
  20              		.align	1
  21              		.syntax unified
  22              		.thumb
  23              		.thumb_func
  25              	_GetDevProp:
  26              	.LVL0:
  27              	.LFB569:
  28              		.file 1 "Drivers/STemWin/Config/GUIDRV_Template.c"
   1:Drivers/STemWin/Config/GUIDRV_Template.c **** /*********************************************************************
   2:Drivers/STemWin/Config/GUIDRV_Template.c **** *                SEGGER Microcontroller GmbH & Co. KG                *
   3:Drivers/STemWin/Config/GUIDRV_Template.c **** *        Solutions for real time microcontroller applications        *
   4:Drivers/STemWin/Config/GUIDRV_Template.c **** **********************************************************************
   5:Drivers/STemWin/Config/GUIDRV_Template.c **** *                                                                    *
   6:Drivers/STemWin/Config/GUIDRV_Template.c **** *        (c) 1996 - 2017  SEGGER Microcontroller GmbH & Co. KG       *
   7:Drivers/STemWin/Config/GUIDRV_Template.c **** *                                                                    *
   8:Drivers/STemWin/Config/GUIDRV_Template.c **** *        Internet: www.segger.com    Support:  support@segger.com    *
   9:Drivers/STemWin/Config/GUIDRV_Template.c **** *                                                                    *
  10:Drivers/STemWin/Config/GUIDRV_Template.c **** **********************************************************************
  11:Drivers/STemWin/Config/GUIDRV_Template.c **** 
  12:Drivers/STemWin/Config/GUIDRV_Template.c **** ** emWin V5.44 - Graphical user interface for embedded applications **
  13:Drivers/STemWin/Config/GUIDRV_Template.c **** All  Intellectual Property rights  in the Software belongs to  SEGGER.
  14:Drivers/STemWin/Config/GUIDRV_Template.c **** emWin is protected by  international copyright laws.  Knowledge of the
  15:Drivers/STemWin/Config/GUIDRV_Template.c **** source code may not be used to write a similar product.  This file may
  16:Drivers/STemWin/Config/GUIDRV_Template.c **** only be used in accordance with the following terms:
  17:Drivers/STemWin/Config/GUIDRV_Template.c **** 
  18:Drivers/STemWin/Config/GUIDRV_Template.c **** The  software has  been licensed  to STMicroelectronics International
  19:Drivers/STemWin/Config/GUIDRV_Template.c **** N.V. a Dutch company with a Swiss branch and its headquarters in Plan-
  20:Drivers/STemWin/Config/GUIDRV_Template.c **** les-Ouates, Geneva, 39 Chemin du Champ des Filles, Switzerland for the
  21:Drivers/STemWin/Config/GUIDRV_Template.c **** purposes of creating libraries for ARM Cortex-M-based 32-bit microcon_
  22:Drivers/STemWin/Config/GUIDRV_Template.c **** troller products commercialized by Licensee only, sublicensed and dis_
  23:Drivers/STemWin/Config/GUIDRV_Template.c **** tributed under the terms and conditions of the End User License Agree_
  24:Drivers/STemWin/Config/GUIDRV_Template.c **** ment supplied by STMicroelectronics International N.V.
  25:Drivers/STemWin/Config/GUIDRV_Template.c **** Full source code is available at: www.segger.com
  26:Drivers/STemWin/Config/GUIDRV_Template.c **** 
  27:Drivers/STemWin/Config/GUIDRV_Template.c **** We appreciate your understanding and fairness.
  28:Drivers/STemWin/Config/GUIDRV_Template.c **** ----------------------------------------------------------------------
  29:Drivers/STemWin/Config/GUIDRV_Template.c **** File        : GUIDRV_Template.c
  30:Drivers/STemWin/Config/GUIDRV_Template.c **** Purpose     : Template driver, could be used as starting point for new
ARM GAS  F:\msys64\tmp\ccgRoccj.s 			page 2


  31:Drivers/STemWin/Config/GUIDRV_Template.c ****               simple display drivers supporting only one color depth.
  32:Drivers/STemWin/Config/GUIDRV_Template.c **** ---------------------------END-OF-HEADER------------------------------
  33:Drivers/STemWin/Config/GUIDRV_Template.c **** */
  34:Drivers/STemWin/Config/GUIDRV_Template.c **** 
  35:Drivers/STemWin/Config/GUIDRV_Template.c **** /**
  36:Drivers/STemWin/Config/GUIDRV_Template.c ****   ******************************************************************************
  37:Drivers/STemWin/Config/GUIDRV_Template.c ****   * @attention
  38:Drivers/STemWin/Config/GUIDRV_Template.c ****   *
  39:Drivers/STemWin/Config/GUIDRV_Template.c ****   * <h2><center>&copy; Copyright (c) 2018 STMicroelectronics. 
  40:Drivers/STemWin/Config/GUIDRV_Template.c ****   * All rights reserved.</center></h2>
  41:Drivers/STemWin/Config/GUIDRV_Template.c ****   *
  42:Drivers/STemWin/Config/GUIDRV_Template.c ****   * This software component is licensed by ST under Ultimate Liberty license SLA0044,
  43:Drivers/STemWin/Config/GUIDRV_Template.c ****   * the "License"; You may not use this file except in compliance with the License.
  44:Drivers/STemWin/Config/GUIDRV_Template.c ****   * You may obtain a copy of the License at:
  45:Drivers/STemWin/Config/GUIDRV_Template.c ****   *                      http://www.st.com/SLA0044
  46:Drivers/STemWin/Config/GUIDRV_Template.c ****   *
  47:Drivers/STemWin/Config/GUIDRV_Template.c ****   ******************************************************************************
  48:Drivers/STemWin/Config/GUIDRV_Template.c ****   */
  49:Drivers/STemWin/Config/GUIDRV_Template.c **** 
  50:Drivers/STemWin/Config/GUIDRV_Template.c **** #include <stddef.h>
  51:Drivers/STemWin/Config/GUIDRV_Template.c **** 
  52:Drivers/STemWin/Config/GUIDRV_Template.c **** #include "LCD_Private.h"
  53:Drivers/STemWin/Config/GUIDRV_Template.c **** #include "GUI_Private.h"
  54:Drivers/STemWin/Config/GUIDRV_Template.c **** #include "LCD_ConfDefaults.h"
  55:Drivers/STemWin/Config/GUIDRV_Template.c **** #include "lcd_drv.h"
  56:Drivers/STemWin/Config/GUIDRV_Template.c **** 
  57:Drivers/STemWin/Config/GUIDRV_Template.c **** /*********************************************************************
  58:Drivers/STemWin/Config/GUIDRV_Template.c **** *
  59:Drivers/STemWin/Config/GUIDRV_Template.c **** *       Defines
  60:Drivers/STemWin/Config/GUIDRV_Template.c **** *
  61:Drivers/STemWin/Config/GUIDRV_Template.c **** **********************************************************************
  62:Drivers/STemWin/Config/GUIDRV_Template.c **** */
  63:Drivers/STemWin/Config/GUIDRV_Template.c **** /*********************************************************************
  64:Drivers/STemWin/Config/GUIDRV_Template.c **** *
  65:Drivers/STemWin/Config/GUIDRV_Template.c **** *       Macros for MIRROR_, SWAP_ and LUT_
  66:Drivers/STemWin/Config/GUIDRV_Template.c **** */
  67:Drivers/STemWin/Config/GUIDRV_Template.c **** #if (!defined (LCD_LUT_COM) && !defined(LCD_LUT_SEG))
  68:Drivers/STemWin/Config/GUIDRV_Template.c ****   #if   (!LCD_MIRROR_X && !LCD_MIRROR_Y && !LCD_SWAP_XY) 
  69:Drivers/STemWin/Config/GUIDRV_Template.c ****     #define LOG2PHYS_X(x, y) x
  70:Drivers/STemWin/Config/GUIDRV_Template.c ****     #define LOG2PHYS_Y(x, y) y
  71:Drivers/STemWin/Config/GUIDRV_Template.c ****   #elif (!LCD_MIRROR_X && !LCD_MIRROR_Y &&  LCD_SWAP_XY) 
  72:Drivers/STemWin/Config/GUIDRV_Template.c ****     #define LOG2PHYS_X(x, y) y
  73:Drivers/STemWin/Config/GUIDRV_Template.c ****     #define LOG2PHYS_Y(x, y) x
  74:Drivers/STemWin/Config/GUIDRV_Template.c ****   #elif (!LCD_MIRROR_X &&  LCD_MIRROR_Y && !LCD_SWAP_XY) 
  75:Drivers/STemWin/Config/GUIDRV_Template.c ****     #define LOG2PHYS_X(x, y) x
  76:Drivers/STemWin/Config/GUIDRV_Template.c ****     #define LOG2PHYS_Y(x, y) LCD_YSIZE - 1 - (y)
  77:Drivers/STemWin/Config/GUIDRV_Template.c ****   #elif (!LCD_MIRROR_X &&  LCD_MIRROR_Y &&  LCD_SWAP_XY) 
  78:Drivers/STemWin/Config/GUIDRV_Template.c ****     #define LOG2PHYS_X(x, y) y
  79:Drivers/STemWin/Config/GUIDRV_Template.c ****     #define LOG2PHYS_Y(x, y) LCD_XSIZE - 1 - (x)
  80:Drivers/STemWin/Config/GUIDRV_Template.c ****   #elif ( LCD_MIRROR_X && !LCD_MIRROR_Y && !LCD_SWAP_XY) 
  81:Drivers/STemWin/Config/GUIDRV_Template.c ****     #define LOG2PHYS_X(x, y) LCD_XSIZE - 1 - (x)
  82:Drivers/STemWin/Config/GUIDRV_Template.c ****     #define LOG2PHYS_Y(x, y) y
  83:Drivers/STemWin/Config/GUIDRV_Template.c ****   #elif ( LCD_MIRROR_X && !LCD_MIRROR_Y &&  LCD_SWAP_XY) 
  84:Drivers/STemWin/Config/GUIDRV_Template.c ****     #define LOG2PHYS_X(x, y) LCD_YSIZE - 1 - (y)
  85:Drivers/STemWin/Config/GUIDRV_Template.c ****     #define LOG2PHYS_Y(x, y) x
  86:Drivers/STemWin/Config/GUIDRV_Template.c ****   #elif ( LCD_MIRROR_X &&  LCD_MIRROR_Y && !LCD_SWAP_XY) 
  87:Drivers/STemWin/Config/GUIDRV_Template.c ****     #define LOG2PHYS_X(x, y) LCD_XSIZE - 1 - (x)
ARM GAS  F:\msys64\tmp\ccgRoccj.s 			page 3


  88:Drivers/STemWin/Config/GUIDRV_Template.c ****     #define LOG2PHYS_Y(x, y) LCD_YSIZE - 1 - (y)
  89:Drivers/STemWin/Config/GUIDRV_Template.c ****   #elif ( LCD_MIRROR_X &&  LCD_MIRROR_Y &&  LCD_SWAP_XY) 
  90:Drivers/STemWin/Config/GUIDRV_Template.c ****     #define LOG2PHYS_X(x, y) LCD_YSIZE - 1 - (y)
  91:Drivers/STemWin/Config/GUIDRV_Template.c ****     #define LOG2PHYS_Y(x, y) LCD_XSIZE - 1 - (x)
  92:Drivers/STemWin/Config/GUIDRV_Template.c ****   #endif
  93:Drivers/STemWin/Config/GUIDRV_Template.c **** #else
  94:Drivers/STemWin/Config/GUIDRV_Template.c ****   #if   ( defined (LCD_LUT_COM) && !defined(LCD_LUT_SEG))
  95:Drivers/STemWin/Config/GUIDRV_Template.c ****     #define LOG2PHYS_X(x, y) x
  96:Drivers/STemWin/Config/GUIDRV_Template.c ****     #define LOG2PHYS_Y(x, y) LCD__aLine2Com0[y]
  97:Drivers/STemWin/Config/GUIDRV_Template.c ****   #elif (!defined (LCD_LUT_COM) &&  defined(LCD_LUT_SEG))
  98:Drivers/STemWin/Config/GUIDRV_Template.c ****     #define LOG2PHYS_X(x, y) LCD__aCol2Seg0[x]
  99:Drivers/STemWin/Config/GUIDRV_Template.c ****     #define LOG2PHYS_Y(x, y) y
 100:Drivers/STemWin/Config/GUIDRV_Template.c ****   #elif ( defined (LCD_LUT_COM) &&  defined(LCD_LUT_SEG))
 101:Drivers/STemWin/Config/GUIDRV_Template.c ****     #define LOG2PHYS_X(x, y) LCD__aCol2Seg0[x]
 102:Drivers/STemWin/Config/GUIDRV_Template.c ****     #define LOG2PHYS_Y(x, y) LCD__aLine2Com0[y]
 103:Drivers/STemWin/Config/GUIDRV_Template.c ****   #endif
 104:Drivers/STemWin/Config/GUIDRV_Template.c **** #endif
 105:Drivers/STemWin/Config/GUIDRV_Template.c **** 
 106:Drivers/STemWin/Config/GUIDRV_Template.c **** /*********************************************************************
 107:Drivers/STemWin/Config/GUIDRV_Template.c **** *
 108:Drivers/STemWin/Config/GUIDRV_Template.c **** *       Types
 109:Drivers/STemWin/Config/GUIDRV_Template.c **** *
 110:Drivers/STemWin/Config/GUIDRV_Template.c **** **********************************************************************
 111:Drivers/STemWin/Config/GUIDRV_Template.c **** */
 112:Drivers/STemWin/Config/GUIDRV_Template.c **** typedef struct {
 113:Drivers/STemWin/Config/GUIDRV_Template.c ****   U32 VRAMAddr;
 114:Drivers/STemWin/Config/GUIDRV_Template.c ****   int xSize, ySize;
 115:Drivers/STemWin/Config/GUIDRV_Template.c ****   int vxSize, vySize;
 116:Drivers/STemWin/Config/GUIDRV_Template.c ****   int vxSizePhys;
 117:Drivers/STemWin/Config/GUIDRV_Template.c ****   int BitsPerPixel;
 118:Drivers/STemWin/Config/GUIDRV_Template.c **** } DRIVER_CONTEXT_TEMPLATE;
 119:Drivers/STemWin/Config/GUIDRV_Template.c **** 
 120:Drivers/STemWin/Config/GUIDRV_Template.c **** /*********************************************************************
 121:Drivers/STemWin/Config/GUIDRV_Template.c **** *
 122:Drivers/STemWin/Config/GUIDRV_Template.c **** *       Static functions
 123:Drivers/STemWin/Config/GUIDRV_Template.c **** *
 124:Drivers/STemWin/Config/GUIDRV_Template.c **** **********************************************************************
 125:Drivers/STemWin/Config/GUIDRV_Template.c **** */
 126:Drivers/STemWin/Config/GUIDRV_Template.c **** /*********************************************************************
 127:Drivers/STemWin/Config/GUIDRV_Template.c **** *
 128:Drivers/STemWin/Config/GUIDRV_Template.c **** *       _SetPixelIndex
 129:Drivers/STemWin/Config/GUIDRV_Template.c **** *
 130:Drivers/STemWin/Config/GUIDRV_Template.c **** * Purpose:
 131:Drivers/STemWin/Config/GUIDRV_Template.c **** *   Sets the index of the given pixel. The upper layers
 132:Drivers/STemWin/Config/GUIDRV_Template.c **** *   calling this routine make sure that the coordinates are in range, so
 133:Drivers/STemWin/Config/GUIDRV_Template.c **** *   that no check on the parameters needs to be performed.
 134:Drivers/STemWin/Config/GUIDRV_Template.c **** */
 135:Drivers/STemWin/Config/GUIDRV_Template.c **** static void _SetPixelIndex(GUI_DEVICE * pDevice, int x, int y, unsigned long PixelIndex) {
 136:Drivers/STemWin/Config/GUIDRV_Template.c ****     //
 137:Drivers/STemWin/Config/GUIDRV_Template.c ****     // Convert logical into physical coordinates (Dep. on LCDConf.h)
 138:Drivers/STemWin/Config/GUIDRV_Template.c ****     //
 139:Drivers/STemWin/Config/GUIDRV_Template.c ****     #if (LCD_MIRROR_X == 1) || (LCD_MIRROR_Y == 1) || (LCD_SWAP_XY == 1)
 140:Drivers/STemWin/Config/GUIDRV_Template.c ****       int xPhys, yPhys;
 141:Drivers/STemWin/Config/GUIDRV_Template.c **** 
 142:Drivers/STemWin/Config/GUIDRV_Template.c ****       xPhys = LOG2PHYS_X(x, y);
 143:Drivers/STemWin/Config/GUIDRV_Template.c ****       yPhys = LOG2PHYS_Y(x, y);
 144:Drivers/STemWin/Config/GUIDRV_Template.c ****     #else
ARM GAS  F:\msys64\tmp\ccgRoccj.s 			page 4


 145:Drivers/STemWin/Config/GUIDRV_Template.c ****       #define xPhys x
 146:Drivers/STemWin/Config/GUIDRV_Template.c ****       #define yPhys y
 147:Drivers/STemWin/Config/GUIDRV_Template.c ****     #endif
 148:Drivers/STemWin/Config/GUIDRV_Template.c ****     GUI_USE_PARA(pDevice);
 149:Drivers/STemWin/Config/GUIDRV_Template.c ****     GUI_USE_PARA(x);
 150:Drivers/STemWin/Config/GUIDRV_Template.c ****     GUI_USE_PARA(y);
 151:Drivers/STemWin/Config/GUIDRV_Template.c ****     GUI_USE_PARA(PixelIndex);
 152:Drivers/STemWin/Config/GUIDRV_Template.c ****     {
 153:Drivers/STemWin/Config/GUIDRV_Template.c ****       //
 154:Drivers/STemWin/Config/GUIDRV_Template.c ****       // Write into hardware ... Adapt to your system
 155:Drivers/STemWin/Config/GUIDRV_Template.c ****       //
 156:Drivers/STemWin/Config/GUIDRV_Template.c ****       // TBD by customer...
 157:Drivers/STemWin/Config/GUIDRV_Template.c ****       //
 158:Drivers/STemWin/Config/GUIDRV_Template.c **** 			DrawPixel(x,y,PixelIndex);
 159:Drivers/STemWin/Config/GUIDRV_Template.c ****     }
 160:Drivers/STemWin/Config/GUIDRV_Template.c ****     #if (LCD_MIRROR_X == 0) && (LCD_MIRROR_Y == 0) && (LCD_SWAP_XY == 0)
 161:Drivers/STemWin/Config/GUIDRV_Template.c ****       #undef xPhys
 162:Drivers/STemWin/Config/GUIDRV_Template.c ****       #undef yPhys
 163:Drivers/STemWin/Config/GUIDRV_Template.c ****     #endif
 164:Drivers/STemWin/Config/GUIDRV_Template.c **** }
 165:Drivers/STemWin/Config/GUIDRV_Template.c **** 
 166:Drivers/STemWin/Config/GUIDRV_Template.c **** /*********************************************************************
 167:Drivers/STemWin/Config/GUIDRV_Template.c **** *
 168:Drivers/STemWin/Config/GUIDRV_Template.c **** *       _GetPixelIndex
 169:Drivers/STemWin/Config/GUIDRV_Template.c **** *
 170:Drivers/STemWin/Config/GUIDRV_Template.c **** * Purpose:
 171:Drivers/STemWin/Config/GUIDRV_Template.c **** *   Returns the index of the given pixel. The upper layers
 172:Drivers/STemWin/Config/GUIDRV_Template.c **** *   calling this routine make sure that the coordinates are in range, so
 173:Drivers/STemWin/Config/GUIDRV_Template.c **** *   that no check on the parameters needs to be performed.
 174:Drivers/STemWin/Config/GUIDRV_Template.c **** */
 175:Drivers/STemWin/Config/GUIDRV_Template.c **** static unsigned long _GetPixelIndex(GUI_DEVICE * pDevice, int x, int y) {
 176:Drivers/STemWin/Config/GUIDRV_Template.c ****   unsigned int PixelIndex;
 177:Drivers/STemWin/Config/GUIDRV_Template.c ****     //
 178:Drivers/STemWin/Config/GUIDRV_Template.c ****     // Convert logical into physical coordinates (Dep. on LCDConf.h)
 179:Drivers/STemWin/Config/GUIDRV_Template.c ****     //
 180:Drivers/STemWin/Config/GUIDRV_Template.c ****     #if (LCD_MIRROR_X == 1) || (LCD_MIRROR_Y == 1) || (LCD_SWAP_XY == 1)
 181:Drivers/STemWin/Config/GUIDRV_Template.c ****       int xPhys, yPhys;
 182:Drivers/STemWin/Config/GUIDRV_Template.c **** 
 183:Drivers/STemWin/Config/GUIDRV_Template.c ****       xPhys = LOG2PHYS_X(x, y);
 184:Drivers/STemWin/Config/GUIDRV_Template.c ****       yPhys = LOG2PHYS_Y(x, y);
 185:Drivers/STemWin/Config/GUIDRV_Template.c ****     #else
 186:Drivers/STemWin/Config/GUIDRV_Template.c ****       #define xPhys x
 187:Drivers/STemWin/Config/GUIDRV_Template.c ****       #define yPhys y
 188:Drivers/STemWin/Config/GUIDRV_Template.c ****     #endif
 189:Drivers/STemWin/Config/GUIDRV_Template.c ****     GUI_USE_PARA(pDevice);
 190:Drivers/STemWin/Config/GUIDRV_Template.c ****     GUI_USE_PARA(x);
 191:Drivers/STemWin/Config/GUIDRV_Template.c ****     GUI_USE_PARA(y);
 192:Drivers/STemWin/Config/GUIDRV_Template.c ****     {
 193:Drivers/STemWin/Config/GUIDRV_Template.c ****       //
 194:Drivers/STemWin/Config/GUIDRV_Template.c ****       // Write into hardware ... Adapt to your system
 195:Drivers/STemWin/Config/GUIDRV_Template.c ****       //
 196:Drivers/STemWin/Config/GUIDRV_Template.c ****       // TBD by customer...
 197:Drivers/STemWin/Config/GUIDRV_Template.c ****       //
 198:Drivers/STemWin/Config/GUIDRV_Template.c **** //      PixelIndex = 0;
 199:Drivers/STemWin/Config/GUIDRV_Template.c ****       PixelIndex = (int)GetPoint(x,y);
 200:Drivers/STemWin/Config/GUIDRV_Template.c ****     }
 201:Drivers/STemWin/Config/GUIDRV_Template.c ****     #if (LCD_MIRROR_X == 0) && (LCD_MIRROR_Y == 0) && (LCD_SWAP_XY == 0)
ARM GAS  F:\msys64\tmp\ccgRoccj.s 			page 5


 202:Drivers/STemWin/Config/GUIDRV_Template.c ****       #undef xPhys
 203:Drivers/STemWin/Config/GUIDRV_Template.c ****       #undef yPhys
 204:Drivers/STemWin/Config/GUIDRV_Template.c ****     #endif
 205:Drivers/STemWin/Config/GUIDRV_Template.c ****   return PixelIndex;
 206:Drivers/STemWin/Config/GUIDRV_Template.c **** }
 207:Drivers/STemWin/Config/GUIDRV_Template.c **** 
 208:Drivers/STemWin/Config/GUIDRV_Template.c **** /*********************************************************************
 209:Drivers/STemWin/Config/GUIDRV_Template.c **** *
 210:Drivers/STemWin/Config/GUIDRV_Template.c **** *       _XorPixel
 211:Drivers/STemWin/Config/GUIDRV_Template.c **** */
 212:Drivers/STemWin/Config/GUIDRV_Template.c **** static void _XorPixel(GUI_DEVICE * pDevice, int x, int y) {
 213:Drivers/STemWin/Config/GUIDRV_Template.c ****   LCD_PIXELINDEX PixelIndex;
 214:Drivers/STemWin/Config/GUIDRV_Template.c ****   LCD_PIXELINDEX IndexMask;
 215:Drivers/STemWin/Config/GUIDRV_Template.c **** 
 216:Drivers/STemWin/Config/GUIDRV_Template.c ****   PixelIndex = _GetPixelIndex(pDevice, x, y);
 217:Drivers/STemWin/Config/GUIDRV_Template.c ****   IndexMask  = pDevice->pColorConvAPI->pfGetIndexMask();
 218:Drivers/STemWin/Config/GUIDRV_Template.c ****   _SetPixelIndex(pDevice, x, y, PixelIndex ^ IndexMask);
 219:Drivers/STemWin/Config/GUIDRV_Template.c **** }
 220:Drivers/STemWin/Config/GUIDRV_Template.c **** 
 221:Drivers/STemWin/Config/GUIDRV_Template.c **** /*********************************************************************
 222:Drivers/STemWin/Config/GUIDRV_Template.c **** *
 223:Drivers/STemWin/Config/GUIDRV_Template.c **** *       _FillRect
 224:Drivers/STemWin/Config/GUIDRV_Template.c **** */
 225:Drivers/STemWin/Config/GUIDRV_Template.c **** static void _FillRect(GUI_DEVICE * pDevice, int x0, int y0, int x1, int y1) {
 226:Drivers/STemWin/Config/GUIDRV_Template.c ****   LCD_PIXELINDEX PixelIndex;
 227:Drivers/STemWin/Config/GUIDRV_Template.c ****   int x;
 228:Drivers/STemWin/Config/GUIDRV_Template.c **** 
 229:Drivers/STemWin/Config/GUIDRV_Template.c ****   PixelIndex = LCD__GetColorIndex();
 230:Drivers/STemWin/Config/GUIDRV_Template.c ****   if (GUI_pContext->DrawMode & LCD_DRAWMODE_XOR) {
 231:Drivers/STemWin/Config/GUIDRV_Template.c ****     for (; y0 <= y1; y0++) {
 232:Drivers/STemWin/Config/GUIDRV_Template.c ****       for (x = x0; x <= x1; x++) {
 233:Drivers/STemWin/Config/GUIDRV_Template.c ****         _XorPixel(pDevice, x, y0);
 234:Drivers/STemWin/Config/GUIDRV_Template.c ****       }
 235:Drivers/STemWin/Config/GUIDRV_Template.c ****     }
 236:Drivers/STemWin/Config/GUIDRV_Template.c ****   } else {
 237:Drivers/STemWin/Config/GUIDRV_Template.c **** //    for (; y0 <= y1; y0++) {
 238:Drivers/STemWin/Config/GUIDRV_Template.c **** //      for (x = x0; x <= x1; x++) {
 239:Drivers/STemWin/Config/GUIDRV_Template.c **** //        _SetPixelIndex(pDevice, x, y0, PixelIndex);
 240:Drivers/STemWin/Config/GUIDRV_Template.c **** //      }
 241:Drivers/STemWin/Config/GUIDRV_Template.c **** //    }
 242:Drivers/STemWin/Config/GUIDRV_Template.c **** 		LCD_Fill(x0, y0, x1 - x0 + 1, y1 - y0 + 1, PixelIndex);
 243:Drivers/STemWin/Config/GUIDRV_Template.c ****   }
 244:Drivers/STemWin/Config/GUIDRV_Template.c **** }
 245:Drivers/STemWin/Config/GUIDRV_Template.c **** 
 246:Drivers/STemWin/Config/GUIDRV_Template.c **** /*********************************************************************
 247:Drivers/STemWin/Config/GUIDRV_Template.c **** *
 248:Drivers/STemWin/Config/GUIDRV_Template.c **** *       _DrawHLine
 249:Drivers/STemWin/Config/GUIDRV_Template.c **** */
 250:Drivers/STemWin/Config/GUIDRV_Template.c **** static void _DrawHLine(GUI_DEVICE * pDevice, int x0, int y, int x1) {
 251:Drivers/STemWin/Config/GUIDRV_Template.c ****   _FillRect(pDevice, x0, y, x1, y);
 252:Drivers/STemWin/Config/GUIDRV_Template.c **** }
 253:Drivers/STemWin/Config/GUIDRV_Template.c **** 
 254:Drivers/STemWin/Config/GUIDRV_Template.c **** /*********************************************************************
 255:Drivers/STemWin/Config/GUIDRV_Template.c **** *
 256:Drivers/STemWin/Config/GUIDRV_Template.c **** *       _DrawVLine, not optimized
 257:Drivers/STemWin/Config/GUIDRV_Template.c **** */
 258:Drivers/STemWin/Config/GUIDRV_Template.c **** static void _DrawVLine(GUI_DEVICE * pDevice, int x, int y0, int y1) {
ARM GAS  F:\msys64\tmp\ccgRoccj.s 			page 6


 259:Drivers/STemWin/Config/GUIDRV_Template.c ****   _FillRect(pDevice, x, y0, x, y1);
 260:Drivers/STemWin/Config/GUIDRV_Template.c **** }
 261:Drivers/STemWin/Config/GUIDRV_Template.c **** 
 262:Drivers/STemWin/Config/GUIDRV_Template.c **** /*********************************************************************
 263:Drivers/STemWin/Config/GUIDRV_Template.c **** *
 264:Drivers/STemWin/Config/GUIDRV_Template.c **** *       Draw Bitmap 1 BPP
 265:Drivers/STemWin/Config/GUIDRV_Template.c **** */
 266:Drivers/STemWin/Config/GUIDRV_Template.c **** static void _DrawBitLine1BPP(GUI_DEVICE * pDevice, int x, int y, U8 const GUI_UNI_PTR * p, int Diff
 267:Drivers/STemWin/Config/GUIDRV_Template.c ****   LCD_PIXELINDEX IndexMask, Index0, Index1, Pixel;
 268:Drivers/STemWin/Config/GUIDRV_Template.c **** 
 269:Drivers/STemWin/Config/GUIDRV_Template.c ****   Index0 = *(pTrans + 0);
 270:Drivers/STemWin/Config/GUIDRV_Template.c ****   Index1 = *(pTrans + 1);
 271:Drivers/STemWin/Config/GUIDRV_Template.c ****   x += Diff;
 272:Drivers/STemWin/Config/GUIDRV_Template.c ****   switch (GUI_pContext->DrawMode & (LCD_DRAWMODE_TRANS | LCD_DRAWMODE_XOR)) {
 273:Drivers/STemWin/Config/GUIDRV_Template.c ****   case 0:
 274:Drivers/STemWin/Config/GUIDRV_Template.c ****     do {
 275:Drivers/STemWin/Config/GUIDRV_Template.c ****       _SetPixelIndex(pDevice, x++, y, (*p & (0x80 >> Diff)) ? Index1 : Index0);
 276:Drivers/STemWin/Config/GUIDRV_Template.c ****       if (++Diff == 8) {
 277:Drivers/STemWin/Config/GUIDRV_Template.c ****         Diff = 0;
 278:Drivers/STemWin/Config/GUIDRV_Template.c ****         p++;
 279:Drivers/STemWin/Config/GUIDRV_Template.c ****       }
 280:Drivers/STemWin/Config/GUIDRV_Template.c ****     } while (--xsize);
 281:Drivers/STemWin/Config/GUIDRV_Template.c ****     break;
 282:Drivers/STemWin/Config/GUIDRV_Template.c ****   case LCD_DRAWMODE_TRANS:
 283:Drivers/STemWin/Config/GUIDRV_Template.c ****     do {
 284:Drivers/STemWin/Config/GUIDRV_Template.c ****       if (*p & (0x80 >> Diff))
 285:Drivers/STemWin/Config/GUIDRV_Template.c ****         _SetPixelIndex(pDevice, x, y, Index1);
 286:Drivers/STemWin/Config/GUIDRV_Template.c ****       x++;
 287:Drivers/STemWin/Config/GUIDRV_Template.c ****       if (++Diff == 8) {
 288:Drivers/STemWin/Config/GUIDRV_Template.c ****         Diff = 0;
 289:Drivers/STemWin/Config/GUIDRV_Template.c ****         p++;
 290:Drivers/STemWin/Config/GUIDRV_Template.c ****       }
 291:Drivers/STemWin/Config/GUIDRV_Template.c ****     } while (--xsize);
 292:Drivers/STemWin/Config/GUIDRV_Template.c ****     break;
 293:Drivers/STemWin/Config/GUIDRV_Template.c ****   case LCD_DRAWMODE_XOR | LCD_DRAWMODE_TRANS:
 294:Drivers/STemWin/Config/GUIDRV_Template.c ****   case LCD_DRAWMODE_XOR:
 295:Drivers/STemWin/Config/GUIDRV_Template.c ****     IndexMask = pDevice->pColorConvAPI->pfGetIndexMask();
 296:Drivers/STemWin/Config/GUIDRV_Template.c ****     do {
 297:Drivers/STemWin/Config/GUIDRV_Template.c ****       if (*p & (0x80 >> Diff)) {
 298:Drivers/STemWin/Config/GUIDRV_Template.c ****         Pixel = _GetPixelIndex(pDevice, x, y);
 299:Drivers/STemWin/Config/GUIDRV_Template.c ****         _SetPixelIndex(pDevice, x, y, Pixel ^ IndexMask);
 300:Drivers/STemWin/Config/GUIDRV_Template.c ****       }
 301:Drivers/STemWin/Config/GUIDRV_Template.c ****       x++;
 302:Drivers/STemWin/Config/GUIDRV_Template.c ****       if (++Diff == 8) {
 303:Drivers/STemWin/Config/GUIDRV_Template.c ****         Diff = 0;
 304:Drivers/STemWin/Config/GUIDRV_Template.c ****         p++;
 305:Drivers/STemWin/Config/GUIDRV_Template.c ****       }
 306:Drivers/STemWin/Config/GUIDRV_Template.c ****     } while (--xsize);
 307:Drivers/STemWin/Config/GUIDRV_Template.c ****     break;
 308:Drivers/STemWin/Config/GUIDRV_Template.c ****   }
 309:Drivers/STemWin/Config/GUIDRV_Template.c **** }
 310:Drivers/STemWin/Config/GUIDRV_Template.c **** 
 311:Drivers/STemWin/Config/GUIDRV_Template.c **** /*********************************************************************
 312:Drivers/STemWin/Config/GUIDRV_Template.c **** *
 313:Drivers/STemWin/Config/GUIDRV_Template.c **** *       Draw Bitmap 2 BPP
 314:Drivers/STemWin/Config/GUIDRV_Template.c **** */
 315:Drivers/STemWin/Config/GUIDRV_Template.c **** static void  _DrawBitLine2BPP(GUI_DEVICE * pDevice, int x, int y, U8 const GUI_UNI_PTR * p, int Dif
ARM GAS  F:\msys64\tmp\ccgRoccj.s 			page 7


 316:Drivers/STemWin/Config/GUIDRV_Template.c ****   LCD_PIXELINDEX Pixels, PixelIndex;
 317:Drivers/STemWin/Config/GUIDRV_Template.c ****   int CurrentPixel, Shift, Index;
 318:Drivers/STemWin/Config/GUIDRV_Template.c **** 
 319:Drivers/STemWin/Config/GUIDRV_Template.c ****   Pixels = *p;
 320:Drivers/STemWin/Config/GUIDRV_Template.c ****   CurrentPixel = Diff;
 321:Drivers/STemWin/Config/GUIDRV_Template.c ****   x += Diff;
 322:Drivers/STemWin/Config/GUIDRV_Template.c ****   switch (GUI_pContext->DrawMode & (LCD_DRAWMODE_TRANS | LCD_DRAWMODE_XOR)) {
 323:Drivers/STemWin/Config/GUIDRV_Template.c ****   case 0:
 324:Drivers/STemWin/Config/GUIDRV_Template.c ****     if (pTrans) {
 325:Drivers/STemWin/Config/GUIDRV_Template.c ****       do {
 326:Drivers/STemWin/Config/GUIDRV_Template.c ****         Shift = (3 - CurrentPixel) << 1;
 327:Drivers/STemWin/Config/GUIDRV_Template.c ****         Index = (Pixels & (0xC0 >> (6 - Shift))) >> Shift;
 328:Drivers/STemWin/Config/GUIDRV_Template.c ****         PixelIndex = *(pTrans + Index);
 329:Drivers/STemWin/Config/GUIDRV_Template.c ****         _SetPixelIndex(pDevice, x++, y, PixelIndex);
 330:Drivers/STemWin/Config/GUIDRV_Template.c ****         if (++CurrentPixel == 4) {
 331:Drivers/STemWin/Config/GUIDRV_Template.c ****           CurrentPixel = 0;
 332:Drivers/STemWin/Config/GUIDRV_Template.c ****           Pixels = *(++p);
 333:Drivers/STemWin/Config/GUIDRV_Template.c ****         }
 334:Drivers/STemWin/Config/GUIDRV_Template.c ****       } while (--xsize);
 335:Drivers/STemWin/Config/GUIDRV_Template.c ****     } else {
 336:Drivers/STemWin/Config/GUIDRV_Template.c ****       do {
 337:Drivers/STemWin/Config/GUIDRV_Template.c ****         Shift = (3 - CurrentPixel) << 1;
 338:Drivers/STemWin/Config/GUIDRV_Template.c ****         Index = (Pixels & (0xC0 >> (6 - Shift))) >> Shift;
 339:Drivers/STemWin/Config/GUIDRV_Template.c ****         _SetPixelIndex(pDevice, x++, y, Index);
 340:Drivers/STemWin/Config/GUIDRV_Template.c ****         if (++CurrentPixel == 4) {
 341:Drivers/STemWin/Config/GUIDRV_Template.c ****           CurrentPixel = 0;
 342:Drivers/STemWin/Config/GUIDRV_Template.c ****           Pixels = *(++p);
 343:Drivers/STemWin/Config/GUIDRV_Template.c ****         }
 344:Drivers/STemWin/Config/GUIDRV_Template.c ****       } while (--xsize);
 345:Drivers/STemWin/Config/GUIDRV_Template.c ****     }
 346:Drivers/STemWin/Config/GUIDRV_Template.c ****     break;
 347:Drivers/STemWin/Config/GUIDRV_Template.c ****   case LCD_DRAWMODE_TRANS:
 348:Drivers/STemWin/Config/GUIDRV_Template.c ****     if (pTrans) {
 349:Drivers/STemWin/Config/GUIDRV_Template.c ****       do {
 350:Drivers/STemWin/Config/GUIDRV_Template.c ****         Shift = (3 - CurrentPixel) << 1;
 351:Drivers/STemWin/Config/GUIDRV_Template.c ****         Index = (Pixels & (0xC0 >> (6 - Shift))) >> Shift;
 352:Drivers/STemWin/Config/GUIDRV_Template.c ****         if (Index) {
 353:Drivers/STemWin/Config/GUIDRV_Template.c ****           PixelIndex = *(pTrans + Index);
 354:Drivers/STemWin/Config/GUIDRV_Template.c ****           _SetPixelIndex(pDevice, x, y, PixelIndex);
 355:Drivers/STemWin/Config/GUIDRV_Template.c ****         }
 356:Drivers/STemWin/Config/GUIDRV_Template.c ****         x++;
 357:Drivers/STemWin/Config/GUIDRV_Template.c ****         if (++CurrentPixel == 4) {
 358:Drivers/STemWin/Config/GUIDRV_Template.c ****           CurrentPixel = 0;
 359:Drivers/STemWin/Config/GUIDRV_Template.c ****           Pixels = *(++p);
 360:Drivers/STemWin/Config/GUIDRV_Template.c ****         }
 361:Drivers/STemWin/Config/GUIDRV_Template.c ****       } while (--xsize);
 362:Drivers/STemWin/Config/GUIDRV_Template.c ****     } else {
 363:Drivers/STemWin/Config/GUIDRV_Template.c ****       do {
 364:Drivers/STemWin/Config/GUIDRV_Template.c ****         Shift = (3 - CurrentPixel) << 1;
 365:Drivers/STemWin/Config/GUIDRV_Template.c ****         Index = (Pixels & (0xC0 >> (6 - Shift))) >> Shift;
 366:Drivers/STemWin/Config/GUIDRV_Template.c ****         if (Index) {
 367:Drivers/STemWin/Config/GUIDRV_Template.c ****           _SetPixelIndex(pDevice, x, y, Index);
 368:Drivers/STemWin/Config/GUIDRV_Template.c ****         }
 369:Drivers/STemWin/Config/GUIDRV_Template.c ****         x++;
 370:Drivers/STemWin/Config/GUIDRV_Template.c ****         if (++CurrentPixel == 4) {
 371:Drivers/STemWin/Config/GUIDRV_Template.c ****           CurrentPixel = 0;
 372:Drivers/STemWin/Config/GUIDRV_Template.c ****           Pixels = *(++p);
ARM GAS  F:\msys64\tmp\ccgRoccj.s 			page 8


 373:Drivers/STemWin/Config/GUIDRV_Template.c ****         }
 374:Drivers/STemWin/Config/GUIDRV_Template.c ****       } while (--xsize);
 375:Drivers/STemWin/Config/GUIDRV_Template.c ****     }
 376:Drivers/STemWin/Config/GUIDRV_Template.c ****     break;
 377:Drivers/STemWin/Config/GUIDRV_Template.c ****   }
 378:Drivers/STemWin/Config/GUIDRV_Template.c **** }
 379:Drivers/STemWin/Config/GUIDRV_Template.c **** 
 380:Drivers/STemWin/Config/GUIDRV_Template.c **** /*********************************************************************
 381:Drivers/STemWin/Config/GUIDRV_Template.c **** *
 382:Drivers/STemWin/Config/GUIDRV_Template.c **** *       Draw Bitmap 4 BPP
 383:Drivers/STemWin/Config/GUIDRV_Template.c **** */
 384:Drivers/STemWin/Config/GUIDRV_Template.c **** static void  _DrawBitLine4BPP(GUI_DEVICE * pDevice, int x, int y, U8 const GUI_UNI_PTR * p, int Dif
 385:Drivers/STemWin/Config/GUIDRV_Template.c ****   LCD_PIXELINDEX Pixels, PixelIndex;
 386:Drivers/STemWin/Config/GUIDRV_Template.c ****   int CurrentPixel, Shift, Index;
 387:Drivers/STemWin/Config/GUIDRV_Template.c **** 
 388:Drivers/STemWin/Config/GUIDRV_Template.c ****   Pixels = *p;
 389:Drivers/STemWin/Config/GUIDRV_Template.c ****   CurrentPixel = Diff;
 390:Drivers/STemWin/Config/GUIDRV_Template.c ****   x += Diff;
 391:Drivers/STemWin/Config/GUIDRV_Template.c ****   switch (GUI_pContext->DrawMode & (LCD_DRAWMODE_TRANS | LCD_DRAWMODE_XOR)) {
 392:Drivers/STemWin/Config/GUIDRV_Template.c ****   case 0:
 393:Drivers/STemWin/Config/GUIDRV_Template.c ****     if (pTrans) {
 394:Drivers/STemWin/Config/GUIDRV_Template.c ****       do {
 395:Drivers/STemWin/Config/GUIDRV_Template.c ****         Shift = (1 - CurrentPixel) << 2;
 396:Drivers/STemWin/Config/GUIDRV_Template.c ****         Index = (Pixels & (0xF0 >> (4 - Shift))) >> Shift;
 397:Drivers/STemWin/Config/GUIDRV_Template.c ****         PixelIndex = *(pTrans + Index);
 398:Drivers/STemWin/Config/GUIDRV_Template.c ****         _SetPixelIndex(pDevice, x++, y, PixelIndex);
 399:Drivers/STemWin/Config/GUIDRV_Template.c ****         if (++CurrentPixel == 2) {
 400:Drivers/STemWin/Config/GUIDRV_Template.c ****           CurrentPixel = 0;
 401:Drivers/STemWin/Config/GUIDRV_Template.c ****           Pixels = *(++p);
 402:Drivers/STemWin/Config/GUIDRV_Template.c ****         }
 403:Drivers/STemWin/Config/GUIDRV_Template.c ****       } while (--xsize);
 404:Drivers/STemWin/Config/GUIDRV_Template.c ****     } else {
 405:Drivers/STemWin/Config/GUIDRV_Template.c ****       do {
 406:Drivers/STemWin/Config/GUIDRV_Template.c ****         Shift = (1 - CurrentPixel) << 2;
 407:Drivers/STemWin/Config/GUIDRV_Template.c ****         Index = (Pixels & (0xF0 >> (4 - Shift))) >> Shift;
 408:Drivers/STemWin/Config/GUIDRV_Template.c ****         _SetPixelIndex(pDevice, x++, y, Index);
 409:Drivers/STemWin/Config/GUIDRV_Template.c ****         if (++CurrentPixel == 2) {
 410:Drivers/STemWin/Config/GUIDRV_Template.c ****           CurrentPixel = 0;
 411:Drivers/STemWin/Config/GUIDRV_Template.c ****           Pixels = *(++p);
 412:Drivers/STemWin/Config/GUIDRV_Template.c ****         }
 413:Drivers/STemWin/Config/GUIDRV_Template.c ****       } while (--xsize);
 414:Drivers/STemWin/Config/GUIDRV_Template.c ****     }
 415:Drivers/STemWin/Config/GUIDRV_Template.c ****     break;
 416:Drivers/STemWin/Config/GUIDRV_Template.c ****   case LCD_DRAWMODE_TRANS:
 417:Drivers/STemWin/Config/GUIDRV_Template.c ****     if (pTrans) {
 418:Drivers/STemWin/Config/GUIDRV_Template.c ****       do {
 419:Drivers/STemWin/Config/GUIDRV_Template.c ****         Shift = (1 - CurrentPixel) << 2;
 420:Drivers/STemWin/Config/GUIDRV_Template.c ****         Index = (Pixels & (0xF0 >> (4 - Shift))) >> Shift;
 421:Drivers/STemWin/Config/GUIDRV_Template.c ****         if (Index) {
 422:Drivers/STemWin/Config/GUIDRV_Template.c ****           PixelIndex = *(pTrans + Index);
 423:Drivers/STemWin/Config/GUIDRV_Template.c ****           _SetPixelIndex(pDevice, x, y, PixelIndex);
 424:Drivers/STemWin/Config/GUIDRV_Template.c ****         }
 425:Drivers/STemWin/Config/GUIDRV_Template.c ****         x++;
 426:Drivers/STemWin/Config/GUIDRV_Template.c ****         if (++CurrentPixel == 2) {
 427:Drivers/STemWin/Config/GUIDRV_Template.c ****           CurrentPixel = 0;
 428:Drivers/STemWin/Config/GUIDRV_Template.c ****           Pixels = *(++p);
 429:Drivers/STemWin/Config/GUIDRV_Template.c ****         }
ARM GAS  F:\msys64\tmp\ccgRoccj.s 			page 9


 430:Drivers/STemWin/Config/GUIDRV_Template.c ****       } while (--xsize);
 431:Drivers/STemWin/Config/GUIDRV_Template.c ****     } else {
 432:Drivers/STemWin/Config/GUIDRV_Template.c ****       do {
 433:Drivers/STemWin/Config/GUIDRV_Template.c ****         Shift = (1 - CurrentPixel) << 2;
 434:Drivers/STemWin/Config/GUIDRV_Template.c ****         Index = (Pixels & (0xF0 >> (4 - Shift))) >> Shift;
 435:Drivers/STemWin/Config/GUIDRV_Template.c ****         if (Index) {
 436:Drivers/STemWin/Config/GUIDRV_Template.c ****           _SetPixelIndex(pDevice, x, y, Index);
 437:Drivers/STemWin/Config/GUIDRV_Template.c ****         }
 438:Drivers/STemWin/Config/GUIDRV_Template.c ****         x++;
 439:Drivers/STemWin/Config/GUIDRV_Template.c ****         if (++CurrentPixel == 2) {
 440:Drivers/STemWin/Config/GUIDRV_Template.c ****           CurrentPixel = 0;
 441:Drivers/STemWin/Config/GUIDRV_Template.c ****           Pixels = *(++p);
 442:Drivers/STemWin/Config/GUIDRV_Template.c ****         }
 443:Drivers/STemWin/Config/GUIDRV_Template.c ****       } while (--xsize);
 444:Drivers/STemWin/Config/GUIDRV_Template.c ****     }
 445:Drivers/STemWin/Config/GUIDRV_Template.c ****     break;
 446:Drivers/STemWin/Config/GUIDRV_Template.c ****   }
 447:Drivers/STemWin/Config/GUIDRV_Template.c **** }
 448:Drivers/STemWin/Config/GUIDRV_Template.c **** 
 449:Drivers/STemWin/Config/GUIDRV_Template.c **** /*********************************************************************
 450:Drivers/STemWin/Config/GUIDRV_Template.c **** *
 451:Drivers/STemWin/Config/GUIDRV_Template.c **** *       Draw Bitmap 8 BPP
 452:Drivers/STemWin/Config/GUIDRV_Template.c **** */
 453:Drivers/STemWin/Config/GUIDRV_Template.c **** static void  _DrawBitLine8BPP(GUI_DEVICE * pDevice, int x, int y, U8 const GUI_UNI_PTR * p, int xsi
 454:Drivers/STemWin/Config/GUIDRV_Template.c ****   LCD_PIXELINDEX Pixel;
 455:Drivers/STemWin/Config/GUIDRV_Template.c **** 
 456:Drivers/STemWin/Config/GUIDRV_Template.c ****   switch (GUI_pContext->DrawMode & (LCD_DRAWMODE_TRANS | LCD_DRAWMODE_XOR)) {
 457:Drivers/STemWin/Config/GUIDRV_Template.c ****   case 0:
 458:Drivers/STemWin/Config/GUIDRV_Template.c ****     if (pTrans) {
 459:Drivers/STemWin/Config/GUIDRV_Template.c ****       for (; xsize > 0; xsize--, x++, p++) {
 460:Drivers/STemWin/Config/GUIDRV_Template.c ****         Pixel = *p;
 461:Drivers/STemWin/Config/GUIDRV_Template.c ****         _SetPixelIndex(pDevice, x, y, *(pTrans + Pixel));
 462:Drivers/STemWin/Config/GUIDRV_Template.c ****       }
 463:Drivers/STemWin/Config/GUIDRV_Template.c ****     } else {
 464:Drivers/STemWin/Config/GUIDRV_Template.c ****       for (; xsize > 0; xsize--, x++, p++) {
 465:Drivers/STemWin/Config/GUIDRV_Template.c ****         _SetPixelIndex(pDevice, x, y, *p);
 466:Drivers/STemWin/Config/GUIDRV_Template.c ****       }
 467:Drivers/STemWin/Config/GUIDRV_Template.c ****     }
 468:Drivers/STemWin/Config/GUIDRV_Template.c ****     break;
 469:Drivers/STemWin/Config/GUIDRV_Template.c ****   case LCD_DRAWMODE_TRANS:
 470:Drivers/STemWin/Config/GUIDRV_Template.c ****     if (pTrans) {
 471:Drivers/STemWin/Config/GUIDRV_Template.c ****       for (; xsize > 0; xsize--, x++, p++) {
 472:Drivers/STemWin/Config/GUIDRV_Template.c ****         Pixel = *p;
 473:Drivers/STemWin/Config/GUIDRV_Template.c ****         if (Pixel) {
 474:Drivers/STemWin/Config/GUIDRV_Template.c ****           _SetPixelIndex(pDevice, x, y, *(pTrans + Pixel));
 475:Drivers/STemWin/Config/GUIDRV_Template.c ****         }
 476:Drivers/STemWin/Config/GUIDRV_Template.c ****       }
 477:Drivers/STemWin/Config/GUIDRV_Template.c ****     } else {
 478:Drivers/STemWin/Config/GUIDRV_Template.c ****       for (; xsize > 0; xsize--, x++, p++) {
 479:Drivers/STemWin/Config/GUIDRV_Template.c ****         Pixel = *p;
 480:Drivers/STemWin/Config/GUIDRV_Template.c ****         if (Pixel) {
 481:Drivers/STemWin/Config/GUIDRV_Template.c ****           _SetPixelIndex(pDevice, x, y, Pixel);
 482:Drivers/STemWin/Config/GUIDRV_Template.c ****         }
 483:Drivers/STemWin/Config/GUIDRV_Template.c ****       }
 484:Drivers/STemWin/Config/GUIDRV_Template.c ****     }
 485:Drivers/STemWin/Config/GUIDRV_Template.c ****     break;
 486:Drivers/STemWin/Config/GUIDRV_Template.c ****   }
ARM GAS  F:\msys64\tmp\ccgRoccj.s 			page 10


 487:Drivers/STemWin/Config/GUIDRV_Template.c **** }
 488:Drivers/STemWin/Config/GUIDRV_Template.c **** 
 489:Drivers/STemWin/Config/GUIDRV_Template.c **** /*********************************************************************
 490:Drivers/STemWin/Config/GUIDRV_Template.c **** *
 491:Drivers/STemWin/Config/GUIDRV_Template.c **** *       Draw Bitmap 16 BPP, not optimized
 492:Drivers/STemWin/Config/GUIDRV_Template.c **** *
 493:Drivers/STemWin/Config/GUIDRV_Template.c **** * Purpose:
 494:Drivers/STemWin/Config/GUIDRV_Template.c **** *   Drawing of 16bpp high color bitmaps.
 495:Drivers/STemWin/Config/GUIDRV_Template.c **** *   Only required for 16bpp color depth of target. Should be removed otherwise.
 496:Drivers/STemWin/Config/GUIDRV_Template.c **** */
 497:Drivers/STemWin/Config/GUIDRV_Template.c **** static void _DrawBitLine16BPP(GUI_DEVICE * pDevice, int x, int y, U16 const GUI_UNI_PTR * p, int xs
 498:Drivers/STemWin/Config/GUIDRV_Template.c ****   for (;xsize > 0; xsize--, x++, p++) {
 499:Drivers/STemWin/Config/GUIDRV_Template.c ****     _SetPixelIndex(pDevice, x, y, *p);
 500:Drivers/STemWin/Config/GUIDRV_Template.c ****   }
 501:Drivers/STemWin/Config/GUIDRV_Template.c **** }
 502:Drivers/STemWin/Config/GUIDRV_Template.c **** 
 503:Drivers/STemWin/Config/GUIDRV_Template.c **** /*********************************************************************
 504:Drivers/STemWin/Config/GUIDRV_Template.c **** *
 505:Drivers/STemWin/Config/GUIDRV_Template.c **** *       Draw Bitmap 32 BPP, not optimized
 506:Drivers/STemWin/Config/GUIDRV_Template.c **** *
 507:Drivers/STemWin/Config/GUIDRV_Template.c **** * Purpose:
 508:Drivers/STemWin/Config/GUIDRV_Template.c **** *   Drawing of 32bpp true color bitmaps.
 509:Drivers/STemWin/Config/GUIDRV_Template.c **** *   Only required for 32bpp color depth of target. Should be removed otherwise.
 510:Drivers/STemWin/Config/GUIDRV_Template.c **** */
 511:Drivers/STemWin/Config/GUIDRV_Template.c **** static void _DrawBitLine32BPP(GUI_DEVICE * pDevice, int x, int y, U32 const GUI_UNI_PTR * p, int xs
 512:Drivers/STemWin/Config/GUIDRV_Template.c ****   for (;xsize > 0; xsize--, x++, p++) {
 513:Drivers/STemWin/Config/GUIDRV_Template.c ****     _SetPixelIndex(pDevice, x, y, *p);
 514:Drivers/STemWin/Config/GUIDRV_Template.c ****   }
 515:Drivers/STemWin/Config/GUIDRV_Template.c **** }
 516:Drivers/STemWin/Config/GUIDRV_Template.c **** 
 517:Drivers/STemWin/Config/GUIDRV_Template.c **** /*********************************************************************
 518:Drivers/STemWin/Config/GUIDRV_Template.c **** *
 519:Drivers/STemWin/Config/GUIDRV_Template.c **** *       _DrawBitmap
 520:Drivers/STemWin/Config/GUIDRV_Template.c **** */
 521:Drivers/STemWin/Config/GUIDRV_Template.c **** static void _DrawBitmap(GUI_DEVICE * pDevice, int x0, int y0,
 522:Drivers/STemWin/Config/GUIDRV_Template.c ****                        int xSize, int ySize,
 523:Drivers/STemWin/Config/GUIDRV_Template.c ****                        int BitsPerPixel, 
 524:Drivers/STemWin/Config/GUIDRV_Template.c ****                        int BytesPerLine,
 525:Drivers/STemWin/Config/GUIDRV_Template.c ****                        const U8 GUI_UNI_PTR * pData, int Diff,
 526:Drivers/STemWin/Config/GUIDRV_Template.c ****                        const LCD_PIXELINDEX * pTrans) {
 527:Drivers/STemWin/Config/GUIDRV_Template.c ****   int i;
 528:Drivers/STemWin/Config/GUIDRV_Template.c **** 
 529:Drivers/STemWin/Config/GUIDRV_Template.c ****   switch (BitsPerPixel) {
 530:Drivers/STemWin/Config/GUIDRV_Template.c ****   case 1:
 531:Drivers/STemWin/Config/GUIDRV_Template.c ****     for (i = 0; i < ySize; i++) {
 532:Drivers/STemWin/Config/GUIDRV_Template.c ****       _DrawBitLine1BPP(pDevice, x0, i + y0, pData, Diff, xSize, pTrans);
 533:Drivers/STemWin/Config/GUIDRV_Template.c ****       pData += BytesPerLine;
 534:Drivers/STemWin/Config/GUIDRV_Template.c ****     }
 535:Drivers/STemWin/Config/GUIDRV_Template.c ****     break;
 536:Drivers/STemWin/Config/GUIDRV_Template.c ****   case 2:
 537:Drivers/STemWin/Config/GUIDRV_Template.c ****     for (i = 0; i < ySize; i++) {
 538:Drivers/STemWin/Config/GUIDRV_Template.c ****       _DrawBitLine2BPP(pDevice, x0, i + y0, pData, Diff, xSize, pTrans);
 539:Drivers/STemWin/Config/GUIDRV_Template.c ****       pData += BytesPerLine;
 540:Drivers/STemWin/Config/GUIDRV_Template.c ****     }
 541:Drivers/STemWin/Config/GUIDRV_Template.c ****     break;
 542:Drivers/STemWin/Config/GUIDRV_Template.c ****   case 4:
 543:Drivers/STemWin/Config/GUIDRV_Template.c ****     for (i = 0; i < ySize; i++) {
ARM GAS  F:\msys64\tmp\ccgRoccj.s 			page 11


 544:Drivers/STemWin/Config/GUIDRV_Template.c ****       _DrawBitLine4BPP(pDevice, x0, i + y0, pData, Diff, xSize, pTrans);
 545:Drivers/STemWin/Config/GUIDRV_Template.c ****       pData += BytesPerLine;
 546:Drivers/STemWin/Config/GUIDRV_Template.c ****     }
 547:Drivers/STemWin/Config/GUIDRV_Template.c ****     break;
 548:Drivers/STemWin/Config/GUIDRV_Template.c ****   case 8:
 549:Drivers/STemWin/Config/GUIDRV_Template.c ****     for (i = 0; i < ySize; i++) {
 550:Drivers/STemWin/Config/GUIDRV_Template.c ****       _DrawBitLine8BPP(pDevice, x0, i + y0, pData, xSize, pTrans);
 551:Drivers/STemWin/Config/GUIDRV_Template.c ****       pData += BytesPerLine;
 552:Drivers/STemWin/Config/GUIDRV_Template.c ****     }
 553:Drivers/STemWin/Config/GUIDRV_Template.c ****     break;
 554:Drivers/STemWin/Config/GUIDRV_Template.c ****   //
 555:Drivers/STemWin/Config/GUIDRV_Template.c ****   // Only required for 16bpp color depth of target. Should be removed otherwise.
 556:Drivers/STemWin/Config/GUIDRV_Template.c ****   //
 557:Drivers/STemWin/Config/GUIDRV_Template.c ****   case 16:
 558:Drivers/STemWin/Config/GUIDRV_Template.c ****     for (i = 0; i < ySize; i++) {
 559:Drivers/STemWin/Config/GUIDRV_Template.c ****       _DrawBitLine16BPP(pDevice, x0, i + y0, (const U16 *)pData, xSize);
 560:Drivers/STemWin/Config/GUIDRV_Template.c ****       pData += BytesPerLine;
 561:Drivers/STemWin/Config/GUIDRV_Template.c ****     }
 562:Drivers/STemWin/Config/GUIDRV_Template.c ****     break;
 563:Drivers/STemWin/Config/GUIDRV_Template.c ****   //
 564:Drivers/STemWin/Config/GUIDRV_Template.c ****   // Only required for 32bpp color depth of target. Should be removed otherwise.
 565:Drivers/STemWin/Config/GUIDRV_Template.c ****   //
 566:Drivers/STemWin/Config/GUIDRV_Template.c ****   case 32:
 567:Drivers/STemWin/Config/GUIDRV_Template.c ****     for (i = 0; i < ySize; i++) {
 568:Drivers/STemWin/Config/GUIDRV_Template.c ****       _DrawBitLine32BPP(pDevice, x0, i + y0, (const U32 *)pData, xSize);
 569:Drivers/STemWin/Config/GUIDRV_Template.c ****       pData += BytesPerLine;
 570:Drivers/STemWin/Config/GUIDRV_Template.c ****     }
 571:Drivers/STemWin/Config/GUIDRV_Template.c ****     break;
 572:Drivers/STemWin/Config/GUIDRV_Template.c ****   }
 573:Drivers/STemWin/Config/GUIDRV_Template.c **** }
 574:Drivers/STemWin/Config/GUIDRV_Template.c **** 
 575:Drivers/STemWin/Config/GUIDRV_Template.c **** /*********************************************************************
 576:Drivers/STemWin/Config/GUIDRV_Template.c **** *
 577:Drivers/STemWin/Config/GUIDRV_Template.c **** *       _InitOnce
 578:Drivers/STemWin/Config/GUIDRV_Template.c **** *
 579:Drivers/STemWin/Config/GUIDRV_Template.c **** * Purpose:
 580:Drivers/STemWin/Config/GUIDRV_Template.c **** *   Allocates a fixed block for the context of the driver
 581:Drivers/STemWin/Config/GUIDRV_Template.c **** *
 582:Drivers/STemWin/Config/GUIDRV_Template.c **** * Return value:
 583:Drivers/STemWin/Config/GUIDRV_Template.c **** *   0 on success, 1 on error
 584:Drivers/STemWin/Config/GUIDRV_Template.c **** */
 585:Drivers/STemWin/Config/GUIDRV_Template.c **** static int _InitOnce(GUI_DEVICE * pDevice) {
 586:Drivers/STemWin/Config/GUIDRV_Template.c ****   DRIVER_CONTEXT_TEMPLATE * pContext;
 587:Drivers/STemWin/Config/GUIDRV_Template.c **** 
 588:Drivers/STemWin/Config/GUIDRV_Template.c ****   if (pDevice->u.pContext == NULL) {
 589:Drivers/STemWin/Config/GUIDRV_Template.c ****     pDevice->u.pContext = GUI_ALLOC_GetFixedBlock(sizeof(DRIVER_CONTEXT_TEMPLATE));
 590:Drivers/STemWin/Config/GUIDRV_Template.c ****     pContext = (DRIVER_CONTEXT_TEMPLATE *)pDevice->u.pContext;
 591:Drivers/STemWin/Config/GUIDRV_Template.c ****     pContext->BitsPerPixel = LCD__GetBPP(pDevice->pColorConvAPI->pfGetIndexMask());
 592:Drivers/STemWin/Config/GUIDRV_Template.c ****   }
 593:Drivers/STemWin/Config/GUIDRV_Template.c ****   return pDevice->u.pContext ? 0 : 1;
 594:Drivers/STemWin/Config/GUIDRV_Template.c **** }
 595:Drivers/STemWin/Config/GUIDRV_Template.c **** 
 596:Drivers/STemWin/Config/GUIDRV_Template.c **** /*********************************************************************
 597:Drivers/STemWin/Config/GUIDRV_Template.c **** *
 598:Drivers/STemWin/Config/GUIDRV_Template.c **** *       _GetDevProp
 599:Drivers/STemWin/Config/GUIDRV_Template.c **** */
 600:Drivers/STemWin/Config/GUIDRV_Template.c **** static I32 _GetDevProp(GUI_DEVICE * pDevice, int Index) {
ARM GAS  F:\msys64\tmp\ccgRoccj.s 			page 12


  29              		.loc 1 600 57 view -0
  30              		.cfi_startproc
  31              		@ args = 0, pretend = 0, frame = 0
  32              		@ frame_needed = 0, uses_anonymous_args = 0
  33              		@ link register save eliminated.
 601:Drivers/STemWin/Config/GUIDRV_Template.c ****   DRIVER_CONTEXT_TEMPLATE * pContext;
  34              		.loc 1 601 3 view .LVU1
 602:Drivers/STemWin/Config/GUIDRV_Template.c **** 
 603:Drivers/STemWin/Config/GUIDRV_Template.c ****   pContext = (DRIVER_CONTEXT_TEMPLATE *)pDevice->u.pContext;
  35              		.loc 1 603 3 view .LVU2
  36              		.loc 1 603 12 is_stmt 0 view .LVU3
  37 0000 8368     		ldr	r3, [r0, #8]
  38              	.LVL1:
 604:Drivers/STemWin/Config/GUIDRV_Template.c ****   switch (Index) {
  39              		.loc 1 604 3 is_stmt 1 view .LVU4
  40 0002 0139     		subs	r1, r1, #1
  41              	.LVL2:
  42              		.loc 1 604 3 is_stmt 0 view .LVU5
  43 0004 0D29     		cmp	r1, #13
  44 0006 14D8     		bhi	.L2
  45 0008 DFE801F0 		tbb	[pc, r1]
  46              	.L4:
  47 000c 09       		.byte	(.L10-.L4)/2
  48 000d 0B       		.byte	(.L9-.L4)/2
  49 000e 0D       		.byte	(.L8-.L4)/2
  50 000f 0F       		.byte	(.L7-.L4)/2
  51 0010 13       		.byte	(.L2-.L4)/2
  52 0011 13       		.byte	(.L2-.L4)/2
  53 0012 13       		.byte	(.L2-.L4)/2
  54 0013 11       		.byte	(.L6-.L4)/2
  55 0014 07       		.byte	(.L3-.L4)/2
  56 0015 16       		.byte	(.L11-.L4)/2
  57 0016 16       		.byte	(.L11-.L4)/2
  58 0017 07       		.byte	(.L3-.L4)/2
  59 0018 07       		.byte	(.L3-.L4)/2
  60 0019 07       		.byte	(.L3-.L4)/2
  61              		.p2align 1
  62              	.L3:
  63 001a 0020     		movs	r0, #0
  64              	.LVL3:
  65              		.loc 1 604 3 view .LVU6
  66 001c 7047     		bx	lr
  67              	.LVL4:
  68              	.L10:
 605:Drivers/STemWin/Config/GUIDRV_Template.c ****   case LCD_DEVCAP_XSIZE:
 606:Drivers/STemWin/Config/GUIDRV_Template.c ****     return pContext->xSize;
  69              		.loc 1 606 5 is_stmt 1 view .LVU7
  70              		.loc 1 606 20 is_stmt 0 view .LVU8
  71 001e 5868     		ldr	r0, [r3, #4]
  72              	.LVL5:
  73              		.loc 1 606 20 view .LVU9
  74 0020 7047     		bx	lr
  75              	.LVL6:
  76              	.L9:
 607:Drivers/STemWin/Config/GUIDRV_Template.c ****   case LCD_DEVCAP_YSIZE:
 608:Drivers/STemWin/Config/GUIDRV_Template.c ****     return pContext->ySize;
  77              		.loc 1 608 5 is_stmt 1 view .LVU10
ARM GAS  F:\msys64\tmp\ccgRoccj.s 			page 13


  78              		.loc 1 608 20 is_stmt 0 view .LVU11
  79 0022 9868     		ldr	r0, [r3, #8]
  80              	.LVL7:
  81              		.loc 1 608 20 view .LVU12
  82 0024 7047     		bx	lr
  83              	.LVL8:
  84              	.L8:
 609:Drivers/STemWin/Config/GUIDRV_Template.c ****   case LCD_DEVCAP_VXSIZE:
 610:Drivers/STemWin/Config/GUIDRV_Template.c ****     return pContext->vxSize;
  85              		.loc 1 610 5 is_stmt 1 view .LVU13
  86              		.loc 1 610 20 is_stmt 0 view .LVU14
  87 0026 D868     		ldr	r0, [r3, #12]
  88              	.LVL9:
  89              		.loc 1 610 20 view .LVU15
  90 0028 7047     		bx	lr
  91              	.LVL10:
  92              	.L7:
 611:Drivers/STemWin/Config/GUIDRV_Template.c ****   case LCD_DEVCAP_VYSIZE:
 612:Drivers/STemWin/Config/GUIDRV_Template.c ****     return pContext->vySize;
  93              		.loc 1 612 5 is_stmt 1 view .LVU16
  94              		.loc 1 612 20 is_stmt 0 view .LVU17
  95 002a 1869     		ldr	r0, [r3, #16]
  96              	.LVL11:
  97              		.loc 1 612 20 view .LVU18
  98 002c 7047     		bx	lr
  99              	.LVL12:
 100              	.L6:
 613:Drivers/STemWin/Config/GUIDRV_Template.c ****   case LCD_DEVCAP_BITSPERPIXEL:
 614:Drivers/STemWin/Config/GUIDRV_Template.c ****     return pContext->BitsPerPixel;
 101              		.loc 1 614 5 is_stmt 1 view .LVU19
 102              		.loc 1 614 20 is_stmt 0 view .LVU20
 103 002e 9869     		ldr	r0, [r3, #24]
 104              	.LVL13:
 105              		.loc 1 614 20 view .LVU21
 106 0030 7047     		bx	lr
 107              	.LVL14:
 108              	.L2:
 615:Drivers/STemWin/Config/GUIDRV_Template.c ****   case LCD_DEVCAP_NUMCOLORS:
 616:Drivers/STemWin/Config/GUIDRV_Template.c ****     return 0;
 617:Drivers/STemWin/Config/GUIDRV_Template.c ****   case LCD_DEVCAP_XMAG:
 618:Drivers/STemWin/Config/GUIDRV_Template.c ****     return 1;
 619:Drivers/STemWin/Config/GUIDRV_Template.c ****   case LCD_DEVCAP_YMAG:
 620:Drivers/STemWin/Config/GUIDRV_Template.c ****     return 1;
 621:Drivers/STemWin/Config/GUIDRV_Template.c ****   case LCD_DEVCAP_MIRROR_X:
 622:Drivers/STemWin/Config/GUIDRV_Template.c ****     return 0;
 623:Drivers/STemWin/Config/GUIDRV_Template.c ****   case LCD_DEVCAP_MIRROR_Y:
 624:Drivers/STemWin/Config/GUIDRV_Template.c ****     return 0;
 625:Drivers/STemWin/Config/GUIDRV_Template.c ****   case LCD_DEVCAP_SWAP_XY:
 626:Drivers/STemWin/Config/GUIDRV_Template.c ****     return 0;
 627:Drivers/STemWin/Config/GUIDRV_Template.c ****   }
 628:Drivers/STemWin/Config/GUIDRV_Template.c ****   return -1;
 109              		.loc 1 628 3 is_stmt 1 view .LVU22
 110              		.loc 1 628 10 is_stmt 0 view .LVU23
 111 0032 4FF0FF30 		mov	r0, #-1
 112              	.LVL15:
 113              		.loc 1 628 10 view .LVU24
 114 0036 7047     		bx	lr
ARM GAS  F:\msys64\tmp\ccgRoccj.s 			page 14


 115              	.LVL16:
 116              	.L11:
 618:Drivers/STemWin/Config/GUIDRV_Template.c ****   case LCD_DEVCAP_YMAG:
 117              		.loc 1 618 12 view .LVU25
 118 0038 0120     		movs	r0, #1
 119              	.LVL17:
 629:Drivers/STemWin/Config/GUIDRV_Template.c **** }
 120              		.loc 1 629 1 view .LVU26
 121 003a 7047     		bx	lr
 122              		.cfi_endproc
 123              	.LFE569:
 125              		.section	.text._GetDevData,"ax",%progbits
 126              		.align	1
 127              		.syntax unified
 128              		.thumb
 129              		.thumb_func
 131              	_GetDevData:
 132              	.LVL18:
 133              	.LFB570:
 630:Drivers/STemWin/Config/GUIDRV_Template.c **** 
 631:Drivers/STemWin/Config/GUIDRV_Template.c **** /*********************************************************************
 632:Drivers/STemWin/Config/GUIDRV_Template.c **** *
 633:Drivers/STemWin/Config/GUIDRV_Template.c **** *       _GetDevData
 634:Drivers/STemWin/Config/GUIDRV_Template.c **** */
 635:Drivers/STemWin/Config/GUIDRV_Template.c **** static void * _GetDevData(GUI_DEVICE * pDevice, int Index) {
 134              		.loc 1 635 60 is_stmt 1 view -0
 135              		.cfi_startproc
 136              		@ args = 0, pretend = 0, frame = 0
 137              		@ frame_needed = 0, uses_anonymous_args = 0
 138              		@ link register save eliminated.
 636:Drivers/STemWin/Config/GUIDRV_Template.c ****   GUI_USE_PARA(pDevice);
 139              		.loc 1 636 3 view .LVU28
 637:Drivers/STemWin/Config/GUIDRV_Template.c ****   #if GUI_SUPPORT_MEMDEV
 638:Drivers/STemWin/Config/GUIDRV_Template.c ****     switch (Index) {
 140              		.loc 1 638 5 view .LVU29
 141 0000 0129     		cmp	r1, #1
 142 0002 01D1     		bne	.L14
 639:Drivers/STemWin/Config/GUIDRV_Template.c ****     case LCD_DEVDATA_MEMDEV:
 640:Drivers/STemWin/Config/GUIDRV_Template.c ****       return (void *)&GUI_MEMDEV_DEVICE_16; // TBD: Has to be adapted to the right memory device de
 143              		.loc 1 640 14 is_stmt 0 view .LVU30
 144 0004 0148     		ldr	r0, .L15
 145              	.LVL19:
 146              		.loc 1 640 14 view .LVU31
 147 0006 7047     		bx	lr
 148              	.LVL20:
 149              	.L14:
 641:Drivers/STemWin/Config/GUIDRV_Template.c ****     }
 642:Drivers/STemWin/Config/GUIDRV_Template.c ****   #else
 643:Drivers/STemWin/Config/GUIDRV_Template.c ****     GUI_USE_PARA(Index);
 644:Drivers/STemWin/Config/GUIDRV_Template.c ****   #endif
 645:Drivers/STemWin/Config/GUIDRV_Template.c ****   return NULL;
 150              		.loc 1 645 10 view .LVU32
 151 0008 0020     		movs	r0, #0
 152              	.LVL21:
 646:Drivers/STemWin/Config/GUIDRV_Template.c **** }
 153              		.loc 1 646 1 view .LVU33
 154 000a 7047     		bx	lr
ARM GAS  F:\msys64\tmp\ccgRoccj.s 			page 15


 155              	.L16:
 156              		.align	2
 157              	.L15:
 158 000c 00000000 		.word	GUI_MEMDEV_DEVICE_16
 159              		.cfi_endproc
 160              	.LFE570:
 162              		.section	.text._GetRect,"ax",%progbits
 163              		.align	1
 164              		.syntax unified
 165              		.thumb
 166              		.thumb_func
 168              	_GetRect:
 169              	.LVL22:
 170              	.LFB571:
 647:Drivers/STemWin/Config/GUIDRV_Template.c **** 
 648:Drivers/STemWin/Config/GUIDRV_Template.c **** /*********************************************************************
 649:Drivers/STemWin/Config/GUIDRV_Template.c **** *
 650:Drivers/STemWin/Config/GUIDRV_Template.c **** *       _GetRect
 651:Drivers/STemWin/Config/GUIDRV_Template.c **** */
 652:Drivers/STemWin/Config/GUIDRV_Template.c **** static void _GetRect(GUI_DEVICE * pDevice, LCD_RECT * pRect) {
 171              		.loc 1 652 62 is_stmt 1 view -0
 172              		.cfi_startproc
 173              		@ args = 0, pretend = 0, frame = 0
 174              		@ frame_needed = 0, uses_anonymous_args = 0
 175              		@ link register save eliminated.
 653:Drivers/STemWin/Config/GUIDRV_Template.c ****   DRIVER_CONTEXT_TEMPLATE * pContext;
 176              		.loc 1 653 3 view .LVU35
 654:Drivers/STemWin/Config/GUIDRV_Template.c **** 
 655:Drivers/STemWin/Config/GUIDRV_Template.c ****   pContext = (DRIVER_CONTEXT_TEMPLATE *)pDevice->u.pContext;
 177              		.loc 1 655 3 view .LVU36
 178              		.loc 1 655 12 is_stmt 0 view .LVU37
 179 0000 8268     		ldr	r2, [r0, #8]
 180              	.LVL23:
 656:Drivers/STemWin/Config/GUIDRV_Template.c ****   pRect->x0 = 0;
 181              		.loc 1 656 3 is_stmt 1 view .LVU38
 182              		.loc 1 656 13 is_stmt 0 view .LVU39
 183 0002 0023     		movs	r3, #0
 184 0004 0B80     		strh	r3, [r1]	@ movhi
 657:Drivers/STemWin/Config/GUIDRV_Template.c ****   pRect->y0 = 0;
 185              		.loc 1 657 3 is_stmt 1 view .LVU40
 186              		.loc 1 657 13 is_stmt 0 view .LVU41
 187 0006 4B80     		strh	r3, [r1, #2]	@ movhi
 658:Drivers/STemWin/Config/GUIDRV_Template.c ****   pRect->x1 = pContext->vxSize - 1;
 188              		.loc 1 658 3 is_stmt 1 view .LVU42
 189              		.loc 1 658 23 is_stmt 0 view .LVU43
 190 0008 D368     		ldr	r3, [r2, #12]
 191              		.loc 1 658 32 view .LVU44
 192 000a 013B     		subs	r3, r3, #1
 193              		.loc 1 658 13 view .LVU45
 194 000c 8B80     		strh	r3, [r1, #4]	@ movhi
 659:Drivers/STemWin/Config/GUIDRV_Template.c ****   pRect->y1 = pContext->vySize - 1;
 195              		.loc 1 659 3 is_stmt 1 view .LVU46
 196              		.loc 1 659 23 is_stmt 0 view .LVU47
 197 000e 1369     		ldr	r3, [r2, #16]
 198              		.loc 1 659 32 view .LVU48
 199 0010 013B     		subs	r3, r3, #1
 200              		.loc 1 659 13 view .LVU49
ARM GAS  F:\msys64\tmp\ccgRoccj.s 			page 16


 201 0012 CB80     		strh	r3, [r1, #6]	@ movhi
 660:Drivers/STemWin/Config/GUIDRV_Template.c **** }
 202              		.loc 1 660 1 view .LVU50
 203 0014 7047     		bx	lr
 204              		.cfi_endproc
 205              	.LFE571:
 207              		.section	.text._GetDevFunc,"ax",%progbits
 208              		.align	1
 209              		.syntax unified
 210              		.thumb
 211              		.thumb_func
 213              	_GetDevFunc:
 214              	.LVL24:
 215              	.LFB580:
 661:Drivers/STemWin/Config/GUIDRV_Template.c **** 
 662:Drivers/STemWin/Config/GUIDRV_Template.c **** /*********************************************************************
 663:Drivers/STemWin/Config/GUIDRV_Template.c **** *
 664:Drivers/STemWin/Config/GUIDRV_Template.c **** *       _SetOrg
 665:Drivers/STemWin/Config/GUIDRV_Template.c **** */
 666:Drivers/STemWin/Config/GUIDRV_Template.c **** static void _SetOrg(GUI_DEVICE * pDevice, int x, int y) {
 667:Drivers/STemWin/Config/GUIDRV_Template.c ****   LCD_X_SETORG_INFO Data = {0};
 668:Drivers/STemWin/Config/GUIDRV_Template.c **** 
 669:Drivers/STemWin/Config/GUIDRV_Template.c ****   Data.xPos = x;
 670:Drivers/STemWin/Config/GUIDRV_Template.c ****   Data.yPos = y;
 671:Drivers/STemWin/Config/GUIDRV_Template.c ****   LCD_X_DisplayDriver(pDevice->LayerIndex, LCD_X_SETORG, (void *)&Data);
 672:Drivers/STemWin/Config/GUIDRV_Template.c **** }
 673:Drivers/STemWin/Config/GUIDRV_Template.c **** 
 674:Drivers/STemWin/Config/GUIDRV_Template.c **** /*********************************************************************
 675:Drivers/STemWin/Config/GUIDRV_Template.c **** *
 676:Drivers/STemWin/Config/GUIDRV_Template.c **** *       Static code: Functions available by _GetDevFunc()
 677:Drivers/STemWin/Config/GUIDRV_Template.c **** *
 678:Drivers/STemWin/Config/GUIDRV_Template.c **** **********************************************************************
 679:Drivers/STemWin/Config/GUIDRV_Template.c **** */
 680:Drivers/STemWin/Config/GUIDRV_Template.c **** /*********************************************************************
 681:Drivers/STemWin/Config/GUIDRV_Template.c **** *
 682:Drivers/STemWin/Config/GUIDRV_Template.c **** *       _SetVRAMAddr
 683:Drivers/STemWin/Config/GUIDRV_Template.c **** */
 684:Drivers/STemWin/Config/GUIDRV_Template.c **** static void _SetVRAMAddr(GUI_DEVICE * pDevice, void * pVRAM) {
 685:Drivers/STemWin/Config/GUIDRV_Template.c ****   DRIVER_CONTEXT_TEMPLATE * pContext;
 686:Drivers/STemWin/Config/GUIDRV_Template.c ****   LCD_X_SETVRAMADDR_INFO Data = {0};
 687:Drivers/STemWin/Config/GUIDRV_Template.c **** 
 688:Drivers/STemWin/Config/GUIDRV_Template.c ****   _InitOnce(pDevice);
 689:Drivers/STemWin/Config/GUIDRV_Template.c ****   if (pDevice->u.pContext) {
 690:Drivers/STemWin/Config/GUIDRV_Template.c ****     pContext = (DRIVER_CONTEXT_TEMPLATE *)pDevice->u.pContext;
 691:Drivers/STemWin/Config/GUIDRV_Template.c ****     pContext->VRAMAddr = (U32)pVRAM;
 692:Drivers/STemWin/Config/GUIDRV_Template.c ****     Data.pVRAM = pVRAM;
 693:Drivers/STemWin/Config/GUIDRV_Template.c ****     LCD_X_DisplayDriver(pDevice->LayerIndex, LCD_X_SETVRAMADDR, (void *)&Data);
 694:Drivers/STemWin/Config/GUIDRV_Template.c ****   }
 695:Drivers/STemWin/Config/GUIDRV_Template.c **** }
 696:Drivers/STemWin/Config/GUIDRV_Template.c **** 
 697:Drivers/STemWin/Config/GUIDRV_Template.c **** /*********************************************************************
 698:Drivers/STemWin/Config/GUIDRV_Template.c **** *
 699:Drivers/STemWin/Config/GUIDRV_Template.c **** *       _SetVSize
 700:Drivers/STemWin/Config/GUIDRV_Template.c **** */
 701:Drivers/STemWin/Config/GUIDRV_Template.c **** static void _SetVSize(GUI_DEVICE * pDevice, int xSize, int ySize) {
 702:Drivers/STemWin/Config/GUIDRV_Template.c ****   DRIVER_CONTEXT_TEMPLATE * pContext;
 703:Drivers/STemWin/Config/GUIDRV_Template.c **** 
ARM GAS  F:\msys64\tmp\ccgRoccj.s 			page 17


 704:Drivers/STemWin/Config/GUIDRV_Template.c ****   _InitOnce(pDevice);
 705:Drivers/STemWin/Config/GUIDRV_Template.c ****   if (pDevice->u.pContext) {
 706:Drivers/STemWin/Config/GUIDRV_Template.c ****     pContext = (DRIVER_CONTEXT_TEMPLATE *)pDevice->u.pContext;
 707:Drivers/STemWin/Config/GUIDRV_Template.c ****     pContext->vxSize = xSize;
 708:Drivers/STemWin/Config/GUIDRV_Template.c ****     pContext->vySize = ySize;
 709:Drivers/STemWin/Config/GUIDRV_Template.c ****     pContext->vxSizePhys = xSize;
 710:Drivers/STemWin/Config/GUIDRV_Template.c ****   }
 711:Drivers/STemWin/Config/GUIDRV_Template.c **** }
 712:Drivers/STemWin/Config/GUIDRV_Template.c **** 
 713:Drivers/STemWin/Config/GUIDRV_Template.c **** /*********************************************************************
 714:Drivers/STemWin/Config/GUIDRV_Template.c **** *
 715:Drivers/STemWin/Config/GUIDRV_Template.c **** *       _SetSize
 716:Drivers/STemWin/Config/GUIDRV_Template.c **** */
 717:Drivers/STemWin/Config/GUIDRV_Template.c **** static void _SetSize(GUI_DEVICE * pDevice, int xSize, int ySize) {
 718:Drivers/STemWin/Config/GUIDRV_Template.c ****   DRIVER_CONTEXT_TEMPLATE * pContext;
 719:Drivers/STemWin/Config/GUIDRV_Template.c ****   LCD_X_SETSIZE_INFO Data = {0};
 720:Drivers/STemWin/Config/GUIDRV_Template.c **** 
 721:Drivers/STemWin/Config/GUIDRV_Template.c ****   _InitOnce(pDevice);
 722:Drivers/STemWin/Config/GUIDRV_Template.c ****   if (pDevice->u.pContext) {
 723:Drivers/STemWin/Config/GUIDRV_Template.c ****     pContext = (DRIVER_CONTEXT_TEMPLATE *)pDevice->u.pContext;
 724:Drivers/STemWin/Config/GUIDRV_Template.c ****     pContext->vxSizePhys = (pContext->vxSizePhys == 0) ? xSize : pContext->vxSizePhys;
 725:Drivers/STemWin/Config/GUIDRV_Template.c ****     pContext->xSize = xSize;
 726:Drivers/STemWin/Config/GUIDRV_Template.c ****     pContext->ySize = ySize;
 727:Drivers/STemWin/Config/GUIDRV_Template.c ****     Data.xSize = xSize;
 728:Drivers/STemWin/Config/GUIDRV_Template.c ****     Data.ySize = ySize;
 729:Drivers/STemWin/Config/GUIDRV_Template.c ****     LCD_X_DisplayDriver(pDevice->LayerIndex, LCD_X_SETSIZE, (void *)&Data);
 730:Drivers/STemWin/Config/GUIDRV_Template.c ****   }
 731:Drivers/STemWin/Config/GUIDRV_Template.c **** }
 732:Drivers/STemWin/Config/GUIDRV_Template.c **** /*********************************************************************
 733:Drivers/STemWin/Config/GUIDRV_Template.c **** *
 734:Drivers/STemWin/Config/GUIDRV_Template.c **** *       _Init
 735:Drivers/STemWin/Config/GUIDRV_Template.c **** */
 736:Drivers/STemWin/Config/GUIDRV_Template.c **** static int  _Init(GUI_DEVICE * pDevice) {
 737:Drivers/STemWin/Config/GUIDRV_Template.c ****   int r;
 738:Drivers/STemWin/Config/GUIDRV_Template.c **** 
 739:Drivers/STemWin/Config/GUIDRV_Template.c ****   r = _InitOnce(pDevice);
 740:Drivers/STemWin/Config/GUIDRV_Template.c ****   r |= LCD_X_DisplayDriver(pDevice->LayerIndex, LCD_X_INITCONTROLLER, NULL);
 741:Drivers/STemWin/Config/GUIDRV_Template.c ****   return r;
 742:Drivers/STemWin/Config/GUIDRV_Template.c **** }
 743:Drivers/STemWin/Config/GUIDRV_Template.c **** 
 744:Drivers/STemWin/Config/GUIDRV_Template.c **** /*********************************************************************
 745:Drivers/STemWin/Config/GUIDRV_Template.c **** *
 746:Drivers/STemWin/Config/GUIDRV_Template.c **** *       _On
 747:Drivers/STemWin/Config/GUIDRV_Template.c **** */
 748:Drivers/STemWin/Config/GUIDRV_Template.c **** static void _On (GUI_DEVICE * pDevice) {
 749:Drivers/STemWin/Config/GUIDRV_Template.c ****   LCD_X_DisplayDriver(pDevice->LayerIndex, LCD_X_ON, NULL);
 750:Drivers/STemWin/Config/GUIDRV_Template.c **** }
 751:Drivers/STemWin/Config/GUIDRV_Template.c **** 
 752:Drivers/STemWin/Config/GUIDRV_Template.c **** /*********************************************************************
 753:Drivers/STemWin/Config/GUIDRV_Template.c **** *
 754:Drivers/STemWin/Config/GUIDRV_Template.c **** *       _Off
 755:Drivers/STemWin/Config/GUIDRV_Template.c **** */
 756:Drivers/STemWin/Config/GUIDRV_Template.c **** static void _Off (GUI_DEVICE * pDevice) {
 757:Drivers/STemWin/Config/GUIDRV_Template.c ****   LCD_X_DisplayDriver(pDevice->LayerIndex, LCD_X_OFF, NULL);
 758:Drivers/STemWin/Config/GUIDRV_Template.c **** }
 759:Drivers/STemWin/Config/GUIDRV_Template.c **** 
 760:Drivers/STemWin/Config/GUIDRV_Template.c **** /*********************************************************************
ARM GAS  F:\msys64\tmp\ccgRoccj.s 			page 18


 761:Drivers/STemWin/Config/GUIDRV_Template.c **** *
 762:Drivers/STemWin/Config/GUIDRV_Template.c **** *       _SetLUTEntry
 763:Drivers/STemWin/Config/GUIDRV_Template.c **** */
 764:Drivers/STemWin/Config/GUIDRV_Template.c **** static void _SetLUTEntry(GUI_DEVICE * pDevice, U8 Pos, LCD_COLOR Color) {
 765:Drivers/STemWin/Config/GUIDRV_Template.c ****   LCD_X_SETLUTENTRY_INFO Data = {0};
 766:Drivers/STemWin/Config/GUIDRV_Template.c **** 
 767:Drivers/STemWin/Config/GUIDRV_Template.c ****   Data.Pos   = Pos;
 768:Drivers/STemWin/Config/GUIDRV_Template.c ****   Data.Color = Color;
 769:Drivers/STemWin/Config/GUIDRV_Template.c ****   LCD_X_DisplayDriver(pDevice->LayerIndex, LCD_X_SETLUTENTRY, (void *)&Data);
 770:Drivers/STemWin/Config/GUIDRV_Template.c **** }
 771:Drivers/STemWin/Config/GUIDRV_Template.c **** 
 772:Drivers/STemWin/Config/GUIDRV_Template.c **** /*********************************************************************
 773:Drivers/STemWin/Config/GUIDRV_Template.c **** *
 774:Drivers/STemWin/Config/GUIDRV_Template.c **** *       _GetDevFunc
 775:Drivers/STemWin/Config/GUIDRV_Template.c **** */
 776:Drivers/STemWin/Config/GUIDRV_Template.c **** static void (* _GetDevFunc(GUI_DEVICE ** ppDevice, int Index))(void) {
 216              		.loc 1 776 70 is_stmt 1 view -0
 217              		.cfi_startproc
 218              		@ args = 0, pretend = 0, frame = 0
 219              		@ frame_needed = 0, uses_anonymous_args = 0
 220              		@ link register save eliminated.
 777:Drivers/STemWin/Config/GUIDRV_Template.c ****   GUI_USE_PARA(ppDevice);
 221              		.loc 1 777 3 view .LVU52
 778:Drivers/STemWin/Config/GUIDRV_Template.c ****   switch (Index) {
 222              		.loc 1 778 3 view .LVU53
 223 0000 0939     		subs	r1, r1, #9
 224              	.LVL25:
 225              		.loc 1 778 3 is_stmt 0 view .LVU54
 226 0002 0729     		cmp	r1, #7
 227 0004 11D8     		bhi	.L19
 228 0006 DFE801F0 		tbb	[pc, r1]
 229              	.L21:
 230 000a 04       		.byte	(.L27-.L21)/2
 231 000b 12       		.byte	(.L28-.L21)/2
 232 000c 06       		.byte	(.L25-.L21)/2
 233 000d 08       		.byte	(.L24-.L21)/2
 234 000e 10       		.byte	(.L19-.L21)/2
 235 000f 0A       		.byte	(.L23-.L21)/2
 236 0010 0C       		.byte	(.L22-.L21)/2
 237 0011 0E       		.byte	(.L20-.L21)/2
 238              		.p2align 1
 239              	.L27:
 240 0012 0848     		ldr	r0, .L29
 241              	.LVL26:
 242              		.loc 1 778 3 view .LVU55
 243 0014 7047     		bx	lr
 244              	.LVL27:
 245              	.L25:
 779:Drivers/STemWin/Config/GUIDRV_Template.c ****   case LCD_DEVFUNC_SET_VRAM_ADDR:
 780:Drivers/STemWin/Config/GUIDRV_Template.c ****     return (void (*)(void))_SetVRAMAddr;
 781:Drivers/STemWin/Config/GUIDRV_Template.c ****   case LCD_DEVFUNC_SET_VSIZE:
 782:Drivers/STemWin/Config/GUIDRV_Template.c ****     return (void (*)(void))_SetVSize;
 783:Drivers/STemWin/Config/GUIDRV_Template.c ****   case LCD_DEVFUNC_SET_SIZE:
 784:Drivers/STemWin/Config/GUIDRV_Template.c ****     return (void (*)(void))_SetSize;
 246              		.loc 1 784 5 is_stmt 1 view .LVU56
 247              		.loc 1 784 12 is_stmt 0 view .LVU57
 248 0016 0848     		ldr	r0, .L29+4
ARM GAS  F:\msys64\tmp\ccgRoccj.s 			page 19


 249              	.LVL28:
 250              		.loc 1 784 12 view .LVU58
 251 0018 7047     		bx	lr
 252              	.LVL29:
 253              	.L24:
 785:Drivers/STemWin/Config/GUIDRV_Template.c ****   case LCD_DEVFUNC_INIT:
 786:Drivers/STemWin/Config/GUIDRV_Template.c ****     return (void (*)(void))_Init;
 254              		.loc 1 786 5 is_stmt 1 view .LVU59
 255              		.loc 1 786 12 is_stmt 0 view .LVU60
 256 001a 0848     		ldr	r0, .L29+8
 257              	.LVL30:
 258              		.loc 1 786 12 view .LVU61
 259 001c 7047     		bx	lr
 260              	.LVL31:
 261              	.L23:
 787:Drivers/STemWin/Config/GUIDRV_Template.c ****   case LCD_DEVFUNC_ON:
 788:Drivers/STemWin/Config/GUIDRV_Template.c ****     return (void (*)(void))_On;
 262              		.loc 1 788 5 is_stmt 1 view .LVU62
 263              		.loc 1 788 12 is_stmt 0 view .LVU63
 264 001e 0848     		ldr	r0, .L29+12
 265              	.LVL32:
 266              		.loc 1 788 12 view .LVU64
 267 0020 7047     		bx	lr
 268              	.LVL33:
 269              	.L22:
 789:Drivers/STemWin/Config/GUIDRV_Template.c ****   case LCD_DEVFUNC_OFF:
 790:Drivers/STemWin/Config/GUIDRV_Template.c ****     return (void (*)(void))_Off;
 270              		.loc 1 790 5 is_stmt 1 view .LVU65
 271              		.loc 1 790 12 is_stmt 0 view .LVU66
 272 0022 0848     		ldr	r0, .L29+16
 273              	.LVL34:
 274              		.loc 1 790 12 view .LVU67
 275 0024 7047     		bx	lr
 276              	.LVL35:
 277              	.L20:
 791:Drivers/STemWin/Config/GUIDRV_Template.c ****   case LCD_DEVFUNC_SETLUTENTRY:
 792:Drivers/STemWin/Config/GUIDRV_Template.c ****     return (void (*)(void))_SetLUTEntry;
 278              		.loc 1 792 5 is_stmt 1 view .LVU68
 279              		.loc 1 792 12 is_stmt 0 view .LVU69
 280 0026 0848     		ldr	r0, .L29+20
 281              	.LVL36:
 282              		.loc 1 792 12 view .LVU70
 283 0028 7047     		bx	lr
 284              	.LVL37:
 285              	.L19:
 793:Drivers/STemWin/Config/GUIDRV_Template.c ****   }
 794:Drivers/STemWin/Config/GUIDRV_Template.c ****   return NULL;
 286              		.loc 1 794 3 is_stmt 1 view .LVU71
 287              		.loc 1 794 10 is_stmt 0 view .LVU72
 288 002a 0020     		movs	r0, #0
 289              	.LVL38:
 290              		.loc 1 794 10 view .LVU73
 291 002c 7047     		bx	lr
 292              	.LVL39:
 293              	.L28:
 782:Drivers/STemWin/Config/GUIDRV_Template.c ****   case LCD_DEVFUNC_SET_SIZE:
 294              		.loc 1 782 12 view .LVU74
ARM GAS  F:\msys64\tmp\ccgRoccj.s 			page 20


 295 002e 0748     		ldr	r0, .L29+24
 296              	.LVL40:
 795:Drivers/STemWin/Config/GUIDRV_Template.c **** }
 297              		.loc 1 795 1 view .LVU75
 298 0030 7047     		bx	lr
 299              	.L30:
 300 0032 00BF     		.align	2
 301              	.L29:
 302 0034 00000000 		.word	_SetVRAMAddr
 303 0038 00000000 		.word	_SetSize
 304 003c 00000000 		.word	_Init
 305 0040 00000000 		.word	_On
 306 0044 00000000 		.word	_Off
 307 0048 00000000 		.word	_SetLUTEntry
 308 004c 00000000 		.word	_SetVSize
 309              		.cfi_endproc
 310              	.LFE580:
 312              		.section	.text._SetLUTEntry,"ax",%progbits
 313              		.align	1
 314              		.syntax unified
 315              		.thumb
 316              		.thumb_func
 318              	_SetLUTEntry:
 319              	.LVL41:
 320              	.LFB579:
 764:Drivers/STemWin/Config/GUIDRV_Template.c ****   LCD_X_SETLUTENTRY_INFO Data = {0};
 321              		.loc 1 764 73 is_stmt 1 view -0
 322              		.cfi_startproc
 323              		@ args = 0, pretend = 0, frame = 8
 324              		@ frame_needed = 0, uses_anonymous_args = 0
 764:Drivers/STemWin/Config/GUIDRV_Template.c ****   LCD_X_SETLUTENTRY_INFO Data = {0};
 325              		.loc 1 764 73 is_stmt 0 view .LVU77
 326 0000 00B5     		push	{lr}
 327              	.LCFI0:
 328              		.cfi_def_cfa_offset 4
 329              		.cfi_offset 14, -4
 330 0002 83B0     		sub	sp, sp, #12
 331              	.LCFI1:
 332              		.cfi_def_cfa_offset 16
 765:Drivers/STemWin/Config/GUIDRV_Template.c **** 
 333              		.loc 1 765 3 is_stmt 1 view .LVU78
 765:Drivers/STemWin/Config/GUIDRV_Template.c **** 
 334              		.loc 1 765 26 is_stmt 0 view .LVU79
 335 0004 0023     		movs	r3, #0
 336 0006 0093     		str	r3, [sp]
 337 0008 0193     		str	r3, [sp, #4]
 767:Drivers/STemWin/Config/GUIDRV_Template.c ****   Data.Color = Color;
 338              		.loc 1 767 3 is_stmt 1 view .LVU80
 767:Drivers/STemWin/Config/GUIDRV_Template.c ****   Data.Color = Color;
 339              		.loc 1 767 14 is_stmt 0 view .LVU81
 340 000a 8DF80410 		strb	r1, [sp, #4]
 768:Drivers/STemWin/Config/GUIDRV_Template.c ****   LCD_X_DisplayDriver(pDevice->LayerIndex, LCD_X_SETLUTENTRY, (void *)&Data);
 341              		.loc 1 768 3 is_stmt 1 view .LVU82
 768:Drivers/STemWin/Config/GUIDRV_Template.c ****   LCD_X_DisplayDriver(pDevice->LayerIndex, LCD_X_SETLUTENTRY, (void *)&Data);
 342              		.loc 1 768 14 is_stmt 0 view .LVU83
 343 000e 0092     		str	r2, [sp]
 769:Drivers/STemWin/Config/GUIDRV_Template.c **** }
ARM GAS  F:\msys64\tmp\ccgRoccj.s 			page 21


 344              		.loc 1 769 3 is_stmt 1 view .LVU84
 345 0010 6A46     		mov	r2, sp
 346              	.LVL42:
 769:Drivers/STemWin/Config/GUIDRV_Template.c **** }
 347              		.loc 1 769 3 is_stmt 0 view .LVU85
 348 0012 0421     		movs	r1, #4
 349              	.LVL43:
 769:Drivers/STemWin/Config/GUIDRV_Template.c **** }
 350              		.loc 1 769 3 view .LVU86
 351 0014 8069     		ldr	r0, [r0, #24]
 352              	.LVL44:
 769:Drivers/STemWin/Config/GUIDRV_Template.c **** }
 353              		.loc 1 769 3 view .LVU87
 354 0016 FFF7FEFF 		bl	LCD_X_DisplayDriver
 355              	.LVL45:
 770:Drivers/STemWin/Config/GUIDRV_Template.c **** 
 356              		.loc 1 770 1 view .LVU88
 357 001a 03B0     		add	sp, sp, #12
 358              	.LCFI2:
 359              		.cfi_def_cfa_offset 4
 360              		@ sp needed
 361 001c 5DF804FB 		ldr	pc, [sp], #4
 362              		.cfi_endproc
 363              	.LFE579:
 365              		.section	.text._Off,"ax",%progbits
 366              		.align	1
 367              		.syntax unified
 368              		.thumb
 369              		.thumb_func
 371              	_Off:
 372              	.LVL46:
 373              	.LFB578:
 756:Drivers/STemWin/Config/GUIDRV_Template.c ****   LCD_X_DisplayDriver(pDevice->LayerIndex, LCD_X_OFF, NULL);
 374              		.loc 1 756 41 is_stmt 1 view -0
 375              		.cfi_startproc
 376              		@ args = 0, pretend = 0, frame = 0
 377              		@ frame_needed = 0, uses_anonymous_args = 0
 756:Drivers/STemWin/Config/GUIDRV_Template.c ****   LCD_X_DisplayDriver(pDevice->LayerIndex, LCD_X_OFF, NULL);
 378              		.loc 1 756 41 is_stmt 0 view .LVU90
 379 0000 08B5     		push	{r3, lr}
 380              	.LCFI3:
 381              		.cfi_def_cfa_offset 8
 382              		.cfi_offset 3, -8
 383              		.cfi_offset 14, -4
 757:Drivers/STemWin/Config/GUIDRV_Template.c **** }
 384              		.loc 1 757 3 is_stmt 1 view .LVU91
 385 0002 0022     		movs	r2, #0
 386 0004 0621     		movs	r1, #6
 387 0006 8069     		ldr	r0, [r0, #24]
 388              	.LVL47:
 757:Drivers/STemWin/Config/GUIDRV_Template.c **** }
 389              		.loc 1 757 3 is_stmt 0 view .LVU92
 390 0008 FFF7FEFF 		bl	LCD_X_DisplayDriver
 391              	.LVL48:
 758:Drivers/STemWin/Config/GUIDRV_Template.c **** 
 392              		.loc 1 758 1 view .LVU93
 393 000c 08BD     		pop	{r3, pc}
ARM GAS  F:\msys64\tmp\ccgRoccj.s 			page 22


 394              		.cfi_endproc
 395              	.LFE578:
 397              		.section	.text._On,"ax",%progbits
 398              		.align	1
 399              		.syntax unified
 400              		.thumb
 401              		.thumb_func
 403              	_On:
 404              	.LVL49:
 405              	.LFB577:
 748:Drivers/STemWin/Config/GUIDRV_Template.c ****   LCD_X_DisplayDriver(pDevice->LayerIndex, LCD_X_ON, NULL);
 406              		.loc 1 748 40 is_stmt 1 view -0
 407              		.cfi_startproc
 408              		@ args = 0, pretend = 0, frame = 0
 409              		@ frame_needed = 0, uses_anonymous_args = 0
 748:Drivers/STemWin/Config/GUIDRV_Template.c ****   LCD_X_DisplayDriver(pDevice->LayerIndex, LCD_X_ON, NULL);
 410              		.loc 1 748 40 is_stmt 0 view .LVU95
 411 0000 08B5     		push	{r3, lr}
 412              	.LCFI4:
 413              		.cfi_def_cfa_offset 8
 414              		.cfi_offset 3, -8
 415              		.cfi_offset 14, -4
 749:Drivers/STemWin/Config/GUIDRV_Template.c **** }
 416              		.loc 1 749 3 is_stmt 1 view .LVU96
 417 0002 0022     		movs	r2, #0
 418 0004 0521     		movs	r1, #5
 419 0006 8069     		ldr	r0, [r0, #24]
 420              	.LVL50:
 749:Drivers/STemWin/Config/GUIDRV_Template.c **** }
 421              		.loc 1 749 3 is_stmt 0 view .LVU97
 422 0008 FFF7FEFF 		bl	LCD_X_DisplayDriver
 423              	.LVL51:
 750:Drivers/STemWin/Config/GUIDRV_Template.c **** 
 424              		.loc 1 750 1 view .LVU98
 425 000c 08BD     		pop	{r3, pc}
 426              		.cfi_endproc
 427              	.LFE577:
 429              		.section	.text._SetOrg,"ax",%progbits
 430              		.align	1
 431              		.syntax unified
 432              		.thumb
 433              		.thumb_func
 435              	_SetOrg:
 436              	.LVL52:
 437              	.LFB572:
 666:Drivers/STemWin/Config/GUIDRV_Template.c ****   LCD_X_SETORG_INFO Data = {0};
 438              		.loc 1 666 57 is_stmt 1 view -0
 439              		.cfi_startproc
 440              		@ args = 0, pretend = 0, frame = 8
 441              		@ frame_needed = 0, uses_anonymous_args = 0
 666:Drivers/STemWin/Config/GUIDRV_Template.c ****   LCD_X_SETORG_INFO Data = {0};
 442              		.loc 1 666 57 is_stmt 0 view .LVU100
 443 0000 00B5     		push	{lr}
 444              	.LCFI5:
 445              		.cfi_def_cfa_offset 4
 446              		.cfi_offset 14, -4
 447 0002 83B0     		sub	sp, sp, #12
ARM GAS  F:\msys64\tmp\ccgRoccj.s 			page 23


 448              	.LCFI6:
 449              		.cfi_def_cfa_offset 16
 667:Drivers/STemWin/Config/GUIDRV_Template.c **** 
 450              		.loc 1 667 3 is_stmt 1 view .LVU101
 667:Drivers/STemWin/Config/GUIDRV_Template.c **** 
 451              		.loc 1 667 21 is_stmt 0 view .LVU102
 452 0004 0023     		movs	r3, #0
 453 0006 0093     		str	r3, [sp]
 454 0008 0193     		str	r3, [sp, #4]
 669:Drivers/STemWin/Config/GUIDRV_Template.c ****   Data.yPos = y;
 455              		.loc 1 669 3 is_stmt 1 view .LVU103
 669:Drivers/STemWin/Config/GUIDRV_Template.c ****   Data.yPos = y;
 456              		.loc 1 669 13 is_stmt 0 view .LVU104
 457 000a 0091     		str	r1, [sp]
 670:Drivers/STemWin/Config/GUIDRV_Template.c ****   LCD_X_DisplayDriver(pDevice->LayerIndex, LCD_X_SETORG, (void *)&Data);
 458              		.loc 1 670 3 is_stmt 1 view .LVU105
 670:Drivers/STemWin/Config/GUIDRV_Template.c ****   LCD_X_DisplayDriver(pDevice->LayerIndex, LCD_X_SETORG, (void *)&Data);
 459              		.loc 1 670 13 is_stmt 0 view .LVU106
 460 000c 0192     		str	r2, [sp, #4]
 671:Drivers/STemWin/Config/GUIDRV_Template.c **** }
 461              		.loc 1 671 3 is_stmt 1 view .LVU107
 462 000e 6A46     		mov	r2, sp
 463              	.LVL53:
 671:Drivers/STemWin/Config/GUIDRV_Template.c **** }
 464              		.loc 1 671 3 is_stmt 0 view .LVU108
 465 0010 0321     		movs	r1, #3
 466              	.LVL54:
 671:Drivers/STemWin/Config/GUIDRV_Template.c **** }
 467              		.loc 1 671 3 view .LVU109
 468 0012 8069     		ldr	r0, [r0, #24]
 469              	.LVL55:
 671:Drivers/STemWin/Config/GUIDRV_Template.c **** }
 470              		.loc 1 671 3 view .LVU110
 471 0014 FFF7FEFF 		bl	LCD_X_DisplayDriver
 472              	.LVL56:
 672:Drivers/STemWin/Config/GUIDRV_Template.c **** 
 473              		.loc 1 672 1 view .LVU111
 474 0018 03B0     		add	sp, sp, #12
 475              	.LCFI7:
 476              		.cfi_def_cfa_offset 4
 477              		@ sp needed
 478 001a 5DF804FB 		ldr	pc, [sp], #4
 479              		.cfi_endproc
 480              	.LFE572:
 482              		.section	.text._InitOnce,"ax",%progbits
 483              		.align	1
 484              		.syntax unified
 485              		.thumb
 486              		.thumb_func
 488              	_InitOnce:
 489              	.LVL57:
 490              	.LFB568:
 585:Drivers/STemWin/Config/GUIDRV_Template.c ****   DRIVER_CONTEXT_TEMPLATE * pContext;
 491              		.loc 1 585 44 is_stmt 1 view -0
 492              		.cfi_startproc
 493              		@ args = 0, pretend = 0, frame = 0
 494              		@ frame_needed = 0, uses_anonymous_args = 0
ARM GAS  F:\msys64\tmp\ccgRoccj.s 			page 24


 585:Drivers/STemWin/Config/GUIDRV_Template.c ****   DRIVER_CONTEXT_TEMPLATE * pContext;
 495              		.loc 1 585 44 is_stmt 0 view .LVU113
 496 0000 38B5     		push	{r3, r4, r5, lr}
 497              	.LCFI8:
 498              		.cfi_def_cfa_offset 16
 499              		.cfi_offset 3, -16
 500              		.cfi_offset 4, -12
 501              		.cfi_offset 5, -8
 502              		.cfi_offset 14, -4
 503 0002 0446     		mov	r4, r0
 586:Drivers/STemWin/Config/GUIDRV_Template.c **** 
 504              		.loc 1 586 3 is_stmt 1 view .LVU114
 588:Drivers/STemWin/Config/GUIDRV_Template.c ****     pDevice->u.pContext = GUI_ALLOC_GetFixedBlock(sizeof(DRIVER_CONTEXT_TEMPLATE));
 505              		.loc 1 588 3 view .LVU115
 588:Drivers/STemWin/Config/GUIDRV_Template.c ****     pDevice->u.pContext = GUI_ALLOC_GetFixedBlock(sizeof(DRIVER_CONTEXT_TEMPLATE));
 506              		.loc 1 588 17 is_stmt 0 view .LVU116
 507 0004 8368     		ldr	r3, [r0, #8]
 588:Drivers/STemWin/Config/GUIDRV_Template.c ****     pDevice->u.pContext = GUI_ALLOC_GetFixedBlock(sizeof(DRIVER_CONTEXT_TEMPLATE));
 508              		.loc 1 588 6 view .LVU117
 509 0006 23B1     		cbz	r3, .L42
 510              	.LVL58:
 511              	.L40:
 593:Drivers/STemWin/Config/GUIDRV_Template.c **** }
 512              		.loc 1 593 3 is_stmt 1 view .LVU118
 593:Drivers/STemWin/Config/GUIDRV_Template.c **** }
 513              		.loc 1 593 20 is_stmt 0 view .LVU119
 514 0008 A068     		ldr	r0, [r4, #8]
 594:Drivers/STemWin/Config/GUIDRV_Template.c **** 
 515              		.loc 1 594 1 view .LVU120
 516 000a B0FA80F0 		clz	r0, r0
 517 000e 4009     		lsrs	r0, r0, #5
 518 0010 38BD     		pop	{r3, r4, r5, pc}
 519              	.LVL59:
 520              	.L42:
 589:Drivers/STemWin/Config/GUIDRV_Template.c ****     pContext = (DRIVER_CONTEXT_TEMPLATE *)pDevice->u.pContext;
 521              		.loc 1 589 5 is_stmt 1 view .LVU121
 589:Drivers/STemWin/Config/GUIDRV_Template.c ****     pContext = (DRIVER_CONTEXT_TEMPLATE *)pDevice->u.pContext;
 522              		.loc 1 589 27 is_stmt 0 view .LVU122
 523 0012 1C20     		movs	r0, #28
 524              	.LVL60:
 589:Drivers/STemWin/Config/GUIDRV_Template.c ****     pContext = (DRIVER_CONTEXT_TEMPLATE *)pDevice->u.pContext;
 525              		.loc 1 589 27 view .LVU123
 526 0014 FFF7FEFF 		bl	GUI_ALLOC_GetFixedBlock
 527              	.LVL61:
 528 0018 0546     		mov	r5, r0
 589:Drivers/STemWin/Config/GUIDRV_Template.c ****     pContext = (DRIVER_CONTEXT_TEMPLATE *)pDevice->u.pContext;
 529              		.loc 1 589 25 view .LVU124
 530 001a A060     		str	r0, [r4, #8]
 590:Drivers/STemWin/Config/GUIDRV_Template.c ****     pContext->BitsPerPixel = LCD__GetBPP(pDevice->pColorConvAPI->pfGetIndexMask());
 531              		.loc 1 590 5 is_stmt 1 view .LVU125
 532              	.LVL62:
 591:Drivers/STemWin/Config/GUIDRV_Template.c ****   }
 533              		.loc 1 591 5 view .LVU126
 591:Drivers/STemWin/Config/GUIDRV_Template.c ****   }
 534              		.loc 1 591 49 is_stmt 0 view .LVU127
 535 001c 2369     		ldr	r3, [r4, #16]
 591:Drivers/STemWin/Config/GUIDRV_Template.c ****   }
ARM GAS  F:\msys64\tmp\ccgRoccj.s 			page 25


 536              		.loc 1 591 64 view .LVU128
 537 001e 9B68     		ldr	r3, [r3, #8]
 591:Drivers/STemWin/Config/GUIDRV_Template.c ****   }
 538              		.loc 1 591 30 view .LVU129
 539 0020 9847     		blx	r3
 540              	.LVL63:
 591:Drivers/STemWin/Config/GUIDRV_Template.c ****   }
 541              		.loc 1 591 30 view .LVU130
 542 0022 FFF7FEFF 		bl	LCD__GetBPP
 543              	.LVL64:
 591:Drivers/STemWin/Config/GUIDRV_Template.c ****   }
 544              		.loc 1 591 28 view .LVU131
 545 0026 A861     		str	r0, [r5, #24]
 546 0028 EEE7     		b	.L40
 547              		.cfi_endproc
 548              	.LFE568:
 550              		.section	.text._Init,"ax",%progbits
 551              		.align	1
 552              		.syntax unified
 553              		.thumb
 554              		.thumb_func
 556              	_Init:
 557              	.LVL65:
 558              	.LFB576:
 736:Drivers/STemWin/Config/GUIDRV_Template.c ****   int r;
 559              		.loc 1 736 41 is_stmt 1 view -0
 560              		.cfi_startproc
 561              		@ args = 0, pretend = 0, frame = 0
 562              		@ frame_needed = 0, uses_anonymous_args = 0
 736:Drivers/STemWin/Config/GUIDRV_Template.c ****   int r;
 563              		.loc 1 736 41 is_stmt 0 view .LVU133
 564 0000 38B5     		push	{r3, r4, r5, lr}
 565              	.LCFI9:
 566              		.cfi_def_cfa_offset 16
 567              		.cfi_offset 3, -16
 568              		.cfi_offset 4, -12
 569              		.cfi_offset 5, -8
 570              		.cfi_offset 14, -4
 571 0002 0546     		mov	r5, r0
 737:Drivers/STemWin/Config/GUIDRV_Template.c **** 
 572              		.loc 1 737 3 is_stmt 1 view .LVU134
 739:Drivers/STemWin/Config/GUIDRV_Template.c ****   r |= LCD_X_DisplayDriver(pDevice->LayerIndex, LCD_X_INITCONTROLLER, NULL);
 573              		.loc 1 739 3 view .LVU135
 739:Drivers/STemWin/Config/GUIDRV_Template.c ****   r |= LCD_X_DisplayDriver(pDevice->LayerIndex, LCD_X_INITCONTROLLER, NULL);
 574              		.loc 1 739 7 is_stmt 0 view .LVU136
 575 0004 FFF7FEFF 		bl	_InitOnce
 576              	.LVL66:
 739:Drivers/STemWin/Config/GUIDRV_Template.c ****   r |= LCD_X_DisplayDriver(pDevice->LayerIndex, LCD_X_INITCONTROLLER, NULL);
 577              		.loc 1 739 7 view .LVU137
 578 0008 0446     		mov	r4, r0
 579              	.LVL67:
 740:Drivers/STemWin/Config/GUIDRV_Template.c ****   return r;
 580              		.loc 1 740 3 is_stmt 1 view .LVU138
 740:Drivers/STemWin/Config/GUIDRV_Template.c ****   return r;
 581              		.loc 1 740 8 is_stmt 0 view .LVU139
 582 000a 0022     		movs	r2, #0
 583 000c 0121     		movs	r1, #1
ARM GAS  F:\msys64\tmp\ccgRoccj.s 			page 26


 584 000e A869     		ldr	r0, [r5, #24]
 585              	.LVL68:
 740:Drivers/STemWin/Config/GUIDRV_Template.c ****   return r;
 586              		.loc 1 740 8 view .LVU140
 587 0010 FFF7FEFF 		bl	LCD_X_DisplayDriver
 588              	.LVL69:
 741:Drivers/STemWin/Config/GUIDRV_Template.c **** }
 589              		.loc 1 741 3 is_stmt 1 view .LVU141
 742:Drivers/STemWin/Config/GUIDRV_Template.c **** 
 590              		.loc 1 742 1 is_stmt 0 view .LVU142
 591 0014 2043     		orrs	r0, r0, r4
 592              	.LVL70:
 742:Drivers/STemWin/Config/GUIDRV_Template.c **** 
 593              		.loc 1 742 1 view .LVU143
 594 0016 38BD     		pop	{r3, r4, r5, pc}
 742:Drivers/STemWin/Config/GUIDRV_Template.c **** 
 595              		.loc 1 742 1 view .LVU144
 596              		.cfi_endproc
 597              	.LFE576:
 599              		.section	.text._SetSize,"ax",%progbits
 600              		.align	1
 601              		.syntax unified
 602              		.thumb
 603              		.thumb_func
 605              	_SetSize:
 606              	.LVL71:
 607              	.LFB575:
 717:Drivers/STemWin/Config/GUIDRV_Template.c ****   DRIVER_CONTEXT_TEMPLATE * pContext;
 608              		.loc 1 717 66 is_stmt 1 view -0
 609              		.cfi_startproc
 610              		@ args = 0, pretend = 0, frame = 8
 611              		@ frame_needed = 0, uses_anonymous_args = 0
 717:Drivers/STemWin/Config/GUIDRV_Template.c ****   DRIVER_CONTEXT_TEMPLATE * pContext;
 612              		.loc 1 717 66 is_stmt 0 view .LVU146
 613 0000 70B5     		push	{r4, r5, r6, lr}
 614              	.LCFI10:
 615              		.cfi_def_cfa_offset 16
 616              		.cfi_offset 4, -16
 617              		.cfi_offset 5, -12
 618              		.cfi_offset 6, -8
 619              		.cfi_offset 14, -4
 620 0002 82B0     		sub	sp, sp, #8
 621              	.LCFI11:
 622              		.cfi_def_cfa_offset 24
 623 0004 0546     		mov	r5, r0
 624 0006 0C46     		mov	r4, r1
 625 0008 1646     		mov	r6, r2
 718:Drivers/STemWin/Config/GUIDRV_Template.c ****   LCD_X_SETSIZE_INFO Data = {0};
 626              		.loc 1 718 3 is_stmt 1 view .LVU147
 719:Drivers/STemWin/Config/GUIDRV_Template.c **** 
 627              		.loc 1 719 3 view .LVU148
 719:Drivers/STemWin/Config/GUIDRV_Template.c **** 
 628              		.loc 1 719 22 is_stmt 0 view .LVU149
 629 000a 0023     		movs	r3, #0
 630 000c 0093     		str	r3, [sp]
 631 000e 0193     		str	r3, [sp, #4]
 721:Drivers/STemWin/Config/GUIDRV_Template.c ****   if (pDevice->u.pContext) {
ARM GAS  F:\msys64\tmp\ccgRoccj.s 			page 27


 632              		.loc 1 721 3 is_stmt 1 view .LVU150
 633 0010 FFF7FEFF 		bl	_InitOnce
 634              	.LVL72:
 722:Drivers/STemWin/Config/GUIDRV_Template.c ****     pContext = (DRIVER_CONTEXT_TEMPLATE *)pDevice->u.pContext;
 635              		.loc 1 722 3 view .LVU151
 722:Drivers/STemWin/Config/GUIDRV_Template.c ****     pContext = (DRIVER_CONTEXT_TEMPLATE *)pDevice->u.pContext;
 636              		.loc 1 722 17 is_stmt 0 view .LVU152
 637 0014 AB68     		ldr	r3, [r5, #8]
 722:Drivers/STemWin/Config/GUIDRV_Template.c ****     pContext = (DRIVER_CONTEXT_TEMPLATE *)pDevice->u.pContext;
 638              		.loc 1 722 6 view .LVU153
 639 0016 63B1     		cbz	r3, .L45
 723:Drivers/STemWin/Config/GUIDRV_Template.c ****     pContext->vxSizePhys = (pContext->vxSizePhys == 0) ? xSize : pContext->vxSizePhys;
 640              		.loc 1 723 5 is_stmt 1 view .LVU154
 641              	.LVL73:
 724:Drivers/STemWin/Config/GUIDRV_Template.c ****     pContext->xSize = xSize;
 642              		.loc 1 724 5 view .LVU155
 724:Drivers/STemWin/Config/GUIDRV_Template.c ****     pContext->xSize = xSize;
 643              		.loc 1 724 37 is_stmt 0 view .LVU156
 644 0018 5A69     		ldr	r2, [r3, #20]
 724:Drivers/STemWin/Config/GUIDRV_Template.c ****     pContext->xSize = xSize;
 645              		.loc 1 724 64 view .LVU157
 646 001a 02B9     		cbnz	r2, .L47
 647 001c 2246     		mov	r2, r4
 648              	.L47:
 724:Drivers/STemWin/Config/GUIDRV_Template.c ****     pContext->xSize = xSize;
 649              		.loc 1 724 26 discriminator 4 view .LVU158
 650 001e 5A61     		str	r2, [r3, #20]
 725:Drivers/STemWin/Config/GUIDRV_Template.c ****     pContext->ySize = ySize;
 651              		.loc 1 725 5 is_stmt 1 discriminator 4 view .LVU159
 725:Drivers/STemWin/Config/GUIDRV_Template.c ****     pContext->ySize = ySize;
 652              		.loc 1 725 21 is_stmt 0 discriminator 4 view .LVU160
 653 0020 5C60     		str	r4, [r3, #4]
 726:Drivers/STemWin/Config/GUIDRV_Template.c ****     Data.xSize = xSize;
 654              		.loc 1 726 5 is_stmt 1 discriminator 4 view .LVU161
 726:Drivers/STemWin/Config/GUIDRV_Template.c ****     Data.xSize = xSize;
 655              		.loc 1 726 21 is_stmt 0 discriminator 4 view .LVU162
 656 0022 9E60     		str	r6, [r3, #8]
 727:Drivers/STemWin/Config/GUIDRV_Template.c ****     Data.ySize = ySize;
 657              		.loc 1 727 5 is_stmt 1 discriminator 4 view .LVU163
 727:Drivers/STemWin/Config/GUIDRV_Template.c ****     Data.ySize = ySize;
 658              		.loc 1 727 16 is_stmt 0 discriminator 4 view .LVU164
 659 0024 0094     		str	r4, [sp]
 728:Drivers/STemWin/Config/GUIDRV_Template.c ****     LCD_X_DisplayDriver(pDevice->LayerIndex, LCD_X_SETSIZE, (void *)&Data);
 660              		.loc 1 728 5 is_stmt 1 discriminator 4 view .LVU165
 728:Drivers/STemWin/Config/GUIDRV_Template.c ****     LCD_X_DisplayDriver(pDevice->LayerIndex, LCD_X_SETSIZE, (void *)&Data);
 661              		.loc 1 728 16 is_stmt 0 discriminator 4 view .LVU166
 662 0026 0196     		str	r6, [sp, #4]
 729:Drivers/STemWin/Config/GUIDRV_Template.c ****   }
 663              		.loc 1 729 5 is_stmt 1 discriminator 4 view .LVU167
 664 0028 6A46     		mov	r2, sp
 665 002a 0721     		movs	r1, #7
 666 002c A869     		ldr	r0, [r5, #24]
 667 002e FFF7FEFF 		bl	LCD_X_DisplayDriver
 668              	.LVL74:
 669              	.L45:
 731:Drivers/STemWin/Config/GUIDRV_Template.c **** /*********************************************************************
 670              		.loc 1 731 1 is_stmt 0 view .LVU168
ARM GAS  F:\msys64\tmp\ccgRoccj.s 			page 28


 671 0032 02B0     		add	sp, sp, #8
 672              	.LCFI12:
 673              		.cfi_def_cfa_offset 16
 674              		@ sp needed
 675 0034 70BD     		pop	{r4, r5, r6, pc}
 731:Drivers/STemWin/Config/GUIDRV_Template.c **** /*********************************************************************
 676              		.loc 1 731 1 view .LVU169
 677              		.cfi_endproc
 678              	.LFE575:
 680              		.section	.text._SetVSize,"ax",%progbits
 681              		.align	1
 682              		.syntax unified
 683              		.thumb
 684              		.thumb_func
 686              	_SetVSize:
 687              	.LVL75:
 688              	.LFB574:
 701:Drivers/STemWin/Config/GUIDRV_Template.c ****   DRIVER_CONTEXT_TEMPLATE * pContext;
 689              		.loc 1 701 67 is_stmt 1 view -0
 690              		.cfi_startproc
 691              		@ args = 0, pretend = 0, frame = 0
 692              		@ frame_needed = 0, uses_anonymous_args = 0
 701:Drivers/STemWin/Config/GUIDRV_Template.c ****   DRIVER_CONTEXT_TEMPLATE * pContext;
 693              		.loc 1 701 67 is_stmt 0 view .LVU171
 694 0000 70B5     		push	{r4, r5, r6, lr}
 695              	.LCFI13:
 696              		.cfi_def_cfa_offset 16
 697              		.cfi_offset 4, -16
 698              		.cfi_offset 5, -12
 699              		.cfi_offset 6, -8
 700              		.cfi_offset 14, -4
 701 0002 0546     		mov	r5, r0
 702 0004 0C46     		mov	r4, r1
 703 0006 1646     		mov	r6, r2
 702:Drivers/STemWin/Config/GUIDRV_Template.c **** 
 704              		.loc 1 702 3 is_stmt 1 view .LVU172
 704:Drivers/STemWin/Config/GUIDRV_Template.c ****   if (pDevice->u.pContext) {
 705              		.loc 1 704 3 view .LVU173
 706 0008 FFF7FEFF 		bl	_InitOnce
 707              	.LVL76:
 705:Drivers/STemWin/Config/GUIDRV_Template.c ****     pContext = (DRIVER_CONTEXT_TEMPLATE *)pDevice->u.pContext;
 708              		.loc 1 705 3 view .LVU174
 705:Drivers/STemWin/Config/GUIDRV_Template.c ****     pContext = (DRIVER_CONTEXT_TEMPLATE *)pDevice->u.pContext;
 709              		.loc 1 705 17 is_stmt 0 view .LVU175
 710 000c AB68     		ldr	r3, [r5, #8]
 705:Drivers/STemWin/Config/GUIDRV_Template.c ****     pContext = (DRIVER_CONTEXT_TEMPLATE *)pDevice->u.pContext;
 711              		.loc 1 705 6 view .LVU176
 712 000e 13B1     		cbz	r3, .L49
 706:Drivers/STemWin/Config/GUIDRV_Template.c ****     pContext->vxSize = xSize;
 713              		.loc 1 706 5 is_stmt 1 view .LVU177
 714              	.LVL77:
 707:Drivers/STemWin/Config/GUIDRV_Template.c ****     pContext->vySize = ySize;
 715              		.loc 1 707 5 view .LVU178
 707:Drivers/STemWin/Config/GUIDRV_Template.c ****     pContext->vySize = ySize;
 716              		.loc 1 707 22 is_stmt 0 view .LVU179
 717 0010 DC60     		str	r4, [r3, #12]
 708:Drivers/STemWin/Config/GUIDRV_Template.c ****     pContext->vxSizePhys = xSize;
ARM GAS  F:\msys64\tmp\ccgRoccj.s 			page 29


 718              		.loc 1 708 5 is_stmt 1 view .LVU180
 708:Drivers/STemWin/Config/GUIDRV_Template.c ****     pContext->vxSizePhys = xSize;
 719              		.loc 1 708 22 is_stmt 0 view .LVU181
 720 0012 1E61     		str	r6, [r3, #16]
 709:Drivers/STemWin/Config/GUIDRV_Template.c ****   }
 721              		.loc 1 709 5 is_stmt 1 view .LVU182
 709:Drivers/STemWin/Config/GUIDRV_Template.c ****   }
 722              		.loc 1 709 26 is_stmt 0 view .LVU183
 723 0014 5C61     		str	r4, [r3, #20]
 724              	.LVL78:
 725              	.L49:
 711:Drivers/STemWin/Config/GUIDRV_Template.c **** 
 726              		.loc 1 711 1 view .LVU184
 727 0016 70BD     		pop	{r4, r5, r6, pc}
 711:Drivers/STemWin/Config/GUIDRV_Template.c **** 
 728              		.loc 1 711 1 view .LVU185
 729              		.cfi_endproc
 730              	.LFE574:
 732              		.section	.text._SetVRAMAddr,"ax",%progbits
 733              		.align	1
 734              		.syntax unified
 735              		.thumb
 736              		.thumb_func
 738              	_SetVRAMAddr:
 739              	.LVL79:
 740              	.LFB573:
 684:Drivers/STemWin/Config/GUIDRV_Template.c ****   DRIVER_CONTEXT_TEMPLATE * pContext;
 741              		.loc 1 684 62 is_stmt 1 view -0
 742              		.cfi_startproc
 743              		@ args = 0, pretend = 0, frame = 8
 744              		@ frame_needed = 0, uses_anonymous_args = 0
 684:Drivers/STemWin/Config/GUIDRV_Template.c ****   DRIVER_CONTEXT_TEMPLATE * pContext;
 745              		.loc 1 684 62 is_stmt 0 view .LVU187
 746 0000 30B5     		push	{r4, r5, lr}
 747              	.LCFI14:
 748              		.cfi_def_cfa_offset 12
 749              		.cfi_offset 4, -12
 750              		.cfi_offset 5, -8
 751              		.cfi_offset 14, -4
 752 0002 83B0     		sub	sp, sp, #12
 753              	.LCFI15:
 754              		.cfi_def_cfa_offset 24
 755 0004 0446     		mov	r4, r0
 756 0006 0D46     		mov	r5, r1
 685:Drivers/STemWin/Config/GUIDRV_Template.c ****   LCD_X_SETVRAMADDR_INFO Data = {0};
 757              		.loc 1 685 3 is_stmt 1 view .LVU188
 686:Drivers/STemWin/Config/GUIDRV_Template.c **** 
 758              		.loc 1 686 3 view .LVU189
 686:Drivers/STemWin/Config/GUIDRV_Template.c **** 
 759              		.loc 1 686 26 is_stmt 0 view .LVU190
 760 0008 0023     		movs	r3, #0
 761 000a 0193     		str	r3, [sp, #4]
 688:Drivers/STemWin/Config/GUIDRV_Template.c ****   if (pDevice->u.pContext) {
 762              		.loc 1 688 3 is_stmt 1 view .LVU191
 763 000c FFF7FEFF 		bl	_InitOnce
 764              	.LVL80:
 689:Drivers/STemWin/Config/GUIDRV_Template.c ****     pContext = (DRIVER_CONTEXT_TEMPLATE *)pDevice->u.pContext;
ARM GAS  F:\msys64\tmp\ccgRoccj.s 			page 30


 765              		.loc 1 689 3 view .LVU192
 689:Drivers/STemWin/Config/GUIDRV_Template.c ****     pContext = (DRIVER_CONTEXT_TEMPLATE *)pDevice->u.pContext;
 766              		.loc 1 689 17 is_stmt 0 view .LVU193
 767 0010 A368     		ldr	r3, [r4, #8]
 689:Drivers/STemWin/Config/GUIDRV_Template.c ****     pContext = (DRIVER_CONTEXT_TEMPLATE *)pDevice->u.pContext;
 768              		.loc 1 689 6 view .LVU194
 769 0012 33B1     		cbz	r3, .L52
 690:Drivers/STemWin/Config/GUIDRV_Template.c ****     pContext->VRAMAddr = (U32)pVRAM;
 770              		.loc 1 690 5 is_stmt 1 view .LVU195
 771              	.LVL81:
 691:Drivers/STemWin/Config/GUIDRV_Template.c ****     Data.pVRAM = pVRAM;
 772              		.loc 1 691 5 view .LVU196
 691:Drivers/STemWin/Config/GUIDRV_Template.c ****     Data.pVRAM = pVRAM;
 773              		.loc 1 691 24 is_stmt 0 view .LVU197
 774 0014 1D60     		str	r5, [r3]
 692:Drivers/STemWin/Config/GUIDRV_Template.c ****     LCD_X_DisplayDriver(pDevice->LayerIndex, LCD_X_SETVRAMADDR, (void *)&Data);
 775              		.loc 1 692 5 is_stmt 1 view .LVU198
 692:Drivers/STemWin/Config/GUIDRV_Template.c ****     LCD_X_DisplayDriver(pDevice->LayerIndex, LCD_X_SETVRAMADDR, (void *)&Data);
 776              		.loc 1 692 16 is_stmt 0 view .LVU199
 777 0016 0195     		str	r5, [sp, #4]
 693:Drivers/STemWin/Config/GUIDRV_Template.c ****   }
 778              		.loc 1 693 5 is_stmt 1 view .LVU200
 779 0018 01AA     		add	r2, sp, #4
 780 001a 0221     		movs	r1, #2
 781 001c A069     		ldr	r0, [r4, #24]
 782 001e FFF7FEFF 		bl	LCD_X_DisplayDriver
 783              	.LVL82:
 784              	.L52:
 695:Drivers/STemWin/Config/GUIDRV_Template.c **** 
 785              		.loc 1 695 1 is_stmt 0 view .LVU201
 786 0022 03B0     		add	sp, sp, #12
 787              	.LCFI16:
 788              		.cfi_def_cfa_offset 12
 789              		@ sp needed
 790 0024 30BD     		pop	{r4, r5, pc}
 695:Drivers/STemWin/Config/GUIDRV_Template.c **** 
 791              		.loc 1 695 1 view .LVU202
 792              		.cfi_endproc
 793              	.LFE573:
 795              		.section	.text._SetPixelIndex,"ax",%progbits
 796              		.align	1
 797              		.syntax unified
 798              		.thumb
 799              		.thumb_func
 801              	_SetPixelIndex:
 802              	.LVL83:
 803              	.LFB555:
 135:Drivers/STemWin/Config/GUIDRV_Template.c ****     //
 804              		.loc 1 135 90 is_stmt 1 view -0
 805              		.cfi_startproc
 806              		@ args = 0, pretend = 0, frame = 0
 807              		@ frame_needed = 0, uses_anonymous_args = 0
 135:Drivers/STemWin/Config/GUIDRV_Template.c ****     //
 808              		.loc 1 135 90 is_stmt 0 view .LVU204
 809 0000 08B5     		push	{r3, lr}
 810              	.LCFI17:
 811              		.cfi_def_cfa_offset 8
ARM GAS  F:\msys64\tmp\ccgRoccj.s 			page 31


 812              		.cfi_offset 3, -8
 813              		.cfi_offset 14, -4
 814 0002 0846     		mov	r0, r1
 815              	.LVL84:
 135:Drivers/STemWin/Config/GUIDRV_Template.c ****     //
 816              		.loc 1 135 90 view .LVU205
 817 0004 1146     		mov	r1, r2
 818              	.LVL85:
 148:Drivers/STemWin/Config/GUIDRV_Template.c ****     GUI_USE_PARA(x);
 819              		.loc 1 148 5 is_stmt 1 view .LVU206
 149:Drivers/STemWin/Config/GUIDRV_Template.c ****     GUI_USE_PARA(y);
 820              		.loc 1 149 5 view .LVU207
 150:Drivers/STemWin/Config/GUIDRV_Template.c ****     GUI_USE_PARA(PixelIndex);
 821              		.loc 1 150 5 view .LVU208
 151:Drivers/STemWin/Config/GUIDRV_Template.c ****     {
 822              		.loc 1 151 5 view .LVU209
 158:Drivers/STemWin/Config/GUIDRV_Template.c ****     }
 823              		.loc 1 158 4 view .LVU210
 824 0006 9AB2     		uxth	r2, r3
 825              	.LVL86:
 158:Drivers/STemWin/Config/GUIDRV_Template.c ****     }
 826              		.loc 1 158 4 is_stmt 0 view .LVU211
 827 0008 89B2     		uxth	r1, r1
 828              	.LVL87:
 158:Drivers/STemWin/Config/GUIDRV_Template.c ****     }
 829              		.loc 1 158 4 view .LVU212
 830 000a 80B2     		uxth	r0, r0
 831              	.LVL88:
 158:Drivers/STemWin/Config/GUIDRV_Template.c ****     }
 832              		.loc 1 158 4 view .LVU213
 833 000c FFF7FEFF 		bl	DrawPixel
 834              	.LVL89:
 164:Drivers/STemWin/Config/GUIDRV_Template.c **** 
 835              		.loc 1 164 1 view .LVU214
 836 0010 08BD     		pop	{r3, pc}
 837              		.cfi_endproc
 838              	.LFE555:
 840              		.section	.text._DrawBitLine2BPP,"ax",%progbits
 841              		.align	1
 842              		.syntax unified
 843              		.thumb
 844              		.thumb_func
 846              	_DrawBitLine2BPP:
 847              	.LVL90:
 848              	.LFB562:
 315:Drivers/STemWin/Config/GUIDRV_Template.c ****   LCD_PIXELINDEX Pixels, PixelIndex;
 849              		.loc 1 315 145 is_stmt 1 view -0
 850              		.cfi_startproc
 851              		@ args = 12, pretend = 0, frame = 0
 852              		@ frame_needed = 0, uses_anonymous_args = 0
 315:Drivers/STemWin/Config/GUIDRV_Template.c ****   LCD_PIXELINDEX Pixels, PixelIndex;
 853              		.loc 1 315 145 is_stmt 0 view .LVU216
 854 0000 2DE9F84F 		push	{r3, r4, r5, r6, r7, r8, r9, r10, fp, lr}
 855              	.LCFI18:
 856              		.cfi_def_cfa_offset 40
 857              		.cfi_offset 3, -40
 858              		.cfi_offset 4, -36
ARM GAS  F:\msys64\tmp\ccgRoccj.s 			page 32


 859              		.cfi_offset 5, -32
 860              		.cfi_offset 6, -28
 861              		.cfi_offset 7, -24
 862              		.cfi_offset 8, -20
 863              		.cfi_offset 9, -16
 864              		.cfi_offset 10, -12
 865              		.cfi_offset 11, -8
 866              		.cfi_offset 14, -4
 867 0004 8146     		mov	r9, r0
 868 0006 9246     		mov	r10, r2
 869 0008 1F46     		mov	r7, r3
 870 000a 0A9C     		ldr	r4, [sp, #40]
 871 000c 0B9D     		ldr	r5, [sp, #44]
 872 000e DDF830B0 		ldr	fp, [sp, #48]
 316:Drivers/STemWin/Config/GUIDRV_Template.c ****   int CurrentPixel, Shift, Index;
 873              		.loc 1 316 3 is_stmt 1 view .LVU217
 317:Drivers/STemWin/Config/GUIDRV_Template.c **** 
 874              		.loc 1 317 3 view .LVU218
 319:Drivers/STemWin/Config/GUIDRV_Template.c ****   CurrentPixel = Diff;
 875              		.loc 1 319 3 view .LVU219
 319:Drivers/STemWin/Config/GUIDRV_Template.c ****   CurrentPixel = Diff;
 876              		.loc 1 319 12 is_stmt 0 view .LVU220
 877 0012 93F80080 		ldrb	r8, [r3]	@ zero_extendqisi2
 878              	.LVL91:
 320:Drivers/STemWin/Config/GUIDRV_Template.c ****   x += Diff;
 879              		.loc 1 320 3 is_stmt 1 view .LVU221
 321:Drivers/STemWin/Config/GUIDRV_Template.c ****   switch (GUI_pContext->DrawMode & (LCD_DRAWMODE_TRANS | LCD_DRAWMODE_XOR)) {
 880              		.loc 1 321 3 view .LVU222
 321:Drivers/STemWin/Config/GUIDRV_Template.c ****   switch (GUI_pContext->DrawMode & (LCD_DRAWMODE_TRANS | LCD_DRAWMODE_XOR)) {
 881              		.loc 1 321 5 is_stmt 0 view .LVU223
 882 0016 6618     		adds	r6, r4, r1
 883              	.LVL92:
 322:Drivers/STemWin/Config/GUIDRV_Template.c ****   case 0:
 884              		.loc 1 322 3 is_stmt 1 view .LVU224
 322:Drivers/STemWin/Config/GUIDRV_Template.c ****   case 0:
 885              		.loc 1 322 23 is_stmt 0 view .LVU225
 886 0018 404B     		ldr	r3, .L74
 887              	.LVL93:
 322:Drivers/STemWin/Config/GUIDRV_Template.c ****   case 0:
 888              		.loc 1 322 23 view .LVU226
 889 001a 1B68     		ldr	r3, [r3]
 890 001c 1B7C     		ldrb	r3, [r3, #16]	@ zero_extendqisi2
 322:Drivers/STemWin/Config/GUIDRV_Template.c ****   case 0:
 891              		.loc 1 322 3 view .LVU227
 892 001e 13F00303 		ands	r3, r3, #3
 893 0022 03D0     		beq	.L58
 894 0024 022B     		cmp	r3, #2
 895 0026 3BD0     		beq	.L59
 896              	.LVL94:
 897              	.L57:
 378:Drivers/STemWin/Config/GUIDRV_Template.c **** 
 898              		.loc 1 378 1 view .LVU228
 899 0028 BDE8F88F 		pop	{r3, r4, r5, r6, r7, r8, r9, r10, fp, pc}
 900              	.LVL95:
 901              	.L58:
 324:Drivers/STemWin/Config/GUIDRV_Template.c ****       do {
 902              		.loc 1 324 5 is_stmt 1 view .LVU229
ARM GAS  F:\msys64\tmp\ccgRoccj.s 			page 33


 324:Drivers/STemWin/Config/GUIDRV_Template.c ****       do {
 903              		.loc 1 324 8 is_stmt 0 view .LVU230
 904 002c BBF1000F 		cmp	fp, #0
 905 0030 02D1     		bne	.L63
 906 0032 1DE0     		b	.L61
 907              	.LVL96:
 908              	.L62:
 334:Drivers/STemWin/Config/GUIDRV_Template.c ****     } else {
 909              		.loc 1 334 15 is_stmt 1 view .LVU231
 334:Drivers/STemWin/Config/GUIDRV_Template.c ****     } else {
 910              		.loc 1 334 7 is_stmt 0 view .LVU232
 911 0034 013D     		subs	r5, r5, #1
 912              	.LVL97:
 334:Drivers/STemWin/Config/GUIDRV_Template.c ****     } else {
 913              		.loc 1 334 7 view .LVU233
 914 0036 F7D0     		beq	.L57
 915              	.LVL98:
 916              	.L63:
 325:Drivers/STemWin/Config/GUIDRV_Template.c ****         Shift = (3 - CurrentPixel) << 1;
 917              		.loc 1 325 7 is_stmt 1 view .LVU234
 326:Drivers/STemWin/Config/GUIDRV_Template.c ****         Index = (Pixels & (0xC0 >> (6 - Shift))) >> Shift;
 918              		.loc 1 326 9 view .LVU235
 326:Drivers/STemWin/Config/GUIDRV_Template.c ****         Index = (Pixels & (0xC0 >> (6 - Shift))) >> Shift;
 919              		.loc 1 326 20 is_stmt 0 view .LVU236
 920 0038 C4F10303 		rsb	r3, r4, #3
 326:Drivers/STemWin/Config/GUIDRV_Template.c ****         Index = (Pixels & (0xC0 >> (6 - Shift))) >> Shift;
 921              		.loc 1 326 15 view .LVU237
 922 003c 5A00     		lsls	r2, r3, #1
 923              	.LVL99:
 327:Drivers/STemWin/Config/GUIDRV_Template.c ****         PixelIndex = *(pTrans + Index);
 924              		.loc 1 327 9 is_stmt 1 view .LVU238
 327:Drivers/STemWin/Config/GUIDRV_Template.c ****         PixelIndex = *(pTrans + Index);
 925              		.loc 1 327 39 is_stmt 0 view .LVU239
 926 003e C2F10601 		rsb	r1, r2, #6
 327:Drivers/STemWin/Config/GUIDRV_Template.c ****         PixelIndex = *(pTrans + Index);
 927              		.loc 1 327 33 view .LVU240
 928 0042 C023     		movs	r3, #192
 929 0044 0B41     		asrs	r3, r3, r1
 327:Drivers/STemWin/Config/GUIDRV_Template.c ****         PixelIndex = *(pTrans + Index);
 930              		.loc 1 327 25 view .LVU241
 931 0046 03EA0803 		and	r3, r3, r8
 327:Drivers/STemWin/Config/GUIDRV_Template.c ****         PixelIndex = *(pTrans + Index);
 932              		.loc 1 327 50 view .LVU242
 933 004a D340     		lsrs	r3, r3, r2
 934              	.LVL100:
 328:Drivers/STemWin/Config/GUIDRV_Template.c ****         _SetPixelIndex(pDevice, x++, y, PixelIndex);
 935              		.loc 1 328 9 is_stmt 1 view .LVU243
 329:Drivers/STemWin/Config/GUIDRV_Template.c ****         if (++CurrentPixel == 4) {
 936              		.loc 1 329 9 view .LVU244
 937 004c 3146     		mov	r1, r6
 329:Drivers/STemWin/Config/GUIDRV_Template.c ****         if (++CurrentPixel == 4) {
 938              		.loc 1 329 9 is_stmt 0 view .LVU245
 939 004e 5BF82330 		ldr	r3, [fp, r3, lsl #2]
 940              	.LVL101:
 329:Drivers/STemWin/Config/GUIDRV_Template.c ****         if (++CurrentPixel == 4) {
 941              		.loc 1 329 9 view .LVU246
 942 0052 5246     		mov	r2, r10
ARM GAS  F:\msys64\tmp\ccgRoccj.s 			page 34


 943              	.LVL102:
 329:Drivers/STemWin/Config/GUIDRV_Template.c ****         if (++CurrentPixel == 4) {
 944              		.loc 1 329 9 view .LVU247
 945 0054 0136     		adds	r6, r6, #1
 946              	.LVL103:
 329:Drivers/STemWin/Config/GUIDRV_Template.c ****         if (++CurrentPixel == 4) {
 947              		.loc 1 329 9 view .LVU248
 948 0056 4846     		mov	r0, r9
 949 0058 FFF7FEFF 		bl	_SetPixelIndex
 950              	.LVL104:
 330:Drivers/STemWin/Config/GUIDRV_Template.c ****           CurrentPixel = 0;
 951              		.loc 1 330 9 is_stmt 1 view .LVU249
 330:Drivers/STemWin/Config/GUIDRV_Template.c ****           CurrentPixel = 0;
 952              		.loc 1 330 12 is_stmt 0 view .LVU250
 953 005c 0134     		adds	r4, r4, #1
 954              	.LVL105:
 330:Drivers/STemWin/Config/GUIDRV_Template.c ****           CurrentPixel = 0;
 955              		.loc 1 330 12 view .LVU251
 956 005e 042C     		cmp	r4, #4
 957 0060 E8D1     		bne	.L62
 331:Drivers/STemWin/Config/GUIDRV_Template.c ****           Pixels = *(++p);
 958              		.loc 1 331 11 is_stmt 1 view .LVU252
 959              	.LVL106:
 332:Drivers/STemWin/Config/GUIDRV_Template.c ****         }
 960              		.loc 1 332 11 view .LVU253
 332:Drivers/STemWin/Config/GUIDRV_Template.c ****         }
 961              		.loc 1 332 20 is_stmt 0 view .LVU254
 962 0062 97F80180 		ldrb	r8, [r7, #1]	@ zero_extendqisi2
 963              	.LVL107:
 332:Drivers/STemWin/Config/GUIDRV_Template.c ****         }
 964              		.loc 1 332 18 view .LVU255
 965 0066 0137     		adds	r7, r7, #1
 966              	.LVL108:
 331:Drivers/STemWin/Config/GUIDRV_Template.c ****           Pixels = *(++p);
 967              		.loc 1 331 24 view .LVU256
 968 0068 0024     		movs	r4, #0
 969              	.LVL109:
 331:Drivers/STemWin/Config/GUIDRV_Template.c ****           Pixels = *(++p);
 970              		.loc 1 331 24 view .LVU257
 971 006a E3E7     		b	.L62
 972              	.LVL110:
 973              	.L64:
 344:Drivers/STemWin/Config/GUIDRV_Template.c ****     }
 974              		.loc 1 344 15 is_stmt 1 view .LVU258
 344:Drivers/STemWin/Config/GUIDRV_Template.c ****     }
 975              		.loc 1 344 7 is_stmt 0 view .LVU259
 976 006c 013D     		subs	r5, r5, #1
 977              	.LVL111:
 344:Drivers/STemWin/Config/GUIDRV_Template.c ****     }
 978              		.loc 1 344 7 view .LVU260
 979 006e DBD0     		beq	.L57
 980              	.LVL112:
 981              	.L61:
 336:Drivers/STemWin/Config/GUIDRV_Template.c ****         Shift = (3 - CurrentPixel) << 1;
 982              		.loc 1 336 7 is_stmt 1 view .LVU261
 337:Drivers/STemWin/Config/GUIDRV_Template.c ****         Index = (Pixels & (0xC0 >> (6 - Shift))) >> Shift;
 983              		.loc 1 337 9 view .LVU262
ARM GAS  F:\msys64\tmp\ccgRoccj.s 			page 35


 337:Drivers/STemWin/Config/GUIDRV_Template.c ****         Index = (Pixels & (0xC0 >> (6 - Shift))) >> Shift;
 984              		.loc 1 337 20 is_stmt 0 view .LVU263
 985 0070 C4F10302 		rsb	r2, r4, #3
 337:Drivers/STemWin/Config/GUIDRV_Template.c ****         Index = (Pixels & (0xC0 >> (6 - Shift))) >> Shift;
 986              		.loc 1 337 15 view .LVU264
 987 0074 5200     		lsls	r2, r2, #1
 988              	.LVL113:
 338:Drivers/STemWin/Config/GUIDRV_Template.c ****         _SetPixelIndex(pDevice, x++, y, Index);
 989              		.loc 1 338 9 is_stmt 1 view .LVU265
 338:Drivers/STemWin/Config/GUIDRV_Template.c ****         _SetPixelIndex(pDevice, x++, y, Index);
 990              		.loc 1 338 39 is_stmt 0 view .LVU266
 991 0076 C2F10601 		rsb	r1, r2, #6
 338:Drivers/STemWin/Config/GUIDRV_Template.c ****         _SetPixelIndex(pDevice, x++, y, Index);
 992              		.loc 1 338 33 view .LVU267
 993 007a C023     		movs	r3, #192
 994 007c 0B41     		asrs	r3, r3, r1
 338:Drivers/STemWin/Config/GUIDRV_Template.c ****         _SetPixelIndex(pDevice, x++, y, Index);
 995              		.loc 1 338 25 view .LVU268
 996 007e 03EA0803 		and	r3, r3, r8
 997              	.LVL114:
 339:Drivers/STemWin/Config/GUIDRV_Template.c ****         if (++CurrentPixel == 4) {
 998              		.loc 1 339 9 is_stmt 1 view .LVU269
 999 0082 3146     		mov	r1, r6
 339:Drivers/STemWin/Config/GUIDRV_Template.c ****         if (++CurrentPixel == 4) {
 1000              		.loc 1 339 9 is_stmt 0 view .LVU270
 1001 0084 D340     		lsrs	r3, r3, r2
 1002              	.LVL115:
 339:Drivers/STemWin/Config/GUIDRV_Template.c ****         if (++CurrentPixel == 4) {
 1003              		.loc 1 339 9 view .LVU271
 1004 0086 5246     		mov	r2, r10
 1005              	.LVL116:
 339:Drivers/STemWin/Config/GUIDRV_Template.c ****         if (++CurrentPixel == 4) {
 1006              		.loc 1 339 9 view .LVU272
 1007 0088 0136     		adds	r6, r6, #1
 1008              	.LVL117:
 339:Drivers/STemWin/Config/GUIDRV_Template.c ****         if (++CurrentPixel == 4) {
 1009              		.loc 1 339 9 view .LVU273
 1010 008a 4846     		mov	r0, r9
 1011 008c FFF7FEFF 		bl	_SetPixelIndex
 1012              	.LVL118:
 340:Drivers/STemWin/Config/GUIDRV_Template.c ****           CurrentPixel = 0;
 1013              		.loc 1 340 9 is_stmt 1 view .LVU274
 340:Drivers/STemWin/Config/GUIDRV_Template.c ****           CurrentPixel = 0;
 1014              		.loc 1 340 12 is_stmt 0 view .LVU275
 1015 0090 0134     		adds	r4, r4, #1
 1016              	.LVL119:
 340:Drivers/STemWin/Config/GUIDRV_Template.c ****           CurrentPixel = 0;
 1017              		.loc 1 340 12 view .LVU276
 1018 0092 042C     		cmp	r4, #4
 1019 0094 EAD1     		bne	.L64
 341:Drivers/STemWin/Config/GUIDRV_Template.c ****           Pixels = *(++p);
 1020              		.loc 1 341 11 is_stmt 1 view .LVU277
 1021              	.LVL120:
 342:Drivers/STemWin/Config/GUIDRV_Template.c ****         }
 1022              		.loc 1 342 11 view .LVU278
 342:Drivers/STemWin/Config/GUIDRV_Template.c ****         }
 1023              		.loc 1 342 20 is_stmt 0 view .LVU279
ARM GAS  F:\msys64\tmp\ccgRoccj.s 			page 36


 1024 0096 97F80180 		ldrb	r8, [r7, #1]	@ zero_extendqisi2
 1025              	.LVL121:
 342:Drivers/STemWin/Config/GUIDRV_Template.c ****         }
 1026              		.loc 1 342 18 view .LVU280
 1027 009a 0137     		adds	r7, r7, #1
 1028              	.LVL122:
 341:Drivers/STemWin/Config/GUIDRV_Template.c ****           Pixels = *(++p);
 1029              		.loc 1 341 24 view .LVU281
 1030 009c 0024     		movs	r4, #0
 1031              	.LVL123:
 341:Drivers/STemWin/Config/GUIDRV_Template.c ****           Pixels = *(++p);
 1032              		.loc 1 341 24 view .LVU282
 1033 009e E5E7     		b	.L64
 1034              	.LVL124:
 1035              	.L59:
 348:Drivers/STemWin/Config/GUIDRV_Template.c ****       do {
 1036              		.loc 1 348 5 is_stmt 1 view .LVU283
 348:Drivers/STemWin/Config/GUIDRV_Template.c ****       do {
 1037              		.loc 1 348 8 is_stmt 0 view .LVU284
 1038 00a0 BBF1000F 		cmp	fp, #0
 1039 00a4 0AD1     		bne	.L68
 1040 00a6 25E0     		b	.L65
 1041              	.LVL125:
 1042              	.L72:
 353:Drivers/STemWin/Config/GUIDRV_Template.c ****           _SetPixelIndex(pDevice, x, y, PixelIndex);
 1043              		.loc 1 353 11 is_stmt 1 view .LVU285
 354:Drivers/STemWin/Config/GUIDRV_Template.c ****         }
 1044              		.loc 1 354 11 view .LVU286
 1045 00a8 5BF82330 		ldr	r3, [fp, r3, lsl #2]
 1046              	.LVL126:
 354:Drivers/STemWin/Config/GUIDRV_Template.c ****         }
 1047              		.loc 1 354 11 is_stmt 0 view .LVU287
 1048 00ac 5246     		mov	r2, r10
 1049              	.LVL127:
 354:Drivers/STemWin/Config/GUIDRV_Template.c ****         }
 1050              		.loc 1 354 11 view .LVU288
 1051 00ae 3146     		mov	r1, r6
 1052              	.LVL128:
 354:Drivers/STemWin/Config/GUIDRV_Template.c ****         }
 1053              		.loc 1 354 11 view .LVU289
 1054 00b0 4846     		mov	r0, r9
 1055 00b2 FFF7FEFF 		bl	_SetPixelIndex
 1056              	.LVL129:
 354:Drivers/STemWin/Config/GUIDRV_Template.c ****         }
 1057              		.loc 1 354 11 view .LVU290
 1058 00b6 0CE0     		b	.L66
 1059              	.LVL130:
 1060              	.L67:
 361:Drivers/STemWin/Config/GUIDRV_Template.c ****     } else {
 1061              		.loc 1 361 15 is_stmt 1 view .LVU291
 361:Drivers/STemWin/Config/GUIDRV_Template.c ****     } else {
 1062              		.loc 1 361 7 is_stmt 0 view .LVU292
 1063 00b8 013D     		subs	r5, r5, #1
 1064              	.LVL131:
 361:Drivers/STemWin/Config/GUIDRV_Template.c ****     } else {
 1065              		.loc 1 361 7 view .LVU293
 1066 00ba B5D0     		beq	.L57
ARM GAS  F:\msys64\tmp\ccgRoccj.s 			page 37


 1067              	.LVL132:
 1068              	.L68:
 349:Drivers/STemWin/Config/GUIDRV_Template.c ****         Shift = (3 - CurrentPixel) << 1;
 1069              		.loc 1 349 7 is_stmt 1 view .LVU294
 350:Drivers/STemWin/Config/GUIDRV_Template.c ****         Index = (Pixels & (0xC0 >> (6 - Shift))) >> Shift;
 1070              		.loc 1 350 9 view .LVU295
 350:Drivers/STemWin/Config/GUIDRV_Template.c ****         Index = (Pixels & (0xC0 >> (6 - Shift))) >> Shift;
 1071              		.loc 1 350 20 is_stmt 0 view .LVU296
 1072 00bc C4F10303 		rsb	r3, r4, #3
 350:Drivers/STemWin/Config/GUIDRV_Template.c ****         Index = (Pixels & (0xC0 >> (6 - Shift))) >> Shift;
 1073              		.loc 1 350 15 view .LVU297
 1074 00c0 5A00     		lsls	r2, r3, #1
 1075              	.LVL133:
 351:Drivers/STemWin/Config/GUIDRV_Template.c ****         if (Index) {
 1076              		.loc 1 351 9 is_stmt 1 view .LVU298
 351:Drivers/STemWin/Config/GUIDRV_Template.c ****         if (Index) {
 1077              		.loc 1 351 39 is_stmt 0 view .LVU299
 1078 00c2 C2F10601 		rsb	r1, r2, #6
 351:Drivers/STemWin/Config/GUIDRV_Template.c ****         if (Index) {
 1079              		.loc 1 351 33 view .LVU300
 1080 00c6 C023     		movs	r3, #192
 1081 00c8 0B41     		asrs	r3, r3, r1
 351:Drivers/STemWin/Config/GUIDRV_Template.c ****         if (Index) {
 1082              		.loc 1 351 25 view .LVU301
 1083 00ca 03EA0803 		and	r3, r3, r8
 1084              	.LVL134:
 352:Drivers/STemWin/Config/GUIDRV_Template.c ****           PixelIndex = *(pTrans + Index);
 1085              		.loc 1 352 9 is_stmt 1 view .LVU302
 352:Drivers/STemWin/Config/GUIDRV_Template.c ****           PixelIndex = *(pTrans + Index);
 1086              		.loc 1 352 12 is_stmt 0 view .LVU303
 1087 00ce D340     		lsrs	r3, r3, r2
 1088              	.LVL135:
 352:Drivers/STemWin/Config/GUIDRV_Template.c ****           PixelIndex = *(pTrans + Index);
 1089              		.loc 1 352 12 view .LVU304
 1090 00d0 EAD1     		bne	.L72
 1091              	.LVL136:
 1092              	.L66:
 356:Drivers/STemWin/Config/GUIDRV_Template.c ****         if (++CurrentPixel == 4) {
 1093              		.loc 1 356 9 is_stmt 1 view .LVU305
 356:Drivers/STemWin/Config/GUIDRV_Template.c ****         if (++CurrentPixel == 4) {
 1094              		.loc 1 356 10 is_stmt 0 view .LVU306
 1095 00d2 0136     		adds	r6, r6, #1
 1096              	.LVL137:
 357:Drivers/STemWin/Config/GUIDRV_Template.c ****           CurrentPixel = 0;
 1097              		.loc 1 357 9 is_stmt 1 view .LVU307
 357:Drivers/STemWin/Config/GUIDRV_Template.c ****           CurrentPixel = 0;
 1098              		.loc 1 357 12 is_stmt 0 view .LVU308
 1099 00d4 0134     		adds	r4, r4, #1
 1100              	.LVL138:
 357:Drivers/STemWin/Config/GUIDRV_Template.c ****           CurrentPixel = 0;
 1101              		.loc 1 357 12 view .LVU309
 1102 00d6 042C     		cmp	r4, #4
 1103 00d8 EED1     		bne	.L67
 358:Drivers/STemWin/Config/GUIDRV_Template.c ****           Pixels = *(++p);
 1104              		.loc 1 358 11 is_stmt 1 view .LVU310
 1105              	.LVL139:
 359:Drivers/STemWin/Config/GUIDRV_Template.c ****         }
ARM GAS  F:\msys64\tmp\ccgRoccj.s 			page 38


 1106              		.loc 1 359 11 view .LVU311
 359:Drivers/STemWin/Config/GUIDRV_Template.c ****         }
 1107              		.loc 1 359 20 is_stmt 0 view .LVU312
 1108 00da 97F80180 		ldrb	r8, [r7, #1]	@ zero_extendqisi2
 1109              	.LVL140:
 359:Drivers/STemWin/Config/GUIDRV_Template.c ****         }
 1110              		.loc 1 359 18 view .LVU313
 1111 00de 0137     		adds	r7, r7, #1
 1112              	.LVL141:
 358:Drivers/STemWin/Config/GUIDRV_Template.c ****           Pixels = *(++p);
 1113              		.loc 1 358 24 view .LVU314
 1114 00e0 0024     		movs	r4, #0
 1115              	.LVL142:
 358:Drivers/STemWin/Config/GUIDRV_Template.c ****           Pixels = *(++p);
 1116              		.loc 1 358 24 view .LVU315
 1117 00e2 E9E7     		b	.L67
 1118              	.LVL143:
 1119              	.L73:
 367:Drivers/STemWin/Config/GUIDRV_Template.c ****         }
 1120              		.loc 1 367 11 is_stmt 1 view .LVU316
 1121 00e4 5246     		mov	r2, r10
 1122              	.LVL144:
 367:Drivers/STemWin/Config/GUIDRV_Template.c ****         }
 1123              		.loc 1 367 11 is_stmt 0 view .LVU317
 1124 00e6 3146     		mov	r1, r6
 1125 00e8 4846     		mov	r0, r9
 1126 00ea FFF7FEFF 		bl	_SetPixelIndex
 1127              	.LVL145:
 367:Drivers/STemWin/Config/GUIDRV_Template.c ****         }
 1128              		.loc 1 367 11 view .LVU318
 1129 00ee 0CE0     		b	.L69
 1130              	.LVL146:
 1131              	.L70:
 374:Drivers/STemWin/Config/GUIDRV_Template.c ****     }
 1132              		.loc 1 374 15 is_stmt 1 view .LVU319
 374:Drivers/STemWin/Config/GUIDRV_Template.c ****     }
 1133              		.loc 1 374 7 is_stmt 0 view .LVU320
 1134 00f0 013D     		subs	r5, r5, #1
 1135              	.LVL147:
 374:Drivers/STemWin/Config/GUIDRV_Template.c ****     }
 1136              		.loc 1 374 7 view .LVU321
 1137 00f2 99D0     		beq	.L57
 1138              	.LVL148:
 1139              	.L65:
 363:Drivers/STemWin/Config/GUIDRV_Template.c ****         Shift = (3 - CurrentPixel) << 1;
 1140              		.loc 1 363 7 is_stmt 1 view .LVU322
 364:Drivers/STemWin/Config/GUIDRV_Template.c ****         Index = (Pixels & (0xC0 >> (6 - Shift))) >> Shift;
 1141              		.loc 1 364 9 view .LVU323
 364:Drivers/STemWin/Config/GUIDRV_Template.c ****         Index = (Pixels & (0xC0 >> (6 - Shift))) >> Shift;
 1142              		.loc 1 364 20 is_stmt 0 view .LVU324
 1143 00f4 C4F10303 		rsb	r3, r4, #3
 364:Drivers/STemWin/Config/GUIDRV_Template.c ****         Index = (Pixels & (0xC0 >> (6 - Shift))) >> Shift;
 1144              		.loc 1 364 15 view .LVU325
 1145 00f8 5A00     		lsls	r2, r3, #1
 1146              	.LVL149:
 365:Drivers/STemWin/Config/GUIDRV_Template.c ****         if (Index) {
 1147              		.loc 1 365 9 is_stmt 1 view .LVU326
ARM GAS  F:\msys64\tmp\ccgRoccj.s 			page 39


 365:Drivers/STemWin/Config/GUIDRV_Template.c ****         if (Index) {
 1148              		.loc 1 365 39 is_stmt 0 view .LVU327
 1149 00fa C2F10601 		rsb	r1, r2, #6
 365:Drivers/STemWin/Config/GUIDRV_Template.c ****         if (Index) {
 1150              		.loc 1 365 33 view .LVU328
 1151 00fe C023     		movs	r3, #192
 1152 0100 0B41     		asrs	r3, r3, r1
 365:Drivers/STemWin/Config/GUIDRV_Template.c ****         if (Index) {
 1153              		.loc 1 365 25 view .LVU329
 1154 0102 03EA0803 		and	r3, r3, r8
 1155              	.LVL150:
 366:Drivers/STemWin/Config/GUIDRV_Template.c ****           _SetPixelIndex(pDevice, x, y, Index);
 1156              		.loc 1 366 9 is_stmt 1 view .LVU330
 366:Drivers/STemWin/Config/GUIDRV_Template.c ****           _SetPixelIndex(pDevice, x, y, Index);
 1157              		.loc 1 366 12 is_stmt 0 view .LVU331
 1158 0106 D340     		lsrs	r3, r3, r2
 1159              	.LVL151:
 366:Drivers/STemWin/Config/GUIDRV_Template.c ****           _SetPixelIndex(pDevice, x, y, Index);
 1160              		.loc 1 366 12 view .LVU332
 1161 0108 ECD1     		bne	.L73
 1162              	.LVL152:
 1163              	.L69:
 369:Drivers/STemWin/Config/GUIDRV_Template.c ****         if (++CurrentPixel == 4) {
 1164              		.loc 1 369 9 is_stmt 1 view .LVU333
 369:Drivers/STemWin/Config/GUIDRV_Template.c ****         if (++CurrentPixel == 4) {
 1165              		.loc 1 369 10 is_stmt 0 view .LVU334
 1166 010a 0136     		adds	r6, r6, #1
 1167              	.LVL153:
 370:Drivers/STemWin/Config/GUIDRV_Template.c ****           CurrentPixel = 0;
 1168              		.loc 1 370 9 is_stmt 1 view .LVU335
 370:Drivers/STemWin/Config/GUIDRV_Template.c ****           CurrentPixel = 0;
 1169              		.loc 1 370 12 is_stmt 0 view .LVU336
 1170 010c 0134     		adds	r4, r4, #1
 1171              	.LVL154:
 370:Drivers/STemWin/Config/GUIDRV_Template.c ****           CurrentPixel = 0;
 1172              		.loc 1 370 12 view .LVU337
 1173 010e 042C     		cmp	r4, #4
 1174 0110 EED1     		bne	.L70
 371:Drivers/STemWin/Config/GUIDRV_Template.c ****           Pixels = *(++p);
 1175              		.loc 1 371 11 is_stmt 1 view .LVU338
 1176              	.LVL155:
 372:Drivers/STemWin/Config/GUIDRV_Template.c ****         }
 1177              		.loc 1 372 11 view .LVU339
 372:Drivers/STemWin/Config/GUIDRV_Template.c ****         }
 1178              		.loc 1 372 20 is_stmt 0 view .LVU340
 1179 0112 97F80180 		ldrb	r8, [r7, #1]	@ zero_extendqisi2
 1180              	.LVL156:
 372:Drivers/STemWin/Config/GUIDRV_Template.c ****         }
 1181              		.loc 1 372 18 view .LVU341
 1182 0116 0137     		adds	r7, r7, #1
 1183              	.LVL157:
 371:Drivers/STemWin/Config/GUIDRV_Template.c ****           Pixels = *(++p);
 1184              		.loc 1 371 24 view .LVU342
 1185 0118 0024     		movs	r4, #0
 1186              	.LVL158:
 371:Drivers/STemWin/Config/GUIDRV_Template.c ****           Pixels = *(++p);
 1187              		.loc 1 371 24 view .LVU343
ARM GAS  F:\msys64\tmp\ccgRoccj.s 			page 40


 1188 011a E9E7     		b	.L70
 1189              	.L75:
 1190              		.align	2
 1191              	.L74:
 1192 011c 00000000 		.word	GUI_pContext
 1193              		.cfi_endproc
 1194              	.LFE562:
 1196              		.section	.text._DrawBitLine4BPP,"ax",%progbits
 1197              		.align	1
 1198              		.syntax unified
 1199              		.thumb
 1200              		.thumb_func
 1202              	_DrawBitLine4BPP:
 1203              	.LVL159:
 1204              	.LFB563:
 384:Drivers/STemWin/Config/GUIDRV_Template.c ****   LCD_PIXELINDEX Pixels, PixelIndex;
 1205              		.loc 1 384 145 is_stmt 1 view -0
 1206              		.cfi_startproc
 1207              		@ args = 12, pretend = 0, frame = 0
 1208              		@ frame_needed = 0, uses_anonymous_args = 0
 384:Drivers/STemWin/Config/GUIDRV_Template.c ****   LCD_PIXELINDEX Pixels, PixelIndex;
 1209              		.loc 1 384 145 is_stmt 0 view .LVU345
 1210 0000 2DE9F84F 		push	{r3, r4, r5, r6, r7, r8, r9, r10, fp, lr}
 1211              	.LCFI19:
 1212              		.cfi_def_cfa_offset 40
 1213              		.cfi_offset 3, -40
 1214              		.cfi_offset 4, -36
 1215              		.cfi_offset 5, -32
 1216              		.cfi_offset 6, -28
 1217              		.cfi_offset 7, -24
 1218              		.cfi_offset 8, -20
 1219              		.cfi_offset 9, -16
 1220              		.cfi_offset 10, -12
 1221              		.cfi_offset 11, -8
 1222              		.cfi_offset 14, -4
 1223 0004 8146     		mov	r9, r0
 1224 0006 9246     		mov	r10, r2
 1225 0008 1F46     		mov	r7, r3
 1226 000a 0A9C     		ldr	r4, [sp, #40]
 1227 000c 0B9D     		ldr	r5, [sp, #44]
 1228 000e DDF830B0 		ldr	fp, [sp, #48]
 385:Drivers/STemWin/Config/GUIDRV_Template.c ****   int CurrentPixel, Shift, Index;
 1229              		.loc 1 385 3 is_stmt 1 view .LVU346
 386:Drivers/STemWin/Config/GUIDRV_Template.c **** 
 1230              		.loc 1 386 3 view .LVU347
 388:Drivers/STemWin/Config/GUIDRV_Template.c ****   CurrentPixel = Diff;
 1231              		.loc 1 388 3 view .LVU348
 388:Drivers/STemWin/Config/GUIDRV_Template.c ****   CurrentPixel = Diff;
 1232              		.loc 1 388 12 is_stmt 0 view .LVU349
 1233 0012 93F80080 		ldrb	r8, [r3]	@ zero_extendqisi2
 1234              	.LVL160:
 389:Drivers/STemWin/Config/GUIDRV_Template.c ****   x += Diff;
 1235              		.loc 1 389 3 is_stmt 1 view .LVU350
 390:Drivers/STemWin/Config/GUIDRV_Template.c ****   switch (GUI_pContext->DrawMode & (LCD_DRAWMODE_TRANS | LCD_DRAWMODE_XOR)) {
 1236              		.loc 1 390 3 view .LVU351
 390:Drivers/STemWin/Config/GUIDRV_Template.c ****   switch (GUI_pContext->DrawMode & (LCD_DRAWMODE_TRANS | LCD_DRAWMODE_XOR)) {
 1237              		.loc 1 390 5 is_stmt 0 view .LVU352
ARM GAS  F:\msys64\tmp\ccgRoccj.s 			page 41


 1238 0016 6618     		adds	r6, r4, r1
 1239              	.LVL161:
 391:Drivers/STemWin/Config/GUIDRV_Template.c ****   case 0:
 1240              		.loc 1 391 3 is_stmt 1 view .LVU353
 391:Drivers/STemWin/Config/GUIDRV_Template.c ****   case 0:
 1241              		.loc 1 391 23 is_stmt 0 view .LVU354
 1242 0018 404B     		ldr	r3, .L93
 1243              	.LVL162:
 391:Drivers/STemWin/Config/GUIDRV_Template.c ****   case 0:
 1244              		.loc 1 391 23 view .LVU355
 1245 001a 1B68     		ldr	r3, [r3]
 1246 001c 1B7C     		ldrb	r3, [r3, #16]	@ zero_extendqisi2
 391:Drivers/STemWin/Config/GUIDRV_Template.c ****   case 0:
 1247              		.loc 1 391 3 view .LVU356
 1248 001e 13F00303 		ands	r3, r3, #3
 1249 0022 03D0     		beq	.L77
 1250 0024 022B     		cmp	r3, #2
 1251 0026 3BD0     		beq	.L78
 1252              	.LVL163:
 1253              	.L76:
 447:Drivers/STemWin/Config/GUIDRV_Template.c **** 
 1254              		.loc 1 447 1 view .LVU357
 1255 0028 BDE8F88F 		pop	{r3, r4, r5, r6, r7, r8, r9, r10, fp, pc}
 1256              	.LVL164:
 1257              	.L77:
 393:Drivers/STemWin/Config/GUIDRV_Template.c ****       do {
 1258              		.loc 1 393 5 is_stmt 1 view .LVU358
 393:Drivers/STemWin/Config/GUIDRV_Template.c ****       do {
 1259              		.loc 1 393 8 is_stmt 0 view .LVU359
 1260 002c BBF1000F 		cmp	fp, #0
 1261 0030 02D1     		bne	.L82
 1262 0032 1DE0     		b	.L80
 1263              	.LVL165:
 1264              	.L81:
 403:Drivers/STemWin/Config/GUIDRV_Template.c ****     } else {
 1265              		.loc 1 403 15 is_stmt 1 view .LVU360
 403:Drivers/STemWin/Config/GUIDRV_Template.c ****     } else {
 1266              		.loc 1 403 7 is_stmt 0 view .LVU361
 1267 0034 013D     		subs	r5, r5, #1
 1268              	.LVL166:
 403:Drivers/STemWin/Config/GUIDRV_Template.c ****     } else {
 1269              		.loc 1 403 7 view .LVU362
 1270 0036 F7D0     		beq	.L76
 1271              	.LVL167:
 1272              	.L82:
 394:Drivers/STemWin/Config/GUIDRV_Template.c ****         Shift = (1 - CurrentPixel) << 2;
 1273              		.loc 1 394 7 is_stmt 1 view .LVU363
 395:Drivers/STemWin/Config/GUIDRV_Template.c ****         Index = (Pixels & (0xF0 >> (4 - Shift))) >> Shift;
 1274              		.loc 1 395 9 view .LVU364
 395:Drivers/STemWin/Config/GUIDRV_Template.c ****         Index = (Pixels & (0xF0 >> (4 - Shift))) >> Shift;
 1275              		.loc 1 395 20 is_stmt 0 view .LVU365
 1276 0038 C4F10103 		rsb	r3, r4, #1
 395:Drivers/STemWin/Config/GUIDRV_Template.c ****         Index = (Pixels & (0xF0 >> (4 - Shift))) >> Shift;
 1277              		.loc 1 395 15 view .LVU366
 1278 003c 9A00     		lsls	r2, r3, #2
 1279              	.LVL168:
 396:Drivers/STemWin/Config/GUIDRV_Template.c ****         PixelIndex = *(pTrans + Index);
ARM GAS  F:\msys64\tmp\ccgRoccj.s 			page 42


 1280              		.loc 1 396 9 is_stmt 1 view .LVU367
 396:Drivers/STemWin/Config/GUIDRV_Template.c ****         PixelIndex = *(pTrans + Index);
 1281              		.loc 1 396 39 is_stmt 0 view .LVU368
 1282 003e C2F10401 		rsb	r1, r2, #4
 396:Drivers/STemWin/Config/GUIDRV_Template.c ****         PixelIndex = *(pTrans + Index);
 1283              		.loc 1 396 33 view .LVU369
 1284 0042 F023     		movs	r3, #240
 1285 0044 0B41     		asrs	r3, r3, r1
 396:Drivers/STemWin/Config/GUIDRV_Template.c ****         PixelIndex = *(pTrans + Index);
 1286              		.loc 1 396 25 view .LVU370
 1287 0046 03EA0803 		and	r3, r3, r8
 396:Drivers/STemWin/Config/GUIDRV_Template.c ****         PixelIndex = *(pTrans + Index);
 1288              		.loc 1 396 50 view .LVU371
 1289 004a D340     		lsrs	r3, r3, r2
 1290              	.LVL169:
 397:Drivers/STemWin/Config/GUIDRV_Template.c ****         _SetPixelIndex(pDevice, x++, y, PixelIndex);
 1291              		.loc 1 397 9 is_stmt 1 view .LVU372
 398:Drivers/STemWin/Config/GUIDRV_Template.c ****         if (++CurrentPixel == 2) {
 1292              		.loc 1 398 9 view .LVU373
 1293 004c 3146     		mov	r1, r6
 398:Drivers/STemWin/Config/GUIDRV_Template.c ****         if (++CurrentPixel == 2) {
 1294              		.loc 1 398 9 is_stmt 0 view .LVU374
 1295 004e 5BF82330 		ldr	r3, [fp, r3, lsl #2]
 1296              	.LVL170:
 398:Drivers/STemWin/Config/GUIDRV_Template.c ****         if (++CurrentPixel == 2) {
 1297              		.loc 1 398 9 view .LVU375
 1298 0052 5246     		mov	r2, r10
 1299              	.LVL171:
 398:Drivers/STemWin/Config/GUIDRV_Template.c ****         if (++CurrentPixel == 2) {
 1300              		.loc 1 398 9 view .LVU376
 1301 0054 0136     		adds	r6, r6, #1
 1302              	.LVL172:
 398:Drivers/STemWin/Config/GUIDRV_Template.c ****         if (++CurrentPixel == 2) {
 1303              		.loc 1 398 9 view .LVU377
 1304 0056 4846     		mov	r0, r9
 1305 0058 FFF7FEFF 		bl	_SetPixelIndex
 1306              	.LVL173:
 399:Drivers/STemWin/Config/GUIDRV_Template.c ****           CurrentPixel = 0;
 1307              		.loc 1 399 9 is_stmt 1 view .LVU378
 399:Drivers/STemWin/Config/GUIDRV_Template.c ****           CurrentPixel = 0;
 1308              		.loc 1 399 12 is_stmt 0 view .LVU379
 1309 005c 0134     		adds	r4, r4, #1
 1310              	.LVL174:
 399:Drivers/STemWin/Config/GUIDRV_Template.c ****           CurrentPixel = 0;
 1311              		.loc 1 399 12 view .LVU380
 1312 005e 022C     		cmp	r4, #2
 1313 0060 E8D1     		bne	.L81
 400:Drivers/STemWin/Config/GUIDRV_Template.c ****           Pixels = *(++p);
 1314              		.loc 1 400 11 is_stmt 1 view .LVU381
 1315              	.LVL175:
 401:Drivers/STemWin/Config/GUIDRV_Template.c ****         }
 1316              		.loc 1 401 11 view .LVU382
 401:Drivers/STemWin/Config/GUIDRV_Template.c ****         }
 1317              		.loc 1 401 20 is_stmt 0 view .LVU383
 1318 0062 97F80180 		ldrb	r8, [r7, #1]	@ zero_extendqisi2
 1319              	.LVL176:
 401:Drivers/STemWin/Config/GUIDRV_Template.c ****         }
ARM GAS  F:\msys64\tmp\ccgRoccj.s 			page 43


 1320              		.loc 1 401 18 view .LVU384
 1321 0066 0137     		adds	r7, r7, #1
 1322              	.LVL177:
 400:Drivers/STemWin/Config/GUIDRV_Template.c ****           Pixels = *(++p);
 1323              		.loc 1 400 24 view .LVU385
 1324 0068 0024     		movs	r4, #0
 1325              	.LVL178:
 400:Drivers/STemWin/Config/GUIDRV_Template.c ****           Pixels = *(++p);
 1326              		.loc 1 400 24 view .LVU386
 1327 006a E3E7     		b	.L81
 1328              	.LVL179:
 1329              	.L83:
 413:Drivers/STemWin/Config/GUIDRV_Template.c ****     }
 1330              		.loc 1 413 15 is_stmt 1 view .LVU387
 413:Drivers/STemWin/Config/GUIDRV_Template.c ****     }
 1331              		.loc 1 413 7 is_stmt 0 view .LVU388
 1332 006c 013D     		subs	r5, r5, #1
 1333              	.LVL180:
 413:Drivers/STemWin/Config/GUIDRV_Template.c ****     }
 1334              		.loc 1 413 7 view .LVU389
 1335 006e DBD0     		beq	.L76
 1336              	.LVL181:
 1337              	.L80:
 405:Drivers/STemWin/Config/GUIDRV_Template.c ****         Shift = (1 - CurrentPixel) << 2;
 1338              		.loc 1 405 7 is_stmt 1 view .LVU390
 406:Drivers/STemWin/Config/GUIDRV_Template.c ****         Index = (Pixels & (0xF0 >> (4 - Shift))) >> Shift;
 1339              		.loc 1 406 9 view .LVU391
 406:Drivers/STemWin/Config/GUIDRV_Template.c ****         Index = (Pixels & (0xF0 >> (4 - Shift))) >> Shift;
 1340              		.loc 1 406 20 is_stmt 0 view .LVU392
 1341 0070 C4F10102 		rsb	r2, r4, #1
 406:Drivers/STemWin/Config/GUIDRV_Template.c ****         Index = (Pixels & (0xF0 >> (4 - Shift))) >> Shift;
 1342              		.loc 1 406 15 view .LVU393
 1343 0074 9200     		lsls	r2, r2, #2
 1344              	.LVL182:
 407:Drivers/STemWin/Config/GUIDRV_Template.c ****         _SetPixelIndex(pDevice, x++, y, Index);
 1345              		.loc 1 407 9 is_stmt 1 view .LVU394
 407:Drivers/STemWin/Config/GUIDRV_Template.c ****         _SetPixelIndex(pDevice, x++, y, Index);
 1346              		.loc 1 407 39 is_stmt 0 view .LVU395
 1347 0076 C2F10401 		rsb	r1, r2, #4
 407:Drivers/STemWin/Config/GUIDRV_Template.c ****         _SetPixelIndex(pDevice, x++, y, Index);
 1348              		.loc 1 407 33 view .LVU396
 1349 007a F023     		movs	r3, #240
 1350 007c 0B41     		asrs	r3, r3, r1
 407:Drivers/STemWin/Config/GUIDRV_Template.c ****         _SetPixelIndex(pDevice, x++, y, Index);
 1351              		.loc 1 407 25 view .LVU397
 1352 007e 03EA0803 		and	r3, r3, r8
 1353              	.LVL183:
 408:Drivers/STemWin/Config/GUIDRV_Template.c ****         if (++CurrentPixel == 2) {
 1354              		.loc 1 408 9 is_stmt 1 view .LVU398
 1355 0082 3146     		mov	r1, r6
 408:Drivers/STemWin/Config/GUIDRV_Template.c ****         if (++CurrentPixel == 2) {
 1356              		.loc 1 408 9 is_stmt 0 view .LVU399
 1357 0084 D340     		lsrs	r3, r3, r2
 1358              	.LVL184:
 408:Drivers/STemWin/Config/GUIDRV_Template.c ****         if (++CurrentPixel == 2) {
 1359              		.loc 1 408 9 view .LVU400
 1360 0086 5246     		mov	r2, r10
ARM GAS  F:\msys64\tmp\ccgRoccj.s 			page 44


 1361              	.LVL185:
 408:Drivers/STemWin/Config/GUIDRV_Template.c ****         if (++CurrentPixel == 2) {
 1362              		.loc 1 408 9 view .LVU401
 1363 0088 0136     		adds	r6, r6, #1
 1364              	.LVL186:
 408:Drivers/STemWin/Config/GUIDRV_Template.c ****         if (++CurrentPixel == 2) {
 1365              		.loc 1 408 9 view .LVU402
 1366 008a 4846     		mov	r0, r9
 1367 008c FFF7FEFF 		bl	_SetPixelIndex
 1368              	.LVL187:
 409:Drivers/STemWin/Config/GUIDRV_Template.c ****           CurrentPixel = 0;
 1369              		.loc 1 409 9 is_stmt 1 view .LVU403
 409:Drivers/STemWin/Config/GUIDRV_Template.c ****           CurrentPixel = 0;
 1370              		.loc 1 409 12 is_stmt 0 view .LVU404
 1371 0090 0134     		adds	r4, r4, #1
 1372              	.LVL188:
 409:Drivers/STemWin/Config/GUIDRV_Template.c ****           CurrentPixel = 0;
 1373              		.loc 1 409 12 view .LVU405
 1374 0092 022C     		cmp	r4, #2
 1375 0094 EAD1     		bne	.L83
 410:Drivers/STemWin/Config/GUIDRV_Template.c ****           Pixels = *(++p);
 1376              		.loc 1 410 11 is_stmt 1 view .LVU406
 1377              	.LVL189:
 411:Drivers/STemWin/Config/GUIDRV_Template.c ****         }
 1378              		.loc 1 411 11 view .LVU407
 411:Drivers/STemWin/Config/GUIDRV_Template.c ****         }
 1379              		.loc 1 411 20 is_stmt 0 view .LVU408
 1380 0096 97F80180 		ldrb	r8, [r7, #1]	@ zero_extendqisi2
 1381              	.LVL190:
 411:Drivers/STemWin/Config/GUIDRV_Template.c ****         }
 1382              		.loc 1 411 18 view .LVU409
 1383 009a 0137     		adds	r7, r7, #1
 1384              	.LVL191:
 410:Drivers/STemWin/Config/GUIDRV_Template.c ****           Pixels = *(++p);
 1385              		.loc 1 410 24 view .LVU410
 1386 009c 0024     		movs	r4, #0
 1387              	.LVL192:
 410:Drivers/STemWin/Config/GUIDRV_Template.c ****           Pixels = *(++p);
 1388              		.loc 1 410 24 view .LVU411
 1389 009e E5E7     		b	.L83
 1390              	.LVL193:
 1391              	.L78:
 417:Drivers/STemWin/Config/GUIDRV_Template.c ****       do {
 1392              		.loc 1 417 5 is_stmt 1 view .LVU412
 417:Drivers/STemWin/Config/GUIDRV_Template.c ****       do {
 1393              		.loc 1 417 8 is_stmt 0 view .LVU413
 1394 00a0 BBF1000F 		cmp	fp, #0
 1395 00a4 0AD1     		bne	.L87
 1396 00a6 25E0     		b	.L84
 1397              	.LVL194:
 1398              	.L91:
 422:Drivers/STemWin/Config/GUIDRV_Template.c ****           _SetPixelIndex(pDevice, x, y, PixelIndex);
 1399              		.loc 1 422 11 is_stmt 1 view .LVU414
 423:Drivers/STemWin/Config/GUIDRV_Template.c ****         }
 1400              		.loc 1 423 11 view .LVU415
 1401 00a8 5BF82330 		ldr	r3, [fp, r3, lsl #2]
 1402              	.LVL195:
ARM GAS  F:\msys64\tmp\ccgRoccj.s 			page 45


 423:Drivers/STemWin/Config/GUIDRV_Template.c ****         }
 1403              		.loc 1 423 11 is_stmt 0 view .LVU416
 1404 00ac 5246     		mov	r2, r10
 1405              	.LVL196:
 423:Drivers/STemWin/Config/GUIDRV_Template.c ****         }
 1406              		.loc 1 423 11 view .LVU417
 1407 00ae 3146     		mov	r1, r6
 1408              	.LVL197:
 423:Drivers/STemWin/Config/GUIDRV_Template.c ****         }
 1409              		.loc 1 423 11 view .LVU418
 1410 00b0 4846     		mov	r0, r9
 1411 00b2 FFF7FEFF 		bl	_SetPixelIndex
 1412              	.LVL198:
 423:Drivers/STemWin/Config/GUIDRV_Template.c ****         }
 1413              		.loc 1 423 11 view .LVU419
 1414 00b6 0CE0     		b	.L85
 1415              	.LVL199:
 1416              	.L86:
 430:Drivers/STemWin/Config/GUIDRV_Template.c ****     } else {
 1417              		.loc 1 430 15 is_stmt 1 view .LVU420
 430:Drivers/STemWin/Config/GUIDRV_Template.c ****     } else {
 1418              		.loc 1 430 7 is_stmt 0 view .LVU421
 1419 00b8 013D     		subs	r5, r5, #1
 1420              	.LVL200:
 430:Drivers/STemWin/Config/GUIDRV_Template.c ****     } else {
 1421              		.loc 1 430 7 view .LVU422
 1422 00ba B5D0     		beq	.L76
 1423              	.LVL201:
 1424              	.L87:
 418:Drivers/STemWin/Config/GUIDRV_Template.c ****         Shift = (1 - CurrentPixel) << 2;
 1425              		.loc 1 418 7 is_stmt 1 view .LVU423
 419:Drivers/STemWin/Config/GUIDRV_Template.c ****         Index = (Pixels & (0xF0 >> (4 - Shift))) >> Shift;
 1426              		.loc 1 419 9 view .LVU424
 419:Drivers/STemWin/Config/GUIDRV_Template.c ****         Index = (Pixels & (0xF0 >> (4 - Shift))) >> Shift;
 1427              		.loc 1 419 20 is_stmt 0 view .LVU425
 1428 00bc C4F10103 		rsb	r3, r4, #1
 419:Drivers/STemWin/Config/GUIDRV_Template.c ****         Index = (Pixels & (0xF0 >> (4 - Shift))) >> Shift;
 1429              		.loc 1 419 15 view .LVU426
 1430 00c0 9A00     		lsls	r2, r3, #2
 1431              	.LVL202:
 420:Drivers/STemWin/Config/GUIDRV_Template.c ****         if (Index) {
 1432              		.loc 1 420 9 is_stmt 1 view .LVU427
 420:Drivers/STemWin/Config/GUIDRV_Template.c ****         if (Index) {
 1433              		.loc 1 420 39 is_stmt 0 view .LVU428
 1434 00c2 C2F10401 		rsb	r1, r2, #4
 420:Drivers/STemWin/Config/GUIDRV_Template.c ****         if (Index) {
 1435              		.loc 1 420 33 view .LVU429
 1436 00c6 F023     		movs	r3, #240
 1437 00c8 0B41     		asrs	r3, r3, r1
 420:Drivers/STemWin/Config/GUIDRV_Template.c ****         if (Index) {
 1438              		.loc 1 420 25 view .LVU430
 1439 00ca 03EA0803 		and	r3, r3, r8
 1440              	.LVL203:
 421:Drivers/STemWin/Config/GUIDRV_Template.c ****           PixelIndex = *(pTrans + Index);
 1441              		.loc 1 421 9 is_stmt 1 view .LVU431
 421:Drivers/STemWin/Config/GUIDRV_Template.c ****           PixelIndex = *(pTrans + Index);
 1442              		.loc 1 421 12 is_stmt 0 view .LVU432
ARM GAS  F:\msys64\tmp\ccgRoccj.s 			page 46


 1443 00ce D340     		lsrs	r3, r3, r2
 1444              	.LVL204:
 421:Drivers/STemWin/Config/GUIDRV_Template.c ****           PixelIndex = *(pTrans + Index);
 1445              		.loc 1 421 12 view .LVU433
 1446 00d0 EAD1     		bne	.L91
 1447              	.LVL205:
 1448              	.L85:
 425:Drivers/STemWin/Config/GUIDRV_Template.c ****         if (++CurrentPixel == 2) {
 1449              		.loc 1 425 9 is_stmt 1 view .LVU434
 425:Drivers/STemWin/Config/GUIDRV_Template.c ****         if (++CurrentPixel == 2) {
 1450              		.loc 1 425 10 is_stmt 0 view .LVU435
 1451 00d2 0136     		adds	r6, r6, #1
 1452              	.LVL206:
 426:Drivers/STemWin/Config/GUIDRV_Template.c ****           CurrentPixel = 0;
 1453              		.loc 1 426 9 is_stmt 1 view .LVU436
 426:Drivers/STemWin/Config/GUIDRV_Template.c ****           CurrentPixel = 0;
 1454              		.loc 1 426 12 is_stmt 0 view .LVU437
 1455 00d4 0134     		adds	r4, r4, #1
 1456              	.LVL207:
 426:Drivers/STemWin/Config/GUIDRV_Template.c ****           CurrentPixel = 0;
 1457              		.loc 1 426 12 view .LVU438
 1458 00d6 022C     		cmp	r4, #2
 1459 00d8 EED1     		bne	.L86
 427:Drivers/STemWin/Config/GUIDRV_Template.c ****           Pixels = *(++p);
 1460              		.loc 1 427 11 is_stmt 1 view .LVU439
 1461              	.LVL208:
 428:Drivers/STemWin/Config/GUIDRV_Template.c ****         }
 1462              		.loc 1 428 11 view .LVU440
 428:Drivers/STemWin/Config/GUIDRV_Template.c ****         }
 1463              		.loc 1 428 20 is_stmt 0 view .LVU441
 1464 00da 97F80180 		ldrb	r8, [r7, #1]	@ zero_extendqisi2
 1465              	.LVL209:
 428:Drivers/STemWin/Config/GUIDRV_Template.c ****         }
 1466              		.loc 1 428 18 view .LVU442
 1467 00de 0137     		adds	r7, r7, #1
 1468              	.LVL210:
 427:Drivers/STemWin/Config/GUIDRV_Template.c ****           Pixels = *(++p);
 1469              		.loc 1 427 24 view .LVU443
 1470 00e0 0024     		movs	r4, #0
 1471              	.LVL211:
 427:Drivers/STemWin/Config/GUIDRV_Template.c ****           Pixels = *(++p);
 1472              		.loc 1 427 24 view .LVU444
 1473 00e2 E9E7     		b	.L86
 1474              	.LVL212:
 1475              	.L92:
 436:Drivers/STemWin/Config/GUIDRV_Template.c ****         }
 1476              		.loc 1 436 11 is_stmt 1 view .LVU445
 1477 00e4 5246     		mov	r2, r10
 1478              	.LVL213:
 436:Drivers/STemWin/Config/GUIDRV_Template.c ****         }
 1479              		.loc 1 436 11 is_stmt 0 view .LVU446
 1480 00e6 3146     		mov	r1, r6
 1481 00e8 4846     		mov	r0, r9
 1482 00ea FFF7FEFF 		bl	_SetPixelIndex
 1483              	.LVL214:
 436:Drivers/STemWin/Config/GUIDRV_Template.c ****         }
 1484              		.loc 1 436 11 view .LVU447
ARM GAS  F:\msys64\tmp\ccgRoccj.s 			page 47


 1485 00ee 0CE0     		b	.L88
 1486              	.LVL215:
 1487              	.L89:
 443:Drivers/STemWin/Config/GUIDRV_Template.c ****     }
 1488              		.loc 1 443 15 is_stmt 1 view .LVU448
 443:Drivers/STemWin/Config/GUIDRV_Template.c ****     }
 1489              		.loc 1 443 7 is_stmt 0 view .LVU449
 1490 00f0 013D     		subs	r5, r5, #1
 1491              	.LVL216:
 443:Drivers/STemWin/Config/GUIDRV_Template.c ****     }
 1492              		.loc 1 443 7 view .LVU450
 1493 00f2 99D0     		beq	.L76
 1494              	.LVL217:
 1495              	.L84:
 432:Drivers/STemWin/Config/GUIDRV_Template.c ****         Shift = (1 - CurrentPixel) << 2;
 1496              		.loc 1 432 7 is_stmt 1 view .LVU451
 433:Drivers/STemWin/Config/GUIDRV_Template.c ****         Index = (Pixels & (0xF0 >> (4 - Shift))) >> Shift;
 1497              		.loc 1 433 9 view .LVU452
 433:Drivers/STemWin/Config/GUIDRV_Template.c ****         Index = (Pixels & (0xF0 >> (4 - Shift))) >> Shift;
 1498              		.loc 1 433 20 is_stmt 0 view .LVU453
 1499 00f4 C4F10103 		rsb	r3, r4, #1
 433:Drivers/STemWin/Config/GUIDRV_Template.c ****         Index = (Pixels & (0xF0 >> (4 - Shift))) >> Shift;
 1500              		.loc 1 433 15 view .LVU454
 1501 00f8 9A00     		lsls	r2, r3, #2
 1502              	.LVL218:
 434:Drivers/STemWin/Config/GUIDRV_Template.c ****         if (Index) {
 1503              		.loc 1 434 9 is_stmt 1 view .LVU455
 434:Drivers/STemWin/Config/GUIDRV_Template.c ****         if (Index) {
 1504              		.loc 1 434 39 is_stmt 0 view .LVU456
 1505 00fa C2F10401 		rsb	r1, r2, #4
 434:Drivers/STemWin/Config/GUIDRV_Template.c ****         if (Index) {
 1506              		.loc 1 434 33 view .LVU457
 1507 00fe F023     		movs	r3, #240
 1508 0100 0B41     		asrs	r3, r3, r1
 434:Drivers/STemWin/Config/GUIDRV_Template.c ****         if (Index) {
 1509              		.loc 1 434 25 view .LVU458
 1510 0102 03EA0803 		and	r3, r3, r8
 1511              	.LVL219:
 435:Drivers/STemWin/Config/GUIDRV_Template.c ****           _SetPixelIndex(pDevice, x, y, Index);
 1512              		.loc 1 435 9 is_stmt 1 view .LVU459
 435:Drivers/STemWin/Config/GUIDRV_Template.c ****           _SetPixelIndex(pDevice, x, y, Index);
 1513              		.loc 1 435 12 is_stmt 0 view .LVU460
 1514 0106 D340     		lsrs	r3, r3, r2
 1515              	.LVL220:
 435:Drivers/STemWin/Config/GUIDRV_Template.c ****           _SetPixelIndex(pDevice, x, y, Index);
 1516              		.loc 1 435 12 view .LVU461
 1517 0108 ECD1     		bne	.L92
 1518              	.LVL221:
 1519              	.L88:
 438:Drivers/STemWin/Config/GUIDRV_Template.c ****         if (++CurrentPixel == 2) {
 1520              		.loc 1 438 9 is_stmt 1 view .LVU462
 438:Drivers/STemWin/Config/GUIDRV_Template.c ****         if (++CurrentPixel == 2) {
 1521              		.loc 1 438 10 is_stmt 0 view .LVU463
 1522 010a 0136     		adds	r6, r6, #1
 1523              	.LVL222:
 439:Drivers/STemWin/Config/GUIDRV_Template.c ****           CurrentPixel = 0;
 1524              		.loc 1 439 9 is_stmt 1 view .LVU464
ARM GAS  F:\msys64\tmp\ccgRoccj.s 			page 48


 439:Drivers/STemWin/Config/GUIDRV_Template.c ****           CurrentPixel = 0;
 1525              		.loc 1 439 12 is_stmt 0 view .LVU465
 1526 010c 0134     		adds	r4, r4, #1
 1527              	.LVL223:
 439:Drivers/STemWin/Config/GUIDRV_Template.c ****           CurrentPixel = 0;
 1528              		.loc 1 439 12 view .LVU466
 1529 010e 022C     		cmp	r4, #2
 1530 0110 EED1     		bne	.L89
 440:Drivers/STemWin/Config/GUIDRV_Template.c ****           Pixels = *(++p);
 1531              		.loc 1 440 11 is_stmt 1 view .LVU467
 1532              	.LVL224:
 441:Drivers/STemWin/Config/GUIDRV_Template.c ****         }
 1533              		.loc 1 441 11 view .LVU468
 441:Drivers/STemWin/Config/GUIDRV_Template.c ****         }
 1534              		.loc 1 441 20 is_stmt 0 view .LVU469
 1535 0112 97F80180 		ldrb	r8, [r7, #1]	@ zero_extendqisi2
 1536              	.LVL225:
 441:Drivers/STemWin/Config/GUIDRV_Template.c ****         }
 1537              		.loc 1 441 18 view .LVU470
 1538 0116 0137     		adds	r7, r7, #1
 1539              	.LVL226:
 440:Drivers/STemWin/Config/GUIDRV_Template.c ****           Pixels = *(++p);
 1540              		.loc 1 440 24 view .LVU471
 1541 0118 0024     		movs	r4, #0
 1542              	.LVL227:
 440:Drivers/STemWin/Config/GUIDRV_Template.c ****           Pixels = *(++p);
 1543              		.loc 1 440 24 view .LVU472
 1544 011a E9E7     		b	.L89
 1545              	.L94:
 1546              		.align	2
 1547              	.L93:
 1548 011c 00000000 		.word	GUI_pContext
 1549              		.cfi_endproc
 1550              	.LFE563:
 1552              		.section	.text._DrawBitLine8BPP,"ax",%progbits
 1553              		.align	1
 1554              		.syntax unified
 1555              		.thumb
 1556              		.thumb_func
 1558              	_DrawBitLine8BPP:
 1559              	.LVL228:
 1560              	.LFB564:
 453:Drivers/STemWin/Config/GUIDRV_Template.c ****   LCD_PIXELINDEX Pixel;
 1561              		.loc 1 453 135 is_stmt 1 view -0
 1562              		.cfi_startproc
 1563              		@ args = 8, pretend = 0, frame = 0
 1564              		@ frame_needed = 0, uses_anonymous_args = 0
 453:Drivers/STemWin/Config/GUIDRV_Template.c ****   LCD_PIXELINDEX Pixel;
 1565              		.loc 1 453 135 is_stmt 0 view .LVU474
 1566 0000 2DE9F843 		push	{r3, r4, r5, r6, r7, r8, r9, lr}
 1567              	.LCFI20:
 1568              		.cfi_def_cfa_offset 32
 1569              		.cfi_offset 3, -32
 1570              		.cfi_offset 4, -28
 1571              		.cfi_offset 5, -24
 1572              		.cfi_offset 6, -20
 1573              		.cfi_offset 7, -16
ARM GAS  F:\msys64\tmp\ccgRoccj.s 			page 49


 1574              		.cfi_offset 8, -12
 1575              		.cfi_offset 9, -8
 1576              		.cfi_offset 14, -4
 1577 0004 0746     		mov	r7, r0
 1578 0006 0D46     		mov	r5, r1
 1579 0008 9046     		mov	r8, r2
 1580 000a 1E46     		mov	r6, r3
 1581 000c 089C     		ldr	r4, [sp, #32]
 1582 000e DDF82490 		ldr	r9, [sp, #36]
 454:Drivers/STemWin/Config/GUIDRV_Template.c **** 
 1583              		.loc 1 454 3 is_stmt 1 view .LVU475
 456:Drivers/STemWin/Config/GUIDRV_Template.c ****   case 0:
 1584              		.loc 1 456 3 view .LVU476
 456:Drivers/STemWin/Config/GUIDRV_Template.c ****   case 0:
 1585              		.loc 1 456 23 is_stmt 0 view .LVU477
 1586 0012 254B     		ldr	r3, .L110
 1587              	.LVL229:
 456:Drivers/STemWin/Config/GUIDRV_Template.c ****   case 0:
 1588              		.loc 1 456 23 view .LVU478
 1589 0014 1B68     		ldr	r3, [r3]
 1590 0016 1B7C     		ldrb	r3, [r3, #16]	@ zero_extendqisi2
 456:Drivers/STemWin/Config/GUIDRV_Template.c ****   case 0:
 1591              		.loc 1 456 3 view .LVU479
 1592 0018 13F00303 		ands	r3, r3, #3
 1593 001c 03D0     		beq	.L96
 1594 001e 022B     		cmp	r3, #2
 1595 0020 1FD0     		beq	.L97
 1596              	.LVL230:
 1597              	.L95:
 487:Drivers/STemWin/Config/GUIDRV_Template.c **** 
 1598              		.loc 1 487 1 view .LVU480
 1599 0022 BDE8F883 		pop	{r3, r4, r5, r6, r7, r8, r9, pc}
 1600              	.LVL231:
 1601              	.L96:
 458:Drivers/STemWin/Config/GUIDRV_Template.c ****       for (; xsize > 0; xsize--, x++, p++) {
 1602              		.loc 1 458 5 is_stmt 1 view .LVU481
 458:Drivers/STemWin/Config/GUIDRV_Template.c ****       for (; xsize > 0; xsize--, x++, p++) {
 1603              		.loc 1 458 8 is_stmt 0 view .LVU482
 1604 0026 B9F1000F 		cmp	r9, #0
 1605 002a 0BD1     		bne	.L99
 1606 002c 16E0     		b	.L100
 1607              	.LVL232:
 1608              	.L101:
 460:Drivers/STemWin/Config/GUIDRV_Template.c ****         _SetPixelIndex(pDevice, x, y, *(pTrans + Pixel));
 1609              		.loc 1 460 9 is_stmt 1 discriminator 2 view .LVU483
 460:Drivers/STemWin/Config/GUIDRV_Template.c ****         _SetPixelIndex(pDevice, x, y, *(pTrans + Pixel));
 1610              		.loc 1 460 17 is_stmt 0 discriminator 2 view .LVU484
 1611 002e 16F8013B 		ldrb	r3, [r6], #1	@ zero_extendqisi2
 1612              	.LVL233:
 461:Drivers/STemWin/Config/GUIDRV_Template.c ****       }
 1613              		.loc 1 461 9 is_stmt 1 discriminator 2 view .LVU485
 1614 0032 59F82330 		ldr	r3, [r9, r3, lsl #2]
 1615              	.LVL234:
 461:Drivers/STemWin/Config/GUIDRV_Template.c ****       }
 1616              		.loc 1 461 9 is_stmt 0 discriminator 2 view .LVU486
 1617 0036 4246     		mov	r2, r8
 1618 0038 2946     		mov	r1, r5
ARM GAS  F:\msys64\tmp\ccgRoccj.s 			page 50


 1619 003a 3846     		mov	r0, r7
 1620 003c FFF7FEFF 		bl	_SetPixelIndex
 1621              	.LVL235:
 459:Drivers/STemWin/Config/GUIDRV_Template.c ****         Pixel = *p;
 1622              		.loc 1 459 25 is_stmt 1 discriminator 2 view .LVU487
 459:Drivers/STemWin/Config/GUIDRV_Template.c ****         Pixel = *p;
 1623              		.loc 1 459 30 is_stmt 0 discriminator 2 view .LVU488
 1624 0040 013C     		subs	r4, r4, #1
 1625              	.LVL236:
 459:Drivers/STemWin/Config/GUIDRV_Template.c ****         Pixel = *p;
 1626              		.loc 1 459 35 discriminator 2 view .LVU489
 1627 0042 0135     		adds	r5, r5, #1
 1628              	.LVL237:
 1629              	.L99:
 459:Drivers/STemWin/Config/GUIDRV_Template.c ****         Pixel = *p;
 1630              		.loc 1 459 14 is_stmt 1 discriminator 1 view .LVU490
 459:Drivers/STemWin/Config/GUIDRV_Template.c ****         Pixel = *p;
 1631              		.loc 1 459 7 is_stmt 0 discriminator 1 view .LVU491
 1632 0044 002C     		cmp	r4, #0
 1633 0046 F2DC     		bgt	.L101
 459:Drivers/STemWin/Config/GUIDRV_Template.c ****         Pixel = *p;
 1634              		.loc 1 459 7 discriminator 1 view .LVU492
 1635 0048 EBE7     		b	.L95
 1636              	.L102:
 465:Drivers/STemWin/Config/GUIDRV_Template.c ****       }
 1637              		.loc 1 465 9 is_stmt 1 discriminator 2 view .LVU493
 1638 004a 16F8013B 		ldrb	r3, [r6], #1	@ zero_extendqisi2
 1639              	.LVL238:
 465:Drivers/STemWin/Config/GUIDRV_Template.c ****       }
 1640              		.loc 1 465 9 is_stmt 0 discriminator 2 view .LVU494
 1641 004e 4246     		mov	r2, r8
 1642 0050 2946     		mov	r1, r5
 1643 0052 3846     		mov	r0, r7
 1644 0054 FFF7FEFF 		bl	_SetPixelIndex
 1645              	.LVL239:
 464:Drivers/STemWin/Config/GUIDRV_Template.c ****         _SetPixelIndex(pDevice, x, y, *p);
 1646              		.loc 1 464 25 is_stmt 1 discriminator 2 view .LVU495
 464:Drivers/STemWin/Config/GUIDRV_Template.c ****         _SetPixelIndex(pDevice, x, y, *p);
 1647              		.loc 1 464 30 is_stmt 0 discriminator 2 view .LVU496
 1648 0058 013C     		subs	r4, r4, #1
 1649              	.LVL240:
 464:Drivers/STemWin/Config/GUIDRV_Template.c ****         _SetPixelIndex(pDevice, x, y, *p);
 1650              		.loc 1 464 35 discriminator 2 view .LVU497
 1651 005a 0135     		adds	r5, r5, #1
 1652              	.LVL241:
 1653              	.L100:
 464:Drivers/STemWin/Config/GUIDRV_Template.c ****         _SetPixelIndex(pDevice, x, y, *p);
 1654              		.loc 1 464 14 is_stmt 1 discriminator 1 view .LVU498
 464:Drivers/STemWin/Config/GUIDRV_Template.c ****         _SetPixelIndex(pDevice, x, y, *p);
 1655              		.loc 1 464 7 is_stmt 0 discriminator 1 view .LVU499
 1656 005c 002C     		cmp	r4, #0
 1657 005e F4DC     		bgt	.L102
 464:Drivers/STemWin/Config/GUIDRV_Template.c ****         _SetPixelIndex(pDevice, x, y, *p);
 1658              		.loc 1 464 7 discriminator 1 view .LVU500
 1659 0060 DFE7     		b	.L95
 1660              	.LVL242:
 1661              	.L97:
ARM GAS  F:\msys64\tmp\ccgRoccj.s 			page 51


 470:Drivers/STemWin/Config/GUIDRV_Template.c ****       for (; xsize > 0; xsize--, x++, p++) {
 1662              		.loc 1 470 5 is_stmt 1 view .LVU501
 470:Drivers/STemWin/Config/GUIDRV_Template.c ****       for (; xsize > 0; xsize--, x++, p++) {
 1663              		.loc 1 470 8 is_stmt 0 view .LVU502
 1664 0062 B9F1000F 		cmp	r9, #0
 1665 0066 03D1     		bne	.L103
 1666 0068 12E0     		b	.L104
 1667              	.LVL243:
 1668              	.L105:
 471:Drivers/STemWin/Config/GUIDRV_Template.c ****         Pixel = *p;
 1669              		.loc 1 471 25 is_stmt 1 view .LVU503
 471:Drivers/STemWin/Config/GUIDRV_Template.c ****         Pixel = *p;
 1670              		.loc 1 471 30 is_stmt 0 view .LVU504
 1671 006a 013C     		subs	r4, r4, #1
 1672              	.LVL244:
 471:Drivers/STemWin/Config/GUIDRV_Template.c ****         Pixel = *p;
 1673              		.loc 1 471 35 view .LVU505
 1674 006c 0135     		adds	r5, r5, #1
 1675              	.LVL245:
 471:Drivers/STemWin/Config/GUIDRV_Template.c ****         Pixel = *p;
 1676              		.loc 1 471 40 view .LVU506
 1677 006e 0136     		adds	r6, r6, #1
 1678              	.LVL246:
 1679              	.L103:
 471:Drivers/STemWin/Config/GUIDRV_Template.c ****         Pixel = *p;
 1680              		.loc 1 471 14 is_stmt 1 discriminator 1 view .LVU507
 471:Drivers/STemWin/Config/GUIDRV_Template.c ****         Pixel = *p;
 1681              		.loc 1 471 7 is_stmt 0 discriminator 1 view .LVU508
 1682 0070 002C     		cmp	r4, #0
 1683 0072 D6DD     		ble	.L95
 472:Drivers/STemWin/Config/GUIDRV_Template.c ****         if (Pixel) {
 1684              		.loc 1 472 9 is_stmt 1 view .LVU509
 472:Drivers/STemWin/Config/GUIDRV_Template.c ****         if (Pixel) {
 1685              		.loc 1 472 17 is_stmt 0 view .LVU510
 1686 0074 3378     		ldrb	r3, [r6]	@ zero_extendqisi2
 1687              	.LVL247:
 473:Drivers/STemWin/Config/GUIDRV_Template.c ****           _SetPixelIndex(pDevice, x, y, *(pTrans + Pixel));
 1688              		.loc 1 473 9 is_stmt 1 view .LVU511
 473:Drivers/STemWin/Config/GUIDRV_Template.c ****           _SetPixelIndex(pDevice, x, y, *(pTrans + Pixel));
 1689              		.loc 1 473 12 is_stmt 0 view .LVU512
 1690 0076 002B     		cmp	r3, #0
 1691 0078 F7D0     		beq	.L105
 474:Drivers/STemWin/Config/GUIDRV_Template.c ****         }
 1692              		.loc 1 474 11 is_stmt 1 view .LVU513
 1693 007a 59F82330 		ldr	r3, [r9, r3, lsl #2]
 1694              	.LVL248:
 474:Drivers/STemWin/Config/GUIDRV_Template.c ****         }
 1695              		.loc 1 474 11 is_stmt 0 view .LVU514
 1696 007e 4246     		mov	r2, r8
 1697 0080 2946     		mov	r1, r5
 1698 0082 3846     		mov	r0, r7
 1699 0084 FFF7FEFF 		bl	_SetPixelIndex
 1700              	.LVL249:
 474:Drivers/STemWin/Config/GUIDRV_Template.c ****         }
 1701              		.loc 1 474 11 view .LVU515
 1702 0088 EFE7     		b	.L105
 1703              	.L107:
ARM GAS  F:\msys64\tmp\ccgRoccj.s 			page 52


 478:Drivers/STemWin/Config/GUIDRV_Template.c ****         Pixel = *p;
 1704              		.loc 1 478 25 is_stmt 1 view .LVU516
 478:Drivers/STemWin/Config/GUIDRV_Template.c ****         Pixel = *p;
 1705              		.loc 1 478 30 is_stmt 0 view .LVU517
 1706 008a 013C     		subs	r4, r4, #1
 1707              	.LVL250:
 478:Drivers/STemWin/Config/GUIDRV_Template.c ****         Pixel = *p;
 1708              		.loc 1 478 35 view .LVU518
 1709 008c 0135     		adds	r5, r5, #1
 1710              	.LVL251:
 478:Drivers/STemWin/Config/GUIDRV_Template.c ****         Pixel = *p;
 1711              		.loc 1 478 40 view .LVU519
 1712 008e 0136     		adds	r6, r6, #1
 1713              	.LVL252:
 1714              	.L104:
 478:Drivers/STemWin/Config/GUIDRV_Template.c ****         Pixel = *p;
 1715              		.loc 1 478 14 is_stmt 1 discriminator 1 view .LVU520
 478:Drivers/STemWin/Config/GUIDRV_Template.c ****         Pixel = *p;
 1716              		.loc 1 478 7 is_stmt 0 discriminator 1 view .LVU521
 1717 0090 002C     		cmp	r4, #0
 1718 0092 C6DD     		ble	.L95
 479:Drivers/STemWin/Config/GUIDRV_Template.c ****         if (Pixel) {
 1719              		.loc 1 479 9 is_stmt 1 view .LVU522
 479:Drivers/STemWin/Config/GUIDRV_Template.c ****         if (Pixel) {
 1720              		.loc 1 479 17 is_stmt 0 view .LVU523
 1721 0094 3378     		ldrb	r3, [r6]	@ zero_extendqisi2
 1722              	.LVL253:
 480:Drivers/STemWin/Config/GUIDRV_Template.c ****           _SetPixelIndex(pDevice, x, y, Pixel);
 1723              		.loc 1 480 9 is_stmt 1 view .LVU524
 480:Drivers/STemWin/Config/GUIDRV_Template.c ****           _SetPixelIndex(pDevice, x, y, Pixel);
 1724              		.loc 1 480 12 is_stmt 0 view .LVU525
 1725 0096 002B     		cmp	r3, #0
 1726 0098 F7D0     		beq	.L107
 481:Drivers/STemWin/Config/GUIDRV_Template.c ****         }
 1727              		.loc 1 481 11 is_stmt 1 view .LVU526
 1728 009a 4246     		mov	r2, r8
 1729 009c 2946     		mov	r1, r5
 1730 009e 3846     		mov	r0, r7
 1731 00a0 FFF7FEFF 		bl	_SetPixelIndex
 1732              	.LVL254:
 481:Drivers/STemWin/Config/GUIDRV_Template.c ****         }
 1733              		.loc 1 481 11 is_stmt 0 view .LVU527
 1734 00a4 F1E7     		b	.L107
 1735              	.L111:
 1736 00a6 00BF     		.align	2
 1737              	.L110:
 1738 00a8 00000000 		.word	GUI_pContext
 1739              		.cfi_endproc
 1740              	.LFE564:
 1742              		.section	.text._DrawBitLine16BPP,"ax",%progbits
 1743              		.align	1
 1744              		.syntax unified
 1745              		.thumb
 1746              		.thumb_func
 1748              	_DrawBitLine16BPP:
 1749              	.LVL255:
 1750              	.LFB565:
ARM GAS  F:\msys64\tmp\ccgRoccj.s 			page 53


 497:Drivers/STemWin/Config/GUIDRV_Template.c ****   for (;xsize > 0; xsize--, x++, p++) {
 1751              		.loc 1 497 105 is_stmt 1 view -0
 1752              		.cfi_startproc
 1753              		@ args = 4, pretend = 0, frame = 0
 1754              		@ frame_needed = 0, uses_anonymous_args = 0
 497:Drivers/STemWin/Config/GUIDRV_Template.c ****   for (;xsize > 0; xsize--, x++, p++) {
 1755              		.loc 1 497 105 is_stmt 0 view .LVU529
 1756 0000 2DE9F041 		push	{r4, r5, r6, r7, r8, lr}
 1757              	.LCFI21:
 1758              		.cfi_def_cfa_offset 24
 1759              		.cfi_offset 4, -24
 1760              		.cfi_offset 5, -20
 1761              		.cfi_offset 6, -16
 1762              		.cfi_offset 7, -12
 1763              		.cfi_offset 8, -8
 1764              		.cfi_offset 14, -4
 1765 0004 8046     		mov	r8, r0
 1766 0006 0C46     		mov	r4, r1
 1767 0008 1746     		mov	r7, r2
 1768 000a 1E46     		mov	r6, r3
 1769 000c 069D     		ldr	r5, [sp, #24]
 498:Drivers/STemWin/Config/GUIDRV_Template.c ****     _SetPixelIndex(pDevice, x, y, *p);
 1770              		.loc 1 498 3 is_stmt 1 view .LVU530
 1771 000e 08E0     		b	.L113
 1772              	.LVL256:
 1773              	.L114:
 499:Drivers/STemWin/Config/GUIDRV_Template.c ****   }
 1774              		.loc 1 499 5 discriminator 2 view .LVU531
 1775 0010 36F8023B 		ldrh	r3, [r6], #2
 1776              	.LVL257:
 499:Drivers/STemWin/Config/GUIDRV_Template.c ****   }
 1777              		.loc 1 499 5 is_stmt 0 discriminator 2 view .LVU532
 1778 0014 3A46     		mov	r2, r7
 1779 0016 2146     		mov	r1, r4
 1780 0018 4046     		mov	r0, r8
 1781 001a FFF7FEFF 		bl	_SetPixelIndex
 1782              	.LVL258:
 498:Drivers/STemWin/Config/GUIDRV_Template.c ****     _SetPixelIndex(pDevice, x, y, *p);
 1783              		.loc 1 498 20 is_stmt 1 discriminator 2 view .LVU533
 498:Drivers/STemWin/Config/GUIDRV_Template.c ****     _SetPixelIndex(pDevice, x, y, *p);
 1784              		.loc 1 498 25 is_stmt 0 discriminator 2 view .LVU534
 1785 001e 013D     		subs	r5, r5, #1
 1786              	.LVL259:
 498:Drivers/STemWin/Config/GUIDRV_Template.c ****     _SetPixelIndex(pDevice, x, y, *p);
 1787              		.loc 1 498 30 discriminator 2 view .LVU535
 1788 0020 0134     		adds	r4, r4, #1
 1789              	.LVL260:
 1790              	.L113:
 498:Drivers/STemWin/Config/GUIDRV_Template.c ****     _SetPixelIndex(pDevice, x, y, *p);
 1791              		.loc 1 498 9 is_stmt 1 discriminator 1 view .LVU536
 498:Drivers/STemWin/Config/GUIDRV_Template.c ****     _SetPixelIndex(pDevice, x, y, *p);
 1792              		.loc 1 498 3 is_stmt 0 discriminator 1 view .LVU537
 1793 0022 002D     		cmp	r5, #0
 1794 0024 F4DC     		bgt	.L114
 501:Drivers/STemWin/Config/GUIDRV_Template.c **** 
 1795              		.loc 1 501 1 view .LVU538
 1796 0026 BDE8F081 		pop	{r4, r5, r6, r7, r8, pc}
ARM GAS  F:\msys64\tmp\ccgRoccj.s 			page 54


 501:Drivers/STemWin/Config/GUIDRV_Template.c **** 
 1797              		.loc 1 501 1 view .LVU539
 1798              		.cfi_endproc
 1799              	.LFE565:
 1801              		.section	.text._DrawBitLine32BPP,"ax",%progbits
 1802              		.align	1
 1803              		.syntax unified
 1804              		.thumb
 1805              		.thumb_func
 1807              	_DrawBitLine32BPP:
 1808              	.LVL261:
 1809              	.LFB566:
 511:Drivers/STemWin/Config/GUIDRV_Template.c ****   for (;xsize > 0; xsize--, x++, p++) {
 1810              		.loc 1 511 105 is_stmt 1 view -0
 1811              		.cfi_startproc
 1812              		@ args = 4, pretend = 0, frame = 0
 1813              		@ frame_needed = 0, uses_anonymous_args = 0
 511:Drivers/STemWin/Config/GUIDRV_Template.c ****   for (;xsize > 0; xsize--, x++, p++) {
 1814              		.loc 1 511 105 is_stmt 0 view .LVU541
 1815 0000 2DE9F041 		push	{r4, r5, r6, r7, r8, lr}
 1816              	.LCFI22:
 1817              		.cfi_def_cfa_offset 24
 1818              		.cfi_offset 4, -24
 1819              		.cfi_offset 5, -20
 1820              		.cfi_offset 6, -16
 1821              		.cfi_offset 7, -12
 1822              		.cfi_offset 8, -8
 1823              		.cfi_offset 14, -4
 1824 0004 8046     		mov	r8, r0
 1825 0006 0C46     		mov	r4, r1
 1826 0008 1746     		mov	r7, r2
 1827 000a 1E46     		mov	r6, r3
 1828 000c 069D     		ldr	r5, [sp, #24]
 512:Drivers/STemWin/Config/GUIDRV_Template.c ****     _SetPixelIndex(pDevice, x, y, *p);
 1829              		.loc 1 512 3 is_stmt 1 view .LVU542
 1830 000e 08E0     		b	.L117
 1831              	.LVL262:
 1832              	.L118:
 513:Drivers/STemWin/Config/GUIDRV_Template.c ****   }
 1833              		.loc 1 513 5 discriminator 2 view .LVU543
 1834 0010 56F8043B 		ldr	r3, [r6], #4
 1835              	.LVL263:
 513:Drivers/STemWin/Config/GUIDRV_Template.c ****   }
 1836              		.loc 1 513 5 is_stmt 0 discriminator 2 view .LVU544
 1837 0014 3A46     		mov	r2, r7
 1838 0016 2146     		mov	r1, r4
 1839 0018 4046     		mov	r0, r8
 1840 001a FFF7FEFF 		bl	_SetPixelIndex
 1841              	.LVL264:
 512:Drivers/STemWin/Config/GUIDRV_Template.c ****     _SetPixelIndex(pDevice, x, y, *p);
 1842              		.loc 1 512 20 is_stmt 1 discriminator 2 view .LVU545
 512:Drivers/STemWin/Config/GUIDRV_Template.c ****     _SetPixelIndex(pDevice, x, y, *p);
 1843              		.loc 1 512 25 is_stmt 0 discriminator 2 view .LVU546
 1844 001e 013D     		subs	r5, r5, #1
 1845              	.LVL265:
 512:Drivers/STemWin/Config/GUIDRV_Template.c ****     _SetPixelIndex(pDevice, x, y, *p);
 1846              		.loc 1 512 30 discriminator 2 view .LVU547
ARM GAS  F:\msys64\tmp\ccgRoccj.s 			page 55


 1847 0020 0134     		adds	r4, r4, #1
 1848              	.LVL266:
 1849              	.L117:
 512:Drivers/STemWin/Config/GUIDRV_Template.c ****     _SetPixelIndex(pDevice, x, y, *p);
 1850              		.loc 1 512 9 is_stmt 1 discriminator 1 view .LVU548
 512:Drivers/STemWin/Config/GUIDRV_Template.c ****     _SetPixelIndex(pDevice, x, y, *p);
 1851              		.loc 1 512 3 is_stmt 0 discriminator 1 view .LVU549
 1852 0022 002D     		cmp	r5, #0
 1853 0024 F4DC     		bgt	.L118
 515:Drivers/STemWin/Config/GUIDRV_Template.c **** 
 1854              		.loc 1 515 1 view .LVU550
 1855 0026 BDE8F081 		pop	{r4, r5, r6, r7, r8, pc}
 515:Drivers/STemWin/Config/GUIDRV_Template.c **** 
 1856              		.loc 1 515 1 view .LVU551
 1857              		.cfi_endproc
 1858              	.LFE566:
 1860              		.section	.text._GetPixelIndex,"ax",%progbits
 1861              		.align	1
 1862              		.syntax unified
 1863              		.thumb
 1864              		.thumb_func
 1866              	_GetPixelIndex:
 1867              	.LVL267:
 1868              	.LFB556:
 175:Drivers/STemWin/Config/GUIDRV_Template.c ****   unsigned int PixelIndex;
 1869              		.loc 1 175 73 is_stmt 1 view -0
 1870              		.cfi_startproc
 1871              		@ args = 0, pretend = 0, frame = 0
 1872              		@ frame_needed = 0, uses_anonymous_args = 0
 175:Drivers/STemWin/Config/GUIDRV_Template.c ****   unsigned int PixelIndex;
 1873              		.loc 1 175 73 is_stmt 0 view .LVU553
 1874 0000 08B5     		push	{r3, lr}
 1875              	.LCFI23:
 1876              		.cfi_def_cfa_offset 8
 1877              		.cfi_offset 3, -8
 1878              		.cfi_offset 14, -4
 1879 0002 0846     		mov	r0, r1
 1880              	.LVL268:
 176:Drivers/STemWin/Config/GUIDRV_Template.c ****     //
 1881              		.loc 1 176 3 is_stmt 1 view .LVU554
 189:Drivers/STemWin/Config/GUIDRV_Template.c ****     GUI_USE_PARA(x);
 1882              		.loc 1 189 5 view .LVU555
 190:Drivers/STemWin/Config/GUIDRV_Template.c ****     GUI_USE_PARA(y);
 1883              		.loc 1 190 5 view .LVU556
 191:Drivers/STemWin/Config/GUIDRV_Template.c ****     {
 1884              		.loc 1 191 5 view .LVU557
 199:Drivers/STemWin/Config/GUIDRV_Template.c ****     }
 1885              		.loc 1 199 7 view .LVU558
 199:Drivers/STemWin/Config/GUIDRV_Template.c ****     }
 1886              		.loc 1 199 25 is_stmt 0 view .LVU559
 1887 0004 91B2     		uxth	r1, r2
 1888              	.LVL269:
 199:Drivers/STemWin/Config/GUIDRV_Template.c ****     }
 1889              		.loc 1 199 25 view .LVU560
 1890 0006 80B2     		uxth	r0, r0
 1891              	.LVL270:
 199:Drivers/STemWin/Config/GUIDRV_Template.c ****     }
ARM GAS  F:\msys64\tmp\ccgRoccj.s 			page 56


 1892              		.loc 1 199 25 view .LVU561
 1893 0008 FFF7FEFF 		bl	GetPoint
 1894              	.LVL271:
 205:Drivers/STemWin/Config/GUIDRV_Template.c **** }
 1895              		.loc 1 205 3 is_stmt 1 view .LVU562
 206:Drivers/STemWin/Config/GUIDRV_Template.c **** 
 1896              		.loc 1 206 1 is_stmt 0 view .LVU563
 1897 000c 08BD     		pop	{r3, pc}
 1898              		.cfi_endproc
 1899              	.LFE556:
 1901              		.section	.text._XorPixel,"ax",%progbits
 1902              		.align	1
 1903              		.syntax unified
 1904              		.thumb
 1905              		.thumb_func
 1907              	_XorPixel:
 1908              	.LVL272:
 1909              	.LFB557:
 212:Drivers/STemWin/Config/GUIDRV_Template.c ****   LCD_PIXELINDEX PixelIndex;
 1910              		.loc 1 212 59 is_stmt 1 view -0
 1911              		.cfi_startproc
 1912              		@ args = 0, pretend = 0, frame = 0
 1913              		@ frame_needed = 0, uses_anonymous_args = 0
 212:Drivers/STemWin/Config/GUIDRV_Template.c ****   LCD_PIXELINDEX PixelIndex;
 1914              		.loc 1 212 59 is_stmt 0 view .LVU565
 1915 0000 F8B5     		push	{r3, r4, r5, r6, r7, lr}
 1916              	.LCFI24:
 1917              		.cfi_def_cfa_offset 24
 1918              		.cfi_offset 3, -24
 1919              		.cfi_offset 4, -20
 1920              		.cfi_offset 5, -16
 1921              		.cfi_offset 6, -12
 1922              		.cfi_offset 7, -8
 1923              		.cfi_offset 14, -4
 1924 0002 0446     		mov	r4, r0
 1925 0004 0D46     		mov	r5, r1
 1926 0006 1646     		mov	r6, r2
 213:Drivers/STemWin/Config/GUIDRV_Template.c ****   LCD_PIXELINDEX IndexMask;
 1927              		.loc 1 213 3 is_stmt 1 view .LVU566
 214:Drivers/STemWin/Config/GUIDRV_Template.c **** 
 1928              		.loc 1 214 3 view .LVU567
 216:Drivers/STemWin/Config/GUIDRV_Template.c ****   IndexMask  = pDevice->pColorConvAPI->pfGetIndexMask();
 1929              		.loc 1 216 3 view .LVU568
 216:Drivers/STemWin/Config/GUIDRV_Template.c ****   IndexMask  = pDevice->pColorConvAPI->pfGetIndexMask();
 1930              		.loc 1 216 16 is_stmt 0 view .LVU569
 1931 0008 FFF7FEFF 		bl	_GetPixelIndex
 1932              	.LVL273:
 216:Drivers/STemWin/Config/GUIDRV_Template.c ****   IndexMask  = pDevice->pColorConvAPI->pfGetIndexMask();
 1933              		.loc 1 216 16 view .LVU570
 1934 000c 0746     		mov	r7, r0
 1935              	.LVL274:
 217:Drivers/STemWin/Config/GUIDRV_Template.c ****   _SetPixelIndex(pDevice, x, y, PixelIndex ^ IndexMask);
 1936              		.loc 1 217 3 is_stmt 1 view .LVU571
 217:Drivers/STemWin/Config/GUIDRV_Template.c ****   _SetPixelIndex(pDevice, x, y, PixelIndex ^ IndexMask);
 1937              		.loc 1 217 23 is_stmt 0 view .LVU572
 1938 000e 2369     		ldr	r3, [r4, #16]
 217:Drivers/STemWin/Config/GUIDRV_Template.c ****   _SetPixelIndex(pDevice, x, y, PixelIndex ^ IndexMask);
ARM GAS  F:\msys64\tmp\ccgRoccj.s 			page 57


 1939              		.loc 1 217 38 view .LVU573
 1940 0010 9B68     		ldr	r3, [r3, #8]
 217:Drivers/STemWin/Config/GUIDRV_Template.c ****   _SetPixelIndex(pDevice, x, y, PixelIndex ^ IndexMask);
 1941              		.loc 1 217 16 view .LVU574
 1942 0012 9847     		blx	r3
 1943              	.LVL275:
 218:Drivers/STemWin/Config/GUIDRV_Template.c **** }
 1944              		.loc 1 218 3 is_stmt 1 view .LVU575
 1945 0014 87EA0003 		eor	r3, r7, r0
 1946 0018 3246     		mov	r2, r6
 1947 001a 2946     		mov	r1, r5
 1948 001c 2046     		mov	r0, r4
 1949              	.LVL276:
 218:Drivers/STemWin/Config/GUIDRV_Template.c **** }
 1950              		.loc 1 218 3 is_stmt 0 view .LVU576
 1951 001e FFF7FEFF 		bl	_SetPixelIndex
 1952              	.LVL277:
 219:Drivers/STemWin/Config/GUIDRV_Template.c **** 
 1953              		.loc 1 219 1 view .LVU577
 1954 0022 F8BD     		pop	{r3, r4, r5, r6, r7, pc}
 219:Drivers/STemWin/Config/GUIDRV_Template.c **** 
 1955              		.loc 1 219 1 view .LVU578
 1956              		.cfi_endproc
 1957              	.LFE557:
 1959              		.section	.text._DrawBitLine1BPP,"ax",%progbits
 1960              		.align	1
 1961              		.syntax unified
 1962              		.thumb
 1963              		.thumb_func
 1965              	_DrawBitLine1BPP:
 1966              	.LVL278:
 1967              	.LFB561:
 266:Drivers/STemWin/Config/GUIDRV_Template.c ****   LCD_PIXELINDEX IndexMask, Index0, Index1, Pixel;
 1968              		.loc 1 266 144 is_stmt 1 view -0
 1969              		.cfi_startproc
 1970              		@ args = 12, pretend = 0, frame = 0
 1971              		@ frame_needed = 0, uses_anonymous_args = 0
 266:Drivers/STemWin/Config/GUIDRV_Template.c ****   LCD_PIXELINDEX IndexMask, Index0, Index1, Pixel;
 1972              		.loc 1 266 144 is_stmt 0 view .LVU580
 1973 0000 2DE9F84F 		push	{r3, r4, r5, r6, r7, r8, r9, r10, fp, lr}
 1974              	.LCFI25:
 1975              		.cfi_def_cfa_offset 40
 1976              		.cfi_offset 3, -40
 1977              		.cfi_offset 4, -36
 1978              		.cfi_offset 5, -32
 1979              		.cfi_offset 6, -28
 1980              		.cfi_offset 7, -24
 1981              		.cfi_offset 8, -20
 1982              		.cfi_offset 9, -16
 1983              		.cfi_offset 10, -12
 1984              		.cfi_offset 11, -8
 1985              		.cfi_offset 14, -4
 1986 0004 8046     		mov	r8, r0
 1987 0006 9146     		mov	r9, r2
 1988 0008 1F46     		mov	r7, r3
 1989 000a 0A9C     		ldr	r4, [sp, #40]
 1990 000c 0B9D     		ldr	r5, [sp, #44]
ARM GAS  F:\msys64\tmp\ccgRoccj.s 			page 58


 1991 000e 0C9B     		ldr	r3, [sp, #48]
 1992              	.LVL279:
 267:Drivers/STemWin/Config/GUIDRV_Template.c **** 
 1993              		.loc 1 267 3 is_stmt 1 view .LVU581
 269:Drivers/STemWin/Config/GUIDRV_Template.c ****   Index1 = *(pTrans + 1);
 1994              		.loc 1 269 3 view .LVU582
 269:Drivers/STemWin/Config/GUIDRV_Template.c ****   Index1 = *(pTrans + 1);
 1995              		.loc 1 269 10 is_stmt 0 view .LVU583
 1996 0010 D3F800B0 		ldr	fp, [r3]
 1997              	.LVL280:
 270:Drivers/STemWin/Config/GUIDRV_Template.c ****   x += Diff;
 1998              		.loc 1 270 3 is_stmt 1 view .LVU584
 270:Drivers/STemWin/Config/GUIDRV_Template.c ****   x += Diff;
 1999              		.loc 1 270 10 is_stmt 0 view .LVU585
 2000 0014 D3F804A0 		ldr	r10, [r3, #4]
 2001              	.LVL281:
 271:Drivers/STemWin/Config/GUIDRV_Template.c ****   switch (GUI_pContext->DrawMode & (LCD_DRAWMODE_TRANS | LCD_DRAWMODE_XOR)) {
 2002              		.loc 1 271 3 is_stmt 1 view .LVU586
 271:Drivers/STemWin/Config/GUIDRV_Template.c ****   switch (GUI_pContext->DrawMode & (LCD_DRAWMODE_TRANS | LCD_DRAWMODE_XOR)) {
 2003              		.loc 1 271 5 is_stmt 0 view .LVU587
 2004 0018 0E19     		adds	r6, r1, r4
 2005              	.LVL282:
 272:Drivers/STemWin/Config/GUIDRV_Template.c ****   case 0:
 2006              		.loc 1 272 3 is_stmt 1 view .LVU588
 272:Drivers/STemWin/Config/GUIDRV_Template.c ****   case 0:
 2007              		.loc 1 272 23 is_stmt 0 view .LVU589
 2008 001a 2C4B     		ldr	r3, .L142
 2009 001c 1B68     		ldr	r3, [r3]
 2010 001e 1B7C     		ldrb	r3, [r3, #16]	@ zero_extendqisi2
 272:Drivers/STemWin/Config/GUIDRV_Template.c ****   case 0:
 2011              		.loc 1 272 3 view .LVU590
 2012 0020 03F00303 		and	r3, r3, #3
 2013 0024 032B     		cmp	r3, #3
 2014 0026 4ED8     		bhi	.L124
 2015 0028 DFE803F0 		tbb	[pc, r3]
 2016              	.LVL283:
 2017              	.L127:
 2018 002c 0C       		.byte	(.L129-.L127)/2
 2019 002d 2D       		.byte	(.L126-.L127)/2
 2020 002e 21       		.byte	(.L128-.L127)/2
 2021 002f 2D       		.byte	(.L126-.L127)/2
 2022              		.p2align 1
 2023              	.L137:
 275:Drivers/STemWin/Config/GUIDRV_Template.c ****       if (++Diff == 8) {
 2024              		.loc 1 275 7 view .LVU591
 2025 0030 5B46     		mov	r3, fp
 2026              	.L130:
 275:Drivers/STemWin/Config/GUIDRV_Template.c ****       if (++Diff == 8) {
 2027              		.loc 1 275 7 discriminator 4 view .LVU592
 2028 0032 4A46     		mov	r2, r9
 2029 0034 4046     		mov	r0, r8
 2030 0036 FFF7FEFF 		bl	_SetPixelIndex
 2031              	.LVL284:
 276:Drivers/STemWin/Config/GUIDRV_Template.c ****         Diff = 0;
 2032              		.loc 1 276 7 is_stmt 1 discriminator 4 view .LVU593
 276:Drivers/STemWin/Config/GUIDRV_Template.c ****         Diff = 0;
 2033              		.loc 1 276 10 is_stmt 0 discriminator 4 view .LVU594
ARM GAS  F:\msys64\tmp\ccgRoccj.s 			page 59


 2034 003a 0134     		adds	r4, r4, #1
 2035              	.LVL285:
 276:Drivers/STemWin/Config/GUIDRV_Template.c ****         Diff = 0;
 2036              		.loc 1 276 10 discriminator 4 view .LVU595
 2037 003c 082C     		cmp	r4, #8
 2038 003e 0AD0     		beq	.L139
 2039              	.LVL286:
 2040              	.L131:
 280:Drivers/STemWin/Config/GUIDRV_Template.c ****     break;
 2041              		.loc 1 280 13 is_stmt 1 view .LVU596
 280:Drivers/STemWin/Config/GUIDRV_Template.c ****     break;
 2042              		.loc 1 280 5 is_stmt 0 view .LVU597
 2043 0040 013D     		subs	r5, r5, #1
 2044              	.LVL287:
 280:Drivers/STemWin/Config/GUIDRV_Template.c ****     break;
 2045              		.loc 1 280 5 view .LVU598
 2046 0042 40D0     		beq	.L124
 2047              	.LVL288:
 2048              	.L129:
 274:Drivers/STemWin/Config/GUIDRV_Template.c ****       _SetPixelIndex(pDevice, x++, y, (*p & (0x80 >> Diff)) ? Index1 : Index0);
 2049              		.loc 1 274 5 is_stmt 1 view .LVU599
 275:Drivers/STemWin/Config/GUIDRV_Template.c ****       if (++Diff == 8) {
 2050              		.loc 1 275 7 view .LVU600
 2051 0044 3146     		mov	r1, r6
 2052 0046 0136     		adds	r6, r6, #1
 2053              	.LVL289:
 275:Drivers/STemWin/Config/GUIDRV_Template.c ****       if (++Diff == 8) {
 2054              		.loc 1 275 40 is_stmt 0 view .LVU601
 2055 0048 3A78     		ldrb	r2, [r7]	@ zero_extendqisi2
 275:Drivers/STemWin/Config/GUIDRV_Template.c ****       if (++Diff == 8) {
 2056              		.loc 1 275 51 view .LVU602
 2057 004a 8023     		movs	r3, #128
 2058 004c 2341     		asrs	r3, r3, r4
 275:Drivers/STemWin/Config/GUIDRV_Template.c ****       if (++Diff == 8) {
 2059              		.loc 1 275 7 view .LVU603
 2060 004e 1A42     		tst	r2, r3
 2061 0050 EED0     		beq	.L137
 275:Drivers/STemWin/Config/GUIDRV_Template.c ****       if (++Diff == 8) {
 2062              		.loc 1 275 7 view .LVU604
 2063 0052 5346     		mov	r3, r10
 2064 0054 EDE7     		b	.L130
 2065              	.L139:
 277:Drivers/STemWin/Config/GUIDRV_Template.c ****         p++;
 2066              		.loc 1 277 9 is_stmt 1 view .LVU605
 2067              	.LVL290:
 278:Drivers/STemWin/Config/GUIDRV_Template.c ****       }
 2068              		.loc 1 278 9 view .LVU606
 278:Drivers/STemWin/Config/GUIDRV_Template.c ****       }
 2069              		.loc 1 278 10 is_stmt 0 view .LVU607
 2070 0056 0137     		adds	r7, r7, #1
 2071              	.LVL291:
 277:Drivers/STemWin/Config/GUIDRV_Template.c ****         p++;
 2072              		.loc 1 277 14 view .LVU608
 2073 0058 0024     		movs	r4, #0
 2074 005a F1E7     		b	.L131
 2075              	.LVL292:
 2076              	.L140:
ARM GAS  F:\msys64\tmp\ccgRoccj.s 			page 60


 285:Drivers/STemWin/Config/GUIDRV_Template.c ****       x++;
 2077              		.loc 1 285 9 is_stmt 1 view .LVU609
 2078 005c 5346     		mov	r3, r10
 2079 005e 4A46     		mov	r2, r9
 2080 0060 3146     		mov	r1, r6
 2081 0062 4046     		mov	r0, r8
 2082 0064 FFF7FEFF 		bl	_SetPixelIndex
 2083              	.LVL293:
 2084 0068 06E0     		b	.L132
 2085              	.LVL294:
 2086              	.L133:
 291:Drivers/STemWin/Config/GUIDRV_Template.c ****     break;
 2087              		.loc 1 291 13 view .LVU610
 291:Drivers/STemWin/Config/GUIDRV_Template.c ****     break;
 2088              		.loc 1 291 5 is_stmt 0 view .LVU611
 2089 006a 013D     		subs	r5, r5, #1
 2090              	.LVL295:
 291:Drivers/STemWin/Config/GUIDRV_Template.c ****     break;
 2091              		.loc 1 291 5 view .LVU612
 2092 006c 2BD0     		beq	.L124
 2093              	.LVL296:
 2094              	.L128:
 283:Drivers/STemWin/Config/GUIDRV_Template.c ****       if (*p & (0x80 >> Diff))
 2095              		.loc 1 283 5 is_stmt 1 view .LVU613
 284:Drivers/STemWin/Config/GUIDRV_Template.c ****         _SetPixelIndex(pDevice, x, y, Index1);
 2096              		.loc 1 284 7 view .LVU614
 284:Drivers/STemWin/Config/GUIDRV_Template.c ****         _SetPixelIndex(pDevice, x, y, Index1);
 2097              		.loc 1 284 11 is_stmt 0 view .LVU615
 2098 006e 3A78     		ldrb	r2, [r7]	@ zero_extendqisi2
 284:Drivers/STemWin/Config/GUIDRV_Template.c ****         _SetPixelIndex(pDevice, x, y, Index1);
 2099              		.loc 1 284 22 view .LVU616
 2100 0070 8023     		movs	r3, #128
 2101 0072 2341     		asrs	r3, r3, r4
 284:Drivers/STemWin/Config/GUIDRV_Template.c ****         _SetPixelIndex(pDevice, x, y, Index1);
 2102              		.loc 1 284 10 view .LVU617
 2103 0074 1A42     		tst	r2, r3
 2104 0076 F1D1     		bne	.L140
 2105              	.L132:
 286:Drivers/STemWin/Config/GUIDRV_Template.c ****       if (++Diff == 8) {
 2106              		.loc 1 286 7 is_stmt 1 view .LVU618
 286:Drivers/STemWin/Config/GUIDRV_Template.c ****       if (++Diff == 8) {
 2107              		.loc 1 286 8 is_stmt 0 view .LVU619
 2108 0078 0136     		adds	r6, r6, #1
 2109              	.LVL297:
 287:Drivers/STemWin/Config/GUIDRV_Template.c ****         Diff = 0;
 2110              		.loc 1 287 7 is_stmt 1 view .LVU620
 287:Drivers/STemWin/Config/GUIDRV_Template.c ****         Diff = 0;
 2111              		.loc 1 287 10 is_stmt 0 view .LVU621
 2112 007a 0134     		adds	r4, r4, #1
 2113              	.LVL298:
 287:Drivers/STemWin/Config/GUIDRV_Template.c ****         Diff = 0;
 2114              		.loc 1 287 10 view .LVU622
 2115 007c 082C     		cmp	r4, #8
 2116 007e F4D1     		bne	.L133
 288:Drivers/STemWin/Config/GUIDRV_Template.c ****         p++;
 2117              		.loc 1 288 9 is_stmt 1 view .LVU623
 2118              	.LVL299:
ARM GAS  F:\msys64\tmp\ccgRoccj.s 			page 61


 289:Drivers/STemWin/Config/GUIDRV_Template.c ****       }
 2119              		.loc 1 289 9 view .LVU624
 289:Drivers/STemWin/Config/GUIDRV_Template.c ****       }
 2120              		.loc 1 289 10 is_stmt 0 view .LVU625
 2121 0080 0137     		adds	r7, r7, #1
 2122              	.LVL300:
 288:Drivers/STemWin/Config/GUIDRV_Template.c ****         p++;
 2123              		.loc 1 288 14 view .LVU626
 2124 0082 0024     		movs	r4, #0
 2125 0084 F1E7     		b	.L133
 2126              	.LVL301:
 2127              	.L126:
 295:Drivers/STemWin/Config/GUIDRV_Template.c ****     do {
 2128              		.loc 1 295 5 is_stmt 1 view .LVU627
 295:Drivers/STemWin/Config/GUIDRV_Template.c ****     do {
 2129              		.loc 1 295 24 is_stmt 0 view .LVU628
 2130 0086 0369     		ldr	r3, [r0, #16]
 295:Drivers/STemWin/Config/GUIDRV_Template.c ****     do {
 2131              		.loc 1 295 39 view .LVU629
 2132 0088 9B68     		ldr	r3, [r3, #8]
 295:Drivers/STemWin/Config/GUIDRV_Template.c ****     do {
 2133              		.loc 1 295 17 view .LVU630
 2134 008a 9847     		blx	r3
 2135              	.LVL302:
 295:Drivers/STemWin/Config/GUIDRV_Template.c ****     do {
 2136              		.loc 1 295 17 view .LVU631
 2137 008c 8246     		mov	r10, r0
 2138              	.LVL303:
 295:Drivers/STemWin/Config/GUIDRV_Template.c ****     do {
 2139              		.loc 1 295 17 view .LVU632
 2140 008e 0EE0     		b	.L136
 2141              	.LVL304:
 2142              	.L141:
 298:Drivers/STemWin/Config/GUIDRV_Template.c ****         _SetPixelIndex(pDevice, x, y, Pixel ^ IndexMask);
 2143              		.loc 1 298 9 is_stmt 1 view .LVU633
 298:Drivers/STemWin/Config/GUIDRV_Template.c ****         _SetPixelIndex(pDevice, x, y, Pixel ^ IndexMask);
 2144              		.loc 1 298 17 is_stmt 0 view .LVU634
 2145 0090 4A46     		mov	r2, r9
 2146 0092 3146     		mov	r1, r6
 2147 0094 4046     		mov	r0, r8
 2148 0096 FFF7FEFF 		bl	_GetPixelIndex
 2149              	.LVL305:
 299:Drivers/STemWin/Config/GUIDRV_Template.c ****       }
 2150              		.loc 1 299 9 is_stmt 1 view .LVU635
 2151 009a 8AEA0003 		eor	r3, r10, r0
 2152 009e 4A46     		mov	r2, r9
 2153 00a0 3146     		mov	r1, r6
 2154 00a2 4046     		mov	r0, r8
 2155              	.LVL306:
 299:Drivers/STemWin/Config/GUIDRV_Template.c ****       }
 2156              		.loc 1 299 9 is_stmt 0 view .LVU636
 2157 00a4 FFF7FEFF 		bl	_SetPixelIndex
 2158              	.LVL307:
 2159 00a8 06E0     		b	.L134
 2160              	.LVL308:
 2161              	.L135:
 306:Drivers/STemWin/Config/GUIDRV_Template.c ****     break;
ARM GAS  F:\msys64\tmp\ccgRoccj.s 			page 62


 2162              		.loc 1 306 13 is_stmt 1 view .LVU637
 306:Drivers/STemWin/Config/GUIDRV_Template.c ****     break;
 2163              		.loc 1 306 5 is_stmt 0 view .LVU638
 2164 00aa 013D     		subs	r5, r5, #1
 2165              	.LVL309:
 306:Drivers/STemWin/Config/GUIDRV_Template.c ****     break;
 2166              		.loc 1 306 5 view .LVU639
 2167 00ac 0BD0     		beq	.L124
 2168              	.LVL310:
 2169              	.L136:
 296:Drivers/STemWin/Config/GUIDRV_Template.c ****       if (*p & (0x80 >> Diff)) {
 2170              		.loc 1 296 5 is_stmt 1 view .LVU640
 297:Drivers/STemWin/Config/GUIDRV_Template.c ****         Pixel = _GetPixelIndex(pDevice, x, y);
 2171              		.loc 1 297 7 view .LVU641
 297:Drivers/STemWin/Config/GUIDRV_Template.c ****         Pixel = _GetPixelIndex(pDevice, x, y);
 2172              		.loc 1 297 11 is_stmt 0 view .LVU642
 2173 00ae 3A78     		ldrb	r2, [r7]	@ zero_extendqisi2
 297:Drivers/STemWin/Config/GUIDRV_Template.c ****         Pixel = _GetPixelIndex(pDevice, x, y);
 2174              		.loc 1 297 22 view .LVU643
 2175 00b0 8023     		movs	r3, #128
 2176 00b2 2341     		asrs	r3, r3, r4
 297:Drivers/STemWin/Config/GUIDRV_Template.c ****         Pixel = _GetPixelIndex(pDevice, x, y);
 2177              		.loc 1 297 10 view .LVU644
 2178 00b4 1A42     		tst	r2, r3
 2179 00b6 EBD1     		bne	.L141
 2180              	.L134:
 301:Drivers/STemWin/Config/GUIDRV_Template.c ****       if (++Diff == 8) {
 2181              		.loc 1 301 7 is_stmt 1 view .LVU645
 301:Drivers/STemWin/Config/GUIDRV_Template.c ****       if (++Diff == 8) {
 2182              		.loc 1 301 8 is_stmt 0 view .LVU646
 2183 00b8 0136     		adds	r6, r6, #1
 2184              	.LVL311:
 302:Drivers/STemWin/Config/GUIDRV_Template.c ****         Diff = 0;
 2185              		.loc 1 302 7 is_stmt 1 view .LVU647
 302:Drivers/STemWin/Config/GUIDRV_Template.c ****         Diff = 0;
 2186              		.loc 1 302 10 is_stmt 0 view .LVU648
 2187 00ba 0134     		adds	r4, r4, #1
 2188              	.LVL312:
 302:Drivers/STemWin/Config/GUIDRV_Template.c ****         Diff = 0;
 2189              		.loc 1 302 10 view .LVU649
 2190 00bc 082C     		cmp	r4, #8
 2191 00be F4D1     		bne	.L135
 303:Drivers/STemWin/Config/GUIDRV_Template.c ****         p++;
 2192              		.loc 1 303 9 is_stmt 1 view .LVU650
 2193              	.LVL313:
 304:Drivers/STemWin/Config/GUIDRV_Template.c ****       }
 2194              		.loc 1 304 9 view .LVU651
 304:Drivers/STemWin/Config/GUIDRV_Template.c ****       }
 2195              		.loc 1 304 10 is_stmt 0 view .LVU652
 2196 00c0 0137     		adds	r7, r7, #1
 2197              	.LVL314:
 303:Drivers/STemWin/Config/GUIDRV_Template.c ****         p++;
 2198              		.loc 1 303 14 view .LVU653
 2199 00c2 0024     		movs	r4, #0
 2200 00c4 F1E7     		b	.L135
 2201              	.LVL315:
 2202              	.L124:
ARM GAS  F:\msys64\tmp\ccgRoccj.s 			page 63


 309:Drivers/STemWin/Config/GUIDRV_Template.c **** 
 2203              		.loc 1 309 1 view .LVU654
 2204 00c6 BDE8F88F 		pop	{r3, r4, r5, r6, r7, r8, r9, r10, fp, pc}
 2205              	.LVL316:
 2206              	.L143:
 309:Drivers/STemWin/Config/GUIDRV_Template.c **** 
 2207              		.loc 1 309 1 view .LVU655
 2208 00ca 00BF     		.align	2
 2209              	.L142:
 2210 00cc 00000000 		.word	GUI_pContext
 2211              		.cfi_endproc
 2212              	.LFE561:
 2214              		.section	.text._DrawBitmap,"ax",%progbits
 2215              		.align	1
 2216              		.syntax unified
 2217              		.thumb
 2218              		.thumb_func
 2220              	_DrawBitmap:
 2221              	.LVL317:
 2222              	.LFB567:
 526:Drivers/STemWin/Config/GUIDRV_Template.c ****   int i;
 2223              		.loc 1 526 55 is_stmt 1 view -0
 2224              		.cfi_startproc
 2225              		@ args = 24, pretend = 0, frame = 8
 2226              		@ frame_needed = 0, uses_anonymous_args = 0
 526:Drivers/STemWin/Config/GUIDRV_Template.c ****   int i;
 2227              		.loc 1 526 55 is_stmt 0 view .LVU657
 2228 0000 2DE9F04F 		push	{r4, r5, r6, r7, r8, r9, r10, fp, lr}
 2229              	.LCFI26:
 2230              		.cfi_def_cfa_offset 36
 2231              		.cfi_offset 4, -36
 2232              		.cfi_offset 5, -32
 2233              		.cfi_offset 6, -28
 2234              		.cfi_offset 7, -24
 2235              		.cfi_offset 8, -20
 2236              		.cfi_offset 9, -16
 2237              		.cfi_offset 10, -12
 2238              		.cfi_offset 11, -8
 2239              		.cfi_offset 14, -4
 2240 0004 87B0     		sub	sp, sp, #28
 2241              	.LCFI27:
 2242              		.cfi_def_cfa_offset 64
 2243 0006 0546     		mov	r5, r0
 2244 0008 0E46     		mov	r6, r1
 2245 000a 1746     		mov	r7, r2
 2246 000c 9846     		mov	r8, r3
 2247 000e DDF84090 		ldr	r9, [sp, #64]
 2248 0012 DDF848A0 		ldr	r10, [sp, #72]
 2249 0016 139C     		ldr	r4, [sp, #76]
 527:Drivers/STemWin/Config/GUIDRV_Template.c **** 
 2250              		.loc 1 527 3 is_stmt 1 view .LVU658
 529:Drivers/STemWin/Config/GUIDRV_Template.c ****   case 1:
 2251              		.loc 1 529 3 view .LVU659
 2252 0018 119B     		ldr	r3, [sp, #68]
 2253              	.LVL318:
 529:Drivers/STemWin/Config/GUIDRV_Template.c ****   case 1:
 2254              		.loc 1 529 3 is_stmt 0 view .LVU660
ARM GAS  F:\msys64\tmp\ccgRoccj.s 			page 64


 2255 001a 013B     		subs	r3, r3, #1
 2256 001c 1F2B     		cmp	r3, #31
 2257 001e 21D8     		bhi	.L144
 2258 0020 DFE803F0 		tbb	[pc, r3]
 2259              	.LVL319:
 2260              	.L147:
 2261 0024 23       		.byte	(.L159-.L147)/2
 2262 0025 3C       		.byte	(.L160-.L147)/2
 2263 0026 20       		.byte	(.L144-.L147)/2
 2264 0027 55       		.byte	(.L161-.L147)/2
 2265 0028 20       		.byte	(.L144-.L147)/2
 2266 0029 20       		.byte	(.L144-.L147)/2
 2267 002a 20       		.byte	(.L144-.L147)/2
 2268 002b 6C       		.byte	(.L162-.L147)/2
 2269 002c 20       		.byte	(.L144-.L147)/2
 2270 002d 20       		.byte	(.L144-.L147)/2
 2271 002e 20       		.byte	(.L144-.L147)/2
 2272 002f 20       		.byte	(.L144-.L147)/2
 2273 0030 20       		.byte	(.L144-.L147)/2
 2274 0031 20       		.byte	(.L144-.L147)/2
 2275 0032 20       		.byte	(.L144-.L147)/2
 2276 0033 83       		.byte	(.L163-.L147)/2
 2277 0034 20       		.byte	(.L144-.L147)/2
 2278 0035 20       		.byte	(.L144-.L147)/2
 2279 0036 20       		.byte	(.L144-.L147)/2
 2280 0037 20       		.byte	(.L144-.L147)/2
 2281 0038 20       		.byte	(.L144-.L147)/2
 2282 0039 20       		.byte	(.L144-.L147)/2
 2283 003a 20       		.byte	(.L144-.L147)/2
 2284 003b 20       		.byte	(.L144-.L147)/2
 2285 003c 20       		.byte	(.L144-.L147)/2
 2286 003d 20       		.byte	(.L144-.L147)/2
 2287 003e 20       		.byte	(.L144-.L147)/2
 2288 003f 20       		.byte	(.L144-.L147)/2
 2289 0040 20       		.byte	(.L144-.L147)/2
 2290 0041 20       		.byte	(.L144-.L147)/2
 2291 0042 20       		.byte	(.L144-.L147)/2
 2292 0043 95       		.byte	(.L164-.L147)/2
 2293              		.p2align 1
 2294              	.L153:
 532:Drivers/STemWin/Config/GUIDRV_Template.c ****       pData += BytesPerLine;
 2295              		.loc 1 532 7 is_stmt 1 discriminator 3 view .LVU661
 2296 0044 159B     		ldr	r3, [sp, #84]
 2297 0046 0293     		str	r3, [sp, #8]
 2298 0048 0195     		str	r5, [sp, #4]
 2299 004a 0096     		str	r6, [sp]
 2300 004c 2346     		mov	r3, r4
 2301 004e 0BEB0702 		add	r2, fp, r7
 2302 0052 0599     		ldr	r1, [sp, #20]
 2303 0054 4046     		mov	r0, r8
 2304 0056 FFF7FEFF 		bl	_DrawBitLine1BPP
 2305              	.LVL320:
 533:Drivers/STemWin/Config/GUIDRV_Template.c ****     }
 2306              		.loc 1 533 7 discriminator 3 view .LVU662
 533:Drivers/STemWin/Config/GUIDRV_Template.c ****     }
 2307              		.loc 1 533 13 is_stmt 0 discriminator 3 view .LVU663
 2308 005a 5444     		add	r4, r4, r10
ARM GAS  F:\msys64\tmp\ccgRoccj.s 			page 65


 2309              	.LVL321:
 531:Drivers/STemWin/Config/GUIDRV_Template.c ****       _DrawBitLine1BPP(pDevice, x0, i + y0, pData, Diff, xSize, pTrans);
 2310              		.loc 1 531 28 is_stmt 1 discriminator 3 view .LVU664
 531:Drivers/STemWin/Config/GUIDRV_Template.c ****       _DrawBitLine1BPP(pDevice, x0, i + y0, pData, Diff, xSize, pTrans);
 2311              		.loc 1 531 29 is_stmt 0 discriminator 3 view .LVU665
 2312 005c 0BF1010B 		add	fp, fp, #1
 2313              	.LVL322:
 2314              	.L152:
 531:Drivers/STemWin/Config/GUIDRV_Template.c ****       _DrawBitLine1BPP(pDevice, x0, i + y0, pData, Diff, xSize, pTrans);
 2315              		.loc 1 531 17 is_stmt 1 discriminator 1 view .LVU666
 531:Drivers/STemWin/Config/GUIDRV_Template.c ****       _DrawBitLine1BPP(pDevice, x0, i + y0, pData, Diff, xSize, pTrans);
 2316              		.loc 1 531 5 is_stmt 0 discriminator 1 view .LVU667
 2317 0060 CB45     		cmp	fp, r9
 2318 0062 EFDB     		blt	.L153
 2319              	.LVL323:
 2320              	.L144:
 573:Drivers/STemWin/Config/GUIDRV_Template.c **** 
 2321              		.loc 1 573 1 view .LVU668
 2322 0064 07B0     		add	sp, sp, #28
 2323              	.LCFI28:
 2324              		.cfi_remember_state
 2325              		.cfi_def_cfa_offset 36
 2326              		@ sp needed
 2327 0066 BDE8F08F 		pop	{r4, r5, r6, r7, r8, r9, r10, fp, pc}
 2328              	.LVL324:
 2329              	.L159:
 2330              	.LCFI29:
 2331              		.cfi_restore_state
 529:Drivers/STemWin/Config/GUIDRV_Template.c ****   case 1:
 2332              		.loc 1 529 3 view .LVU669
 2333 006a 4FF0000B 		mov	fp, #0
 2334 006e 0591     		str	r1, [sp, #20]
 2335 0070 4346     		mov	r3, r8
 2336 0072 8046     		mov	r8, r0
 2337              	.LVL325:
 529:Drivers/STemWin/Config/GUIDRV_Template.c ****   case 1:
 2338              		.loc 1 529 3 view .LVU670
 2339 0074 149E     		ldr	r6, [sp, #80]
 2340 0076 1D46     		mov	r5, r3
 2341 0078 F2E7     		b	.L152
 2342              	.LVL326:
 2343              	.L154:
 538:Drivers/STemWin/Config/GUIDRV_Template.c ****       pData += BytesPerLine;
 2344              		.loc 1 538 7 is_stmt 1 discriminator 3 view .LVU671
 2345 007a 159B     		ldr	r3, [sp, #84]
 2346 007c 0293     		str	r3, [sp, #8]
 2347 007e 0195     		str	r5, [sp, #4]
 2348 0080 0096     		str	r6, [sp]
 2349 0082 2346     		mov	r3, r4
 2350 0084 0BEB0702 		add	r2, fp, r7
 2351 0088 0599     		ldr	r1, [sp, #20]
 2352 008a 4046     		mov	r0, r8
 2353 008c FFF7FEFF 		bl	_DrawBitLine2BPP
 2354              	.LVL327:
 539:Drivers/STemWin/Config/GUIDRV_Template.c ****     }
 2355              		.loc 1 539 7 discriminator 3 view .LVU672
 539:Drivers/STemWin/Config/GUIDRV_Template.c ****     }
ARM GAS  F:\msys64\tmp\ccgRoccj.s 			page 66


 2356              		.loc 1 539 13 is_stmt 0 discriminator 3 view .LVU673
 2357 0090 5444     		add	r4, r4, r10
 2358              	.LVL328:
 537:Drivers/STemWin/Config/GUIDRV_Template.c ****       _DrawBitLine2BPP(pDevice, x0, i + y0, pData, Diff, xSize, pTrans);
 2359              		.loc 1 537 28 is_stmt 1 discriminator 3 view .LVU674
 537:Drivers/STemWin/Config/GUIDRV_Template.c ****       _DrawBitLine2BPP(pDevice, x0, i + y0, pData, Diff, xSize, pTrans);
 2360              		.loc 1 537 29 is_stmt 0 discriminator 3 view .LVU675
 2361 0092 0BF1010B 		add	fp, fp, #1
 2362              	.LVL329:
 2363              	.L151:
 537:Drivers/STemWin/Config/GUIDRV_Template.c ****       _DrawBitLine2BPP(pDevice, x0, i + y0, pData, Diff, xSize, pTrans);
 2364              		.loc 1 537 17 is_stmt 1 discriminator 1 view .LVU676
 537:Drivers/STemWin/Config/GUIDRV_Template.c ****       _DrawBitLine2BPP(pDevice, x0, i + y0, pData, Diff, xSize, pTrans);
 2365              		.loc 1 537 5 is_stmt 0 discriminator 1 view .LVU677
 2366 0096 CB45     		cmp	fp, r9
 2367 0098 EFDB     		blt	.L154
 2368 009a E3E7     		b	.L144
 2369              	.LVL330:
 2370              	.L160:
 529:Drivers/STemWin/Config/GUIDRV_Template.c ****   case 1:
 2371              		.loc 1 529 3 view .LVU678
 2372 009c 4FF0000B 		mov	fp, #0
 2373 00a0 0591     		str	r1, [sp, #20]
 2374 00a2 4346     		mov	r3, r8
 2375 00a4 8046     		mov	r8, r0
 2376              	.LVL331:
 529:Drivers/STemWin/Config/GUIDRV_Template.c ****   case 1:
 2377              		.loc 1 529 3 view .LVU679
 2378 00a6 149E     		ldr	r6, [sp, #80]
 2379 00a8 1D46     		mov	r5, r3
 2380 00aa F4E7     		b	.L151
 2381              	.LVL332:
 2382              	.L155:
 544:Drivers/STemWin/Config/GUIDRV_Template.c ****       pData += BytesPerLine;
 2383              		.loc 1 544 7 is_stmt 1 discriminator 3 view .LVU680
 2384 00ac 159B     		ldr	r3, [sp, #84]
 2385 00ae 0293     		str	r3, [sp, #8]
 2386 00b0 0195     		str	r5, [sp, #4]
 2387 00b2 0096     		str	r6, [sp]
 2388 00b4 2346     		mov	r3, r4
 2389 00b6 0BEB0702 		add	r2, fp, r7
 2390 00ba 0599     		ldr	r1, [sp, #20]
 2391 00bc 4046     		mov	r0, r8
 2392 00be FFF7FEFF 		bl	_DrawBitLine4BPP
 2393              	.LVL333:
 545:Drivers/STemWin/Config/GUIDRV_Template.c ****     }
 2394              		.loc 1 545 7 discriminator 3 view .LVU681
 545:Drivers/STemWin/Config/GUIDRV_Template.c ****     }
 2395              		.loc 1 545 13 is_stmt 0 discriminator 3 view .LVU682
 2396 00c2 5444     		add	r4, r4, r10
 2397              	.LVL334:
 543:Drivers/STemWin/Config/GUIDRV_Template.c ****       _DrawBitLine4BPP(pDevice, x0, i + y0, pData, Diff, xSize, pTrans);
 2398              		.loc 1 543 28 is_stmt 1 discriminator 3 view .LVU683
 543:Drivers/STemWin/Config/GUIDRV_Template.c ****       _DrawBitLine4BPP(pDevice, x0, i + y0, pData, Diff, xSize, pTrans);
 2399              		.loc 1 543 29 is_stmt 0 discriminator 3 view .LVU684
 2400 00c4 0BF1010B 		add	fp, fp, #1
 2401              	.LVL335:
ARM GAS  F:\msys64\tmp\ccgRoccj.s 			page 67


 2402              	.L150:
 543:Drivers/STemWin/Config/GUIDRV_Template.c ****       _DrawBitLine4BPP(pDevice, x0, i + y0, pData, Diff, xSize, pTrans);
 2403              		.loc 1 543 17 is_stmt 1 discriminator 1 view .LVU685
 543:Drivers/STemWin/Config/GUIDRV_Template.c ****       _DrawBitLine4BPP(pDevice, x0, i + y0, pData, Diff, xSize, pTrans);
 2404              		.loc 1 543 5 is_stmt 0 discriminator 1 view .LVU686
 2405 00c8 CB45     		cmp	fp, r9
 2406 00ca EFDB     		blt	.L155
 2407 00cc CAE7     		b	.L144
 2408              	.LVL336:
 2409              	.L161:
 529:Drivers/STemWin/Config/GUIDRV_Template.c ****   case 1:
 2410              		.loc 1 529 3 view .LVU687
 2411 00ce 4FF0000B 		mov	fp, #0
 2412 00d2 0591     		str	r1, [sp, #20]
 2413 00d4 4346     		mov	r3, r8
 2414 00d6 8046     		mov	r8, r0
 2415              	.LVL337:
 529:Drivers/STemWin/Config/GUIDRV_Template.c ****   case 1:
 2416              		.loc 1 529 3 view .LVU688
 2417 00d8 149E     		ldr	r6, [sp, #80]
 2418 00da 1D46     		mov	r5, r3
 2419 00dc F4E7     		b	.L150
 2420              	.LVL338:
 2421              	.L156:
 550:Drivers/STemWin/Config/GUIDRV_Template.c ****       pData += BytesPerLine;
 2422              		.loc 1 550 7 is_stmt 1 discriminator 3 view .LVU689
 2423 00de 0196     		str	r6, [sp, #4]
 2424 00e0 0095     		str	r5, [sp]
 2425 00e2 2346     		mov	r3, r4
 2426 00e4 0BEB0702 		add	r2, fp, r7
 2427 00e8 0599     		ldr	r1, [sp, #20]
 2428 00ea 4046     		mov	r0, r8
 2429 00ec FFF7FEFF 		bl	_DrawBitLine8BPP
 2430              	.LVL339:
 551:Drivers/STemWin/Config/GUIDRV_Template.c ****     }
 2431              		.loc 1 551 7 discriminator 3 view .LVU690
 551:Drivers/STemWin/Config/GUIDRV_Template.c ****     }
 2432              		.loc 1 551 13 is_stmt 0 discriminator 3 view .LVU691
 2433 00f0 5444     		add	r4, r4, r10
 2434              	.LVL340:
 549:Drivers/STemWin/Config/GUIDRV_Template.c ****       _DrawBitLine8BPP(pDevice, x0, i + y0, pData, xSize, pTrans);
 2435              		.loc 1 549 28 is_stmt 1 discriminator 3 view .LVU692
 549:Drivers/STemWin/Config/GUIDRV_Template.c ****       _DrawBitLine8BPP(pDevice, x0, i + y0, pData, xSize, pTrans);
 2436              		.loc 1 549 29 is_stmt 0 discriminator 3 view .LVU693
 2437 00f2 0BF1010B 		add	fp, fp, #1
 2438              	.LVL341:
 2439              	.L149:
 549:Drivers/STemWin/Config/GUIDRV_Template.c ****       _DrawBitLine8BPP(pDevice, x0, i + y0, pData, xSize, pTrans);
 2440              		.loc 1 549 17 is_stmt 1 discriminator 1 view .LVU694
 549:Drivers/STemWin/Config/GUIDRV_Template.c ****       _DrawBitLine8BPP(pDevice, x0, i + y0, pData, xSize, pTrans);
 2441              		.loc 1 549 5 is_stmt 0 discriminator 1 view .LVU695
 2442 00f6 CB45     		cmp	fp, r9
 2443 00f8 F1DB     		blt	.L156
 2444 00fa B3E7     		b	.L144
 2445              	.LVL342:
 2446              	.L162:
 529:Drivers/STemWin/Config/GUIDRV_Template.c ****   case 1:
ARM GAS  F:\msys64\tmp\ccgRoccj.s 			page 68


 2447              		.loc 1 529 3 view .LVU696
 2448 00fc 4FF0000B 		mov	fp, #0
 2449 0100 0591     		str	r1, [sp, #20]
 2450 0102 4346     		mov	r3, r8
 2451 0104 8046     		mov	r8, r0
 2452              	.LVL343:
 529:Drivers/STemWin/Config/GUIDRV_Template.c ****   case 1:
 2453              		.loc 1 529 3 view .LVU697
 2454 0106 159E     		ldr	r6, [sp, #84]
 2455 0108 1D46     		mov	r5, r3
 2456 010a F4E7     		b	.L149
 2457              	.LVL344:
 2458              	.L157:
 559:Drivers/STemWin/Config/GUIDRV_Template.c ****       pData += BytesPerLine;
 2459              		.loc 1 559 7 is_stmt 1 discriminator 3 view .LVU698
 2460 010c CDF80080 		str	r8, [sp]
 2461 0110 2346     		mov	r3, r4
 2462 0112 0BEB0702 		add	r2, fp, r7
 2463 0116 3146     		mov	r1, r6
 2464 0118 2846     		mov	r0, r5
 2465 011a FFF7FEFF 		bl	_DrawBitLine16BPP
 2466              	.LVL345:
 560:Drivers/STemWin/Config/GUIDRV_Template.c ****     }
 2467              		.loc 1 560 7 discriminator 3 view .LVU699
 560:Drivers/STemWin/Config/GUIDRV_Template.c ****     }
 2468              		.loc 1 560 13 is_stmt 0 discriminator 3 view .LVU700
 2469 011e 5444     		add	r4, r4, r10
 2470              	.LVL346:
 558:Drivers/STemWin/Config/GUIDRV_Template.c ****       _DrawBitLine16BPP(pDevice, x0, i + y0, (const U16 *)pData, xSize);
 2471              		.loc 1 558 28 is_stmt 1 discriminator 3 view .LVU701
 558:Drivers/STemWin/Config/GUIDRV_Template.c ****       _DrawBitLine16BPP(pDevice, x0, i + y0, (const U16 *)pData, xSize);
 2472              		.loc 1 558 29 is_stmt 0 discriminator 3 view .LVU702
 2473 0120 0BF1010B 		add	fp, fp, #1
 2474              	.LVL347:
 2475              	.L148:
 558:Drivers/STemWin/Config/GUIDRV_Template.c ****       _DrawBitLine16BPP(pDevice, x0, i + y0, (const U16 *)pData, xSize);
 2476              		.loc 1 558 17 is_stmt 1 discriminator 1 view .LVU703
 558:Drivers/STemWin/Config/GUIDRV_Template.c ****       _DrawBitLine16BPP(pDevice, x0, i + y0, (const U16 *)pData, xSize);
 2477              		.loc 1 558 5 is_stmt 0 discriminator 1 view .LVU704
 2478 0124 CB45     		cmp	fp, r9
 2479 0126 F1DB     		blt	.L157
 2480 0128 9CE7     		b	.L144
 2481              	.LVL348:
 2482              	.L163:
 529:Drivers/STemWin/Config/GUIDRV_Template.c ****   case 1:
 2483              		.loc 1 529 3 view .LVU705
 2484 012a 4FF0000B 		mov	fp, #0
 2485 012e F9E7     		b	.L148
 2486              	.LVL349:
 2487              	.L158:
 568:Drivers/STemWin/Config/GUIDRV_Template.c ****       pData += BytesPerLine;
 2488              		.loc 1 568 7 is_stmt 1 discriminator 3 view .LVU706
 2489 0130 CDF80080 		str	r8, [sp]
 2490 0134 2346     		mov	r3, r4
 2491 0136 0BEB0702 		add	r2, fp, r7
 2492 013a 3146     		mov	r1, r6
 2493 013c 2846     		mov	r0, r5
ARM GAS  F:\msys64\tmp\ccgRoccj.s 			page 69


 2494 013e FFF7FEFF 		bl	_DrawBitLine32BPP
 2495              	.LVL350:
 569:Drivers/STemWin/Config/GUIDRV_Template.c ****     }
 2496              		.loc 1 569 7 discriminator 3 view .LVU707
 569:Drivers/STemWin/Config/GUIDRV_Template.c ****     }
 2497              		.loc 1 569 13 is_stmt 0 discriminator 3 view .LVU708
 2498 0142 5444     		add	r4, r4, r10
 2499              	.LVL351:
 567:Drivers/STemWin/Config/GUIDRV_Template.c ****       _DrawBitLine32BPP(pDevice, x0, i + y0, (const U32 *)pData, xSize);
 2500              		.loc 1 567 28 is_stmt 1 discriminator 3 view .LVU709
 567:Drivers/STemWin/Config/GUIDRV_Template.c ****       _DrawBitLine32BPP(pDevice, x0, i + y0, (const U32 *)pData, xSize);
 2501              		.loc 1 567 29 is_stmt 0 discriminator 3 view .LVU710
 2502 0144 0BF1010B 		add	fp, fp, #1
 2503              	.LVL352:
 2504              	.L146:
 567:Drivers/STemWin/Config/GUIDRV_Template.c ****       _DrawBitLine32BPP(pDevice, x0, i + y0, (const U32 *)pData, xSize);
 2505              		.loc 1 567 17 is_stmt 1 discriminator 1 view .LVU711
 567:Drivers/STemWin/Config/GUIDRV_Template.c ****       _DrawBitLine32BPP(pDevice, x0, i + y0, (const U32 *)pData, xSize);
 2506              		.loc 1 567 5 is_stmt 0 discriminator 1 view .LVU712
 2507 0148 CB45     		cmp	fp, r9
 2508 014a F1DB     		blt	.L158
 2509 014c 8AE7     		b	.L144
 2510              	.LVL353:
 2511              	.L164:
 529:Drivers/STemWin/Config/GUIDRV_Template.c ****   case 1:
 2512              		.loc 1 529 3 view .LVU713
 2513 014e 4FF0000B 		mov	fp, #0
 2514 0152 F9E7     		b	.L146
 2515              		.cfi_endproc
 2516              	.LFE567:
 2518              		.section	.text._FillRect,"ax",%progbits
 2519              		.align	1
 2520              		.syntax unified
 2521              		.thumb
 2522              		.thumb_func
 2524              	_FillRect:
 2525              	.LVL354:
 2526              	.LFB558:
 225:Drivers/STemWin/Config/GUIDRV_Template.c ****   LCD_PIXELINDEX PixelIndex;
 2527              		.loc 1 225 77 is_stmt 1 view -0
 2528              		.cfi_startproc
 2529              		@ args = 4, pretend = 0, frame = 0
 2530              		@ frame_needed = 0, uses_anonymous_args = 0
 225:Drivers/STemWin/Config/GUIDRV_Template.c ****   LCD_PIXELINDEX PixelIndex;
 2531              		.loc 1 225 77 is_stmt 0 view .LVU715
 2532 0000 2DE9F043 		push	{r4, r5, r6, r7, r8, r9, lr}
 2533              	.LCFI30:
 2534              		.cfi_def_cfa_offset 28
 2535              		.cfi_offset 4, -28
 2536              		.cfi_offset 5, -24
 2537              		.cfi_offset 6, -20
 2538              		.cfi_offset 7, -16
 2539              		.cfi_offset 8, -12
 2540              		.cfi_offset 9, -8
 2541              		.cfi_offset 14, -4
 2542 0004 83B0     		sub	sp, sp, #12
 2543              	.LCFI31:
ARM GAS  F:\msys64\tmp\ccgRoccj.s 			page 70


 2544              		.cfi_def_cfa_offset 40
 2545 0006 0746     		mov	r7, r0
 2546 0008 8946     		mov	r9, r1
 2547 000a 1546     		mov	r5, r2
 2548 000c 1E46     		mov	r6, r3
 2549 000e DDF82880 		ldr	r8, [sp, #40]
 226:Drivers/STemWin/Config/GUIDRV_Template.c ****   int x;
 2550              		.loc 1 226 3 is_stmt 1 view .LVU716
 227:Drivers/STemWin/Config/GUIDRV_Template.c **** 
 2551              		.loc 1 227 3 view .LVU717
 229:Drivers/STemWin/Config/GUIDRV_Template.c ****   if (GUI_pContext->DrawMode & LCD_DRAWMODE_XOR) {
 2552              		.loc 1 229 3 view .LVU718
 229:Drivers/STemWin/Config/GUIDRV_Template.c ****   if (GUI_pContext->DrawMode & LCD_DRAWMODE_XOR) {
 2553              		.loc 1 229 16 is_stmt 0 view .LVU719
 2554 0012 134B     		ldr	r3, .L175
 2555              	.LVL355:
 229:Drivers/STemWin/Config/GUIDRV_Template.c ****   if (GUI_pContext->DrawMode & LCD_DRAWMODE_XOR) {
 2556              		.loc 1 229 16 view .LVU720
 2557 0014 1B68     		ldr	r3, [r3]
 2558 0016 DA6B     		ldr	r2, [r3, #60]
 2559              	.LVL356:
 229:Drivers/STemWin/Config/GUIDRV_Template.c ****   if (GUI_pContext->DrawMode & LCD_DRAWMODE_XOR) {
 2560              		.loc 1 229 14 view .LVU721
 2561 0018 1468     		ldr	r4, [r2]
 2562              	.LVL357:
 230:Drivers/STemWin/Config/GUIDRV_Template.c ****     for (; y0 <= y1; y0++) {
 2563              		.loc 1 230 3 is_stmt 1 view .LVU722
 230:Drivers/STemWin/Config/GUIDRV_Template.c ****     for (; y0 <= y1; y0++) {
 2564              		.loc 1 230 19 is_stmt 0 view .LVU723
 2565 001a 1B7C     		ldrb	r3, [r3, #16]	@ zero_extendqisi2
 230:Drivers/STemWin/Config/GUIDRV_Template.c ****     for (; y0 <= y1; y0++) {
 2566              		.loc 1 230 6 view .LVU724
 2567 001c 13F0010F 		tst	r3, #1
 2568 0020 1AD1     		bne	.L167
 242:Drivers/STemWin/Config/GUIDRV_Template.c ****   }
 2569              		.loc 1 242 3 is_stmt 1 view .LVU725
 2570 0022 88B2     		uxth	r0, r1
 2571              	.LVL358:
 242:Drivers/STemWin/Config/GUIDRV_Template.c ****   }
 2572              		.loc 1 242 3 is_stmt 0 view .LVU726
 2573 0024 A9B2     		uxth	r1, r5
 2574              	.LVL359:
 242:Drivers/STemWin/Config/GUIDRV_Template.c ****   }
 2575              		.loc 1 242 23 view .LVU727
 2576 0026 321A     		subs	r2, r6, r0
 2577 0028 92B2     		uxth	r2, r2
 242:Drivers/STemWin/Config/GUIDRV_Template.c ****   }
 2578              		.loc 1 242 36 view .LVU728
 2579 002a A8EB0103 		sub	r3, r8, r1
 2580 002e 9BB2     		uxth	r3, r3
 242:Drivers/STemWin/Config/GUIDRV_Template.c ****   }
 2581              		.loc 1 242 3 view .LVU729
 2582 0030 0133     		adds	r3, r3, #1
 2583 0032 0132     		adds	r2, r2, #1
 2584 0034 A4B2     		uxth	r4, r4
 2585              	.LVL360:
 242:Drivers/STemWin/Config/GUIDRV_Template.c ****   }
ARM GAS  F:\msys64\tmp\ccgRoccj.s 			page 71


 2586              		.loc 1 242 3 view .LVU730
 2587 0036 0094     		str	r4, [sp]
 2588              	.LVL361:
 242:Drivers/STemWin/Config/GUIDRV_Template.c ****   }
 2589              		.loc 1 242 3 view .LVU731
 2590 0038 9BB2     		uxth	r3, r3
 2591 003a 92B2     		uxth	r2, r2
 2592 003c FFF7FEFF 		bl	LCD_Fill
 2593              	.LVL362:
 2594              	.L166:
 244:Drivers/STemWin/Config/GUIDRV_Template.c **** 
 2595              		.loc 1 244 1 view .LVU732
 2596 0040 03B0     		add	sp, sp, #12
 2597              	.LCFI32:
 2598              		.cfi_remember_state
 2599              		.cfi_def_cfa_offset 28
 2600              		@ sp needed
 2601 0042 BDE8F083 		pop	{r4, r5, r6, r7, r8, r9, pc}
 2602              	.LVL363:
 2603              	.L169:
 2604              	.LCFI33:
 2605              		.cfi_restore_state
 233:Drivers/STemWin/Config/GUIDRV_Template.c ****       }
 2606              		.loc 1 233 9 is_stmt 1 discriminator 3 view .LVU733
 2607 0046 2A46     		mov	r2, r5
 2608 0048 2146     		mov	r1, r4
 2609 004a 3846     		mov	r0, r7
 2610 004c FFF7FEFF 		bl	_XorPixel
 2611              	.LVL364:
 232:Drivers/STemWin/Config/GUIDRV_Template.c ****         _XorPixel(pDevice, x, y0);
 2612              		.loc 1 232 29 discriminator 3 view .LVU734
 232:Drivers/STemWin/Config/GUIDRV_Template.c ****         _XorPixel(pDevice, x, y0);
 2613              		.loc 1 232 30 is_stmt 0 discriminator 3 view .LVU735
 2614 0050 0134     		adds	r4, r4, #1
 2615              	.LVL365:
 2616              	.L170:
 232:Drivers/STemWin/Config/GUIDRV_Template.c ****         _XorPixel(pDevice, x, y0);
 2617              		.loc 1 232 20 is_stmt 1 discriminator 1 view .LVU736
 232:Drivers/STemWin/Config/GUIDRV_Template.c ****         _XorPixel(pDevice, x, y0);
 2618              		.loc 1 232 7 is_stmt 0 discriminator 1 view .LVU737
 2619 0052 B442     		cmp	r4, r6
 2620 0054 F7DD     		ble	.L169
 231:Drivers/STemWin/Config/GUIDRV_Template.c ****       for (x = x0; x <= x1; x++) {
 2621              		.loc 1 231 22 is_stmt 1 view .LVU738
 231:Drivers/STemWin/Config/GUIDRV_Template.c ****       for (x = x0; x <= x1; x++) {
 2622              		.loc 1 231 24 is_stmt 0 view .LVU739
 2623 0056 0135     		adds	r5, r5, #1
 2624              	.LVL366:
 2625              	.L167:
 231:Drivers/STemWin/Config/GUIDRV_Template.c ****       for (x = x0; x <= x1; x++) {
 2626              		.loc 1 231 12 is_stmt 1 discriminator 1 view .LVU740
 231:Drivers/STemWin/Config/GUIDRV_Template.c ****       for (x = x0; x <= x1; x++) {
 2627              		.loc 1 231 5 is_stmt 0 discriminator 1 view .LVU741
 2628 0058 4545     		cmp	r5, r8
 2629 005a F1DC     		bgt	.L166
 232:Drivers/STemWin/Config/GUIDRV_Template.c ****         _XorPixel(pDevice, x, y0);
 2630              		.loc 1 232 14 view .LVU742
ARM GAS  F:\msys64\tmp\ccgRoccj.s 			page 72


 2631 005c 4C46     		mov	r4, r9
 2632 005e F8E7     		b	.L170
 2633              	.L176:
 2634              		.align	2
 2635              	.L175:
 2636 0060 00000000 		.word	GUI_pContext
 2637              		.cfi_endproc
 2638              	.LFE558:
 2640              		.section	.text._DrawVLine,"ax",%progbits
 2641              		.align	1
 2642              		.syntax unified
 2643              		.thumb
 2644              		.thumb_func
 2646              	_DrawVLine:
 2647              	.LVL367:
 2648              	.LFB560:
 258:Drivers/STemWin/Config/GUIDRV_Template.c ****   _FillRect(pDevice, x, y0, x, y1);
 2649              		.loc 1 258 69 is_stmt 1 view -0
 2650              		.cfi_startproc
 2651              		@ args = 0, pretend = 0, frame = 0
 2652              		@ frame_needed = 0, uses_anonymous_args = 0
 258:Drivers/STemWin/Config/GUIDRV_Template.c ****   _FillRect(pDevice, x, y0, x, y1);
 2653              		.loc 1 258 69 is_stmt 0 view .LVU744
 2654 0000 00B5     		push	{lr}
 2655              	.LCFI34:
 2656              		.cfi_def_cfa_offset 4
 2657              		.cfi_offset 14, -4
 2658 0002 83B0     		sub	sp, sp, #12
 2659              	.LCFI35:
 2660              		.cfi_def_cfa_offset 16
 259:Drivers/STemWin/Config/GUIDRV_Template.c **** }
 2661              		.loc 1 259 3 is_stmt 1 view .LVU745
 2662 0004 0093     		str	r3, [sp]
 2663 0006 0B46     		mov	r3, r1
 2664              	.LVL368:
 259:Drivers/STemWin/Config/GUIDRV_Template.c **** }
 2665              		.loc 1 259 3 is_stmt 0 view .LVU746
 2666 0008 FFF7FEFF 		bl	_FillRect
 2667              	.LVL369:
 260:Drivers/STemWin/Config/GUIDRV_Template.c **** 
 2668              		.loc 1 260 1 view .LVU747
 2669 000c 03B0     		add	sp, sp, #12
 2670              	.LCFI36:
 2671              		.cfi_def_cfa_offset 4
 2672              		@ sp needed
 2673 000e 5DF804FB 		ldr	pc, [sp], #4
 2674              		.cfi_endproc
 2675              	.LFE560:
 2677              		.section	.text._DrawHLine,"ax",%progbits
 2678              		.align	1
 2679              		.syntax unified
 2680              		.thumb
 2681              		.thumb_func
 2683              	_DrawHLine:
 2684              	.LVL370:
 2685              	.LFB559:
 250:Drivers/STemWin/Config/GUIDRV_Template.c ****   _FillRect(pDevice, x0, y, x1, y);
ARM GAS  F:\msys64\tmp\ccgRoccj.s 			page 73


 2686              		.loc 1 250 69 is_stmt 1 view -0
 2687              		.cfi_startproc
 2688              		@ args = 0, pretend = 0, frame = 0
 2689              		@ frame_needed = 0, uses_anonymous_args = 0
 250:Drivers/STemWin/Config/GUIDRV_Template.c ****   _FillRect(pDevice, x0, y, x1, y);
 2690              		.loc 1 250 69 is_stmt 0 view .LVU749
 2691 0000 00B5     		push	{lr}
 2692              	.LCFI37:
 2693              		.cfi_def_cfa_offset 4
 2694              		.cfi_offset 14, -4
 2695 0002 83B0     		sub	sp, sp, #12
 2696              	.LCFI38:
 2697              		.cfi_def_cfa_offset 16
 251:Drivers/STemWin/Config/GUIDRV_Template.c **** }
 2698              		.loc 1 251 3 is_stmt 1 view .LVU750
 2699 0004 0092     		str	r2, [sp]
 2700 0006 FFF7FEFF 		bl	_FillRect
 2701              	.LVL371:
 252:Drivers/STemWin/Config/GUIDRV_Template.c **** 
 2702              		.loc 1 252 1 is_stmt 0 view .LVU751
 2703 000a 03B0     		add	sp, sp, #12
 2704              	.LCFI39:
 2705              		.cfi_def_cfa_offset 4
 2706              		@ sp needed
 2707 000c 5DF804FB 		ldr	pc, [sp], #4
 2708              		.cfi_endproc
 2709              	.LFE559:
 2711              		.global	GUIDRV_Template_API
 2712              		.section	.rodata.GUIDRV_Template_API,"a"
 2713              		.align	2
 2716              	GUIDRV_Template_API:
 2717 0000 00000000 		.word	0
 2718 0004 00000000 		.word	_DrawBitmap
 2719 0008 00000000 		.word	_DrawHLine
 2720 000c 00000000 		.word	_DrawVLine
 2721 0010 00000000 		.word	_FillRect
 2722 0014 00000000 		.word	_GetPixelIndex
 2723 0018 00000000 		.word	_SetPixelIndex
 2724 001c 00000000 		.word	_XorPixel
 2725 0020 00000000 		.word	_SetOrg
 2726 0024 00000000 		.word	_GetDevFunc
 2727 0028 00000000 		.word	_GetDevProp
 2728 002c 00000000 		.word	_GetDevData
 2729 0030 00000000 		.word	_GetRect
 2730              		.text
 2731              	.Letext0:
 2732              		.file 2 "Drivers/STemWin/inc/LCD.h"
 2733              		.file 3 "Drivers/STemWin/inc/GUI.h"
 2734              		.file 4 "Drivers/STemWin/inc/GUI_Type.h"
 2735              		.file 5 "Drivers/STemWin/inc/GUI_Private.h"
 2736              		.file 6 "f:\\stm32\\win-dev-tools\\gcc-arm-none-eabi\\arm-none-eabi\\include\\machine\\_default_ty
 2737              		.file 7 "f:\\stm32\\win-dev-tools\\gcc-arm-none-eabi\\arm-none-eabi\\include\\sys\\_stdint.h"
 2738              		.file 8 "Drivers/STM32F4xx_HAL_Driver/Inc/stm32f4xx_ll_dma.h"
 2739              		.file 9 "Drivers/LCD/lcd_drv.h"
ARM GAS  F:\msys64\tmp\ccgRoccj.s 			page 74

