ARM GAS  F:\msys64\tmp\cclfnzNs.s 			page 1


   1              		.cpu cortex-m4
   2              		.arch armv7e-m
   3              		.fpu fpv4-sp-d16
   4              		.eabi_attribute 27, 1
   5              		.eabi_attribute 28, 1
   6              		.eabi_attribute 20, 1
   7              		.eabi_attribute 21, 1
   8              		.eabi_attribute 23, 3
   9              		.eabi_attribute 24, 1
  10              		.eabi_attribute 25, 1
  11              		.eabi_attribute 26, 1
  12              		.eabi_attribute 30, 1
  13              		.eabi_attribute 34, 1
  14              		.eabi_attribute 18, 4
  15              		.file	"i2c.c"
  16              		.text
  17              	.Ltext0:
  18              		.cfi_sections	.debug_frame
  19              		.section	.text.MX_I2C1_Init,"ax",%progbits
  20              		.align	1
  21              		.global	MX_I2C1_Init
  22              		.syntax unified
  23              		.thumb
  24              		.thumb_func
  26              	MX_I2C1_Init:
  27              	.LFB658:
  28              		.file 1 "Core/Src/i2c.c"
   1:Core/Src/i2c.c **** /* USER CODE BEGIN Header */
   2:Core/Src/i2c.c **** /**
   3:Core/Src/i2c.c ****   ******************************************************************************
   4:Core/Src/i2c.c ****   * @file    i2c.c
   5:Core/Src/i2c.c ****   * @brief   This file provides code for the configuration
   6:Core/Src/i2c.c ****   *          of the I2C instances.
   7:Core/Src/i2c.c ****   ******************************************************************************
   8:Core/Src/i2c.c ****   * @attention
   9:Core/Src/i2c.c ****   *
  10:Core/Src/i2c.c ****   * Copyright (c) 2024 STMicroelectronics.
  11:Core/Src/i2c.c ****   * All rights reserved.
  12:Core/Src/i2c.c ****   *
  13:Core/Src/i2c.c ****   * This software is licensed under terms that can be found in the LICENSE file
  14:Core/Src/i2c.c ****   * in the root directory of this software component.
  15:Core/Src/i2c.c ****   * If no LICENSE file comes with this software, it is provided AS-IS.
  16:Core/Src/i2c.c ****   *
  17:Core/Src/i2c.c ****   ******************************************************************************
  18:Core/Src/i2c.c ****   */
  19:Core/Src/i2c.c **** /* USER CODE END Header */
  20:Core/Src/i2c.c **** /* Includes ------------------------------------------------------------------*/
  21:Core/Src/i2c.c **** #include "i2c.h"
  22:Core/Src/i2c.c **** 
  23:Core/Src/i2c.c **** /* USER CODE BEGIN 0 */
  24:Core/Src/i2c.c **** 
  25:Core/Src/i2c.c **** /* USER CODE END 0 */
  26:Core/Src/i2c.c **** 
  27:Core/Src/i2c.c **** /* I2C1 init function */
  28:Core/Src/i2c.c **** void MX_I2C1_Init(void)
  29:Core/Src/i2c.c **** {
  29              		.loc 1 29 1 view -0
ARM GAS  F:\msys64\tmp\cclfnzNs.s 			page 2


  30              		.cfi_startproc
  31              		@ args = 0, pretend = 0, frame = 56
  32              		@ frame_needed = 0, uses_anonymous_args = 0
  33 0000 30B5     		push	{r4, r5, lr}
  34              	.LCFI0:
  35              		.cfi_def_cfa_offset 12
  36              		.cfi_offset 4, -12
  37              		.cfi_offset 5, -8
  38              		.cfi_offset 14, -4
  39 0002 8FB0     		sub	sp, sp, #60
  40              	.LCFI1:
  41              		.cfi_def_cfa_offset 72
  30:Core/Src/i2c.c **** 
  31:Core/Src/i2c.c ****   /* USER CODE BEGIN I2C1_Init 0 */
  32:Core/Src/i2c.c **** 
  33:Core/Src/i2c.c ****   /* USER CODE END I2C1_Init 0 */
  34:Core/Src/i2c.c **** 
  35:Core/Src/i2c.c ****   LL_I2C_InitTypeDef I2C_InitStruct = {0};
  42              		.loc 1 35 3 view .LVU1
  43              		.loc 1 35 22 is_stmt 0 view .LVU2
  44 0004 0024     		movs	r4, #0
  45 0006 0894     		str	r4, [sp, #32]
  46 0008 0994     		str	r4, [sp, #36]
  47 000a 0A94     		str	r4, [sp, #40]
  48 000c 0B94     		str	r4, [sp, #44]
  49 000e 0C94     		str	r4, [sp, #48]
  50 0010 0D94     		str	r4, [sp, #52]
  36:Core/Src/i2c.c **** 
  37:Core/Src/i2c.c ****   LL_GPIO_InitTypeDef GPIO_InitStruct = {0};
  51              		.loc 1 37 3 is_stmt 1 view .LVU3
  52              		.loc 1 37 23 is_stmt 0 view .LVU4
  53 0012 0294     		str	r4, [sp, #8]
  54 0014 0394     		str	r4, [sp, #12]
  55 0016 0494     		str	r4, [sp, #16]
  56 0018 0594     		str	r4, [sp, #20]
  57 001a 0694     		str	r4, [sp, #24]
  58 001c 0794     		str	r4, [sp, #28]
  38:Core/Src/i2c.c **** 
  39:Core/Src/i2c.c ****   LL_AHB1_GRP1_EnableClock(LL_AHB1_GRP1_PERIPH_GPIOB);
  59              		.loc 1 39 3 is_stmt 1 view .LVU5
  60              	.LVL0:
  61              	.LBB14:
  62              	.LBI14:
  63              		.file 2 "Drivers/STM32F4xx_HAL_Driver/Inc/stm32f4xx_ll_bus.h"
   1:Drivers/STM32F4xx_HAL_Driver/Inc/stm32f4xx_ll_bus.h **** /**
   2:Drivers/STM32F4xx_HAL_Driver/Inc/stm32f4xx_ll_bus.h ****   ******************************************************************************
   3:Drivers/STM32F4xx_HAL_Driver/Inc/stm32f4xx_ll_bus.h ****   * @file    stm32f4xx_ll_bus.h
   4:Drivers/STM32F4xx_HAL_Driver/Inc/stm32f4xx_ll_bus.h ****   * @author  MCD Application Team
   5:Drivers/STM32F4xx_HAL_Driver/Inc/stm32f4xx_ll_bus.h ****   * @brief   Header file of BUS LL module.
   6:Drivers/STM32F4xx_HAL_Driver/Inc/stm32f4xx_ll_bus.h **** 
   7:Drivers/STM32F4xx_HAL_Driver/Inc/stm32f4xx_ll_bus.h ****   @verbatim
   8:Drivers/STM32F4xx_HAL_Driver/Inc/stm32f4xx_ll_bus.h ****                       ##### RCC Limitations #####
   9:Drivers/STM32F4xx_HAL_Driver/Inc/stm32f4xx_ll_bus.h ****   ==============================================================================
  10:Drivers/STM32F4xx_HAL_Driver/Inc/stm32f4xx_ll_bus.h ****     [..]
  11:Drivers/STM32F4xx_HAL_Driver/Inc/stm32f4xx_ll_bus.h ****       A delay between an RCC peripheral clock enable and the effective peripheral
  12:Drivers/STM32F4xx_HAL_Driver/Inc/stm32f4xx_ll_bus.h ****       enabling should be taken into account in order to manage the peripheral read/write
  13:Drivers/STM32F4xx_HAL_Driver/Inc/stm32f4xx_ll_bus.h ****       from/to registers.
ARM GAS  F:\msys64\tmp\cclfnzNs.s 			page 3


  14:Drivers/STM32F4xx_HAL_Driver/Inc/stm32f4xx_ll_bus.h ****       (+) This delay depends on the peripheral mapping.
  15:Drivers/STM32F4xx_HAL_Driver/Inc/stm32f4xx_ll_bus.h ****         (++) AHB & APB peripherals, 1 dummy read is necessary
  16:Drivers/STM32F4xx_HAL_Driver/Inc/stm32f4xx_ll_bus.h **** 
  17:Drivers/STM32F4xx_HAL_Driver/Inc/stm32f4xx_ll_bus.h ****     [..]
  18:Drivers/STM32F4xx_HAL_Driver/Inc/stm32f4xx_ll_bus.h ****       Workarounds:
  19:Drivers/STM32F4xx_HAL_Driver/Inc/stm32f4xx_ll_bus.h ****       (#) For AHB & APB peripherals, a dummy read to the peripheral register has been
  20:Drivers/STM32F4xx_HAL_Driver/Inc/stm32f4xx_ll_bus.h ****           inserted in each LL_{BUS}_GRP{x}_EnableClock() function.
  21:Drivers/STM32F4xx_HAL_Driver/Inc/stm32f4xx_ll_bus.h **** 
  22:Drivers/STM32F4xx_HAL_Driver/Inc/stm32f4xx_ll_bus.h ****   @endverbatim
  23:Drivers/STM32F4xx_HAL_Driver/Inc/stm32f4xx_ll_bus.h ****   ******************************************************************************
  24:Drivers/STM32F4xx_HAL_Driver/Inc/stm32f4xx_ll_bus.h ****   * @attention
  25:Drivers/STM32F4xx_HAL_Driver/Inc/stm32f4xx_ll_bus.h ****   *
  26:Drivers/STM32F4xx_HAL_Driver/Inc/stm32f4xx_ll_bus.h ****   * Copyright (c) 2017 STMicroelectronics.
  27:Drivers/STM32F4xx_HAL_Driver/Inc/stm32f4xx_ll_bus.h ****   * All rights reserved.
  28:Drivers/STM32F4xx_HAL_Driver/Inc/stm32f4xx_ll_bus.h ****   *
  29:Drivers/STM32F4xx_HAL_Driver/Inc/stm32f4xx_ll_bus.h ****   * This software is licensed under terms that can be found in the LICENSE file in
  30:Drivers/STM32F4xx_HAL_Driver/Inc/stm32f4xx_ll_bus.h ****   * the root directory of this software component.
  31:Drivers/STM32F4xx_HAL_Driver/Inc/stm32f4xx_ll_bus.h ****   * If no LICENSE file comes with this software, it is provided AS-IS.
  32:Drivers/STM32F4xx_HAL_Driver/Inc/stm32f4xx_ll_bus.h ****   ******************************************************************************
  33:Drivers/STM32F4xx_HAL_Driver/Inc/stm32f4xx_ll_bus.h ****   */
  34:Drivers/STM32F4xx_HAL_Driver/Inc/stm32f4xx_ll_bus.h **** 
  35:Drivers/STM32F4xx_HAL_Driver/Inc/stm32f4xx_ll_bus.h **** /* Define to prevent recursive inclusion -------------------------------------*/
  36:Drivers/STM32F4xx_HAL_Driver/Inc/stm32f4xx_ll_bus.h **** #ifndef __STM32F4xx_LL_BUS_H
  37:Drivers/STM32F4xx_HAL_Driver/Inc/stm32f4xx_ll_bus.h **** #define __STM32F4xx_LL_BUS_H
  38:Drivers/STM32F4xx_HAL_Driver/Inc/stm32f4xx_ll_bus.h **** 
  39:Drivers/STM32F4xx_HAL_Driver/Inc/stm32f4xx_ll_bus.h **** #ifdef __cplusplus
  40:Drivers/STM32F4xx_HAL_Driver/Inc/stm32f4xx_ll_bus.h **** extern "C" {
  41:Drivers/STM32F4xx_HAL_Driver/Inc/stm32f4xx_ll_bus.h **** #endif
  42:Drivers/STM32F4xx_HAL_Driver/Inc/stm32f4xx_ll_bus.h **** 
  43:Drivers/STM32F4xx_HAL_Driver/Inc/stm32f4xx_ll_bus.h **** /* Includes ------------------------------------------------------------------*/
  44:Drivers/STM32F4xx_HAL_Driver/Inc/stm32f4xx_ll_bus.h **** #include "stm32f4xx.h"
  45:Drivers/STM32F4xx_HAL_Driver/Inc/stm32f4xx_ll_bus.h **** 
  46:Drivers/STM32F4xx_HAL_Driver/Inc/stm32f4xx_ll_bus.h **** /** @addtogroup STM32F4xx_LL_Driver
  47:Drivers/STM32F4xx_HAL_Driver/Inc/stm32f4xx_ll_bus.h ****   * @{
  48:Drivers/STM32F4xx_HAL_Driver/Inc/stm32f4xx_ll_bus.h ****   */
  49:Drivers/STM32F4xx_HAL_Driver/Inc/stm32f4xx_ll_bus.h **** 
  50:Drivers/STM32F4xx_HAL_Driver/Inc/stm32f4xx_ll_bus.h **** #if defined(RCC)
  51:Drivers/STM32F4xx_HAL_Driver/Inc/stm32f4xx_ll_bus.h **** 
  52:Drivers/STM32F4xx_HAL_Driver/Inc/stm32f4xx_ll_bus.h **** /** @defgroup BUS_LL BUS
  53:Drivers/STM32F4xx_HAL_Driver/Inc/stm32f4xx_ll_bus.h ****   * @{
  54:Drivers/STM32F4xx_HAL_Driver/Inc/stm32f4xx_ll_bus.h ****   */
  55:Drivers/STM32F4xx_HAL_Driver/Inc/stm32f4xx_ll_bus.h **** 
  56:Drivers/STM32F4xx_HAL_Driver/Inc/stm32f4xx_ll_bus.h **** /* Private types -------------------------------------------------------------*/
  57:Drivers/STM32F4xx_HAL_Driver/Inc/stm32f4xx_ll_bus.h **** /* Private variables ---------------------------------------------------------*/
  58:Drivers/STM32F4xx_HAL_Driver/Inc/stm32f4xx_ll_bus.h **** /* Private constants ---------------------------------------------------------*/
  59:Drivers/STM32F4xx_HAL_Driver/Inc/stm32f4xx_ll_bus.h **** /* Private macros ------------------------------------------------------------*/
  60:Drivers/STM32F4xx_HAL_Driver/Inc/stm32f4xx_ll_bus.h **** /* Exported types ------------------------------------------------------------*/
  61:Drivers/STM32F4xx_HAL_Driver/Inc/stm32f4xx_ll_bus.h **** /* Exported constants --------------------------------------------------------*/
  62:Drivers/STM32F4xx_HAL_Driver/Inc/stm32f4xx_ll_bus.h **** /** @defgroup BUS_LL_Exported_Constants BUS Exported Constants
  63:Drivers/STM32F4xx_HAL_Driver/Inc/stm32f4xx_ll_bus.h ****   * @{
  64:Drivers/STM32F4xx_HAL_Driver/Inc/stm32f4xx_ll_bus.h ****   */
  65:Drivers/STM32F4xx_HAL_Driver/Inc/stm32f4xx_ll_bus.h **** 
  66:Drivers/STM32F4xx_HAL_Driver/Inc/stm32f4xx_ll_bus.h **** /** @defgroup BUS_LL_EC_AHB1_GRP1_PERIPH  AHB1 GRP1 PERIPH
  67:Drivers/STM32F4xx_HAL_Driver/Inc/stm32f4xx_ll_bus.h ****   * @{
  68:Drivers/STM32F4xx_HAL_Driver/Inc/stm32f4xx_ll_bus.h ****   */
  69:Drivers/STM32F4xx_HAL_Driver/Inc/stm32f4xx_ll_bus.h **** #define LL_AHB1_GRP1_PERIPH_ALL             0xFFFFFFFFU
  70:Drivers/STM32F4xx_HAL_Driver/Inc/stm32f4xx_ll_bus.h **** #define LL_AHB1_GRP1_PERIPH_GPIOA           RCC_AHB1ENR_GPIOAEN
ARM GAS  F:\msys64\tmp\cclfnzNs.s 			page 4


  71:Drivers/STM32F4xx_HAL_Driver/Inc/stm32f4xx_ll_bus.h **** #define LL_AHB1_GRP1_PERIPH_GPIOB           RCC_AHB1ENR_GPIOBEN
  72:Drivers/STM32F4xx_HAL_Driver/Inc/stm32f4xx_ll_bus.h **** #define LL_AHB1_GRP1_PERIPH_GPIOC           RCC_AHB1ENR_GPIOCEN
  73:Drivers/STM32F4xx_HAL_Driver/Inc/stm32f4xx_ll_bus.h **** #if defined(GPIOD)
  74:Drivers/STM32F4xx_HAL_Driver/Inc/stm32f4xx_ll_bus.h **** #define LL_AHB1_GRP1_PERIPH_GPIOD           RCC_AHB1ENR_GPIODEN
  75:Drivers/STM32F4xx_HAL_Driver/Inc/stm32f4xx_ll_bus.h **** #endif /* GPIOD */
  76:Drivers/STM32F4xx_HAL_Driver/Inc/stm32f4xx_ll_bus.h **** #if defined(GPIOE)
  77:Drivers/STM32F4xx_HAL_Driver/Inc/stm32f4xx_ll_bus.h **** #define LL_AHB1_GRP1_PERIPH_GPIOE           RCC_AHB1ENR_GPIOEEN
  78:Drivers/STM32F4xx_HAL_Driver/Inc/stm32f4xx_ll_bus.h **** #endif /* GPIOE */
  79:Drivers/STM32F4xx_HAL_Driver/Inc/stm32f4xx_ll_bus.h **** #if defined(GPIOF)
  80:Drivers/STM32F4xx_HAL_Driver/Inc/stm32f4xx_ll_bus.h **** #define LL_AHB1_GRP1_PERIPH_GPIOF           RCC_AHB1ENR_GPIOFEN
  81:Drivers/STM32F4xx_HAL_Driver/Inc/stm32f4xx_ll_bus.h **** #endif /* GPIOF */
  82:Drivers/STM32F4xx_HAL_Driver/Inc/stm32f4xx_ll_bus.h **** #if defined(GPIOG)
  83:Drivers/STM32F4xx_HAL_Driver/Inc/stm32f4xx_ll_bus.h **** #define LL_AHB1_GRP1_PERIPH_GPIOG           RCC_AHB1ENR_GPIOGEN
  84:Drivers/STM32F4xx_HAL_Driver/Inc/stm32f4xx_ll_bus.h **** #endif /* GPIOG */
  85:Drivers/STM32F4xx_HAL_Driver/Inc/stm32f4xx_ll_bus.h **** #if defined(GPIOH)
  86:Drivers/STM32F4xx_HAL_Driver/Inc/stm32f4xx_ll_bus.h **** #define LL_AHB1_GRP1_PERIPH_GPIOH           RCC_AHB1ENR_GPIOHEN
  87:Drivers/STM32F4xx_HAL_Driver/Inc/stm32f4xx_ll_bus.h **** #endif /* GPIOH */
  88:Drivers/STM32F4xx_HAL_Driver/Inc/stm32f4xx_ll_bus.h **** #if defined(GPIOI)
  89:Drivers/STM32F4xx_HAL_Driver/Inc/stm32f4xx_ll_bus.h **** #define LL_AHB1_GRP1_PERIPH_GPIOI           RCC_AHB1ENR_GPIOIEN
  90:Drivers/STM32F4xx_HAL_Driver/Inc/stm32f4xx_ll_bus.h **** #endif /* GPIOI */
  91:Drivers/STM32F4xx_HAL_Driver/Inc/stm32f4xx_ll_bus.h **** #if defined(GPIOJ)
  92:Drivers/STM32F4xx_HAL_Driver/Inc/stm32f4xx_ll_bus.h **** #define LL_AHB1_GRP1_PERIPH_GPIOJ           RCC_AHB1ENR_GPIOJEN
  93:Drivers/STM32F4xx_HAL_Driver/Inc/stm32f4xx_ll_bus.h **** #endif /* GPIOJ */
  94:Drivers/STM32F4xx_HAL_Driver/Inc/stm32f4xx_ll_bus.h **** #if defined(GPIOK)
  95:Drivers/STM32F4xx_HAL_Driver/Inc/stm32f4xx_ll_bus.h **** #define LL_AHB1_GRP1_PERIPH_GPIOK           RCC_AHB1ENR_GPIOKEN
  96:Drivers/STM32F4xx_HAL_Driver/Inc/stm32f4xx_ll_bus.h **** #endif /* GPIOK */
  97:Drivers/STM32F4xx_HAL_Driver/Inc/stm32f4xx_ll_bus.h **** #define LL_AHB1_GRP1_PERIPH_CRC             RCC_AHB1ENR_CRCEN
  98:Drivers/STM32F4xx_HAL_Driver/Inc/stm32f4xx_ll_bus.h **** #if defined(RCC_AHB1ENR_BKPSRAMEN)
  99:Drivers/STM32F4xx_HAL_Driver/Inc/stm32f4xx_ll_bus.h **** #define LL_AHB1_GRP1_PERIPH_BKPSRAM         RCC_AHB1ENR_BKPSRAMEN
 100:Drivers/STM32F4xx_HAL_Driver/Inc/stm32f4xx_ll_bus.h **** #endif /* RCC_AHB1ENR_BKPSRAMEN */
 101:Drivers/STM32F4xx_HAL_Driver/Inc/stm32f4xx_ll_bus.h **** #if defined(RCC_AHB1ENR_CCMDATARAMEN)
 102:Drivers/STM32F4xx_HAL_Driver/Inc/stm32f4xx_ll_bus.h **** #define LL_AHB1_GRP1_PERIPH_CCMDATARAM      RCC_AHB1ENR_CCMDATARAMEN
 103:Drivers/STM32F4xx_HAL_Driver/Inc/stm32f4xx_ll_bus.h **** #endif /* RCC_AHB1ENR_CCMDATARAMEN */
 104:Drivers/STM32F4xx_HAL_Driver/Inc/stm32f4xx_ll_bus.h **** #define LL_AHB1_GRP1_PERIPH_DMA1            RCC_AHB1ENR_DMA1EN
 105:Drivers/STM32F4xx_HAL_Driver/Inc/stm32f4xx_ll_bus.h **** #define LL_AHB1_GRP1_PERIPH_DMA2            RCC_AHB1ENR_DMA2EN
 106:Drivers/STM32F4xx_HAL_Driver/Inc/stm32f4xx_ll_bus.h **** #if defined(RCC_AHB1ENR_RNGEN)
 107:Drivers/STM32F4xx_HAL_Driver/Inc/stm32f4xx_ll_bus.h **** #define LL_AHB1_GRP1_PERIPH_RNG             RCC_AHB1ENR_RNGEN
 108:Drivers/STM32F4xx_HAL_Driver/Inc/stm32f4xx_ll_bus.h **** #endif /* RCC_AHB1ENR_RNGEN */
 109:Drivers/STM32F4xx_HAL_Driver/Inc/stm32f4xx_ll_bus.h **** #if defined(DMA2D)
 110:Drivers/STM32F4xx_HAL_Driver/Inc/stm32f4xx_ll_bus.h **** #define LL_AHB1_GRP1_PERIPH_DMA2D           RCC_AHB1ENR_DMA2DEN
 111:Drivers/STM32F4xx_HAL_Driver/Inc/stm32f4xx_ll_bus.h **** #endif /* DMA2D */
 112:Drivers/STM32F4xx_HAL_Driver/Inc/stm32f4xx_ll_bus.h **** #if defined(ETH)
 113:Drivers/STM32F4xx_HAL_Driver/Inc/stm32f4xx_ll_bus.h **** #define LL_AHB1_GRP1_PERIPH_ETHMAC          RCC_AHB1ENR_ETHMACEN
 114:Drivers/STM32F4xx_HAL_Driver/Inc/stm32f4xx_ll_bus.h **** #define LL_AHB1_GRP1_PERIPH_ETHMACTX        RCC_AHB1ENR_ETHMACTXEN
 115:Drivers/STM32F4xx_HAL_Driver/Inc/stm32f4xx_ll_bus.h **** #define LL_AHB1_GRP1_PERIPH_ETHMACRX        RCC_AHB1ENR_ETHMACRXEN
 116:Drivers/STM32F4xx_HAL_Driver/Inc/stm32f4xx_ll_bus.h **** #define LL_AHB1_GRP1_PERIPH_ETHMACPTP       RCC_AHB1ENR_ETHMACPTPEN
 117:Drivers/STM32F4xx_HAL_Driver/Inc/stm32f4xx_ll_bus.h **** #endif /* ETH */
 118:Drivers/STM32F4xx_HAL_Driver/Inc/stm32f4xx_ll_bus.h **** #if defined(USB_OTG_HS)
 119:Drivers/STM32F4xx_HAL_Driver/Inc/stm32f4xx_ll_bus.h **** #define LL_AHB1_GRP1_PERIPH_OTGHS           RCC_AHB1ENR_OTGHSEN
 120:Drivers/STM32F4xx_HAL_Driver/Inc/stm32f4xx_ll_bus.h **** #define LL_AHB1_GRP1_PERIPH_OTGHSULPI       RCC_AHB1ENR_OTGHSULPIEN
 121:Drivers/STM32F4xx_HAL_Driver/Inc/stm32f4xx_ll_bus.h **** #endif /* USB_OTG_HS */
 122:Drivers/STM32F4xx_HAL_Driver/Inc/stm32f4xx_ll_bus.h **** #define LL_AHB1_GRP1_PERIPH_FLITF           RCC_AHB1LPENR_FLITFLPEN
 123:Drivers/STM32F4xx_HAL_Driver/Inc/stm32f4xx_ll_bus.h **** #define LL_AHB1_GRP1_PERIPH_SRAM1           RCC_AHB1LPENR_SRAM1LPEN
 124:Drivers/STM32F4xx_HAL_Driver/Inc/stm32f4xx_ll_bus.h **** #if defined(RCC_AHB1LPENR_SRAM2LPEN)
 125:Drivers/STM32F4xx_HAL_Driver/Inc/stm32f4xx_ll_bus.h **** #define LL_AHB1_GRP1_PERIPH_SRAM2           RCC_AHB1LPENR_SRAM2LPEN
 126:Drivers/STM32F4xx_HAL_Driver/Inc/stm32f4xx_ll_bus.h **** #endif /* RCC_AHB1LPENR_SRAM2LPEN */
 127:Drivers/STM32F4xx_HAL_Driver/Inc/stm32f4xx_ll_bus.h **** #if defined(RCC_AHB1LPENR_SRAM3LPEN)
ARM GAS  F:\msys64\tmp\cclfnzNs.s 			page 5


 128:Drivers/STM32F4xx_HAL_Driver/Inc/stm32f4xx_ll_bus.h **** #define LL_AHB1_GRP1_PERIPH_SRAM3           RCC_AHB1LPENR_SRAM3LPEN
 129:Drivers/STM32F4xx_HAL_Driver/Inc/stm32f4xx_ll_bus.h **** #endif /* RCC_AHB1LPENR_SRAM3LPEN */
 130:Drivers/STM32F4xx_HAL_Driver/Inc/stm32f4xx_ll_bus.h **** /**
 131:Drivers/STM32F4xx_HAL_Driver/Inc/stm32f4xx_ll_bus.h ****   * @}
 132:Drivers/STM32F4xx_HAL_Driver/Inc/stm32f4xx_ll_bus.h ****   */
 133:Drivers/STM32F4xx_HAL_Driver/Inc/stm32f4xx_ll_bus.h **** 
 134:Drivers/STM32F4xx_HAL_Driver/Inc/stm32f4xx_ll_bus.h **** #if defined(RCC_AHB2_SUPPORT)
 135:Drivers/STM32F4xx_HAL_Driver/Inc/stm32f4xx_ll_bus.h **** /** @defgroup BUS_LL_EC_AHB2_GRP1_PERIPH  AHB2 GRP1 PERIPH
 136:Drivers/STM32F4xx_HAL_Driver/Inc/stm32f4xx_ll_bus.h ****   * @{
 137:Drivers/STM32F4xx_HAL_Driver/Inc/stm32f4xx_ll_bus.h ****   */
 138:Drivers/STM32F4xx_HAL_Driver/Inc/stm32f4xx_ll_bus.h **** #define LL_AHB2_GRP1_PERIPH_ALL            0xFFFFFFFFU
 139:Drivers/STM32F4xx_HAL_Driver/Inc/stm32f4xx_ll_bus.h **** #if defined(DCMI)
 140:Drivers/STM32F4xx_HAL_Driver/Inc/stm32f4xx_ll_bus.h **** #define LL_AHB2_GRP1_PERIPH_DCMI           RCC_AHB2ENR_DCMIEN
 141:Drivers/STM32F4xx_HAL_Driver/Inc/stm32f4xx_ll_bus.h **** #endif /* DCMI */
 142:Drivers/STM32F4xx_HAL_Driver/Inc/stm32f4xx_ll_bus.h **** #if defined(CRYP)
 143:Drivers/STM32F4xx_HAL_Driver/Inc/stm32f4xx_ll_bus.h **** #define LL_AHB2_GRP1_PERIPH_CRYP           RCC_AHB2ENR_CRYPEN
 144:Drivers/STM32F4xx_HAL_Driver/Inc/stm32f4xx_ll_bus.h **** #endif /* CRYP */
 145:Drivers/STM32F4xx_HAL_Driver/Inc/stm32f4xx_ll_bus.h **** #if defined(AES)
 146:Drivers/STM32F4xx_HAL_Driver/Inc/stm32f4xx_ll_bus.h **** #define LL_AHB2_GRP1_PERIPH_AES            RCC_AHB2ENR_AESEN
 147:Drivers/STM32F4xx_HAL_Driver/Inc/stm32f4xx_ll_bus.h **** #endif /* AES */
 148:Drivers/STM32F4xx_HAL_Driver/Inc/stm32f4xx_ll_bus.h **** #if defined(HASH)
 149:Drivers/STM32F4xx_HAL_Driver/Inc/stm32f4xx_ll_bus.h **** #define LL_AHB2_GRP1_PERIPH_HASH           RCC_AHB2ENR_HASHEN
 150:Drivers/STM32F4xx_HAL_Driver/Inc/stm32f4xx_ll_bus.h **** #endif /* HASH */
 151:Drivers/STM32F4xx_HAL_Driver/Inc/stm32f4xx_ll_bus.h **** #if defined(RCC_AHB2ENR_RNGEN)
 152:Drivers/STM32F4xx_HAL_Driver/Inc/stm32f4xx_ll_bus.h **** #define LL_AHB2_GRP1_PERIPH_RNG            RCC_AHB2ENR_RNGEN
 153:Drivers/STM32F4xx_HAL_Driver/Inc/stm32f4xx_ll_bus.h **** #endif /* RCC_AHB2ENR_RNGEN */
 154:Drivers/STM32F4xx_HAL_Driver/Inc/stm32f4xx_ll_bus.h **** #if defined(USB_OTG_FS)
 155:Drivers/STM32F4xx_HAL_Driver/Inc/stm32f4xx_ll_bus.h **** #define LL_AHB2_GRP1_PERIPH_OTGFS          RCC_AHB2ENR_OTGFSEN
 156:Drivers/STM32F4xx_HAL_Driver/Inc/stm32f4xx_ll_bus.h **** #endif /* USB_OTG_FS */
 157:Drivers/STM32F4xx_HAL_Driver/Inc/stm32f4xx_ll_bus.h **** /**
 158:Drivers/STM32F4xx_HAL_Driver/Inc/stm32f4xx_ll_bus.h ****   * @}
 159:Drivers/STM32F4xx_HAL_Driver/Inc/stm32f4xx_ll_bus.h ****   */
 160:Drivers/STM32F4xx_HAL_Driver/Inc/stm32f4xx_ll_bus.h **** #endif /* RCC_AHB2_SUPPORT */
 161:Drivers/STM32F4xx_HAL_Driver/Inc/stm32f4xx_ll_bus.h **** 
 162:Drivers/STM32F4xx_HAL_Driver/Inc/stm32f4xx_ll_bus.h **** #if defined(RCC_AHB3_SUPPORT)
 163:Drivers/STM32F4xx_HAL_Driver/Inc/stm32f4xx_ll_bus.h **** /** @defgroup BUS_LL_EC_AHB3_GRP1_PERIPH  AHB3 GRP1 PERIPH
 164:Drivers/STM32F4xx_HAL_Driver/Inc/stm32f4xx_ll_bus.h ****   * @{
 165:Drivers/STM32F4xx_HAL_Driver/Inc/stm32f4xx_ll_bus.h ****   */
 166:Drivers/STM32F4xx_HAL_Driver/Inc/stm32f4xx_ll_bus.h **** #define LL_AHB3_GRP1_PERIPH_ALL            0xFFFFFFFFU
 167:Drivers/STM32F4xx_HAL_Driver/Inc/stm32f4xx_ll_bus.h **** #if defined(FSMC_Bank1)
 168:Drivers/STM32F4xx_HAL_Driver/Inc/stm32f4xx_ll_bus.h **** #define LL_AHB3_GRP1_PERIPH_FSMC           RCC_AHB3ENR_FSMCEN
 169:Drivers/STM32F4xx_HAL_Driver/Inc/stm32f4xx_ll_bus.h **** #endif /* FSMC_Bank1 */
 170:Drivers/STM32F4xx_HAL_Driver/Inc/stm32f4xx_ll_bus.h **** #if defined(FMC_Bank1)
 171:Drivers/STM32F4xx_HAL_Driver/Inc/stm32f4xx_ll_bus.h **** #define LL_AHB3_GRP1_PERIPH_FMC            RCC_AHB3ENR_FMCEN
 172:Drivers/STM32F4xx_HAL_Driver/Inc/stm32f4xx_ll_bus.h **** #endif /* FMC_Bank1 */
 173:Drivers/STM32F4xx_HAL_Driver/Inc/stm32f4xx_ll_bus.h **** #if defined(QUADSPI)
 174:Drivers/STM32F4xx_HAL_Driver/Inc/stm32f4xx_ll_bus.h **** #define LL_AHB3_GRP1_PERIPH_QSPI           RCC_AHB3ENR_QSPIEN
 175:Drivers/STM32F4xx_HAL_Driver/Inc/stm32f4xx_ll_bus.h **** #endif /* QUADSPI */
 176:Drivers/STM32F4xx_HAL_Driver/Inc/stm32f4xx_ll_bus.h **** /**
 177:Drivers/STM32F4xx_HAL_Driver/Inc/stm32f4xx_ll_bus.h ****   * @}
 178:Drivers/STM32F4xx_HAL_Driver/Inc/stm32f4xx_ll_bus.h ****   */
 179:Drivers/STM32F4xx_HAL_Driver/Inc/stm32f4xx_ll_bus.h **** #endif /* RCC_AHB3_SUPPORT */
 180:Drivers/STM32F4xx_HAL_Driver/Inc/stm32f4xx_ll_bus.h **** 
 181:Drivers/STM32F4xx_HAL_Driver/Inc/stm32f4xx_ll_bus.h **** /** @defgroup BUS_LL_EC_APB1_GRP1_PERIPH  APB1 GRP1 PERIPH
 182:Drivers/STM32F4xx_HAL_Driver/Inc/stm32f4xx_ll_bus.h ****   * @{
 183:Drivers/STM32F4xx_HAL_Driver/Inc/stm32f4xx_ll_bus.h ****   */
 184:Drivers/STM32F4xx_HAL_Driver/Inc/stm32f4xx_ll_bus.h **** #define LL_APB1_GRP1_PERIPH_ALL            0xFFFFFFFFU
ARM GAS  F:\msys64\tmp\cclfnzNs.s 			page 6


 185:Drivers/STM32F4xx_HAL_Driver/Inc/stm32f4xx_ll_bus.h **** #if defined(TIM2)
 186:Drivers/STM32F4xx_HAL_Driver/Inc/stm32f4xx_ll_bus.h **** #define LL_APB1_GRP1_PERIPH_TIM2           RCC_APB1ENR_TIM2EN
 187:Drivers/STM32F4xx_HAL_Driver/Inc/stm32f4xx_ll_bus.h **** #endif /* TIM2 */
 188:Drivers/STM32F4xx_HAL_Driver/Inc/stm32f4xx_ll_bus.h **** #if defined(TIM3)
 189:Drivers/STM32F4xx_HAL_Driver/Inc/stm32f4xx_ll_bus.h **** #define LL_APB1_GRP1_PERIPH_TIM3           RCC_APB1ENR_TIM3EN
 190:Drivers/STM32F4xx_HAL_Driver/Inc/stm32f4xx_ll_bus.h **** #endif /* TIM3 */
 191:Drivers/STM32F4xx_HAL_Driver/Inc/stm32f4xx_ll_bus.h **** #if defined(TIM4)
 192:Drivers/STM32F4xx_HAL_Driver/Inc/stm32f4xx_ll_bus.h **** #define LL_APB1_GRP1_PERIPH_TIM4           RCC_APB1ENR_TIM4EN
 193:Drivers/STM32F4xx_HAL_Driver/Inc/stm32f4xx_ll_bus.h **** #endif /* TIM4 */
 194:Drivers/STM32F4xx_HAL_Driver/Inc/stm32f4xx_ll_bus.h **** #define LL_APB1_GRP1_PERIPH_TIM5           RCC_APB1ENR_TIM5EN
 195:Drivers/STM32F4xx_HAL_Driver/Inc/stm32f4xx_ll_bus.h **** #if defined(TIM6)
 196:Drivers/STM32F4xx_HAL_Driver/Inc/stm32f4xx_ll_bus.h **** #define LL_APB1_GRP1_PERIPH_TIM6           RCC_APB1ENR_TIM6EN
 197:Drivers/STM32F4xx_HAL_Driver/Inc/stm32f4xx_ll_bus.h **** #endif /* TIM6 */
 198:Drivers/STM32F4xx_HAL_Driver/Inc/stm32f4xx_ll_bus.h **** #if defined(TIM7)
 199:Drivers/STM32F4xx_HAL_Driver/Inc/stm32f4xx_ll_bus.h **** #define LL_APB1_GRP1_PERIPH_TIM7           RCC_APB1ENR_TIM7EN
 200:Drivers/STM32F4xx_HAL_Driver/Inc/stm32f4xx_ll_bus.h **** #endif /* TIM7 */
 201:Drivers/STM32F4xx_HAL_Driver/Inc/stm32f4xx_ll_bus.h **** #if defined(TIM12)
 202:Drivers/STM32F4xx_HAL_Driver/Inc/stm32f4xx_ll_bus.h **** #define LL_APB1_GRP1_PERIPH_TIM12          RCC_APB1ENR_TIM12EN
 203:Drivers/STM32F4xx_HAL_Driver/Inc/stm32f4xx_ll_bus.h **** #endif /* TIM12 */
 204:Drivers/STM32F4xx_HAL_Driver/Inc/stm32f4xx_ll_bus.h **** #if defined(TIM13)
 205:Drivers/STM32F4xx_HAL_Driver/Inc/stm32f4xx_ll_bus.h **** #define LL_APB1_GRP1_PERIPH_TIM13          RCC_APB1ENR_TIM13EN
 206:Drivers/STM32F4xx_HAL_Driver/Inc/stm32f4xx_ll_bus.h **** #endif /* TIM13 */
 207:Drivers/STM32F4xx_HAL_Driver/Inc/stm32f4xx_ll_bus.h **** #if defined(TIM14)
 208:Drivers/STM32F4xx_HAL_Driver/Inc/stm32f4xx_ll_bus.h **** #define LL_APB1_GRP1_PERIPH_TIM14          RCC_APB1ENR_TIM14EN
 209:Drivers/STM32F4xx_HAL_Driver/Inc/stm32f4xx_ll_bus.h **** #endif /* TIM14 */
 210:Drivers/STM32F4xx_HAL_Driver/Inc/stm32f4xx_ll_bus.h **** #if defined(LPTIM1)
 211:Drivers/STM32F4xx_HAL_Driver/Inc/stm32f4xx_ll_bus.h **** #define LL_APB1_GRP1_PERIPH_LPTIM1         RCC_APB1ENR_LPTIM1EN
 212:Drivers/STM32F4xx_HAL_Driver/Inc/stm32f4xx_ll_bus.h **** #endif /* LPTIM1 */
 213:Drivers/STM32F4xx_HAL_Driver/Inc/stm32f4xx_ll_bus.h **** #if defined(RCC_APB1ENR_RTCAPBEN)
 214:Drivers/STM32F4xx_HAL_Driver/Inc/stm32f4xx_ll_bus.h **** #define LL_APB1_GRP1_PERIPH_RTCAPB         RCC_APB1ENR_RTCAPBEN
 215:Drivers/STM32F4xx_HAL_Driver/Inc/stm32f4xx_ll_bus.h **** #endif /* RCC_APB1ENR_RTCAPBEN */
 216:Drivers/STM32F4xx_HAL_Driver/Inc/stm32f4xx_ll_bus.h **** #define LL_APB1_GRP1_PERIPH_WWDG           RCC_APB1ENR_WWDGEN
 217:Drivers/STM32F4xx_HAL_Driver/Inc/stm32f4xx_ll_bus.h **** #if defined(SPI2)
 218:Drivers/STM32F4xx_HAL_Driver/Inc/stm32f4xx_ll_bus.h **** #define LL_APB1_GRP1_PERIPH_SPI2           RCC_APB1ENR_SPI2EN
 219:Drivers/STM32F4xx_HAL_Driver/Inc/stm32f4xx_ll_bus.h **** #endif /* SPI2 */
 220:Drivers/STM32F4xx_HAL_Driver/Inc/stm32f4xx_ll_bus.h **** #if defined(SPI3)
 221:Drivers/STM32F4xx_HAL_Driver/Inc/stm32f4xx_ll_bus.h **** #define LL_APB1_GRP1_PERIPH_SPI3           RCC_APB1ENR_SPI3EN
 222:Drivers/STM32F4xx_HAL_Driver/Inc/stm32f4xx_ll_bus.h **** #endif /* SPI3 */
 223:Drivers/STM32F4xx_HAL_Driver/Inc/stm32f4xx_ll_bus.h **** #if defined(SPDIFRX)
 224:Drivers/STM32F4xx_HAL_Driver/Inc/stm32f4xx_ll_bus.h **** #define LL_APB1_GRP1_PERIPH_SPDIFRX        RCC_APB1ENR_SPDIFRXEN
 225:Drivers/STM32F4xx_HAL_Driver/Inc/stm32f4xx_ll_bus.h **** #endif /* SPDIFRX */
 226:Drivers/STM32F4xx_HAL_Driver/Inc/stm32f4xx_ll_bus.h **** #define LL_APB1_GRP1_PERIPH_USART2         RCC_APB1ENR_USART2EN
 227:Drivers/STM32F4xx_HAL_Driver/Inc/stm32f4xx_ll_bus.h **** #if defined(USART3)
 228:Drivers/STM32F4xx_HAL_Driver/Inc/stm32f4xx_ll_bus.h **** #define LL_APB1_GRP1_PERIPH_USART3         RCC_APB1ENR_USART3EN
 229:Drivers/STM32F4xx_HAL_Driver/Inc/stm32f4xx_ll_bus.h **** #endif /* USART3 */
 230:Drivers/STM32F4xx_HAL_Driver/Inc/stm32f4xx_ll_bus.h **** #if defined(UART4)
 231:Drivers/STM32F4xx_HAL_Driver/Inc/stm32f4xx_ll_bus.h **** #define LL_APB1_GRP1_PERIPH_UART4          RCC_APB1ENR_UART4EN
 232:Drivers/STM32F4xx_HAL_Driver/Inc/stm32f4xx_ll_bus.h **** #endif /* UART4 */
 233:Drivers/STM32F4xx_HAL_Driver/Inc/stm32f4xx_ll_bus.h **** #if defined(UART5)
 234:Drivers/STM32F4xx_HAL_Driver/Inc/stm32f4xx_ll_bus.h **** #define LL_APB1_GRP1_PERIPH_UART5          RCC_APB1ENR_UART5EN
 235:Drivers/STM32F4xx_HAL_Driver/Inc/stm32f4xx_ll_bus.h **** #endif /* UART5 */
 236:Drivers/STM32F4xx_HAL_Driver/Inc/stm32f4xx_ll_bus.h **** #define LL_APB1_GRP1_PERIPH_I2C1           RCC_APB1ENR_I2C1EN
 237:Drivers/STM32F4xx_HAL_Driver/Inc/stm32f4xx_ll_bus.h **** #define LL_APB1_GRP1_PERIPH_I2C2           RCC_APB1ENR_I2C2EN
 238:Drivers/STM32F4xx_HAL_Driver/Inc/stm32f4xx_ll_bus.h **** #if defined(I2C3)
 239:Drivers/STM32F4xx_HAL_Driver/Inc/stm32f4xx_ll_bus.h **** #define LL_APB1_GRP1_PERIPH_I2C3           RCC_APB1ENR_I2C3EN
 240:Drivers/STM32F4xx_HAL_Driver/Inc/stm32f4xx_ll_bus.h **** #endif /* I2C3 */
 241:Drivers/STM32F4xx_HAL_Driver/Inc/stm32f4xx_ll_bus.h **** #if defined(FMPI2C1)
ARM GAS  F:\msys64\tmp\cclfnzNs.s 			page 7


 242:Drivers/STM32F4xx_HAL_Driver/Inc/stm32f4xx_ll_bus.h **** #define LL_APB1_GRP1_PERIPH_FMPI2C1        RCC_APB1ENR_FMPI2C1EN
 243:Drivers/STM32F4xx_HAL_Driver/Inc/stm32f4xx_ll_bus.h **** #endif /* FMPI2C1 */
 244:Drivers/STM32F4xx_HAL_Driver/Inc/stm32f4xx_ll_bus.h **** #if defined(CAN1)
 245:Drivers/STM32F4xx_HAL_Driver/Inc/stm32f4xx_ll_bus.h **** #define LL_APB1_GRP1_PERIPH_CAN1           RCC_APB1ENR_CAN1EN
 246:Drivers/STM32F4xx_HAL_Driver/Inc/stm32f4xx_ll_bus.h **** #endif /* CAN1 */
 247:Drivers/STM32F4xx_HAL_Driver/Inc/stm32f4xx_ll_bus.h **** #if defined(CAN2)
 248:Drivers/STM32F4xx_HAL_Driver/Inc/stm32f4xx_ll_bus.h **** #define LL_APB1_GRP1_PERIPH_CAN2           RCC_APB1ENR_CAN2EN
 249:Drivers/STM32F4xx_HAL_Driver/Inc/stm32f4xx_ll_bus.h **** #endif /* CAN2 */
 250:Drivers/STM32F4xx_HAL_Driver/Inc/stm32f4xx_ll_bus.h **** #if defined(CAN3)
 251:Drivers/STM32F4xx_HAL_Driver/Inc/stm32f4xx_ll_bus.h **** #define LL_APB1_GRP1_PERIPH_CAN3           RCC_APB1ENR_CAN3EN
 252:Drivers/STM32F4xx_HAL_Driver/Inc/stm32f4xx_ll_bus.h **** #endif /* CAN3 */
 253:Drivers/STM32F4xx_HAL_Driver/Inc/stm32f4xx_ll_bus.h **** #if defined(CEC)
 254:Drivers/STM32F4xx_HAL_Driver/Inc/stm32f4xx_ll_bus.h **** #define LL_APB1_GRP1_PERIPH_CEC            RCC_APB1ENR_CECEN
 255:Drivers/STM32F4xx_HAL_Driver/Inc/stm32f4xx_ll_bus.h **** #endif /* CEC */
 256:Drivers/STM32F4xx_HAL_Driver/Inc/stm32f4xx_ll_bus.h **** #define LL_APB1_GRP1_PERIPH_PWR            RCC_APB1ENR_PWREN
 257:Drivers/STM32F4xx_HAL_Driver/Inc/stm32f4xx_ll_bus.h **** #if defined(DAC1)
 258:Drivers/STM32F4xx_HAL_Driver/Inc/stm32f4xx_ll_bus.h **** #define LL_APB1_GRP1_PERIPH_DAC1           RCC_APB1ENR_DACEN
 259:Drivers/STM32F4xx_HAL_Driver/Inc/stm32f4xx_ll_bus.h **** #endif /* DAC1 */
 260:Drivers/STM32F4xx_HAL_Driver/Inc/stm32f4xx_ll_bus.h **** #if defined(UART7)
 261:Drivers/STM32F4xx_HAL_Driver/Inc/stm32f4xx_ll_bus.h **** #define LL_APB1_GRP1_PERIPH_UART7          RCC_APB1ENR_UART7EN
 262:Drivers/STM32F4xx_HAL_Driver/Inc/stm32f4xx_ll_bus.h **** #endif /* UART7 */
 263:Drivers/STM32F4xx_HAL_Driver/Inc/stm32f4xx_ll_bus.h **** #if defined(UART8)
 264:Drivers/STM32F4xx_HAL_Driver/Inc/stm32f4xx_ll_bus.h **** #define LL_APB1_GRP1_PERIPH_UART8          RCC_APB1ENR_UART8EN
 265:Drivers/STM32F4xx_HAL_Driver/Inc/stm32f4xx_ll_bus.h **** #endif /* UART8 */
 266:Drivers/STM32F4xx_HAL_Driver/Inc/stm32f4xx_ll_bus.h **** /**
 267:Drivers/STM32F4xx_HAL_Driver/Inc/stm32f4xx_ll_bus.h ****   * @}
 268:Drivers/STM32F4xx_HAL_Driver/Inc/stm32f4xx_ll_bus.h ****   */
 269:Drivers/STM32F4xx_HAL_Driver/Inc/stm32f4xx_ll_bus.h **** 
 270:Drivers/STM32F4xx_HAL_Driver/Inc/stm32f4xx_ll_bus.h **** /** @defgroup BUS_LL_EC_APB2_GRP1_PERIPH  APB2 GRP1 PERIPH
 271:Drivers/STM32F4xx_HAL_Driver/Inc/stm32f4xx_ll_bus.h ****   * @{
 272:Drivers/STM32F4xx_HAL_Driver/Inc/stm32f4xx_ll_bus.h ****   */
 273:Drivers/STM32F4xx_HAL_Driver/Inc/stm32f4xx_ll_bus.h **** #define LL_APB2_GRP1_PERIPH_ALL          0xFFFFFFFFU
 274:Drivers/STM32F4xx_HAL_Driver/Inc/stm32f4xx_ll_bus.h **** #define LL_APB2_GRP1_PERIPH_TIM1         RCC_APB2ENR_TIM1EN
 275:Drivers/STM32F4xx_HAL_Driver/Inc/stm32f4xx_ll_bus.h **** #if defined(TIM8)
 276:Drivers/STM32F4xx_HAL_Driver/Inc/stm32f4xx_ll_bus.h **** #define LL_APB2_GRP1_PERIPH_TIM8         RCC_APB2ENR_TIM8EN
 277:Drivers/STM32F4xx_HAL_Driver/Inc/stm32f4xx_ll_bus.h **** #endif /* TIM8 */
 278:Drivers/STM32F4xx_HAL_Driver/Inc/stm32f4xx_ll_bus.h **** #define LL_APB2_GRP1_PERIPH_USART1       RCC_APB2ENR_USART1EN
 279:Drivers/STM32F4xx_HAL_Driver/Inc/stm32f4xx_ll_bus.h **** #if defined(USART6)
 280:Drivers/STM32F4xx_HAL_Driver/Inc/stm32f4xx_ll_bus.h **** #define LL_APB2_GRP1_PERIPH_USART6       RCC_APB2ENR_USART6EN
 281:Drivers/STM32F4xx_HAL_Driver/Inc/stm32f4xx_ll_bus.h **** #endif /* USART6 */
 282:Drivers/STM32F4xx_HAL_Driver/Inc/stm32f4xx_ll_bus.h **** #if defined(UART9)
 283:Drivers/STM32F4xx_HAL_Driver/Inc/stm32f4xx_ll_bus.h **** #define LL_APB2_GRP1_PERIPH_UART9        RCC_APB2ENR_UART9EN
 284:Drivers/STM32F4xx_HAL_Driver/Inc/stm32f4xx_ll_bus.h **** #endif /* UART9 */
 285:Drivers/STM32F4xx_HAL_Driver/Inc/stm32f4xx_ll_bus.h **** #if defined(UART10)
 286:Drivers/STM32F4xx_HAL_Driver/Inc/stm32f4xx_ll_bus.h **** #define LL_APB2_GRP1_PERIPH_UART10       RCC_APB2ENR_UART10EN
 287:Drivers/STM32F4xx_HAL_Driver/Inc/stm32f4xx_ll_bus.h **** #endif /* UART10 */
 288:Drivers/STM32F4xx_HAL_Driver/Inc/stm32f4xx_ll_bus.h **** #define LL_APB2_GRP1_PERIPH_ADC1         RCC_APB2ENR_ADC1EN
 289:Drivers/STM32F4xx_HAL_Driver/Inc/stm32f4xx_ll_bus.h **** #if defined(ADC2)
 290:Drivers/STM32F4xx_HAL_Driver/Inc/stm32f4xx_ll_bus.h **** #define LL_APB2_GRP1_PERIPH_ADC2         RCC_APB2ENR_ADC2EN
 291:Drivers/STM32F4xx_HAL_Driver/Inc/stm32f4xx_ll_bus.h **** #endif /* ADC2 */
 292:Drivers/STM32F4xx_HAL_Driver/Inc/stm32f4xx_ll_bus.h **** #if defined(ADC3)
 293:Drivers/STM32F4xx_HAL_Driver/Inc/stm32f4xx_ll_bus.h **** #define LL_APB2_GRP1_PERIPH_ADC3         RCC_APB2ENR_ADC3EN
 294:Drivers/STM32F4xx_HAL_Driver/Inc/stm32f4xx_ll_bus.h **** #endif /* ADC3 */
 295:Drivers/STM32F4xx_HAL_Driver/Inc/stm32f4xx_ll_bus.h **** #if defined(SDIO)
 296:Drivers/STM32F4xx_HAL_Driver/Inc/stm32f4xx_ll_bus.h **** #define LL_APB2_GRP1_PERIPH_SDIO         RCC_APB2ENR_SDIOEN
 297:Drivers/STM32F4xx_HAL_Driver/Inc/stm32f4xx_ll_bus.h **** #endif /* SDIO */
 298:Drivers/STM32F4xx_HAL_Driver/Inc/stm32f4xx_ll_bus.h **** #define LL_APB2_GRP1_PERIPH_SPI1         RCC_APB2ENR_SPI1EN
ARM GAS  F:\msys64\tmp\cclfnzNs.s 			page 8


 299:Drivers/STM32F4xx_HAL_Driver/Inc/stm32f4xx_ll_bus.h **** #if defined(SPI4)
 300:Drivers/STM32F4xx_HAL_Driver/Inc/stm32f4xx_ll_bus.h **** #define LL_APB2_GRP1_PERIPH_SPI4         RCC_APB2ENR_SPI4EN
 301:Drivers/STM32F4xx_HAL_Driver/Inc/stm32f4xx_ll_bus.h **** #endif /* SPI4 */
 302:Drivers/STM32F4xx_HAL_Driver/Inc/stm32f4xx_ll_bus.h **** #define LL_APB2_GRP1_PERIPH_SYSCFG       RCC_APB2ENR_SYSCFGEN
 303:Drivers/STM32F4xx_HAL_Driver/Inc/stm32f4xx_ll_bus.h **** #if defined(RCC_APB2ENR_EXTITEN)
 304:Drivers/STM32F4xx_HAL_Driver/Inc/stm32f4xx_ll_bus.h **** #define LL_APB2_GRP1_PERIPH_EXTI         RCC_APB2ENR_EXTITEN
 305:Drivers/STM32F4xx_HAL_Driver/Inc/stm32f4xx_ll_bus.h **** #endif /* RCC_APB2ENR_EXTITEN */
 306:Drivers/STM32F4xx_HAL_Driver/Inc/stm32f4xx_ll_bus.h **** #define LL_APB2_GRP1_PERIPH_TIM9         RCC_APB2ENR_TIM9EN
 307:Drivers/STM32F4xx_HAL_Driver/Inc/stm32f4xx_ll_bus.h **** #if defined(TIM10)
 308:Drivers/STM32F4xx_HAL_Driver/Inc/stm32f4xx_ll_bus.h **** #define LL_APB2_GRP1_PERIPH_TIM10        RCC_APB2ENR_TIM10EN
 309:Drivers/STM32F4xx_HAL_Driver/Inc/stm32f4xx_ll_bus.h **** #endif /* TIM10 */
 310:Drivers/STM32F4xx_HAL_Driver/Inc/stm32f4xx_ll_bus.h **** #define LL_APB2_GRP1_PERIPH_TIM11        RCC_APB2ENR_TIM11EN
 311:Drivers/STM32F4xx_HAL_Driver/Inc/stm32f4xx_ll_bus.h **** #if defined(SPI5)
 312:Drivers/STM32F4xx_HAL_Driver/Inc/stm32f4xx_ll_bus.h **** #define LL_APB2_GRP1_PERIPH_SPI5         RCC_APB2ENR_SPI5EN
 313:Drivers/STM32F4xx_HAL_Driver/Inc/stm32f4xx_ll_bus.h **** #endif /* SPI5 */
 314:Drivers/STM32F4xx_HAL_Driver/Inc/stm32f4xx_ll_bus.h **** #if defined(SPI6)
 315:Drivers/STM32F4xx_HAL_Driver/Inc/stm32f4xx_ll_bus.h **** #define LL_APB2_GRP1_PERIPH_SPI6         RCC_APB2ENR_SPI6EN
 316:Drivers/STM32F4xx_HAL_Driver/Inc/stm32f4xx_ll_bus.h **** #endif /* SPI6 */
 317:Drivers/STM32F4xx_HAL_Driver/Inc/stm32f4xx_ll_bus.h **** #if defined(SAI1)
 318:Drivers/STM32F4xx_HAL_Driver/Inc/stm32f4xx_ll_bus.h **** #define LL_APB2_GRP1_PERIPH_SAI1         RCC_APB2ENR_SAI1EN
 319:Drivers/STM32F4xx_HAL_Driver/Inc/stm32f4xx_ll_bus.h **** #endif /* SAI1 */
 320:Drivers/STM32F4xx_HAL_Driver/Inc/stm32f4xx_ll_bus.h **** #if defined(SAI2)
 321:Drivers/STM32F4xx_HAL_Driver/Inc/stm32f4xx_ll_bus.h **** #define LL_APB2_GRP1_PERIPH_SAI2         RCC_APB2ENR_SAI2EN
 322:Drivers/STM32F4xx_HAL_Driver/Inc/stm32f4xx_ll_bus.h **** #endif /* SAI2 */
 323:Drivers/STM32F4xx_HAL_Driver/Inc/stm32f4xx_ll_bus.h **** #if defined(LTDC)
 324:Drivers/STM32F4xx_HAL_Driver/Inc/stm32f4xx_ll_bus.h **** #define LL_APB2_GRP1_PERIPH_LTDC         RCC_APB2ENR_LTDCEN
 325:Drivers/STM32F4xx_HAL_Driver/Inc/stm32f4xx_ll_bus.h **** #endif /* LTDC */
 326:Drivers/STM32F4xx_HAL_Driver/Inc/stm32f4xx_ll_bus.h **** #if defined(DSI)
 327:Drivers/STM32F4xx_HAL_Driver/Inc/stm32f4xx_ll_bus.h **** #define LL_APB2_GRP1_PERIPH_DSI          RCC_APB2ENR_DSIEN
 328:Drivers/STM32F4xx_HAL_Driver/Inc/stm32f4xx_ll_bus.h **** #endif /* DSI */
 329:Drivers/STM32F4xx_HAL_Driver/Inc/stm32f4xx_ll_bus.h **** #if defined(DFSDM1_Channel0)
 330:Drivers/STM32F4xx_HAL_Driver/Inc/stm32f4xx_ll_bus.h **** #define LL_APB2_GRP1_PERIPH_DFSDM1       RCC_APB2ENR_DFSDM1EN
 331:Drivers/STM32F4xx_HAL_Driver/Inc/stm32f4xx_ll_bus.h **** #endif /* DFSDM1_Channel0 */
 332:Drivers/STM32F4xx_HAL_Driver/Inc/stm32f4xx_ll_bus.h **** #if defined(DFSDM2_Channel0)
 333:Drivers/STM32F4xx_HAL_Driver/Inc/stm32f4xx_ll_bus.h **** #define LL_APB2_GRP1_PERIPH_DFSDM2       RCC_APB2ENR_DFSDM2EN
 334:Drivers/STM32F4xx_HAL_Driver/Inc/stm32f4xx_ll_bus.h **** #endif /* DFSDM2_Channel0 */
 335:Drivers/STM32F4xx_HAL_Driver/Inc/stm32f4xx_ll_bus.h **** #define LL_APB2_GRP1_PERIPH_ADC          RCC_APB2RSTR_ADCRST
 336:Drivers/STM32F4xx_HAL_Driver/Inc/stm32f4xx_ll_bus.h **** /**
 337:Drivers/STM32F4xx_HAL_Driver/Inc/stm32f4xx_ll_bus.h ****   * @}
 338:Drivers/STM32F4xx_HAL_Driver/Inc/stm32f4xx_ll_bus.h ****   */
 339:Drivers/STM32F4xx_HAL_Driver/Inc/stm32f4xx_ll_bus.h **** 
 340:Drivers/STM32F4xx_HAL_Driver/Inc/stm32f4xx_ll_bus.h **** /**
 341:Drivers/STM32F4xx_HAL_Driver/Inc/stm32f4xx_ll_bus.h ****   * @}
 342:Drivers/STM32F4xx_HAL_Driver/Inc/stm32f4xx_ll_bus.h ****   */
 343:Drivers/STM32F4xx_HAL_Driver/Inc/stm32f4xx_ll_bus.h **** 
 344:Drivers/STM32F4xx_HAL_Driver/Inc/stm32f4xx_ll_bus.h **** /* Exported macro ------------------------------------------------------------*/
 345:Drivers/STM32F4xx_HAL_Driver/Inc/stm32f4xx_ll_bus.h **** /* Exported functions --------------------------------------------------------*/
 346:Drivers/STM32F4xx_HAL_Driver/Inc/stm32f4xx_ll_bus.h **** /** @defgroup BUS_LL_Exported_Functions BUS Exported Functions
 347:Drivers/STM32F4xx_HAL_Driver/Inc/stm32f4xx_ll_bus.h ****   * @{
 348:Drivers/STM32F4xx_HAL_Driver/Inc/stm32f4xx_ll_bus.h ****   */
 349:Drivers/STM32F4xx_HAL_Driver/Inc/stm32f4xx_ll_bus.h **** 
 350:Drivers/STM32F4xx_HAL_Driver/Inc/stm32f4xx_ll_bus.h **** /** @defgroup BUS_LL_EF_AHB1 AHB1
 351:Drivers/STM32F4xx_HAL_Driver/Inc/stm32f4xx_ll_bus.h ****   * @{
 352:Drivers/STM32F4xx_HAL_Driver/Inc/stm32f4xx_ll_bus.h ****   */
 353:Drivers/STM32F4xx_HAL_Driver/Inc/stm32f4xx_ll_bus.h **** 
 354:Drivers/STM32F4xx_HAL_Driver/Inc/stm32f4xx_ll_bus.h **** /**
 355:Drivers/STM32F4xx_HAL_Driver/Inc/stm32f4xx_ll_bus.h ****   * @brief  Enable AHB1 peripherals clock.
ARM GAS  F:\msys64\tmp\cclfnzNs.s 			page 9


 356:Drivers/STM32F4xx_HAL_Driver/Inc/stm32f4xx_ll_bus.h ****   * @rmtoll AHB1ENR      GPIOAEN            LL_AHB1_GRP1_EnableClock\n
 357:Drivers/STM32F4xx_HAL_Driver/Inc/stm32f4xx_ll_bus.h ****   *         AHB1ENR      GPIOBEN            LL_AHB1_GRP1_EnableClock\n
 358:Drivers/STM32F4xx_HAL_Driver/Inc/stm32f4xx_ll_bus.h ****   *         AHB1ENR      GPIOCEN            LL_AHB1_GRP1_EnableClock\n
 359:Drivers/STM32F4xx_HAL_Driver/Inc/stm32f4xx_ll_bus.h ****   *         AHB1ENR      GPIODEN            LL_AHB1_GRP1_EnableClock\n
 360:Drivers/STM32F4xx_HAL_Driver/Inc/stm32f4xx_ll_bus.h ****   *         AHB1ENR      GPIOEEN            LL_AHB1_GRP1_EnableClock\n
 361:Drivers/STM32F4xx_HAL_Driver/Inc/stm32f4xx_ll_bus.h ****   *         AHB1ENR      GPIOFEN            LL_AHB1_GRP1_EnableClock\n
 362:Drivers/STM32F4xx_HAL_Driver/Inc/stm32f4xx_ll_bus.h ****   *         AHB1ENR      GPIOGEN            LL_AHB1_GRP1_EnableClock\n
 363:Drivers/STM32F4xx_HAL_Driver/Inc/stm32f4xx_ll_bus.h ****   *         AHB1ENR      GPIOHEN            LL_AHB1_GRP1_EnableClock\n
 364:Drivers/STM32F4xx_HAL_Driver/Inc/stm32f4xx_ll_bus.h ****   *         AHB1ENR      GPIOIEN            LL_AHB1_GRP1_EnableClock\n
 365:Drivers/STM32F4xx_HAL_Driver/Inc/stm32f4xx_ll_bus.h ****   *         AHB1ENR      GPIOJEN            LL_AHB1_GRP1_EnableClock\n
 366:Drivers/STM32F4xx_HAL_Driver/Inc/stm32f4xx_ll_bus.h ****   *         AHB1ENR      GPIOKEN            LL_AHB1_GRP1_EnableClock\n
 367:Drivers/STM32F4xx_HAL_Driver/Inc/stm32f4xx_ll_bus.h ****   *         AHB1ENR      CRCEN              LL_AHB1_GRP1_EnableClock\n
 368:Drivers/STM32F4xx_HAL_Driver/Inc/stm32f4xx_ll_bus.h ****   *         AHB1ENR      BKPSRAMEN          LL_AHB1_GRP1_EnableClock\n
 369:Drivers/STM32F4xx_HAL_Driver/Inc/stm32f4xx_ll_bus.h ****   *         AHB1ENR      CCMDATARAMEN       LL_AHB1_GRP1_EnableClock\n
 370:Drivers/STM32F4xx_HAL_Driver/Inc/stm32f4xx_ll_bus.h ****   *         AHB1ENR      DMA1EN             LL_AHB1_GRP1_EnableClock\n
 371:Drivers/STM32F4xx_HAL_Driver/Inc/stm32f4xx_ll_bus.h ****   *         AHB1ENR      DMA2EN             LL_AHB1_GRP1_EnableClock\n
 372:Drivers/STM32F4xx_HAL_Driver/Inc/stm32f4xx_ll_bus.h ****   *         AHB1ENR      RNGEN              LL_AHB1_GRP1_EnableClock\n
 373:Drivers/STM32F4xx_HAL_Driver/Inc/stm32f4xx_ll_bus.h ****   *         AHB1ENR      DMA2DEN            LL_AHB1_GRP1_EnableClock\n
 374:Drivers/STM32F4xx_HAL_Driver/Inc/stm32f4xx_ll_bus.h ****   *         AHB1ENR      ETHMACEN           LL_AHB1_GRP1_EnableClock\n
 375:Drivers/STM32F4xx_HAL_Driver/Inc/stm32f4xx_ll_bus.h ****   *         AHB1ENR      ETHMACTXEN         LL_AHB1_GRP1_EnableClock\n
 376:Drivers/STM32F4xx_HAL_Driver/Inc/stm32f4xx_ll_bus.h ****   *         AHB1ENR      ETHMACRXEN         LL_AHB1_GRP1_EnableClock\n
 377:Drivers/STM32F4xx_HAL_Driver/Inc/stm32f4xx_ll_bus.h ****   *         AHB1ENR      ETHMACPTPEN        LL_AHB1_GRP1_EnableClock\n
 378:Drivers/STM32F4xx_HAL_Driver/Inc/stm32f4xx_ll_bus.h ****   *         AHB1ENR      OTGHSEN            LL_AHB1_GRP1_EnableClock\n
 379:Drivers/STM32F4xx_HAL_Driver/Inc/stm32f4xx_ll_bus.h ****   *         AHB1ENR      OTGHSULPIEN        LL_AHB1_GRP1_EnableClock
 380:Drivers/STM32F4xx_HAL_Driver/Inc/stm32f4xx_ll_bus.h ****   * @param  Periphs This parameter can be a combination of the following values:
 381:Drivers/STM32F4xx_HAL_Driver/Inc/stm32f4xx_ll_bus.h ****   *         @arg @ref LL_AHB1_GRP1_PERIPH_GPIOA
 382:Drivers/STM32F4xx_HAL_Driver/Inc/stm32f4xx_ll_bus.h ****   *         @arg @ref LL_AHB1_GRP1_PERIPH_GPIOB
 383:Drivers/STM32F4xx_HAL_Driver/Inc/stm32f4xx_ll_bus.h ****   *         @arg @ref LL_AHB1_GRP1_PERIPH_GPIOC
 384:Drivers/STM32F4xx_HAL_Driver/Inc/stm32f4xx_ll_bus.h ****   *         @arg @ref LL_AHB1_GRP1_PERIPH_GPIOD (*)
 385:Drivers/STM32F4xx_HAL_Driver/Inc/stm32f4xx_ll_bus.h ****   *         @arg @ref LL_AHB1_GRP1_PERIPH_GPIOE (*)
 386:Drivers/STM32F4xx_HAL_Driver/Inc/stm32f4xx_ll_bus.h ****   *         @arg @ref LL_AHB1_GRP1_PERIPH_GPIOF (*)
 387:Drivers/STM32F4xx_HAL_Driver/Inc/stm32f4xx_ll_bus.h ****   *         @arg @ref LL_AHB1_GRP1_PERIPH_GPIOG (*)
 388:Drivers/STM32F4xx_HAL_Driver/Inc/stm32f4xx_ll_bus.h ****   *         @arg @ref LL_AHB1_GRP1_PERIPH_GPIOH (*)
 389:Drivers/STM32F4xx_HAL_Driver/Inc/stm32f4xx_ll_bus.h ****   *         @arg @ref LL_AHB1_GRP1_PERIPH_GPIOI (*)
 390:Drivers/STM32F4xx_HAL_Driver/Inc/stm32f4xx_ll_bus.h ****   *         @arg @ref LL_AHB1_GRP1_PERIPH_GPIOJ (*)
 391:Drivers/STM32F4xx_HAL_Driver/Inc/stm32f4xx_ll_bus.h ****   *         @arg @ref LL_AHB1_GRP1_PERIPH_GPIOK (*)
 392:Drivers/STM32F4xx_HAL_Driver/Inc/stm32f4xx_ll_bus.h ****   *         @arg @ref LL_AHB1_GRP1_PERIPH_CRC
 393:Drivers/STM32F4xx_HAL_Driver/Inc/stm32f4xx_ll_bus.h ****   *         @arg @ref LL_AHB1_GRP1_PERIPH_BKPSRAM (*)
 394:Drivers/STM32F4xx_HAL_Driver/Inc/stm32f4xx_ll_bus.h ****   *         @arg @ref LL_AHB1_GRP1_PERIPH_CCMDATARAM (*)
 395:Drivers/STM32F4xx_HAL_Driver/Inc/stm32f4xx_ll_bus.h ****   *         @arg @ref LL_AHB1_GRP1_PERIPH_DMA1
 396:Drivers/STM32F4xx_HAL_Driver/Inc/stm32f4xx_ll_bus.h ****   *         @arg @ref LL_AHB1_GRP1_PERIPH_DMA2
 397:Drivers/STM32F4xx_HAL_Driver/Inc/stm32f4xx_ll_bus.h ****   *         @arg @ref LL_AHB1_GRP1_PERIPH_RNG (*)
 398:Drivers/STM32F4xx_HAL_Driver/Inc/stm32f4xx_ll_bus.h ****   *         @arg @ref LL_AHB1_GRP1_PERIPH_DMA2D (*)
 399:Drivers/STM32F4xx_HAL_Driver/Inc/stm32f4xx_ll_bus.h ****   *         @arg @ref LL_AHB1_GRP1_PERIPH_ETHMAC (*)
 400:Drivers/STM32F4xx_HAL_Driver/Inc/stm32f4xx_ll_bus.h ****   *         @arg @ref LL_AHB1_GRP1_PERIPH_ETHMACTX (*)
 401:Drivers/STM32F4xx_HAL_Driver/Inc/stm32f4xx_ll_bus.h ****   *         @arg @ref LL_AHB1_GRP1_PERIPH_ETHMACRX (*)
 402:Drivers/STM32F4xx_HAL_Driver/Inc/stm32f4xx_ll_bus.h ****   *         @arg @ref LL_AHB1_GRP1_PERIPH_ETHMACPTP (*)
 403:Drivers/STM32F4xx_HAL_Driver/Inc/stm32f4xx_ll_bus.h ****   *         @arg @ref LL_AHB1_GRP1_PERIPH_OTGHS (*)
 404:Drivers/STM32F4xx_HAL_Driver/Inc/stm32f4xx_ll_bus.h ****   *         @arg @ref LL_AHB1_GRP1_PERIPH_OTGHSULPI (*)
 405:Drivers/STM32F4xx_HAL_Driver/Inc/stm32f4xx_ll_bus.h ****   *
 406:Drivers/STM32F4xx_HAL_Driver/Inc/stm32f4xx_ll_bus.h ****   *         (*) value not defined in all devices.
 407:Drivers/STM32F4xx_HAL_Driver/Inc/stm32f4xx_ll_bus.h ****   * @retval None
 408:Drivers/STM32F4xx_HAL_Driver/Inc/stm32f4xx_ll_bus.h **** */
 409:Drivers/STM32F4xx_HAL_Driver/Inc/stm32f4xx_ll_bus.h **** __STATIC_INLINE void LL_AHB1_GRP1_EnableClock(uint32_t Periphs)
  64              		.loc 2 409 22 view .LVU6
  65              	.LBB15:
 410:Drivers/STM32F4xx_HAL_Driver/Inc/stm32f4xx_ll_bus.h **** {
ARM GAS  F:\msys64\tmp\cclfnzNs.s 			page 10


 411:Drivers/STM32F4xx_HAL_Driver/Inc/stm32f4xx_ll_bus.h ****   __IO uint32_t tmpreg;
  66              		.loc 2 411 3 view .LVU7
 412:Drivers/STM32F4xx_HAL_Driver/Inc/stm32f4xx_ll_bus.h ****   SET_BIT(RCC->AHB1ENR, Periphs);
  67              		.loc 2 412 3 view .LVU8
  68 001e 224D     		ldr	r5, .L3
  69 0020 2B6B     		ldr	r3, [r5, #48]
  70 0022 43F00203 		orr	r3, r3, #2
  71 0026 2B63     		str	r3, [r5, #48]
 413:Drivers/STM32F4xx_HAL_Driver/Inc/stm32f4xx_ll_bus.h ****   /* Delay after an RCC peripheral clock enabling */
 414:Drivers/STM32F4xx_HAL_Driver/Inc/stm32f4xx_ll_bus.h ****   tmpreg = READ_BIT(RCC->AHB1ENR, Periphs);
  72              		.loc 2 414 3 view .LVU9
  73              		.loc 2 414 12 is_stmt 0 view .LVU10
  74 0028 2B6B     		ldr	r3, [r5, #48]
  75 002a 03F00203 		and	r3, r3, #2
  76              		.loc 2 414 10 view .LVU11
  77 002e 0193     		str	r3, [sp, #4]
 415:Drivers/STM32F4xx_HAL_Driver/Inc/stm32f4xx_ll_bus.h ****   (void)tmpreg;
  78              		.loc 2 415 3 is_stmt 1 view .LVU12
  79 0030 019B     		ldr	r3, [sp, #4]
  80              	.LVL1:
  81              		.loc 2 415 3 is_stmt 0 view .LVU13
  82              	.LBE15:
  83              	.LBE14:
  40:Core/Src/i2c.c ****   /**I2C1 GPIO Configuration
  41:Core/Src/i2c.c ****   PB6   ------> I2C1_SCL
  42:Core/Src/i2c.c ****   PB7   ------> I2C1_SDA
  43:Core/Src/i2c.c ****   */
  44:Core/Src/i2c.c ****   GPIO_InitStruct.Pin = LL_GPIO_PIN_6|LL_GPIO_PIN_7;
  84              		.loc 1 44 3 is_stmt 1 view .LVU14
  85              		.loc 1 44 23 is_stmt 0 view .LVU15
  86 0032 C023     		movs	r3, #192
  87 0034 0293     		str	r3, [sp, #8]
  45:Core/Src/i2c.c ****   GPIO_InitStruct.Mode = LL_GPIO_MODE_ALTERNATE;
  88              		.loc 1 45 3 is_stmt 1 view .LVU16
  89              		.loc 1 45 24 is_stmt 0 view .LVU17
  90 0036 0223     		movs	r3, #2
  91 0038 0393     		str	r3, [sp, #12]
  46:Core/Src/i2c.c ****   GPIO_InitStruct.Speed = LL_GPIO_SPEED_FREQ_VERY_HIGH;
  92              		.loc 1 46 3 is_stmt 1 view .LVU18
  93              		.loc 1 46 25 is_stmt 0 view .LVU19
  94 003a 0323     		movs	r3, #3
  95 003c 0493     		str	r3, [sp, #16]
  47:Core/Src/i2c.c ****   GPIO_InitStruct.OutputType = LL_GPIO_OUTPUT_OPENDRAIN;
  96              		.loc 1 47 3 is_stmt 1 view .LVU20
  97              		.loc 1 47 30 is_stmt 0 view .LVU21
  98 003e 0123     		movs	r3, #1
  99 0040 0593     		str	r3, [sp, #20]
  48:Core/Src/i2c.c ****   GPIO_InitStruct.Pull = LL_GPIO_PULL_NO;
 100              		.loc 1 48 3 is_stmt 1 view .LVU22
  49:Core/Src/i2c.c ****   GPIO_InitStruct.Alternate = LL_GPIO_AF_4;
 101              		.loc 1 49 3 view .LVU23
 102              		.loc 1 49 29 is_stmt 0 view .LVU24
 103 0042 0423     		movs	r3, #4
 104 0044 0793     		str	r3, [sp, #28]
  50:Core/Src/i2c.c ****   LL_GPIO_Init(GPIOB, &GPIO_InitStruct);
 105              		.loc 1 50 3 is_stmt 1 view .LVU25
 106 0046 02A9     		add	r1, sp, #8
ARM GAS  F:\msys64\tmp\cclfnzNs.s 			page 11


 107 0048 1848     		ldr	r0, .L3+4
 108 004a FFF7FEFF 		bl	LL_GPIO_Init
 109              	.LVL2:
  51:Core/Src/i2c.c **** 
  52:Core/Src/i2c.c ****   /* Peripheral clock enable */
  53:Core/Src/i2c.c ****   LL_APB1_GRP1_EnableClock(LL_APB1_GRP1_PERIPH_I2C1);
 110              		.loc 1 53 3 view .LVU26
 111              	.LBB16:
 112              	.LBI16:
 416:Drivers/STM32F4xx_HAL_Driver/Inc/stm32f4xx_ll_bus.h **** }
 417:Drivers/STM32F4xx_HAL_Driver/Inc/stm32f4xx_ll_bus.h **** 
 418:Drivers/STM32F4xx_HAL_Driver/Inc/stm32f4xx_ll_bus.h **** /**
 419:Drivers/STM32F4xx_HAL_Driver/Inc/stm32f4xx_ll_bus.h ****   * @brief  Check if AHB1 peripheral clock is enabled or not
 420:Drivers/STM32F4xx_HAL_Driver/Inc/stm32f4xx_ll_bus.h ****   * @rmtoll AHB1ENR      GPIOAEN            LL_AHB1_GRP1_IsEnabledClock\n
 421:Drivers/STM32F4xx_HAL_Driver/Inc/stm32f4xx_ll_bus.h ****   *         AHB1ENR      GPIOBEN            LL_AHB1_GRP1_IsEnabledClock\n
 422:Drivers/STM32F4xx_HAL_Driver/Inc/stm32f4xx_ll_bus.h ****   *         AHB1ENR      GPIOCEN            LL_AHB1_GRP1_IsEnabledClock\n
 423:Drivers/STM32F4xx_HAL_Driver/Inc/stm32f4xx_ll_bus.h ****   *         AHB1ENR      GPIODEN            LL_AHB1_GRP1_IsEnabledClock\n
 424:Drivers/STM32F4xx_HAL_Driver/Inc/stm32f4xx_ll_bus.h ****   *         AHB1ENR      GPIOEEN            LL_AHB1_GRP1_IsEnabledClock\n
 425:Drivers/STM32F4xx_HAL_Driver/Inc/stm32f4xx_ll_bus.h ****   *         AHB1ENR      GPIOFEN            LL_AHB1_GRP1_IsEnabledClock\n
 426:Drivers/STM32F4xx_HAL_Driver/Inc/stm32f4xx_ll_bus.h ****   *         AHB1ENR      GPIOGEN            LL_AHB1_GRP1_IsEnabledClock\n
 427:Drivers/STM32F4xx_HAL_Driver/Inc/stm32f4xx_ll_bus.h ****   *         AHB1ENR      GPIOHEN            LL_AHB1_GRP1_IsEnabledClock\n
 428:Drivers/STM32F4xx_HAL_Driver/Inc/stm32f4xx_ll_bus.h ****   *         AHB1ENR      GPIOIEN            LL_AHB1_GRP1_IsEnabledClock\n
 429:Drivers/STM32F4xx_HAL_Driver/Inc/stm32f4xx_ll_bus.h ****   *         AHB1ENR      GPIOJEN            LL_AHB1_GRP1_IsEnabledClock\n
 430:Drivers/STM32F4xx_HAL_Driver/Inc/stm32f4xx_ll_bus.h ****   *         AHB1ENR      GPIOKEN            LL_AHB1_GRP1_IsEnabledClock\n
 431:Drivers/STM32F4xx_HAL_Driver/Inc/stm32f4xx_ll_bus.h ****   *         AHB1ENR      CRCEN              LL_AHB1_GRP1_IsEnabledClock\n
 432:Drivers/STM32F4xx_HAL_Driver/Inc/stm32f4xx_ll_bus.h ****   *         AHB1ENR      BKPSRAMEN          LL_AHB1_GRP1_IsEnabledClock\n
 433:Drivers/STM32F4xx_HAL_Driver/Inc/stm32f4xx_ll_bus.h ****   *         AHB1ENR      CCMDATARAMEN       LL_AHB1_GRP1_IsEnabledClock\n
 434:Drivers/STM32F4xx_HAL_Driver/Inc/stm32f4xx_ll_bus.h ****   *         AHB1ENR      DMA1EN             LL_AHB1_GRP1_IsEnabledClock\n
 435:Drivers/STM32F4xx_HAL_Driver/Inc/stm32f4xx_ll_bus.h ****   *         AHB1ENR      DMA2EN             LL_AHB1_GRP1_IsEnabledClock\n
 436:Drivers/STM32F4xx_HAL_Driver/Inc/stm32f4xx_ll_bus.h ****   *         AHB1ENR      RNGEN              LL_AHB1_GRP1_IsEnabledClock\n
 437:Drivers/STM32F4xx_HAL_Driver/Inc/stm32f4xx_ll_bus.h ****   *         AHB1ENR      DMA2DEN            LL_AHB1_GRP1_IsEnabledClock\n
 438:Drivers/STM32F4xx_HAL_Driver/Inc/stm32f4xx_ll_bus.h ****   *         AHB1ENR      ETHMACEN           LL_AHB1_GRP1_IsEnabledClock\n
 439:Drivers/STM32F4xx_HAL_Driver/Inc/stm32f4xx_ll_bus.h ****   *         AHB1ENR      ETHMACTXEN         LL_AHB1_GRP1_IsEnabledClock\n
 440:Drivers/STM32F4xx_HAL_Driver/Inc/stm32f4xx_ll_bus.h ****   *         AHB1ENR      ETHMACRXEN         LL_AHB1_GRP1_IsEnabledClock\n
 441:Drivers/STM32F4xx_HAL_Driver/Inc/stm32f4xx_ll_bus.h ****   *         AHB1ENR      ETHMACPTPEN        LL_AHB1_GRP1_IsEnabledClock\n
 442:Drivers/STM32F4xx_HAL_Driver/Inc/stm32f4xx_ll_bus.h ****   *         AHB1ENR      OTGHSEN            LL_AHB1_GRP1_IsEnabledClock\n
 443:Drivers/STM32F4xx_HAL_Driver/Inc/stm32f4xx_ll_bus.h ****   *         AHB1ENR      OTGHSULPIEN        LL_AHB1_GRP1_IsEnabledClock
 444:Drivers/STM32F4xx_HAL_Driver/Inc/stm32f4xx_ll_bus.h ****   * @param  Periphs This parameter can be a combination of the following values:
 445:Drivers/STM32F4xx_HAL_Driver/Inc/stm32f4xx_ll_bus.h ****   *         @arg @ref LL_AHB1_GRP1_PERIPH_GPIOA
 446:Drivers/STM32F4xx_HAL_Driver/Inc/stm32f4xx_ll_bus.h ****   *         @arg @ref LL_AHB1_GRP1_PERIPH_GPIOB
 447:Drivers/STM32F4xx_HAL_Driver/Inc/stm32f4xx_ll_bus.h ****   *         @arg @ref LL_AHB1_GRP1_PERIPH_GPIOC
 448:Drivers/STM32F4xx_HAL_Driver/Inc/stm32f4xx_ll_bus.h ****   *         @arg @ref LL_AHB1_GRP1_PERIPH_GPIOD (*)
 449:Drivers/STM32F4xx_HAL_Driver/Inc/stm32f4xx_ll_bus.h ****   *         @arg @ref LL_AHB1_GRP1_PERIPH_GPIOE (*)
 450:Drivers/STM32F4xx_HAL_Driver/Inc/stm32f4xx_ll_bus.h ****   *         @arg @ref LL_AHB1_GRP1_PERIPH_GPIOF (*)
 451:Drivers/STM32F4xx_HAL_Driver/Inc/stm32f4xx_ll_bus.h ****   *         @arg @ref LL_AHB1_GRP1_PERIPH_GPIOG (*)
 452:Drivers/STM32F4xx_HAL_Driver/Inc/stm32f4xx_ll_bus.h ****   *         @arg @ref LL_AHB1_GRP1_PERIPH_GPIOH (*)
 453:Drivers/STM32F4xx_HAL_Driver/Inc/stm32f4xx_ll_bus.h ****   *         @arg @ref LL_AHB1_GRP1_PERIPH_GPIOI (*)
 454:Drivers/STM32F4xx_HAL_Driver/Inc/stm32f4xx_ll_bus.h ****   *         @arg @ref LL_AHB1_GRP1_PERIPH_GPIOJ (*)
 455:Drivers/STM32F4xx_HAL_Driver/Inc/stm32f4xx_ll_bus.h ****   *         @arg @ref LL_AHB1_GRP1_PERIPH_GPIOK (*)
 456:Drivers/STM32F4xx_HAL_Driver/Inc/stm32f4xx_ll_bus.h ****   *         @arg @ref LL_AHB1_GRP1_PERIPH_CRC
 457:Drivers/STM32F4xx_HAL_Driver/Inc/stm32f4xx_ll_bus.h ****   *         @arg @ref LL_AHB1_GRP1_PERIPH_BKPSRAM (*)
 458:Drivers/STM32F4xx_HAL_Driver/Inc/stm32f4xx_ll_bus.h ****   *         @arg @ref LL_AHB1_GRP1_PERIPH_CCMDATARAM (*)
 459:Drivers/STM32F4xx_HAL_Driver/Inc/stm32f4xx_ll_bus.h ****   *         @arg @ref LL_AHB1_GRP1_PERIPH_DMA1
 460:Drivers/STM32F4xx_HAL_Driver/Inc/stm32f4xx_ll_bus.h ****   *         @arg @ref LL_AHB1_GRP1_PERIPH_DMA2
 461:Drivers/STM32F4xx_HAL_Driver/Inc/stm32f4xx_ll_bus.h ****   *         @arg @ref LL_AHB1_GRP1_PERIPH_RNG (*)
 462:Drivers/STM32F4xx_HAL_Driver/Inc/stm32f4xx_ll_bus.h ****   *         @arg @ref LL_AHB1_GRP1_PERIPH_DMA2D (*)
 463:Drivers/STM32F4xx_HAL_Driver/Inc/stm32f4xx_ll_bus.h ****   *         @arg @ref LL_AHB1_GRP1_PERIPH_ETHMAC (*)
ARM GAS  F:\msys64\tmp\cclfnzNs.s 			page 12


 464:Drivers/STM32F4xx_HAL_Driver/Inc/stm32f4xx_ll_bus.h ****   *         @arg @ref LL_AHB1_GRP1_PERIPH_ETHMACTX (*)
 465:Drivers/STM32F4xx_HAL_Driver/Inc/stm32f4xx_ll_bus.h ****   *         @arg @ref LL_AHB1_GRP1_PERIPH_ETHMACRX (*)
 466:Drivers/STM32F4xx_HAL_Driver/Inc/stm32f4xx_ll_bus.h ****   *         @arg @ref LL_AHB1_GRP1_PERIPH_ETHMACPTP (*)
 467:Drivers/STM32F4xx_HAL_Driver/Inc/stm32f4xx_ll_bus.h ****   *         @arg @ref LL_AHB1_GRP1_PERIPH_OTGHS (*)
 468:Drivers/STM32F4xx_HAL_Driver/Inc/stm32f4xx_ll_bus.h ****   *         @arg @ref LL_AHB1_GRP1_PERIPH_OTGHSULPI (*)
 469:Drivers/STM32F4xx_HAL_Driver/Inc/stm32f4xx_ll_bus.h ****   *
 470:Drivers/STM32F4xx_HAL_Driver/Inc/stm32f4xx_ll_bus.h ****   *         (*) value not defined in all devices.
 471:Drivers/STM32F4xx_HAL_Driver/Inc/stm32f4xx_ll_bus.h ****   * @retval State of Periphs (1 or 0).
 472:Drivers/STM32F4xx_HAL_Driver/Inc/stm32f4xx_ll_bus.h **** */
 473:Drivers/STM32F4xx_HAL_Driver/Inc/stm32f4xx_ll_bus.h **** __STATIC_INLINE uint32_t LL_AHB1_GRP1_IsEnabledClock(uint32_t Periphs)
 474:Drivers/STM32F4xx_HAL_Driver/Inc/stm32f4xx_ll_bus.h **** {
 475:Drivers/STM32F4xx_HAL_Driver/Inc/stm32f4xx_ll_bus.h ****   return (READ_BIT(RCC->AHB1ENR, Periphs) == Periphs);
 476:Drivers/STM32F4xx_HAL_Driver/Inc/stm32f4xx_ll_bus.h **** }
 477:Drivers/STM32F4xx_HAL_Driver/Inc/stm32f4xx_ll_bus.h **** 
 478:Drivers/STM32F4xx_HAL_Driver/Inc/stm32f4xx_ll_bus.h **** /**
 479:Drivers/STM32F4xx_HAL_Driver/Inc/stm32f4xx_ll_bus.h ****   * @brief  Disable AHB1 peripherals clock.
 480:Drivers/STM32F4xx_HAL_Driver/Inc/stm32f4xx_ll_bus.h ****   * @rmtoll AHB1ENR      GPIOAEN            LL_AHB1_GRP1_DisableClock\n
 481:Drivers/STM32F4xx_HAL_Driver/Inc/stm32f4xx_ll_bus.h ****   *         AHB1ENR      GPIOBEN            LL_AHB1_GRP1_DisableClock\n
 482:Drivers/STM32F4xx_HAL_Driver/Inc/stm32f4xx_ll_bus.h ****   *         AHB1ENR      GPIOCEN            LL_AHB1_GRP1_DisableClock\n
 483:Drivers/STM32F4xx_HAL_Driver/Inc/stm32f4xx_ll_bus.h ****   *         AHB1ENR      GPIODEN            LL_AHB1_GRP1_DisableClock\n
 484:Drivers/STM32F4xx_HAL_Driver/Inc/stm32f4xx_ll_bus.h ****   *         AHB1ENR      GPIOEEN            LL_AHB1_GRP1_DisableClock\n
 485:Drivers/STM32F4xx_HAL_Driver/Inc/stm32f4xx_ll_bus.h ****   *         AHB1ENR      GPIOFEN            LL_AHB1_GRP1_DisableClock\n
 486:Drivers/STM32F4xx_HAL_Driver/Inc/stm32f4xx_ll_bus.h ****   *         AHB1ENR      GPIOGEN            LL_AHB1_GRP1_DisableClock\n
 487:Drivers/STM32F4xx_HAL_Driver/Inc/stm32f4xx_ll_bus.h ****   *         AHB1ENR      GPIOHEN            LL_AHB1_GRP1_DisableClock\n
 488:Drivers/STM32F4xx_HAL_Driver/Inc/stm32f4xx_ll_bus.h ****   *         AHB1ENR      GPIOIEN            LL_AHB1_GRP1_DisableClock\n
 489:Drivers/STM32F4xx_HAL_Driver/Inc/stm32f4xx_ll_bus.h ****   *         AHB1ENR      GPIOJEN            LL_AHB1_GRP1_DisableClock\n
 490:Drivers/STM32F4xx_HAL_Driver/Inc/stm32f4xx_ll_bus.h ****   *         AHB1ENR      GPIOKEN            LL_AHB1_GRP1_DisableClock\n
 491:Drivers/STM32F4xx_HAL_Driver/Inc/stm32f4xx_ll_bus.h ****   *         AHB1ENR      CRCEN              LL_AHB1_GRP1_DisableClock\n
 492:Drivers/STM32F4xx_HAL_Driver/Inc/stm32f4xx_ll_bus.h ****   *         AHB1ENR      BKPSRAMEN          LL_AHB1_GRP1_DisableClock\n
 493:Drivers/STM32F4xx_HAL_Driver/Inc/stm32f4xx_ll_bus.h ****   *         AHB1ENR      CCMDATARAMEN       LL_AHB1_GRP1_DisableClock\n
 494:Drivers/STM32F4xx_HAL_Driver/Inc/stm32f4xx_ll_bus.h ****   *         AHB1ENR      DMA1EN             LL_AHB1_GRP1_DisableClock\n
 495:Drivers/STM32F4xx_HAL_Driver/Inc/stm32f4xx_ll_bus.h ****   *         AHB1ENR      DMA2EN             LL_AHB1_GRP1_DisableClock\n
 496:Drivers/STM32F4xx_HAL_Driver/Inc/stm32f4xx_ll_bus.h ****   *         AHB1ENR      RNGEN              LL_AHB1_GRP1_DisableClock\n
 497:Drivers/STM32F4xx_HAL_Driver/Inc/stm32f4xx_ll_bus.h ****   *         AHB1ENR      DMA2DEN            LL_AHB1_GRP1_DisableClock\n
 498:Drivers/STM32F4xx_HAL_Driver/Inc/stm32f4xx_ll_bus.h ****   *         AHB1ENR      ETHMACEN           LL_AHB1_GRP1_DisableClock\n
 499:Drivers/STM32F4xx_HAL_Driver/Inc/stm32f4xx_ll_bus.h ****   *         AHB1ENR      ETHMACTXEN         LL_AHB1_GRP1_DisableClock\n
 500:Drivers/STM32F4xx_HAL_Driver/Inc/stm32f4xx_ll_bus.h ****   *         AHB1ENR      ETHMACRXEN         LL_AHB1_GRP1_DisableClock\n
 501:Drivers/STM32F4xx_HAL_Driver/Inc/stm32f4xx_ll_bus.h ****   *         AHB1ENR      ETHMACPTPEN        LL_AHB1_GRP1_DisableClock\n
 502:Drivers/STM32F4xx_HAL_Driver/Inc/stm32f4xx_ll_bus.h ****   *         AHB1ENR      OTGHSEN            LL_AHB1_GRP1_DisableClock\n
 503:Drivers/STM32F4xx_HAL_Driver/Inc/stm32f4xx_ll_bus.h ****   *         AHB1ENR      OTGHSULPIEN        LL_AHB1_GRP1_DisableClock
 504:Drivers/STM32F4xx_HAL_Driver/Inc/stm32f4xx_ll_bus.h ****   * @param  Periphs This parameter can be a combination of the following values:
 505:Drivers/STM32F4xx_HAL_Driver/Inc/stm32f4xx_ll_bus.h ****   *         @arg @ref LL_AHB1_GRP1_PERIPH_GPIOA
 506:Drivers/STM32F4xx_HAL_Driver/Inc/stm32f4xx_ll_bus.h ****   *         @arg @ref LL_AHB1_GRP1_PERIPH_GPIOB
 507:Drivers/STM32F4xx_HAL_Driver/Inc/stm32f4xx_ll_bus.h ****   *         @arg @ref LL_AHB1_GRP1_PERIPH_GPIOC
 508:Drivers/STM32F4xx_HAL_Driver/Inc/stm32f4xx_ll_bus.h ****   *         @arg @ref LL_AHB1_GRP1_PERIPH_GPIOD (*)
 509:Drivers/STM32F4xx_HAL_Driver/Inc/stm32f4xx_ll_bus.h ****   *         @arg @ref LL_AHB1_GRP1_PERIPH_GPIOE (*)
 510:Drivers/STM32F4xx_HAL_Driver/Inc/stm32f4xx_ll_bus.h ****   *         @arg @ref LL_AHB1_GRP1_PERIPH_GPIOF (*)
 511:Drivers/STM32F4xx_HAL_Driver/Inc/stm32f4xx_ll_bus.h ****   *         @arg @ref LL_AHB1_GRP1_PERIPH_GPIOG (*)
 512:Drivers/STM32F4xx_HAL_Driver/Inc/stm32f4xx_ll_bus.h ****   *         @arg @ref LL_AHB1_GRP1_PERIPH_GPIOH (*)
 513:Drivers/STM32F4xx_HAL_Driver/Inc/stm32f4xx_ll_bus.h ****   *         @arg @ref LL_AHB1_GRP1_PERIPH_GPIOI (*)
 514:Drivers/STM32F4xx_HAL_Driver/Inc/stm32f4xx_ll_bus.h ****   *         @arg @ref LL_AHB1_GRP1_PERIPH_GPIOJ (*)
 515:Drivers/STM32F4xx_HAL_Driver/Inc/stm32f4xx_ll_bus.h ****   *         @arg @ref LL_AHB1_GRP1_PERIPH_GPIOK (*)
 516:Drivers/STM32F4xx_HAL_Driver/Inc/stm32f4xx_ll_bus.h ****   *         @arg @ref LL_AHB1_GRP1_PERIPH_CRC
 517:Drivers/STM32F4xx_HAL_Driver/Inc/stm32f4xx_ll_bus.h ****   *         @arg @ref LL_AHB1_GRP1_PERIPH_BKPSRAM (*)
 518:Drivers/STM32F4xx_HAL_Driver/Inc/stm32f4xx_ll_bus.h ****   *         @arg @ref LL_AHB1_GRP1_PERIPH_CCMDATARAM (*)
 519:Drivers/STM32F4xx_HAL_Driver/Inc/stm32f4xx_ll_bus.h ****   *         @arg @ref LL_AHB1_GRP1_PERIPH_DMA1
 520:Drivers/STM32F4xx_HAL_Driver/Inc/stm32f4xx_ll_bus.h ****   *         @arg @ref LL_AHB1_GRP1_PERIPH_DMA2
ARM GAS  F:\msys64\tmp\cclfnzNs.s 			page 13


 521:Drivers/STM32F4xx_HAL_Driver/Inc/stm32f4xx_ll_bus.h ****   *         @arg @ref LL_AHB1_GRP1_PERIPH_RNG (*)
 522:Drivers/STM32F4xx_HAL_Driver/Inc/stm32f4xx_ll_bus.h ****   *         @arg @ref LL_AHB1_GRP1_PERIPH_DMA2D (*)
 523:Drivers/STM32F4xx_HAL_Driver/Inc/stm32f4xx_ll_bus.h ****   *         @arg @ref LL_AHB1_GRP1_PERIPH_ETHMAC (*)
 524:Drivers/STM32F4xx_HAL_Driver/Inc/stm32f4xx_ll_bus.h ****   *         @arg @ref LL_AHB1_GRP1_PERIPH_ETHMACTX (*)
 525:Drivers/STM32F4xx_HAL_Driver/Inc/stm32f4xx_ll_bus.h ****   *         @arg @ref LL_AHB1_GRP1_PERIPH_ETHMACRX (*)
 526:Drivers/STM32F4xx_HAL_Driver/Inc/stm32f4xx_ll_bus.h ****   *         @arg @ref LL_AHB1_GRP1_PERIPH_ETHMACPTP (*)
 527:Drivers/STM32F4xx_HAL_Driver/Inc/stm32f4xx_ll_bus.h ****   *         @arg @ref LL_AHB1_GRP1_PERIPH_OTGHS (*)
 528:Drivers/STM32F4xx_HAL_Driver/Inc/stm32f4xx_ll_bus.h ****   *         @arg @ref LL_AHB1_GRP1_PERIPH_OTGHSULPI (*)
 529:Drivers/STM32F4xx_HAL_Driver/Inc/stm32f4xx_ll_bus.h ****   *
 530:Drivers/STM32F4xx_HAL_Driver/Inc/stm32f4xx_ll_bus.h ****   *         (*) value not defined in all devices.
 531:Drivers/STM32F4xx_HAL_Driver/Inc/stm32f4xx_ll_bus.h ****   * @retval None
 532:Drivers/STM32F4xx_HAL_Driver/Inc/stm32f4xx_ll_bus.h **** */
 533:Drivers/STM32F4xx_HAL_Driver/Inc/stm32f4xx_ll_bus.h **** __STATIC_INLINE void LL_AHB1_GRP1_DisableClock(uint32_t Periphs)
 534:Drivers/STM32F4xx_HAL_Driver/Inc/stm32f4xx_ll_bus.h **** {
 535:Drivers/STM32F4xx_HAL_Driver/Inc/stm32f4xx_ll_bus.h ****   CLEAR_BIT(RCC->AHB1ENR, Periphs);
 536:Drivers/STM32F4xx_HAL_Driver/Inc/stm32f4xx_ll_bus.h **** }
 537:Drivers/STM32F4xx_HAL_Driver/Inc/stm32f4xx_ll_bus.h **** 
 538:Drivers/STM32F4xx_HAL_Driver/Inc/stm32f4xx_ll_bus.h **** /**
 539:Drivers/STM32F4xx_HAL_Driver/Inc/stm32f4xx_ll_bus.h ****   * @brief  Force AHB1 peripherals reset.
 540:Drivers/STM32F4xx_HAL_Driver/Inc/stm32f4xx_ll_bus.h ****   * @rmtoll AHB1RSTR     GPIOARST      LL_AHB1_GRP1_ForceReset\n
 541:Drivers/STM32F4xx_HAL_Driver/Inc/stm32f4xx_ll_bus.h ****   *         AHB1RSTR     GPIOBRST      LL_AHB1_GRP1_ForceReset\n
 542:Drivers/STM32F4xx_HAL_Driver/Inc/stm32f4xx_ll_bus.h ****   *         AHB1RSTR     GPIOCRST      LL_AHB1_GRP1_ForceReset\n
 543:Drivers/STM32F4xx_HAL_Driver/Inc/stm32f4xx_ll_bus.h ****   *         AHB1RSTR     GPIODRST      LL_AHB1_GRP1_ForceReset\n
 544:Drivers/STM32F4xx_HAL_Driver/Inc/stm32f4xx_ll_bus.h ****   *         AHB1RSTR     GPIOERST      LL_AHB1_GRP1_ForceReset\n
 545:Drivers/STM32F4xx_HAL_Driver/Inc/stm32f4xx_ll_bus.h ****   *         AHB1RSTR     GPIOFRST      LL_AHB1_GRP1_ForceReset\n
 546:Drivers/STM32F4xx_HAL_Driver/Inc/stm32f4xx_ll_bus.h ****   *         AHB1RSTR     GPIOGRST      LL_AHB1_GRP1_ForceReset\n
 547:Drivers/STM32F4xx_HAL_Driver/Inc/stm32f4xx_ll_bus.h ****   *         AHB1RSTR     GPIOHRST      LL_AHB1_GRP1_ForceReset\n
 548:Drivers/STM32F4xx_HAL_Driver/Inc/stm32f4xx_ll_bus.h ****   *         AHB1RSTR     GPIOIRST      LL_AHB1_GRP1_ForceReset\n
 549:Drivers/STM32F4xx_HAL_Driver/Inc/stm32f4xx_ll_bus.h ****   *         AHB1RSTR     GPIOJRST      LL_AHB1_GRP1_ForceReset\n
 550:Drivers/STM32F4xx_HAL_Driver/Inc/stm32f4xx_ll_bus.h ****   *         AHB1RSTR     GPIOKRST      LL_AHB1_GRP1_ForceReset\n
 551:Drivers/STM32F4xx_HAL_Driver/Inc/stm32f4xx_ll_bus.h ****   *         AHB1RSTR     CRCRST        LL_AHB1_GRP1_ForceReset\n
 552:Drivers/STM32F4xx_HAL_Driver/Inc/stm32f4xx_ll_bus.h ****   *         AHB1RSTR     DMA1RST       LL_AHB1_GRP1_ForceReset\n
 553:Drivers/STM32F4xx_HAL_Driver/Inc/stm32f4xx_ll_bus.h ****   *         AHB1RSTR     DMA2RST       LL_AHB1_GRP1_ForceReset\n
 554:Drivers/STM32F4xx_HAL_Driver/Inc/stm32f4xx_ll_bus.h ****   *         AHB1RSTR     RNGRST        LL_AHB1_GRP1_ForceReset\n
 555:Drivers/STM32F4xx_HAL_Driver/Inc/stm32f4xx_ll_bus.h ****   *         AHB1RSTR     DMA2DRST      LL_AHB1_GRP1_ForceReset\n
 556:Drivers/STM32F4xx_HAL_Driver/Inc/stm32f4xx_ll_bus.h ****   *         AHB1RSTR     ETHMACRST     LL_AHB1_GRP1_ForceReset\n
 557:Drivers/STM32F4xx_HAL_Driver/Inc/stm32f4xx_ll_bus.h ****   *         AHB1RSTR     OTGHSRST      LL_AHB1_GRP1_ForceReset
 558:Drivers/STM32F4xx_HAL_Driver/Inc/stm32f4xx_ll_bus.h ****   * @param  Periphs This parameter can be a combination of the following values:
 559:Drivers/STM32F4xx_HAL_Driver/Inc/stm32f4xx_ll_bus.h ****   *         @arg @ref LL_AHB1_GRP1_PERIPH_ALL
 560:Drivers/STM32F4xx_HAL_Driver/Inc/stm32f4xx_ll_bus.h ****   *         @arg @ref LL_AHB1_GRP1_PERIPH_GPIOA
 561:Drivers/STM32F4xx_HAL_Driver/Inc/stm32f4xx_ll_bus.h ****   *         @arg @ref LL_AHB1_GRP1_PERIPH_GPIOB
 562:Drivers/STM32F4xx_HAL_Driver/Inc/stm32f4xx_ll_bus.h ****   *         @arg @ref LL_AHB1_GRP1_PERIPH_GPIOC
 563:Drivers/STM32F4xx_HAL_Driver/Inc/stm32f4xx_ll_bus.h ****   *         @arg @ref LL_AHB1_GRP1_PERIPH_GPIOD (*)
 564:Drivers/STM32F4xx_HAL_Driver/Inc/stm32f4xx_ll_bus.h ****   *         @arg @ref LL_AHB1_GRP1_PERIPH_GPIOE (*)
 565:Drivers/STM32F4xx_HAL_Driver/Inc/stm32f4xx_ll_bus.h ****   *         @arg @ref LL_AHB1_GRP1_PERIPH_GPIOF (*)
 566:Drivers/STM32F4xx_HAL_Driver/Inc/stm32f4xx_ll_bus.h ****   *         @arg @ref LL_AHB1_GRP1_PERIPH_GPIOG (*)
 567:Drivers/STM32F4xx_HAL_Driver/Inc/stm32f4xx_ll_bus.h ****   *         @arg @ref LL_AHB1_GRP1_PERIPH_GPIOH (*)
 568:Drivers/STM32F4xx_HAL_Driver/Inc/stm32f4xx_ll_bus.h ****   *         @arg @ref LL_AHB1_GRP1_PERIPH_GPIOI (*)
 569:Drivers/STM32F4xx_HAL_Driver/Inc/stm32f4xx_ll_bus.h ****   *         @arg @ref LL_AHB1_GRP1_PERIPH_GPIOJ (*)
 570:Drivers/STM32F4xx_HAL_Driver/Inc/stm32f4xx_ll_bus.h ****   *         @arg @ref LL_AHB1_GRP1_PERIPH_GPIOK (*)
 571:Drivers/STM32F4xx_HAL_Driver/Inc/stm32f4xx_ll_bus.h ****   *         @arg @ref LL_AHB1_GRP1_PERIPH_CRC
 572:Drivers/STM32F4xx_HAL_Driver/Inc/stm32f4xx_ll_bus.h ****   *         @arg @ref LL_AHB1_GRP1_PERIPH_DMA1
 573:Drivers/STM32F4xx_HAL_Driver/Inc/stm32f4xx_ll_bus.h ****   *         @arg @ref LL_AHB1_GRP1_PERIPH_DMA2
 574:Drivers/STM32F4xx_HAL_Driver/Inc/stm32f4xx_ll_bus.h ****   *         @arg @ref LL_AHB1_GRP1_PERIPH_RNG (*)
 575:Drivers/STM32F4xx_HAL_Driver/Inc/stm32f4xx_ll_bus.h ****   *         @arg @ref LL_AHB1_GRP1_PERIPH_DMA2D (*)
 576:Drivers/STM32F4xx_HAL_Driver/Inc/stm32f4xx_ll_bus.h ****   *         @arg @ref LL_AHB1_GRP1_PERIPH_ETHMAC (*)
 577:Drivers/STM32F4xx_HAL_Driver/Inc/stm32f4xx_ll_bus.h ****   *         @arg @ref LL_AHB1_GRP1_PERIPH_OTGHS (*)
ARM GAS  F:\msys64\tmp\cclfnzNs.s 			page 14


 578:Drivers/STM32F4xx_HAL_Driver/Inc/stm32f4xx_ll_bus.h ****   *
 579:Drivers/STM32F4xx_HAL_Driver/Inc/stm32f4xx_ll_bus.h ****   *         (*) value not defined in all devices.
 580:Drivers/STM32F4xx_HAL_Driver/Inc/stm32f4xx_ll_bus.h ****   * @retval None
 581:Drivers/STM32F4xx_HAL_Driver/Inc/stm32f4xx_ll_bus.h **** */
 582:Drivers/STM32F4xx_HAL_Driver/Inc/stm32f4xx_ll_bus.h **** __STATIC_INLINE void LL_AHB1_GRP1_ForceReset(uint32_t Periphs)
 583:Drivers/STM32F4xx_HAL_Driver/Inc/stm32f4xx_ll_bus.h **** {
 584:Drivers/STM32F4xx_HAL_Driver/Inc/stm32f4xx_ll_bus.h ****   SET_BIT(RCC->AHB1RSTR, Periphs);
 585:Drivers/STM32F4xx_HAL_Driver/Inc/stm32f4xx_ll_bus.h **** }
 586:Drivers/STM32F4xx_HAL_Driver/Inc/stm32f4xx_ll_bus.h **** 
 587:Drivers/STM32F4xx_HAL_Driver/Inc/stm32f4xx_ll_bus.h **** /**
 588:Drivers/STM32F4xx_HAL_Driver/Inc/stm32f4xx_ll_bus.h ****   * @brief  Release AHB1 peripherals reset.
 589:Drivers/STM32F4xx_HAL_Driver/Inc/stm32f4xx_ll_bus.h ****   * @rmtoll AHB1RSTR     GPIOARST      LL_AHB1_GRP1_ReleaseReset\n
 590:Drivers/STM32F4xx_HAL_Driver/Inc/stm32f4xx_ll_bus.h ****   *         AHB1RSTR     GPIOBRST      LL_AHB1_GRP1_ReleaseReset\n
 591:Drivers/STM32F4xx_HAL_Driver/Inc/stm32f4xx_ll_bus.h ****   *         AHB1RSTR     GPIOCRST      LL_AHB1_GRP1_ReleaseReset\n
 592:Drivers/STM32F4xx_HAL_Driver/Inc/stm32f4xx_ll_bus.h ****   *         AHB1RSTR     GPIODRST      LL_AHB1_GRP1_ReleaseReset\n
 593:Drivers/STM32F4xx_HAL_Driver/Inc/stm32f4xx_ll_bus.h ****   *         AHB1RSTR     GPIOERST      LL_AHB1_GRP1_ReleaseReset\n
 594:Drivers/STM32F4xx_HAL_Driver/Inc/stm32f4xx_ll_bus.h ****   *         AHB1RSTR     GPIOFRST      LL_AHB1_GRP1_ReleaseReset\n
 595:Drivers/STM32F4xx_HAL_Driver/Inc/stm32f4xx_ll_bus.h ****   *         AHB1RSTR     GPIOGRST      LL_AHB1_GRP1_ReleaseReset\n
 596:Drivers/STM32F4xx_HAL_Driver/Inc/stm32f4xx_ll_bus.h ****   *         AHB1RSTR     GPIOHRST      LL_AHB1_GRP1_ReleaseReset\n
 597:Drivers/STM32F4xx_HAL_Driver/Inc/stm32f4xx_ll_bus.h ****   *         AHB1RSTR     GPIOIRST      LL_AHB1_GRP1_ReleaseReset\n
 598:Drivers/STM32F4xx_HAL_Driver/Inc/stm32f4xx_ll_bus.h ****   *         AHB1RSTR     GPIOJRST      LL_AHB1_GRP1_ReleaseReset\n
 599:Drivers/STM32F4xx_HAL_Driver/Inc/stm32f4xx_ll_bus.h ****   *         AHB1RSTR     GPIOKRST      LL_AHB1_GRP1_ReleaseReset\n
 600:Drivers/STM32F4xx_HAL_Driver/Inc/stm32f4xx_ll_bus.h ****   *         AHB1RSTR     CRCRST        LL_AHB1_GRP1_ReleaseReset\n
 601:Drivers/STM32F4xx_HAL_Driver/Inc/stm32f4xx_ll_bus.h ****   *         AHB1RSTR     DMA1RST       LL_AHB1_GRP1_ReleaseReset\n
 602:Drivers/STM32F4xx_HAL_Driver/Inc/stm32f4xx_ll_bus.h ****   *         AHB1RSTR     DMA2RST       LL_AHB1_GRP1_ReleaseReset\n
 603:Drivers/STM32F4xx_HAL_Driver/Inc/stm32f4xx_ll_bus.h ****   *         AHB1RSTR     RNGRST        LL_AHB1_GRP1_ReleaseReset\n
 604:Drivers/STM32F4xx_HAL_Driver/Inc/stm32f4xx_ll_bus.h ****   *         AHB1RSTR     DMA2DRST      LL_AHB1_GRP1_ReleaseReset\n
 605:Drivers/STM32F4xx_HAL_Driver/Inc/stm32f4xx_ll_bus.h ****   *         AHB1RSTR     ETHMACRST     LL_AHB1_GRP1_ReleaseReset\n
 606:Drivers/STM32F4xx_HAL_Driver/Inc/stm32f4xx_ll_bus.h ****   *         AHB1RSTR     OTGHSRST      LL_AHB1_GRP1_ReleaseReset
 607:Drivers/STM32F4xx_HAL_Driver/Inc/stm32f4xx_ll_bus.h ****   * @param  Periphs This parameter can be a combination of the following values:
 608:Drivers/STM32F4xx_HAL_Driver/Inc/stm32f4xx_ll_bus.h ****   *         @arg @ref LL_AHB1_GRP1_PERIPH_ALL
 609:Drivers/STM32F4xx_HAL_Driver/Inc/stm32f4xx_ll_bus.h ****   *         @arg @ref LL_AHB1_GRP1_PERIPH_GPIOA
 610:Drivers/STM32F4xx_HAL_Driver/Inc/stm32f4xx_ll_bus.h ****   *         @arg @ref LL_AHB1_GRP1_PERIPH_GPIOB
 611:Drivers/STM32F4xx_HAL_Driver/Inc/stm32f4xx_ll_bus.h ****   *         @arg @ref LL_AHB1_GRP1_PERIPH_GPIOC
 612:Drivers/STM32F4xx_HAL_Driver/Inc/stm32f4xx_ll_bus.h ****   *         @arg @ref LL_AHB1_GRP1_PERIPH_GPIOD (*)
 613:Drivers/STM32F4xx_HAL_Driver/Inc/stm32f4xx_ll_bus.h ****   *         @arg @ref LL_AHB1_GRP1_PERIPH_GPIOE (*)
 614:Drivers/STM32F4xx_HAL_Driver/Inc/stm32f4xx_ll_bus.h ****   *         @arg @ref LL_AHB1_GRP1_PERIPH_GPIOF (*)
 615:Drivers/STM32F4xx_HAL_Driver/Inc/stm32f4xx_ll_bus.h ****   *         @arg @ref LL_AHB1_GRP1_PERIPH_GPIOG (*)
 616:Drivers/STM32F4xx_HAL_Driver/Inc/stm32f4xx_ll_bus.h ****   *         @arg @ref LL_AHB1_GRP1_PERIPH_GPIOH (*)
 617:Drivers/STM32F4xx_HAL_Driver/Inc/stm32f4xx_ll_bus.h ****   *         @arg @ref LL_AHB1_GRP1_PERIPH_GPIOI (*)
 618:Drivers/STM32F4xx_HAL_Driver/Inc/stm32f4xx_ll_bus.h ****   *         @arg @ref LL_AHB1_GRP1_PERIPH_GPIOJ (*)
 619:Drivers/STM32F4xx_HAL_Driver/Inc/stm32f4xx_ll_bus.h ****   *         @arg @ref LL_AHB1_GRP1_PERIPH_GPIOK (*)
 620:Drivers/STM32F4xx_HAL_Driver/Inc/stm32f4xx_ll_bus.h ****   *         @arg @ref LL_AHB1_GRP1_PERIPH_CRC
 621:Drivers/STM32F4xx_HAL_Driver/Inc/stm32f4xx_ll_bus.h ****   *         @arg @ref LL_AHB1_GRP1_PERIPH_DMA1
 622:Drivers/STM32F4xx_HAL_Driver/Inc/stm32f4xx_ll_bus.h ****   *         @arg @ref LL_AHB1_GRP1_PERIPH_DMA2
 623:Drivers/STM32F4xx_HAL_Driver/Inc/stm32f4xx_ll_bus.h ****   *         @arg @ref LL_AHB1_GRP1_PERIPH_RNG (*)
 624:Drivers/STM32F4xx_HAL_Driver/Inc/stm32f4xx_ll_bus.h ****   *         @arg @ref LL_AHB1_GRP1_PERIPH_DMA2D (*)
 625:Drivers/STM32F4xx_HAL_Driver/Inc/stm32f4xx_ll_bus.h ****   *         @arg @ref LL_AHB1_GRP1_PERIPH_ETHMAC (*)
 626:Drivers/STM32F4xx_HAL_Driver/Inc/stm32f4xx_ll_bus.h ****   *         @arg @ref LL_AHB1_GRP1_PERIPH_OTGHS (*)
 627:Drivers/STM32F4xx_HAL_Driver/Inc/stm32f4xx_ll_bus.h ****   *
 628:Drivers/STM32F4xx_HAL_Driver/Inc/stm32f4xx_ll_bus.h ****   *         (*) value not defined in all devices.
 629:Drivers/STM32F4xx_HAL_Driver/Inc/stm32f4xx_ll_bus.h ****   * @retval None
 630:Drivers/STM32F4xx_HAL_Driver/Inc/stm32f4xx_ll_bus.h **** */
 631:Drivers/STM32F4xx_HAL_Driver/Inc/stm32f4xx_ll_bus.h **** __STATIC_INLINE void LL_AHB1_GRP1_ReleaseReset(uint32_t Periphs)
 632:Drivers/STM32F4xx_HAL_Driver/Inc/stm32f4xx_ll_bus.h **** {
 633:Drivers/STM32F4xx_HAL_Driver/Inc/stm32f4xx_ll_bus.h ****   CLEAR_BIT(RCC->AHB1RSTR, Periphs);
 634:Drivers/STM32F4xx_HAL_Driver/Inc/stm32f4xx_ll_bus.h **** }
ARM GAS  F:\msys64\tmp\cclfnzNs.s 			page 15


 635:Drivers/STM32F4xx_HAL_Driver/Inc/stm32f4xx_ll_bus.h **** 
 636:Drivers/STM32F4xx_HAL_Driver/Inc/stm32f4xx_ll_bus.h **** /**
 637:Drivers/STM32F4xx_HAL_Driver/Inc/stm32f4xx_ll_bus.h ****   * @brief  Enable AHB1 peripheral clocks in low-power mode
 638:Drivers/STM32F4xx_HAL_Driver/Inc/stm32f4xx_ll_bus.h ****   * @rmtoll AHB1LPENR    GPIOALPEN      LL_AHB1_GRP1_EnableClockLowPower\n
 639:Drivers/STM32F4xx_HAL_Driver/Inc/stm32f4xx_ll_bus.h ****   *         AHB1LPENR    GPIOBLPEN      LL_AHB1_GRP1_EnableClockLowPower\n
 640:Drivers/STM32F4xx_HAL_Driver/Inc/stm32f4xx_ll_bus.h ****   *         AHB1LPENR    GPIOCLPEN      LL_AHB1_GRP1_EnableClockLowPower\n
 641:Drivers/STM32F4xx_HAL_Driver/Inc/stm32f4xx_ll_bus.h ****   *         AHB1LPENR    GPIODLPEN      LL_AHB1_GRP1_EnableClockLowPower\n
 642:Drivers/STM32F4xx_HAL_Driver/Inc/stm32f4xx_ll_bus.h ****   *         AHB1LPENR    GPIOELPEN      LL_AHB1_GRP1_EnableClockLowPower\n
 643:Drivers/STM32F4xx_HAL_Driver/Inc/stm32f4xx_ll_bus.h ****   *         AHB1LPENR    GPIOFLPEN      LL_AHB1_GRP1_EnableClockLowPower\n
 644:Drivers/STM32F4xx_HAL_Driver/Inc/stm32f4xx_ll_bus.h ****   *         AHB1LPENR    GPIOGLPEN      LL_AHB1_GRP1_EnableClockLowPower\n
 645:Drivers/STM32F4xx_HAL_Driver/Inc/stm32f4xx_ll_bus.h ****   *         AHB1LPENR    GPIOHLPEN      LL_AHB1_GRP1_EnableClockLowPower\n
 646:Drivers/STM32F4xx_HAL_Driver/Inc/stm32f4xx_ll_bus.h ****   *         AHB1LPENR    GPIOILPEN      LL_AHB1_GRP1_EnableClockLowPower\n
 647:Drivers/STM32F4xx_HAL_Driver/Inc/stm32f4xx_ll_bus.h ****   *         AHB1LPENR    GPIOJLPEN      LL_AHB1_GRP1_EnableClockLowPower\n
 648:Drivers/STM32F4xx_HAL_Driver/Inc/stm32f4xx_ll_bus.h ****   *         AHB1LPENR    GPIOKLPEN      LL_AHB1_GRP1_EnableClockLowPower\n
 649:Drivers/STM32F4xx_HAL_Driver/Inc/stm32f4xx_ll_bus.h ****   *         AHB1LPENR    CRCLPEN        LL_AHB1_GRP1_EnableClockLowPower\n
 650:Drivers/STM32F4xx_HAL_Driver/Inc/stm32f4xx_ll_bus.h ****   *         AHB1LPENR    BKPSRAMLPEN    LL_AHB1_GRP1_EnableClockLowPower\n
 651:Drivers/STM32F4xx_HAL_Driver/Inc/stm32f4xx_ll_bus.h ****   *         AHB1LPENR    FLITFLPEN      LL_AHB1_GRP1_EnableClockLowPower\n
 652:Drivers/STM32F4xx_HAL_Driver/Inc/stm32f4xx_ll_bus.h ****   *         AHB1LPENR    SRAM1LPEN      LL_AHB1_GRP1_EnableClockLowPower\n
 653:Drivers/STM32F4xx_HAL_Driver/Inc/stm32f4xx_ll_bus.h ****   *         AHB1LPENR    SRAM2LPEN      LL_AHB1_GRP1_EnableClockLowPower\n
 654:Drivers/STM32F4xx_HAL_Driver/Inc/stm32f4xx_ll_bus.h ****   *         AHB1LPENR    SRAM3LPEN      LL_AHB1_GRP1_EnableClockLowPower\n
 655:Drivers/STM32F4xx_HAL_Driver/Inc/stm32f4xx_ll_bus.h ****   *         AHB1LPENR    BKPSRAMLPEN    LL_AHB1_GRP1_EnableClockLowPower\n
 656:Drivers/STM32F4xx_HAL_Driver/Inc/stm32f4xx_ll_bus.h ****   *         AHB1LPENR    DMA1LPEN       LL_AHB1_GRP1_EnableClockLowPower\n
 657:Drivers/STM32F4xx_HAL_Driver/Inc/stm32f4xx_ll_bus.h ****   *         AHB1LPENR    DMA2LPEN       LL_AHB1_GRP1_EnableClockLowPower\n
 658:Drivers/STM32F4xx_HAL_Driver/Inc/stm32f4xx_ll_bus.h ****   *         AHB1LPENR    DMA2DLPEN      LL_AHB1_GRP1_EnableClockLowPower\n
 659:Drivers/STM32F4xx_HAL_Driver/Inc/stm32f4xx_ll_bus.h ****   *         AHB1LPENR    RNGLPEN        LL_AHB1_GRP1_EnableClockLowPower\n
 660:Drivers/STM32F4xx_HAL_Driver/Inc/stm32f4xx_ll_bus.h ****   *         AHB1LPENR    ETHMACLPEN     LL_AHB1_GRP1_EnableClockLowPower\n
 661:Drivers/STM32F4xx_HAL_Driver/Inc/stm32f4xx_ll_bus.h ****   *         AHB1LPENR    ETHMACTXLPEN   LL_AHB1_GRP1_EnableClockLowPower\n
 662:Drivers/STM32F4xx_HAL_Driver/Inc/stm32f4xx_ll_bus.h ****   *         AHB1LPENR    ETHMACRXLPEN   LL_AHB1_GRP1_EnableClockLowPower\n
 663:Drivers/STM32F4xx_HAL_Driver/Inc/stm32f4xx_ll_bus.h ****   *         AHB1LPENR    ETHMACPTPLPEN  LL_AHB1_GRP1_EnableClockLowPower\n
 664:Drivers/STM32F4xx_HAL_Driver/Inc/stm32f4xx_ll_bus.h ****   *         AHB1LPENR    OTGHSLPEN      LL_AHB1_GRP1_EnableClockLowPower\n
 665:Drivers/STM32F4xx_HAL_Driver/Inc/stm32f4xx_ll_bus.h ****   *         AHB1LPENR    OTGHSULPILPEN  LL_AHB1_GRP1_EnableClockLowPower
 666:Drivers/STM32F4xx_HAL_Driver/Inc/stm32f4xx_ll_bus.h ****   * @param  Periphs This parameter can be a combination of the following values:
 667:Drivers/STM32F4xx_HAL_Driver/Inc/stm32f4xx_ll_bus.h ****   *         @arg @ref LL_AHB1_GRP1_PERIPH_GPIOA
 668:Drivers/STM32F4xx_HAL_Driver/Inc/stm32f4xx_ll_bus.h ****   *         @arg @ref LL_AHB1_GRP1_PERIPH_GPIOB
 669:Drivers/STM32F4xx_HAL_Driver/Inc/stm32f4xx_ll_bus.h ****   *         @arg @ref LL_AHB1_GRP1_PERIPH_GPIOC
 670:Drivers/STM32F4xx_HAL_Driver/Inc/stm32f4xx_ll_bus.h ****   *         @arg @ref LL_AHB1_GRP1_PERIPH_GPIOD (*)
 671:Drivers/STM32F4xx_HAL_Driver/Inc/stm32f4xx_ll_bus.h ****   *         @arg @ref LL_AHB1_GRP1_PERIPH_GPIOE (*)
 672:Drivers/STM32F4xx_HAL_Driver/Inc/stm32f4xx_ll_bus.h ****   *         @arg @ref LL_AHB1_GRP1_PERIPH_GPIOF (*)
 673:Drivers/STM32F4xx_HAL_Driver/Inc/stm32f4xx_ll_bus.h ****   *         @arg @ref LL_AHB1_GRP1_PERIPH_GPIOG (*)
 674:Drivers/STM32F4xx_HAL_Driver/Inc/stm32f4xx_ll_bus.h ****   *         @arg @ref LL_AHB1_GRP1_PERIPH_GPIOH (*)
 675:Drivers/STM32F4xx_HAL_Driver/Inc/stm32f4xx_ll_bus.h ****   *         @arg @ref LL_AHB1_GRP1_PERIPH_GPIOI (*)
 676:Drivers/STM32F4xx_HAL_Driver/Inc/stm32f4xx_ll_bus.h ****   *         @arg @ref LL_AHB1_GRP1_PERIPH_GPIOJ (*)
 677:Drivers/STM32F4xx_HAL_Driver/Inc/stm32f4xx_ll_bus.h ****   *         @arg @ref LL_AHB1_GRP1_PERIPH_GPIOK (*)
 678:Drivers/STM32F4xx_HAL_Driver/Inc/stm32f4xx_ll_bus.h ****   *         @arg @ref LL_AHB1_GRP1_PERIPH_CRC
 679:Drivers/STM32F4xx_HAL_Driver/Inc/stm32f4xx_ll_bus.h ****   *         @arg @ref LL_AHB1_GRP1_PERIPH_BKPSRAM (*)
 680:Drivers/STM32F4xx_HAL_Driver/Inc/stm32f4xx_ll_bus.h ****   *         @arg @ref LL_AHB1_GRP1_PERIPH_FLITF
 681:Drivers/STM32F4xx_HAL_Driver/Inc/stm32f4xx_ll_bus.h ****   *         @arg @ref LL_AHB1_GRP1_PERIPH_SRAM1
 682:Drivers/STM32F4xx_HAL_Driver/Inc/stm32f4xx_ll_bus.h ****   *         @arg @ref LL_AHB1_GRP1_PERIPH_SRAM2 (*)
 683:Drivers/STM32F4xx_HAL_Driver/Inc/stm32f4xx_ll_bus.h ****   *         @arg @ref LL_AHB1_GRP1_PERIPH_SRAM3 (*)
 684:Drivers/STM32F4xx_HAL_Driver/Inc/stm32f4xx_ll_bus.h ****   *         @arg @ref LL_AHB1_GRP1_PERIPH_DMA1
 685:Drivers/STM32F4xx_HAL_Driver/Inc/stm32f4xx_ll_bus.h ****   *         @arg @ref LL_AHB1_GRP1_PERIPH_DMA2
 686:Drivers/STM32F4xx_HAL_Driver/Inc/stm32f4xx_ll_bus.h ****   *         @arg @ref LL_AHB1_GRP1_PERIPH_RNG (*)
 687:Drivers/STM32F4xx_HAL_Driver/Inc/stm32f4xx_ll_bus.h ****   *         @arg @ref LL_AHB1_GRP1_PERIPH_DMA2D (*)
 688:Drivers/STM32F4xx_HAL_Driver/Inc/stm32f4xx_ll_bus.h ****   *         @arg @ref LL_AHB1_GRP1_PERIPH_ETHMAC (*)
 689:Drivers/STM32F4xx_HAL_Driver/Inc/stm32f4xx_ll_bus.h ****   *         @arg @ref LL_AHB1_GRP1_PERIPH_ETHMACTX (*)
 690:Drivers/STM32F4xx_HAL_Driver/Inc/stm32f4xx_ll_bus.h ****   *         @arg @ref LL_AHB1_GRP1_PERIPH_ETHMACRX (*)
 691:Drivers/STM32F4xx_HAL_Driver/Inc/stm32f4xx_ll_bus.h ****   *         @arg @ref LL_AHB1_GRP1_PERIPH_ETHMACPTP (*)
ARM GAS  F:\msys64\tmp\cclfnzNs.s 			page 16


 692:Drivers/STM32F4xx_HAL_Driver/Inc/stm32f4xx_ll_bus.h ****   *         @arg @ref LL_AHB1_GRP1_PERIPH_OTGHS (*)
 693:Drivers/STM32F4xx_HAL_Driver/Inc/stm32f4xx_ll_bus.h ****   *         @arg @ref LL_AHB1_GRP1_PERIPH_OTGHSULPI (*)
 694:Drivers/STM32F4xx_HAL_Driver/Inc/stm32f4xx_ll_bus.h ****   *
 695:Drivers/STM32F4xx_HAL_Driver/Inc/stm32f4xx_ll_bus.h ****   *         (*) value not defined in all devices.
 696:Drivers/STM32F4xx_HAL_Driver/Inc/stm32f4xx_ll_bus.h ****   * @retval None
 697:Drivers/STM32F4xx_HAL_Driver/Inc/stm32f4xx_ll_bus.h **** */
 698:Drivers/STM32F4xx_HAL_Driver/Inc/stm32f4xx_ll_bus.h **** __STATIC_INLINE void LL_AHB1_GRP1_EnableClockLowPower(uint32_t Periphs)
 699:Drivers/STM32F4xx_HAL_Driver/Inc/stm32f4xx_ll_bus.h **** {
 700:Drivers/STM32F4xx_HAL_Driver/Inc/stm32f4xx_ll_bus.h ****   __IO uint32_t tmpreg;
 701:Drivers/STM32F4xx_HAL_Driver/Inc/stm32f4xx_ll_bus.h ****   SET_BIT(RCC->AHB1LPENR, Periphs);
 702:Drivers/STM32F4xx_HAL_Driver/Inc/stm32f4xx_ll_bus.h ****   /* Delay after an RCC peripheral clock enabling */
 703:Drivers/STM32F4xx_HAL_Driver/Inc/stm32f4xx_ll_bus.h ****   tmpreg = READ_BIT(RCC->AHB1LPENR, Periphs);
 704:Drivers/STM32F4xx_HAL_Driver/Inc/stm32f4xx_ll_bus.h ****   (void)tmpreg;
 705:Drivers/STM32F4xx_HAL_Driver/Inc/stm32f4xx_ll_bus.h **** }
 706:Drivers/STM32F4xx_HAL_Driver/Inc/stm32f4xx_ll_bus.h **** 
 707:Drivers/STM32F4xx_HAL_Driver/Inc/stm32f4xx_ll_bus.h **** /**
 708:Drivers/STM32F4xx_HAL_Driver/Inc/stm32f4xx_ll_bus.h ****   * @brief  Disable AHB1 peripheral clocks in low-power mode
 709:Drivers/STM32F4xx_HAL_Driver/Inc/stm32f4xx_ll_bus.h ****   * @rmtoll AHB1LPENR    GPIOALPEN      LL_AHB1_GRP1_DisableClockLowPower\n
 710:Drivers/STM32F4xx_HAL_Driver/Inc/stm32f4xx_ll_bus.h ****   *         AHB1LPENR    GPIOBLPEN      LL_AHB1_GRP1_DisableClockLowPower\n
 711:Drivers/STM32F4xx_HAL_Driver/Inc/stm32f4xx_ll_bus.h ****   *         AHB1LPENR    GPIOCLPEN      LL_AHB1_GRP1_DisableClockLowPower\n
 712:Drivers/STM32F4xx_HAL_Driver/Inc/stm32f4xx_ll_bus.h ****   *         AHB1LPENR    GPIODLPEN      LL_AHB1_GRP1_DisableClockLowPower\n
 713:Drivers/STM32F4xx_HAL_Driver/Inc/stm32f4xx_ll_bus.h ****   *         AHB1LPENR    GPIOELPEN      LL_AHB1_GRP1_DisableClockLowPower\n
 714:Drivers/STM32F4xx_HAL_Driver/Inc/stm32f4xx_ll_bus.h ****   *         AHB1LPENR    GPIOFLPEN      LL_AHB1_GRP1_DisableClockLowPower\n
 715:Drivers/STM32F4xx_HAL_Driver/Inc/stm32f4xx_ll_bus.h ****   *         AHB1LPENR    GPIOGLPEN      LL_AHB1_GRP1_DisableClockLowPower\n
 716:Drivers/STM32F4xx_HAL_Driver/Inc/stm32f4xx_ll_bus.h ****   *         AHB1LPENR    GPIOHLPEN      LL_AHB1_GRP1_DisableClockLowPower\n
 717:Drivers/STM32F4xx_HAL_Driver/Inc/stm32f4xx_ll_bus.h ****   *         AHB1LPENR    GPIOILPEN      LL_AHB1_GRP1_DisableClockLowPower\n
 718:Drivers/STM32F4xx_HAL_Driver/Inc/stm32f4xx_ll_bus.h ****   *         AHB1LPENR    GPIOJLPEN      LL_AHB1_GRP1_DisableClockLowPower\n
 719:Drivers/STM32F4xx_HAL_Driver/Inc/stm32f4xx_ll_bus.h ****   *         AHB1LPENR    GPIOKLPEN      LL_AHB1_GRP1_DisableClockLowPower\n
 720:Drivers/STM32F4xx_HAL_Driver/Inc/stm32f4xx_ll_bus.h ****   *         AHB1LPENR    CRCLPEN        LL_AHB1_GRP1_DisableClockLowPower\n
 721:Drivers/STM32F4xx_HAL_Driver/Inc/stm32f4xx_ll_bus.h ****   *         AHB1LPENR    BKPSRAMLPEN    LL_AHB1_GRP1_DisableClockLowPower\n
 722:Drivers/STM32F4xx_HAL_Driver/Inc/stm32f4xx_ll_bus.h ****   *         AHB1LPENR    FLITFLPEN      LL_AHB1_GRP1_DisableClockLowPower\n
 723:Drivers/STM32F4xx_HAL_Driver/Inc/stm32f4xx_ll_bus.h ****   *         AHB1LPENR    SRAM1LPEN      LL_AHB1_GRP1_DisableClockLowPower\n
 724:Drivers/STM32F4xx_HAL_Driver/Inc/stm32f4xx_ll_bus.h ****   *         AHB1LPENR    SRAM2LPEN      LL_AHB1_GRP1_DisableClockLowPower\n
 725:Drivers/STM32F4xx_HAL_Driver/Inc/stm32f4xx_ll_bus.h ****   *         AHB1LPENR    SRAM3LPEN      LL_AHB1_GRP1_DisableClockLowPower\n
 726:Drivers/STM32F4xx_HAL_Driver/Inc/stm32f4xx_ll_bus.h ****   *         AHB1LPENR    BKPSRAMLPEN    LL_AHB1_GRP1_DisableClockLowPower\n
 727:Drivers/STM32F4xx_HAL_Driver/Inc/stm32f4xx_ll_bus.h ****   *         AHB1LPENR    DMA1LPEN       LL_AHB1_GRP1_DisableClockLowPower\n
 728:Drivers/STM32F4xx_HAL_Driver/Inc/stm32f4xx_ll_bus.h ****   *         AHB1LPENR    DMA2LPEN       LL_AHB1_GRP1_DisableClockLowPower\n
 729:Drivers/STM32F4xx_HAL_Driver/Inc/stm32f4xx_ll_bus.h ****   *         AHB1LPENR    DMA2DLPEN      LL_AHB1_GRP1_DisableClockLowPower\n
 730:Drivers/STM32F4xx_HAL_Driver/Inc/stm32f4xx_ll_bus.h ****   *         AHB1LPENR    RNGLPEN        LL_AHB1_GRP1_DisableClockLowPower\n
 731:Drivers/STM32F4xx_HAL_Driver/Inc/stm32f4xx_ll_bus.h ****   *         AHB1LPENR    ETHMACLPEN     LL_AHB1_GRP1_DisableClockLowPower\n
 732:Drivers/STM32F4xx_HAL_Driver/Inc/stm32f4xx_ll_bus.h ****   *         AHB1LPENR    ETHMACTXLPEN   LL_AHB1_GRP1_DisableClockLowPower\n
 733:Drivers/STM32F4xx_HAL_Driver/Inc/stm32f4xx_ll_bus.h ****   *         AHB1LPENR    ETHMACRXLPEN   LL_AHB1_GRP1_DisableClockLowPower\n
 734:Drivers/STM32F4xx_HAL_Driver/Inc/stm32f4xx_ll_bus.h ****   *         AHB1LPENR    ETHMACPTPLPEN  LL_AHB1_GRP1_DisableClockLowPower\n
 735:Drivers/STM32F4xx_HAL_Driver/Inc/stm32f4xx_ll_bus.h ****   *         AHB1LPENR    OTGHSLPEN      LL_AHB1_GRP1_DisableClockLowPower\n
 736:Drivers/STM32F4xx_HAL_Driver/Inc/stm32f4xx_ll_bus.h ****   *         AHB1LPENR    OTGHSULPILPEN  LL_AHB1_GRP1_DisableClockLowPower
 737:Drivers/STM32F4xx_HAL_Driver/Inc/stm32f4xx_ll_bus.h ****   * @param  Periphs This parameter can be a combination of the following values:
 738:Drivers/STM32F4xx_HAL_Driver/Inc/stm32f4xx_ll_bus.h ****   *         @arg @ref LL_AHB1_GRP1_PERIPH_GPIOA
 739:Drivers/STM32F4xx_HAL_Driver/Inc/stm32f4xx_ll_bus.h ****   *         @arg @ref LL_AHB1_GRP1_PERIPH_GPIOB
 740:Drivers/STM32F4xx_HAL_Driver/Inc/stm32f4xx_ll_bus.h ****   *         @arg @ref LL_AHB1_GRP1_PERIPH_GPIOC
 741:Drivers/STM32F4xx_HAL_Driver/Inc/stm32f4xx_ll_bus.h ****   *         @arg @ref LL_AHB1_GRP1_PERIPH_GPIOD (*)
 742:Drivers/STM32F4xx_HAL_Driver/Inc/stm32f4xx_ll_bus.h ****   *         @arg @ref LL_AHB1_GRP1_PERIPH_GPIOE (*)
 743:Drivers/STM32F4xx_HAL_Driver/Inc/stm32f4xx_ll_bus.h ****   *         @arg @ref LL_AHB1_GRP1_PERIPH_GPIOF (*)
 744:Drivers/STM32F4xx_HAL_Driver/Inc/stm32f4xx_ll_bus.h ****   *         @arg @ref LL_AHB1_GRP1_PERIPH_GPIOG (*)
 745:Drivers/STM32F4xx_HAL_Driver/Inc/stm32f4xx_ll_bus.h ****   *         @arg @ref LL_AHB1_GRP1_PERIPH_GPIOH (*)
 746:Drivers/STM32F4xx_HAL_Driver/Inc/stm32f4xx_ll_bus.h ****   *         @arg @ref LL_AHB1_GRP1_PERIPH_GPIOI (*)
 747:Drivers/STM32F4xx_HAL_Driver/Inc/stm32f4xx_ll_bus.h ****   *         @arg @ref LL_AHB1_GRP1_PERIPH_GPIOJ (*)
 748:Drivers/STM32F4xx_HAL_Driver/Inc/stm32f4xx_ll_bus.h ****   *         @arg @ref LL_AHB1_GRP1_PERIPH_GPIOK (*)
ARM GAS  F:\msys64\tmp\cclfnzNs.s 			page 17


 749:Drivers/STM32F4xx_HAL_Driver/Inc/stm32f4xx_ll_bus.h ****   *         @arg @ref LL_AHB1_GRP1_PERIPH_CRC
 750:Drivers/STM32F4xx_HAL_Driver/Inc/stm32f4xx_ll_bus.h ****   *         @arg @ref LL_AHB1_GRP1_PERIPH_BKPSRAM (*)
 751:Drivers/STM32F4xx_HAL_Driver/Inc/stm32f4xx_ll_bus.h ****   *         @arg @ref LL_AHB1_GRP1_PERIPH_FLITF
 752:Drivers/STM32F4xx_HAL_Driver/Inc/stm32f4xx_ll_bus.h ****   *         @arg @ref LL_AHB1_GRP1_PERIPH_SRAM1
 753:Drivers/STM32F4xx_HAL_Driver/Inc/stm32f4xx_ll_bus.h ****   *         @arg @ref LL_AHB1_GRP1_PERIPH_SRAM2 (*)
 754:Drivers/STM32F4xx_HAL_Driver/Inc/stm32f4xx_ll_bus.h ****   *         @arg @ref LL_AHB1_GRP1_PERIPH_SRAM3 (*)
 755:Drivers/STM32F4xx_HAL_Driver/Inc/stm32f4xx_ll_bus.h ****   *         @arg @ref LL_AHB1_GRP1_PERIPH_DMA1
 756:Drivers/STM32F4xx_HAL_Driver/Inc/stm32f4xx_ll_bus.h ****   *         @arg @ref LL_AHB1_GRP1_PERIPH_DMA2
 757:Drivers/STM32F4xx_HAL_Driver/Inc/stm32f4xx_ll_bus.h ****   *         @arg @ref LL_AHB1_GRP1_PERIPH_RNG (*)
 758:Drivers/STM32F4xx_HAL_Driver/Inc/stm32f4xx_ll_bus.h ****   *         @arg @ref LL_AHB1_GRP1_PERIPH_DMA2D (*)
 759:Drivers/STM32F4xx_HAL_Driver/Inc/stm32f4xx_ll_bus.h ****   *         @arg @ref LL_AHB1_GRP1_PERIPH_ETHMAC (*)
 760:Drivers/STM32F4xx_HAL_Driver/Inc/stm32f4xx_ll_bus.h ****   *         @arg @ref LL_AHB1_GRP1_PERIPH_ETHMACTX (*)
 761:Drivers/STM32F4xx_HAL_Driver/Inc/stm32f4xx_ll_bus.h ****   *         @arg @ref LL_AHB1_GRP1_PERIPH_ETHMACRX (*)
 762:Drivers/STM32F4xx_HAL_Driver/Inc/stm32f4xx_ll_bus.h ****   *         @arg @ref LL_AHB1_GRP1_PERIPH_ETHMACPTP (*)
 763:Drivers/STM32F4xx_HAL_Driver/Inc/stm32f4xx_ll_bus.h ****   *         @arg @ref LL_AHB1_GRP1_PERIPH_OTGHS (*)
 764:Drivers/STM32F4xx_HAL_Driver/Inc/stm32f4xx_ll_bus.h ****   *         @arg @ref LL_AHB1_GRP1_PERIPH_OTGHSULPI (*)
 765:Drivers/STM32F4xx_HAL_Driver/Inc/stm32f4xx_ll_bus.h ****   *
 766:Drivers/STM32F4xx_HAL_Driver/Inc/stm32f4xx_ll_bus.h ****   *         (*) value not defined in all devices.
 767:Drivers/STM32F4xx_HAL_Driver/Inc/stm32f4xx_ll_bus.h ****   * @retval None
 768:Drivers/STM32F4xx_HAL_Driver/Inc/stm32f4xx_ll_bus.h **** */
 769:Drivers/STM32F4xx_HAL_Driver/Inc/stm32f4xx_ll_bus.h **** __STATIC_INLINE void LL_AHB1_GRP1_DisableClockLowPower(uint32_t Periphs)
 770:Drivers/STM32F4xx_HAL_Driver/Inc/stm32f4xx_ll_bus.h **** {
 771:Drivers/STM32F4xx_HAL_Driver/Inc/stm32f4xx_ll_bus.h ****   CLEAR_BIT(RCC->AHB1LPENR, Periphs);
 772:Drivers/STM32F4xx_HAL_Driver/Inc/stm32f4xx_ll_bus.h **** }
 773:Drivers/STM32F4xx_HAL_Driver/Inc/stm32f4xx_ll_bus.h **** 
 774:Drivers/STM32F4xx_HAL_Driver/Inc/stm32f4xx_ll_bus.h **** /**
 775:Drivers/STM32F4xx_HAL_Driver/Inc/stm32f4xx_ll_bus.h ****   * @}
 776:Drivers/STM32F4xx_HAL_Driver/Inc/stm32f4xx_ll_bus.h ****   */
 777:Drivers/STM32F4xx_HAL_Driver/Inc/stm32f4xx_ll_bus.h **** 
 778:Drivers/STM32F4xx_HAL_Driver/Inc/stm32f4xx_ll_bus.h **** #if defined(RCC_AHB2_SUPPORT)
 779:Drivers/STM32F4xx_HAL_Driver/Inc/stm32f4xx_ll_bus.h **** /** @defgroup BUS_LL_EF_AHB2 AHB2
 780:Drivers/STM32F4xx_HAL_Driver/Inc/stm32f4xx_ll_bus.h ****   * @{
 781:Drivers/STM32F4xx_HAL_Driver/Inc/stm32f4xx_ll_bus.h ****   */
 782:Drivers/STM32F4xx_HAL_Driver/Inc/stm32f4xx_ll_bus.h **** 
 783:Drivers/STM32F4xx_HAL_Driver/Inc/stm32f4xx_ll_bus.h **** /**
 784:Drivers/STM32F4xx_HAL_Driver/Inc/stm32f4xx_ll_bus.h ****   * @brief  Enable AHB2 peripherals clock.
 785:Drivers/STM32F4xx_HAL_Driver/Inc/stm32f4xx_ll_bus.h ****   * @rmtoll AHB2ENR      DCMIEN       LL_AHB2_GRP1_EnableClock\n
 786:Drivers/STM32F4xx_HAL_Driver/Inc/stm32f4xx_ll_bus.h ****   *         AHB2ENR      CRYPEN       LL_AHB2_GRP1_EnableClock\n
 787:Drivers/STM32F4xx_HAL_Driver/Inc/stm32f4xx_ll_bus.h ****   *         AHB2ENR      AESEN        LL_AHB2_GRP1_EnableClock\n
 788:Drivers/STM32F4xx_HAL_Driver/Inc/stm32f4xx_ll_bus.h ****   *         AHB2ENR      HASHEN       LL_AHB2_GRP1_EnableClock\n
 789:Drivers/STM32F4xx_HAL_Driver/Inc/stm32f4xx_ll_bus.h ****   *         AHB2ENR      RNGEN        LL_AHB2_GRP1_EnableClock\n
 790:Drivers/STM32F4xx_HAL_Driver/Inc/stm32f4xx_ll_bus.h ****   *         AHB2ENR      OTGFSEN      LL_AHB2_GRP1_EnableClock
 791:Drivers/STM32F4xx_HAL_Driver/Inc/stm32f4xx_ll_bus.h ****   * @param  Periphs This parameter can be a combination of the following values:
 792:Drivers/STM32F4xx_HAL_Driver/Inc/stm32f4xx_ll_bus.h ****   *         @arg @ref LL_AHB2_GRP1_PERIPH_DCMI (*)
 793:Drivers/STM32F4xx_HAL_Driver/Inc/stm32f4xx_ll_bus.h ****   *         @arg @ref LL_AHB2_GRP1_PERIPH_CRYP (*)
 794:Drivers/STM32F4xx_HAL_Driver/Inc/stm32f4xx_ll_bus.h ****   *         @arg @ref LL_AHB2_GRP1_PERIPH_AES  (*)
 795:Drivers/STM32F4xx_HAL_Driver/Inc/stm32f4xx_ll_bus.h ****   *         @arg @ref LL_AHB2_GRP1_PERIPH_HASH (*)
 796:Drivers/STM32F4xx_HAL_Driver/Inc/stm32f4xx_ll_bus.h ****   *         @arg @ref LL_AHB2_GRP1_PERIPH_RNG (*)
 797:Drivers/STM32F4xx_HAL_Driver/Inc/stm32f4xx_ll_bus.h ****   *         @arg @ref LL_AHB2_GRP1_PERIPH_OTGFS (*)
 798:Drivers/STM32F4xx_HAL_Driver/Inc/stm32f4xx_ll_bus.h ****   *
 799:Drivers/STM32F4xx_HAL_Driver/Inc/stm32f4xx_ll_bus.h ****   *         (*) value not defined in all devices.
 800:Drivers/STM32F4xx_HAL_Driver/Inc/stm32f4xx_ll_bus.h ****   * @retval None
 801:Drivers/STM32F4xx_HAL_Driver/Inc/stm32f4xx_ll_bus.h **** */
 802:Drivers/STM32F4xx_HAL_Driver/Inc/stm32f4xx_ll_bus.h **** __STATIC_INLINE void LL_AHB2_GRP1_EnableClock(uint32_t Periphs)
 803:Drivers/STM32F4xx_HAL_Driver/Inc/stm32f4xx_ll_bus.h **** {
 804:Drivers/STM32F4xx_HAL_Driver/Inc/stm32f4xx_ll_bus.h ****   __IO uint32_t tmpreg;
 805:Drivers/STM32F4xx_HAL_Driver/Inc/stm32f4xx_ll_bus.h ****   SET_BIT(RCC->AHB2ENR, Periphs);
ARM GAS  F:\msys64\tmp\cclfnzNs.s 			page 18


 806:Drivers/STM32F4xx_HAL_Driver/Inc/stm32f4xx_ll_bus.h ****   /* Delay after an RCC peripheral clock enabling */
 807:Drivers/STM32F4xx_HAL_Driver/Inc/stm32f4xx_ll_bus.h ****   tmpreg = READ_BIT(RCC->AHB2ENR, Periphs);
 808:Drivers/STM32F4xx_HAL_Driver/Inc/stm32f4xx_ll_bus.h ****   (void)tmpreg;
 809:Drivers/STM32F4xx_HAL_Driver/Inc/stm32f4xx_ll_bus.h **** }
 810:Drivers/STM32F4xx_HAL_Driver/Inc/stm32f4xx_ll_bus.h **** 
 811:Drivers/STM32F4xx_HAL_Driver/Inc/stm32f4xx_ll_bus.h **** /**
 812:Drivers/STM32F4xx_HAL_Driver/Inc/stm32f4xx_ll_bus.h ****   * @brief  Check if AHB2 peripheral clock is enabled or not
 813:Drivers/STM32F4xx_HAL_Driver/Inc/stm32f4xx_ll_bus.h ****   * @rmtoll AHB2ENR      DCMIEN       LL_AHB2_GRP1_IsEnabledClock\n
 814:Drivers/STM32F4xx_HAL_Driver/Inc/stm32f4xx_ll_bus.h ****   *         AHB2ENR      CRYPEN       LL_AHB2_GRP1_IsEnabledClock\n
 815:Drivers/STM32F4xx_HAL_Driver/Inc/stm32f4xx_ll_bus.h ****   *         AHB2ENR      AESEN        LL_AHB2_GRP1_IsEnabledClock\n
 816:Drivers/STM32F4xx_HAL_Driver/Inc/stm32f4xx_ll_bus.h ****   *         AHB2ENR      HASHEN       LL_AHB2_GRP1_IsEnabledClock\n
 817:Drivers/STM32F4xx_HAL_Driver/Inc/stm32f4xx_ll_bus.h ****   *         AHB2ENR      RNGEN        LL_AHB2_GRP1_IsEnabledClock\n
 818:Drivers/STM32F4xx_HAL_Driver/Inc/stm32f4xx_ll_bus.h ****   *         AHB2ENR      OTGFSEN      LL_AHB2_GRP1_IsEnabledClock
 819:Drivers/STM32F4xx_HAL_Driver/Inc/stm32f4xx_ll_bus.h ****   * @param  Periphs This parameter can be a combination of the following values:
 820:Drivers/STM32F4xx_HAL_Driver/Inc/stm32f4xx_ll_bus.h ****   *         @arg @ref LL_AHB2_GRP1_PERIPH_DCMI (*)
 821:Drivers/STM32F4xx_HAL_Driver/Inc/stm32f4xx_ll_bus.h ****   *         @arg @ref LL_AHB2_GRP1_PERIPH_CRYP (*)
 822:Drivers/STM32F4xx_HAL_Driver/Inc/stm32f4xx_ll_bus.h ****   *         @arg @ref LL_AHB2_GRP1_PERIPH_AES  (*)
 823:Drivers/STM32F4xx_HAL_Driver/Inc/stm32f4xx_ll_bus.h ****   *         @arg @ref LL_AHB2_GRP1_PERIPH_HASH (*)
 824:Drivers/STM32F4xx_HAL_Driver/Inc/stm32f4xx_ll_bus.h ****   *         @arg @ref LL_AHB2_GRP1_PERIPH_RNG (*)
 825:Drivers/STM32F4xx_HAL_Driver/Inc/stm32f4xx_ll_bus.h ****   *         @arg @ref LL_AHB2_GRP1_PERIPH_OTGFS (*)
 826:Drivers/STM32F4xx_HAL_Driver/Inc/stm32f4xx_ll_bus.h ****   *
 827:Drivers/STM32F4xx_HAL_Driver/Inc/stm32f4xx_ll_bus.h ****   *         (*) value not defined in all devices.
 828:Drivers/STM32F4xx_HAL_Driver/Inc/stm32f4xx_ll_bus.h ****   * @retval State of Periphs (1 or 0).
 829:Drivers/STM32F4xx_HAL_Driver/Inc/stm32f4xx_ll_bus.h **** */
 830:Drivers/STM32F4xx_HAL_Driver/Inc/stm32f4xx_ll_bus.h **** __STATIC_INLINE uint32_t LL_AHB2_GRP1_IsEnabledClock(uint32_t Periphs)
 831:Drivers/STM32F4xx_HAL_Driver/Inc/stm32f4xx_ll_bus.h **** {
 832:Drivers/STM32F4xx_HAL_Driver/Inc/stm32f4xx_ll_bus.h ****   return (READ_BIT(RCC->AHB2ENR, Periphs) == Periphs);
 833:Drivers/STM32F4xx_HAL_Driver/Inc/stm32f4xx_ll_bus.h **** }
 834:Drivers/STM32F4xx_HAL_Driver/Inc/stm32f4xx_ll_bus.h **** 
 835:Drivers/STM32F4xx_HAL_Driver/Inc/stm32f4xx_ll_bus.h **** /**
 836:Drivers/STM32F4xx_HAL_Driver/Inc/stm32f4xx_ll_bus.h ****   * @brief  Disable AHB2 peripherals clock.
 837:Drivers/STM32F4xx_HAL_Driver/Inc/stm32f4xx_ll_bus.h ****   * @rmtoll AHB2ENR      DCMIEN       LL_AHB2_GRP1_DisableClock\n
 838:Drivers/STM32F4xx_HAL_Driver/Inc/stm32f4xx_ll_bus.h ****   *         AHB2ENR      CRYPEN       LL_AHB2_GRP1_DisableClock\n
 839:Drivers/STM32F4xx_HAL_Driver/Inc/stm32f4xx_ll_bus.h ****   *         AHB2ENR      AESEN        LL_AHB2_GRP1_DisableClock\n
 840:Drivers/STM32F4xx_HAL_Driver/Inc/stm32f4xx_ll_bus.h ****   *         AHB2ENR      HASHEN       LL_AHB2_GRP1_DisableClock\n
 841:Drivers/STM32F4xx_HAL_Driver/Inc/stm32f4xx_ll_bus.h ****   *         AHB2ENR      RNGEN        LL_AHB2_GRP1_DisableClock\n
 842:Drivers/STM32F4xx_HAL_Driver/Inc/stm32f4xx_ll_bus.h ****   *         AHB2ENR      OTGFSEN      LL_AHB2_GRP1_DisableClock
 843:Drivers/STM32F4xx_HAL_Driver/Inc/stm32f4xx_ll_bus.h ****   * @param  Periphs This parameter can be a combination of the following values:
 844:Drivers/STM32F4xx_HAL_Driver/Inc/stm32f4xx_ll_bus.h ****   *         @arg @ref LL_AHB2_GRP1_PERIPH_DCMI (*)
 845:Drivers/STM32F4xx_HAL_Driver/Inc/stm32f4xx_ll_bus.h ****   *         @arg @ref LL_AHB2_GRP1_PERIPH_CRYP (*)
 846:Drivers/STM32F4xx_HAL_Driver/Inc/stm32f4xx_ll_bus.h ****   *         @arg @ref LL_AHB2_GRP1_PERIPH_AES  (*)
 847:Drivers/STM32F4xx_HAL_Driver/Inc/stm32f4xx_ll_bus.h ****   *         @arg @ref LL_AHB2_GRP1_PERIPH_HASH (*)
 848:Drivers/STM32F4xx_HAL_Driver/Inc/stm32f4xx_ll_bus.h ****   *         @arg @ref LL_AHB2_GRP1_PERIPH_RNG (*)
 849:Drivers/STM32F4xx_HAL_Driver/Inc/stm32f4xx_ll_bus.h ****   *         @arg @ref LL_AHB2_GRP1_PERIPH_OTGFS (*)
 850:Drivers/STM32F4xx_HAL_Driver/Inc/stm32f4xx_ll_bus.h ****   *
 851:Drivers/STM32F4xx_HAL_Driver/Inc/stm32f4xx_ll_bus.h ****   *         (*) value not defined in all devices.
 852:Drivers/STM32F4xx_HAL_Driver/Inc/stm32f4xx_ll_bus.h ****   * @retval None
 853:Drivers/STM32F4xx_HAL_Driver/Inc/stm32f4xx_ll_bus.h **** */
 854:Drivers/STM32F4xx_HAL_Driver/Inc/stm32f4xx_ll_bus.h **** __STATIC_INLINE void LL_AHB2_GRP1_DisableClock(uint32_t Periphs)
 855:Drivers/STM32F4xx_HAL_Driver/Inc/stm32f4xx_ll_bus.h **** {
 856:Drivers/STM32F4xx_HAL_Driver/Inc/stm32f4xx_ll_bus.h ****   CLEAR_BIT(RCC->AHB2ENR, Periphs);
 857:Drivers/STM32F4xx_HAL_Driver/Inc/stm32f4xx_ll_bus.h **** }
 858:Drivers/STM32F4xx_HAL_Driver/Inc/stm32f4xx_ll_bus.h **** 
 859:Drivers/STM32F4xx_HAL_Driver/Inc/stm32f4xx_ll_bus.h **** /**
 860:Drivers/STM32F4xx_HAL_Driver/Inc/stm32f4xx_ll_bus.h ****   * @brief  Force AHB2 peripherals reset.
 861:Drivers/STM32F4xx_HAL_Driver/Inc/stm32f4xx_ll_bus.h ****   * @rmtoll AHB2RSTR     DCMIRST      LL_AHB2_GRP1_ForceReset\n
 862:Drivers/STM32F4xx_HAL_Driver/Inc/stm32f4xx_ll_bus.h ****   *         AHB2RSTR     CRYPRST      LL_AHB2_GRP1_ForceReset\n
ARM GAS  F:\msys64\tmp\cclfnzNs.s 			page 19


 863:Drivers/STM32F4xx_HAL_Driver/Inc/stm32f4xx_ll_bus.h ****   *         AHB2RSTR     AESRST       LL_AHB2_GRP1_ForceReset\n
 864:Drivers/STM32F4xx_HAL_Driver/Inc/stm32f4xx_ll_bus.h ****   *         AHB2RSTR     HASHRST      LL_AHB2_GRP1_ForceReset\n
 865:Drivers/STM32F4xx_HAL_Driver/Inc/stm32f4xx_ll_bus.h ****   *         AHB2RSTR     RNGRST       LL_AHB2_GRP1_ForceReset\n
 866:Drivers/STM32F4xx_HAL_Driver/Inc/stm32f4xx_ll_bus.h ****   *         AHB2RSTR     OTGFSRST     LL_AHB2_GRP1_ForceReset
 867:Drivers/STM32F4xx_HAL_Driver/Inc/stm32f4xx_ll_bus.h ****   * @param  Periphs This parameter can be a combination of the following values:
 868:Drivers/STM32F4xx_HAL_Driver/Inc/stm32f4xx_ll_bus.h ****   *         @arg @ref LL_AHB2_GRP1_PERIPH_ALL
 869:Drivers/STM32F4xx_HAL_Driver/Inc/stm32f4xx_ll_bus.h ****   *         @arg @ref LL_AHB2_GRP1_PERIPH_DCMI (*)
 870:Drivers/STM32F4xx_HAL_Driver/Inc/stm32f4xx_ll_bus.h ****   *         @arg @ref LL_AHB2_GRP1_PERIPH_CRYP (*)
 871:Drivers/STM32F4xx_HAL_Driver/Inc/stm32f4xx_ll_bus.h ****   *         @arg @ref LL_AHB2_GRP1_PERIPH_AES  (*)
 872:Drivers/STM32F4xx_HAL_Driver/Inc/stm32f4xx_ll_bus.h ****   *         @arg @ref LL_AHB2_GRP1_PERIPH_HASH (*)
 873:Drivers/STM32F4xx_HAL_Driver/Inc/stm32f4xx_ll_bus.h ****   *         @arg @ref LL_AHB2_GRP1_PERIPH_RNG (*)
 874:Drivers/STM32F4xx_HAL_Driver/Inc/stm32f4xx_ll_bus.h ****   *         @arg @ref LL_AHB2_GRP1_PERIPH_OTGFS (*)
 875:Drivers/STM32F4xx_HAL_Driver/Inc/stm32f4xx_ll_bus.h ****   *
 876:Drivers/STM32F4xx_HAL_Driver/Inc/stm32f4xx_ll_bus.h ****   *         (*) value not defined in all devices.
 877:Drivers/STM32F4xx_HAL_Driver/Inc/stm32f4xx_ll_bus.h ****   * @retval None
 878:Drivers/STM32F4xx_HAL_Driver/Inc/stm32f4xx_ll_bus.h **** */
 879:Drivers/STM32F4xx_HAL_Driver/Inc/stm32f4xx_ll_bus.h **** __STATIC_INLINE void LL_AHB2_GRP1_ForceReset(uint32_t Periphs)
 880:Drivers/STM32F4xx_HAL_Driver/Inc/stm32f4xx_ll_bus.h **** {
 881:Drivers/STM32F4xx_HAL_Driver/Inc/stm32f4xx_ll_bus.h ****   SET_BIT(RCC->AHB2RSTR, Periphs);
 882:Drivers/STM32F4xx_HAL_Driver/Inc/stm32f4xx_ll_bus.h **** }
 883:Drivers/STM32F4xx_HAL_Driver/Inc/stm32f4xx_ll_bus.h **** 
 884:Drivers/STM32F4xx_HAL_Driver/Inc/stm32f4xx_ll_bus.h **** /**
 885:Drivers/STM32F4xx_HAL_Driver/Inc/stm32f4xx_ll_bus.h ****   * @brief  Release AHB2 peripherals reset.
 886:Drivers/STM32F4xx_HAL_Driver/Inc/stm32f4xx_ll_bus.h ****   * @rmtoll AHB2RSTR     DCMIRST      LL_AHB2_GRP1_ReleaseReset\n
 887:Drivers/STM32F4xx_HAL_Driver/Inc/stm32f4xx_ll_bus.h ****   *         AHB2RSTR     CRYPRST      LL_AHB2_GRP1_ReleaseReset\n
 888:Drivers/STM32F4xx_HAL_Driver/Inc/stm32f4xx_ll_bus.h ****   *         AHB2RSTR     AESRST       LL_AHB2_GRP1_ReleaseReset\n
 889:Drivers/STM32F4xx_HAL_Driver/Inc/stm32f4xx_ll_bus.h ****   *         AHB2RSTR     HASHRST      LL_AHB2_GRP1_ReleaseReset\n
 890:Drivers/STM32F4xx_HAL_Driver/Inc/stm32f4xx_ll_bus.h ****   *         AHB2RSTR     RNGRST       LL_AHB2_GRP1_ReleaseReset\n
 891:Drivers/STM32F4xx_HAL_Driver/Inc/stm32f4xx_ll_bus.h ****   *         AHB2RSTR     OTGFSRST     LL_AHB2_GRP1_ReleaseReset
 892:Drivers/STM32F4xx_HAL_Driver/Inc/stm32f4xx_ll_bus.h ****   * @param  Periphs This parameter can be a combination of the following values:
 893:Drivers/STM32F4xx_HAL_Driver/Inc/stm32f4xx_ll_bus.h ****   *         @arg @ref LL_AHB2_GRP1_PERIPH_ALL
 894:Drivers/STM32F4xx_HAL_Driver/Inc/stm32f4xx_ll_bus.h ****   *         @arg @ref LL_AHB2_GRP1_PERIPH_DCMI (*)
 895:Drivers/STM32F4xx_HAL_Driver/Inc/stm32f4xx_ll_bus.h ****   *         @arg @ref LL_AHB2_GRP1_PERIPH_CRYP (*)
 896:Drivers/STM32F4xx_HAL_Driver/Inc/stm32f4xx_ll_bus.h ****   *         @arg @ref LL_AHB2_GRP1_PERIPH_AES  (*)
 897:Drivers/STM32F4xx_HAL_Driver/Inc/stm32f4xx_ll_bus.h ****   *         @arg @ref LL_AHB2_GRP1_PERIPH_HASH (*)
 898:Drivers/STM32F4xx_HAL_Driver/Inc/stm32f4xx_ll_bus.h ****   *         @arg @ref LL_AHB2_GRP1_PERIPH_RNG (*)
 899:Drivers/STM32F4xx_HAL_Driver/Inc/stm32f4xx_ll_bus.h ****   *         @arg @ref LL_AHB2_GRP1_PERIPH_OTGFS (*)
 900:Drivers/STM32F4xx_HAL_Driver/Inc/stm32f4xx_ll_bus.h ****   *
 901:Drivers/STM32F4xx_HAL_Driver/Inc/stm32f4xx_ll_bus.h ****   *         (*) value not defined in all devices.
 902:Drivers/STM32F4xx_HAL_Driver/Inc/stm32f4xx_ll_bus.h ****   * @retval None
 903:Drivers/STM32F4xx_HAL_Driver/Inc/stm32f4xx_ll_bus.h **** */
 904:Drivers/STM32F4xx_HAL_Driver/Inc/stm32f4xx_ll_bus.h **** __STATIC_INLINE void LL_AHB2_GRP1_ReleaseReset(uint32_t Periphs)
 905:Drivers/STM32F4xx_HAL_Driver/Inc/stm32f4xx_ll_bus.h **** {
 906:Drivers/STM32F4xx_HAL_Driver/Inc/stm32f4xx_ll_bus.h ****   CLEAR_BIT(RCC->AHB2RSTR, Periphs);
 907:Drivers/STM32F4xx_HAL_Driver/Inc/stm32f4xx_ll_bus.h **** }
 908:Drivers/STM32F4xx_HAL_Driver/Inc/stm32f4xx_ll_bus.h **** 
 909:Drivers/STM32F4xx_HAL_Driver/Inc/stm32f4xx_ll_bus.h **** /**
 910:Drivers/STM32F4xx_HAL_Driver/Inc/stm32f4xx_ll_bus.h ****   * @brief  Enable AHB2 peripheral clocks in low-power mode
 911:Drivers/STM32F4xx_HAL_Driver/Inc/stm32f4xx_ll_bus.h ****   * @rmtoll AHB2LPENR    DCMILPEN     LL_AHB2_GRP1_EnableClockLowPower\n
 912:Drivers/STM32F4xx_HAL_Driver/Inc/stm32f4xx_ll_bus.h ****   *         AHB2LPENR    CRYPLPEN     LL_AHB2_GRP1_EnableClockLowPower\n
 913:Drivers/STM32F4xx_HAL_Driver/Inc/stm32f4xx_ll_bus.h ****   *         AHB2LPENR    AESLPEN      LL_AHB2_GRP1_EnableClockLowPower\n
 914:Drivers/STM32F4xx_HAL_Driver/Inc/stm32f4xx_ll_bus.h ****   *         AHB2LPENR    HASHLPEN     LL_AHB2_GRP1_EnableClockLowPower\n
 915:Drivers/STM32F4xx_HAL_Driver/Inc/stm32f4xx_ll_bus.h ****   *         AHB2LPENR    RNGLPEN      LL_AHB2_GRP1_EnableClockLowPower\n
 916:Drivers/STM32F4xx_HAL_Driver/Inc/stm32f4xx_ll_bus.h ****   *         AHB2LPENR    OTGFSLPEN    LL_AHB2_GRP1_EnableClockLowPower
 917:Drivers/STM32F4xx_HAL_Driver/Inc/stm32f4xx_ll_bus.h ****   * @param  Periphs This parameter can be a combination of the following values:
 918:Drivers/STM32F4xx_HAL_Driver/Inc/stm32f4xx_ll_bus.h ****   *         @arg @ref LL_AHB2_GRP1_PERIPH_DCMI (*)
 919:Drivers/STM32F4xx_HAL_Driver/Inc/stm32f4xx_ll_bus.h ****   *         @arg @ref LL_AHB2_GRP1_PERIPH_CRYP (*)
ARM GAS  F:\msys64\tmp\cclfnzNs.s 			page 20


 920:Drivers/STM32F4xx_HAL_Driver/Inc/stm32f4xx_ll_bus.h ****   *         @arg @ref LL_AHB2_GRP1_PERIPH_AES  (*)
 921:Drivers/STM32F4xx_HAL_Driver/Inc/stm32f4xx_ll_bus.h ****   *         @arg @ref LL_AHB2_GRP1_PERIPH_HASH (*)
 922:Drivers/STM32F4xx_HAL_Driver/Inc/stm32f4xx_ll_bus.h ****   *         @arg @ref LL_AHB2_GRP1_PERIPH_RNG (*)
 923:Drivers/STM32F4xx_HAL_Driver/Inc/stm32f4xx_ll_bus.h ****   *         @arg @ref LL_AHB2_GRP1_PERIPH_OTGFS (*)
 924:Drivers/STM32F4xx_HAL_Driver/Inc/stm32f4xx_ll_bus.h ****   *
 925:Drivers/STM32F4xx_HAL_Driver/Inc/stm32f4xx_ll_bus.h ****   *         (*) value not defined in all devices.
 926:Drivers/STM32F4xx_HAL_Driver/Inc/stm32f4xx_ll_bus.h ****   * @retval None
 927:Drivers/STM32F4xx_HAL_Driver/Inc/stm32f4xx_ll_bus.h **** */
 928:Drivers/STM32F4xx_HAL_Driver/Inc/stm32f4xx_ll_bus.h **** __STATIC_INLINE void LL_AHB2_GRP1_EnableClockLowPower(uint32_t Periphs)
 929:Drivers/STM32F4xx_HAL_Driver/Inc/stm32f4xx_ll_bus.h **** {
 930:Drivers/STM32F4xx_HAL_Driver/Inc/stm32f4xx_ll_bus.h ****   __IO uint32_t tmpreg;
 931:Drivers/STM32F4xx_HAL_Driver/Inc/stm32f4xx_ll_bus.h ****   SET_BIT(RCC->AHB2LPENR, Periphs);
 932:Drivers/STM32F4xx_HAL_Driver/Inc/stm32f4xx_ll_bus.h ****   /* Delay after an RCC peripheral clock enabling */
 933:Drivers/STM32F4xx_HAL_Driver/Inc/stm32f4xx_ll_bus.h ****   tmpreg = READ_BIT(RCC->AHB2LPENR, Periphs);
 934:Drivers/STM32F4xx_HAL_Driver/Inc/stm32f4xx_ll_bus.h ****   (void)tmpreg;
 935:Drivers/STM32F4xx_HAL_Driver/Inc/stm32f4xx_ll_bus.h **** }
 936:Drivers/STM32F4xx_HAL_Driver/Inc/stm32f4xx_ll_bus.h **** 
 937:Drivers/STM32F4xx_HAL_Driver/Inc/stm32f4xx_ll_bus.h **** /**
 938:Drivers/STM32F4xx_HAL_Driver/Inc/stm32f4xx_ll_bus.h ****   * @brief  Disable AHB2 peripheral clocks in low-power mode
 939:Drivers/STM32F4xx_HAL_Driver/Inc/stm32f4xx_ll_bus.h ****   * @rmtoll AHB2LPENR    DCMILPEN     LL_AHB2_GRP1_DisableClockLowPower\n
 940:Drivers/STM32F4xx_HAL_Driver/Inc/stm32f4xx_ll_bus.h ****   *         AHB2LPENR    CRYPLPEN     LL_AHB2_GRP1_DisableClockLowPower\n
 941:Drivers/STM32F4xx_HAL_Driver/Inc/stm32f4xx_ll_bus.h ****   *         AHB2LPENR    AESLPEN      LL_AHB2_GRP1_DisableClockLowPower\n
 942:Drivers/STM32F4xx_HAL_Driver/Inc/stm32f4xx_ll_bus.h ****   *         AHB2LPENR    HASHLPEN     LL_AHB2_GRP1_DisableClockLowPower\n
 943:Drivers/STM32F4xx_HAL_Driver/Inc/stm32f4xx_ll_bus.h ****   *         AHB2LPENR    RNGLPEN      LL_AHB2_GRP1_DisableClockLowPower\n
 944:Drivers/STM32F4xx_HAL_Driver/Inc/stm32f4xx_ll_bus.h ****   *         AHB2LPENR    OTGFSLPEN    LL_AHB2_GRP1_DisableClockLowPower
 945:Drivers/STM32F4xx_HAL_Driver/Inc/stm32f4xx_ll_bus.h ****   * @param  Periphs This parameter can be a combination of the following values:
 946:Drivers/STM32F4xx_HAL_Driver/Inc/stm32f4xx_ll_bus.h ****   *         @arg @ref LL_AHB2_GRP1_PERIPH_DCMI (*)
 947:Drivers/STM32F4xx_HAL_Driver/Inc/stm32f4xx_ll_bus.h ****   *         @arg @ref LL_AHB2_GRP1_PERIPH_CRYP (*)
 948:Drivers/STM32F4xx_HAL_Driver/Inc/stm32f4xx_ll_bus.h ****   *         @arg @ref LL_AHB2_GRP1_PERIPH_AES  (*)
 949:Drivers/STM32F4xx_HAL_Driver/Inc/stm32f4xx_ll_bus.h ****   *         @arg @ref LL_AHB2_GRP1_PERIPH_HASH (*)
 950:Drivers/STM32F4xx_HAL_Driver/Inc/stm32f4xx_ll_bus.h ****   *         @arg @ref LL_AHB2_GRP1_PERIPH_RNG (*)
 951:Drivers/STM32F4xx_HAL_Driver/Inc/stm32f4xx_ll_bus.h ****   *         @arg @ref LL_AHB2_GRP1_PERIPH_OTGFS (*)
 952:Drivers/STM32F4xx_HAL_Driver/Inc/stm32f4xx_ll_bus.h ****   *
 953:Drivers/STM32F4xx_HAL_Driver/Inc/stm32f4xx_ll_bus.h ****   *         (*) value not defined in all devices.
 954:Drivers/STM32F4xx_HAL_Driver/Inc/stm32f4xx_ll_bus.h ****   * @retval None
 955:Drivers/STM32F4xx_HAL_Driver/Inc/stm32f4xx_ll_bus.h **** */
 956:Drivers/STM32F4xx_HAL_Driver/Inc/stm32f4xx_ll_bus.h **** __STATIC_INLINE void LL_AHB2_GRP1_DisableClockLowPower(uint32_t Periphs)
 957:Drivers/STM32F4xx_HAL_Driver/Inc/stm32f4xx_ll_bus.h **** {
 958:Drivers/STM32F4xx_HAL_Driver/Inc/stm32f4xx_ll_bus.h ****   CLEAR_BIT(RCC->AHB2LPENR, Periphs);
 959:Drivers/STM32F4xx_HAL_Driver/Inc/stm32f4xx_ll_bus.h **** }
 960:Drivers/STM32F4xx_HAL_Driver/Inc/stm32f4xx_ll_bus.h **** 
 961:Drivers/STM32F4xx_HAL_Driver/Inc/stm32f4xx_ll_bus.h **** /**
 962:Drivers/STM32F4xx_HAL_Driver/Inc/stm32f4xx_ll_bus.h ****   * @}
 963:Drivers/STM32F4xx_HAL_Driver/Inc/stm32f4xx_ll_bus.h ****   */
 964:Drivers/STM32F4xx_HAL_Driver/Inc/stm32f4xx_ll_bus.h **** #endif /* RCC_AHB2_SUPPORT */
 965:Drivers/STM32F4xx_HAL_Driver/Inc/stm32f4xx_ll_bus.h **** 
 966:Drivers/STM32F4xx_HAL_Driver/Inc/stm32f4xx_ll_bus.h **** #if defined(RCC_AHB3_SUPPORT)
 967:Drivers/STM32F4xx_HAL_Driver/Inc/stm32f4xx_ll_bus.h **** /** @defgroup BUS_LL_EF_AHB3 AHB3
 968:Drivers/STM32F4xx_HAL_Driver/Inc/stm32f4xx_ll_bus.h ****   * @{
 969:Drivers/STM32F4xx_HAL_Driver/Inc/stm32f4xx_ll_bus.h ****   */
 970:Drivers/STM32F4xx_HAL_Driver/Inc/stm32f4xx_ll_bus.h **** 
 971:Drivers/STM32F4xx_HAL_Driver/Inc/stm32f4xx_ll_bus.h **** /**
 972:Drivers/STM32F4xx_HAL_Driver/Inc/stm32f4xx_ll_bus.h ****   * @brief  Enable AHB3 peripherals clock.
 973:Drivers/STM32F4xx_HAL_Driver/Inc/stm32f4xx_ll_bus.h ****   * @rmtoll AHB3ENR      FMCEN         LL_AHB3_GRP1_EnableClock\n
 974:Drivers/STM32F4xx_HAL_Driver/Inc/stm32f4xx_ll_bus.h ****   *         AHB3ENR      FSMCEN        LL_AHB3_GRP1_EnableClock\n
 975:Drivers/STM32F4xx_HAL_Driver/Inc/stm32f4xx_ll_bus.h ****   *         AHB3ENR      QSPIEN        LL_AHB3_GRP1_EnableClock
 976:Drivers/STM32F4xx_HAL_Driver/Inc/stm32f4xx_ll_bus.h ****   * @param  Periphs This parameter can be a combination of the following values:
ARM GAS  F:\msys64\tmp\cclfnzNs.s 			page 21


 977:Drivers/STM32F4xx_HAL_Driver/Inc/stm32f4xx_ll_bus.h ****   *         @arg @ref LL_AHB3_GRP1_PERIPH_FMC (*)
 978:Drivers/STM32F4xx_HAL_Driver/Inc/stm32f4xx_ll_bus.h ****   *         @arg @ref LL_AHB3_GRP1_PERIPH_FSMC (*)
 979:Drivers/STM32F4xx_HAL_Driver/Inc/stm32f4xx_ll_bus.h ****   *         @arg @ref LL_AHB3_GRP1_PERIPH_QSPI (*)
 980:Drivers/STM32F4xx_HAL_Driver/Inc/stm32f4xx_ll_bus.h ****   *
 981:Drivers/STM32F4xx_HAL_Driver/Inc/stm32f4xx_ll_bus.h ****   *         (*) value not defined in all devices.
 982:Drivers/STM32F4xx_HAL_Driver/Inc/stm32f4xx_ll_bus.h ****   * @retval None
 983:Drivers/STM32F4xx_HAL_Driver/Inc/stm32f4xx_ll_bus.h **** */
 984:Drivers/STM32F4xx_HAL_Driver/Inc/stm32f4xx_ll_bus.h **** __STATIC_INLINE void LL_AHB3_GRP1_EnableClock(uint32_t Periphs)
 985:Drivers/STM32F4xx_HAL_Driver/Inc/stm32f4xx_ll_bus.h **** {
 986:Drivers/STM32F4xx_HAL_Driver/Inc/stm32f4xx_ll_bus.h ****   __IO uint32_t tmpreg;
 987:Drivers/STM32F4xx_HAL_Driver/Inc/stm32f4xx_ll_bus.h ****   SET_BIT(RCC->AHB3ENR, Periphs);
 988:Drivers/STM32F4xx_HAL_Driver/Inc/stm32f4xx_ll_bus.h ****   /* Delay after an RCC peripheral clock enabling */
 989:Drivers/STM32F4xx_HAL_Driver/Inc/stm32f4xx_ll_bus.h ****   tmpreg = READ_BIT(RCC->AHB3ENR, Periphs);
 990:Drivers/STM32F4xx_HAL_Driver/Inc/stm32f4xx_ll_bus.h ****   (void)tmpreg;
 991:Drivers/STM32F4xx_HAL_Driver/Inc/stm32f4xx_ll_bus.h **** }
 992:Drivers/STM32F4xx_HAL_Driver/Inc/stm32f4xx_ll_bus.h **** 
 993:Drivers/STM32F4xx_HAL_Driver/Inc/stm32f4xx_ll_bus.h **** /**
 994:Drivers/STM32F4xx_HAL_Driver/Inc/stm32f4xx_ll_bus.h ****   * @brief  Check if AHB3 peripheral clock is enabled or not
 995:Drivers/STM32F4xx_HAL_Driver/Inc/stm32f4xx_ll_bus.h ****   * @rmtoll AHB3ENR      FMCEN         LL_AHB3_GRP1_IsEnabledClock\n
 996:Drivers/STM32F4xx_HAL_Driver/Inc/stm32f4xx_ll_bus.h ****   *         AHB3ENR      FSMCEN        LL_AHB3_GRP1_IsEnabledClock\n
 997:Drivers/STM32F4xx_HAL_Driver/Inc/stm32f4xx_ll_bus.h ****   *         AHB3ENR      QSPIEN        LL_AHB3_GRP1_IsEnabledClock
 998:Drivers/STM32F4xx_HAL_Driver/Inc/stm32f4xx_ll_bus.h ****   * @param  Periphs This parameter can be a combination of the following values:
 999:Drivers/STM32F4xx_HAL_Driver/Inc/stm32f4xx_ll_bus.h ****   *         @arg @ref LL_AHB3_GRP1_PERIPH_FMC (*)
1000:Drivers/STM32F4xx_HAL_Driver/Inc/stm32f4xx_ll_bus.h ****   *         @arg @ref LL_AHB3_GRP1_PERIPH_FSMC (*)
1001:Drivers/STM32F4xx_HAL_Driver/Inc/stm32f4xx_ll_bus.h ****   *         @arg @ref LL_AHB3_GRP1_PERIPH_QSPI (*)
1002:Drivers/STM32F4xx_HAL_Driver/Inc/stm32f4xx_ll_bus.h ****   *
1003:Drivers/STM32F4xx_HAL_Driver/Inc/stm32f4xx_ll_bus.h ****   *         (*) value not defined in all devices.
1004:Drivers/STM32F4xx_HAL_Driver/Inc/stm32f4xx_ll_bus.h ****   * @retval State of Periphs (1 or 0).
1005:Drivers/STM32F4xx_HAL_Driver/Inc/stm32f4xx_ll_bus.h **** */
1006:Drivers/STM32F4xx_HAL_Driver/Inc/stm32f4xx_ll_bus.h **** __STATIC_INLINE uint32_t LL_AHB3_GRP1_IsEnabledClock(uint32_t Periphs)
1007:Drivers/STM32F4xx_HAL_Driver/Inc/stm32f4xx_ll_bus.h **** {
1008:Drivers/STM32F4xx_HAL_Driver/Inc/stm32f4xx_ll_bus.h ****   return (READ_BIT(RCC->AHB3ENR, Periphs) == Periphs);
1009:Drivers/STM32F4xx_HAL_Driver/Inc/stm32f4xx_ll_bus.h **** }
1010:Drivers/STM32F4xx_HAL_Driver/Inc/stm32f4xx_ll_bus.h **** 
1011:Drivers/STM32F4xx_HAL_Driver/Inc/stm32f4xx_ll_bus.h **** /**
1012:Drivers/STM32F4xx_HAL_Driver/Inc/stm32f4xx_ll_bus.h ****   * @brief  Disable AHB3 peripherals clock.
1013:Drivers/STM32F4xx_HAL_Driver/Inc/stm32f4xx_ll_bus.h ****   * @rmtoll AHB3ENR      FMCEN         LL_AHB3_GRP1_DisableClock\n
1014:Drivers/STM32F4xx_HAL_Driver/Inc/stm32f4xx_ll_bus.h ****   *         AHB3ENR      FSMCEN        LL_AHB3_GRP1_DisableClock\n
1015:Drivers/STM32F4xx_HAL_Driver/Inc/stm32f4xx_ll_bus.h ****   *         AHB3ENR      QSPIEN        LL_AHB3_GRP1_DisableClock
1016:Drivers/STM32F4xx_HAL_Driver/Inc/stm32f4xx_ll_bus.h ****   * @param  Periphs This parameter can be a combination of the following values:
1017:Drivers/STM32F4xx_HAL_Driver/Inc/stm32f4xx_ll_bus.h ****   *         @arg @ref LL_AHB3_GRP1_PERIPH_FMC (*)
1018:Drivers/STM32F4xx_HAL_Driver/Inc/stm32f4xx_ll_bus.h ****   *         @arg @ref LL_AHB3_GRP1_PERIPH_FSMC (*)
1019:Drivers/STM32F4xx_HAL_Driver/Inc/stm32f4xx_ll_bus.h ****   *         @arg @ref LL_AHB3_GRP1_PERIPH_QSPI (*)
1020:Drivers/STM32F4xx_HAL_Driver/Inc/stm32f4xx_ll_bus.h ****   *
1021:Drivers/STM32F4xx_HAL_Driver/Inc/stm32f4xx_ll_bus.h ****   *         (*) value not defined in all devices.
1022:Drivers/STM32F4xx_HAL_Driver/Inc/stm32f4xx_ll_bus.h ****   * @retval None
1023:Drivers/STM32F4xx_HAL_Driver/Inc/stm32f4xx_ll_bus.h **** */
1024:Drivers/STM32F4xx_HAL_Driver/Inc/stm32f4xx_ll_bus.h **** __STATIC_INLINE void LL_AHB3_GRP1_DisableClock(uint32_t Periphs)
1025:Drivers/STM32F4xx_HAL_Driver/Inc/stm32f4xx_ll_bus.h **** {
1026:Drivers/STM32F4xx_HAL_Driver/Inc/stm32f4xx_ll_bus.h ****   CLEAR_BIT(RCC->AHB3ENR, Periphs);
1027:Drivers/STM32F4xx_HAL_Driver/Inc/stm32f4xx_ll_bus.h **** }
1028:Drivers/STM32F4xx_HAL_Driver/Inc/stm32f4xx_ll_bus.h **** 
1029:Drivers/STM32F4xx_HAL_Driver/Inc/stm32f4xx_ll_bus.h **** /**
1030:Drivers/STM32F4xx_HAL_Driver/Inc/stm32f4xx_ll_bus.h ****   * @brief  Force AHB3 peripherals reset.
1031:Drivers/STM32F4xx_HAL_Driver/Inc/stm32f4xx_ll_bus.h ****   * @rmtoll AHB3RSTR     FMCRST        LL_AHB3_GRP1_ForceReset\n
1032:Drivers/STM32F4xx_HAL_Driver/Inc/stm32f4xx_ll_bus.h ****   *         AHB3RSTR     FSMCRST       LL_AHB3_GRP1_ForceReset\n
1033:Drivers/STM32F4xx_HAL_Driver/Inc/stm32f4xx_ll_bus.h ****   *         AHB3RSTR     QSPIRST       LL_AHB3_GRP1_ForceReset
ARM GAS  F:\msys64\tmp\cclfnzNs.s 			page 22


1034:Drivers/STM32F4xx_HAL_Driver/Inc/stm32f4xx_ll_bus.h ****   * @param  Periphs This parameter can be a combination of the following values:
1035:Drivers/STM32F4xx_HAL_Driver/Inc/stm32f4xx_ll_bus.h ****   *         @arg @ref LL_AHB3_GRP1_PERIPH_ALL
1036:Drivers/STM32F4xx_HAL_Driver/Inc/stm32f4xx_ll_bus.h ****   *         @arg @ref LL_AHB3_GRP1_PERIPH_FMC (*)
1037:Drivers/STM32F4xx_HAL_Driver/Inc/stm32f4xx_ll_bus.h ****   *         @arg @ref LL_AHB3_GRP1_PERIPH_FSMC (*)
1038:Drivers/STM32F4xx_HAL_Driver/Inc/stm32f4xx_ll_bus.h ****   *         @arg @ref LL_AHB3_GRP1_PERIPH_QSPI (*)
1039:Drivers/STM32F4xx_HAL_Driver/Inc/stm32f4xx_ll_bus.h ****   *
1040:Drivers/STM32F4xx_HAL_Driver/Inc/stm32f4xx_ll_bus.h ****   *         (*) value not defined in all devices.
1041:Drivers/STM32F4xx_HAL_Driver/Inc/stm32f4xx_ll_bus.h ****   * @retval None
1042:Drivers/STM32F4xx_HAL_Driver/Inc/stm32f4xx_ll_bus.h **** */
1043:Drivers/STM32F4xx_HAL_Driver/Inc/stm32f4xx_ll_bus.h **** __STATIC_INLINE void LL_AHB3_GRP1_ForceReset(uint32_t Periphs)
1044:Drivers/STM32F4xx_HAL_Driver/Inc/stm32f4xx_ll_bus.h **** {
1045:Drivers/STM32F4xx_HAL_Driver/Inc/stm32f4xx_ll_bus.h ****   SET_BIT(RCC->AHB3RSTR, Periphs);
1046:Drivers/STM32F4xx_HAL_Driver/Inc/stm32f4xx_ll_bus.h **** }
1047:Drivers/STM32F4xx_HAL_Driver/Inc/stm32f4xx_ll_bus.h **** 
1048:Drivers/STM32F4xx_HAL_Driver/Inc/stm32f4xx_ll_bus.h **** /**
1049:Drivers/STM32F4xx_HAL_Driver/Inc/stm32f4xx_ll_bus.h ****   * @brief  Release AHB3 peripherals reset.
1050:Drivers/STM32F4xx_HAL_Driver/Inc/stm32f4xx_ll_bus.h ****   * @rmtoll AHB3RSTR     FMCRST        LL_AHB3_GRP1_ReleaseReset\n
1051:Drivers/STM32F4xx_HAL_Driver/Inc/stm32f4xx_ll_bus.h ****   *         AHB3RSTR     FSMCRST       LL_AHB3_GRP1_ReleaseReset\n
1052:Drivers/STM32F4xx_HAL_Driver/Inc/stm32f4xx_ll_bus.h ****   *         AHB3RSTR     QSPIRST       LL_AHB3_GRP1_ReleaseReset
1053:Drivers/STM32F4xx_HAL_Driver/Inc/stm32f4xx_ll_bus.h ****   * @param  Periphs This parameter can be a combination of the following values:
1054:Drivers/STM32F4xx_HAL_Driver/Inc/stm32f4xx_ll_bus.h ****   *         @arg @ref LL_AHB2_GRP1_PERIPH_ALL
1055:Drivers/STM32F4xx_HAL_Driver/Inc/stm32f4xx_ll_bus.h ****   *         @arg @ref LL_AHB3_GRP1_PERIPH_FMC (*)
1056:Drivers/STM32F4xx_HAL_Driver/Inc/stm32f4xx_ll_bus.h ****   *         @arg @ref LL_AHB3_GRP1_PERIPH_FSMC (*)
1057:Drivers/STM32F4xx_HAL_Driver/Inc/stm32f4xx_ll_bus.h ****   *         @arg @ref LL_AHB3_GRP1_PERIPH_QSPI (*)
1058:Drivers/STM32F4xx_HAL_Driver/Inc/stm32f4xx_ll_bus.h ****   *
1059:Drivers/STM32F4xx_HAL_Driver/Inc/stm32f4xx_ll_bus.h ****   *         (*) value not defined in all devices.
1060:Drivers/STM32F4xx_HAL_Driver/Inc/stm32f4xx_ll_bus.h ****   * @retval None
1061:Drivers/STM32F4xx_HAL_Driver/Inc/stm32f4xx_ll_bus.h **** */
1062:Drivers/STM32F4xx_HAL_Driver/Inc/stm32f4xx_ll_bus.h **** __STATIC_INLINE void LL_AHB3_GRP1_ReleaseReset(uint32_t Periphs)
1063:Drivers/STM32F4xx_HAL_Driver/Inc/stm32f4xx_ll_bus.h **** {
1064:Drivers/STM32F4xx_HAL_Driver/Inc/stm32f4xx_ll_bus.h ****   CLEAR_BIT(RCC->AHB3RSTR, Periphs);
1065:Drivers/STM32F4xx_HAL_Driver/Inc/stm32f4xx_ll_bus.h **** }
1066:Drivers/STM32F4xx_HAL_Driver/Inc/stm32f4xx_ll_bus.h **** 
1067:Drivers/STM32F4xx_HAL_Driver/Inc/stm32f4xx_ll_bus.h **** /**
1068:Drivers/STM32F4xx_HAL_Driver/Inc/stm32f4xx_ll_bus.h ****   * @brief  Enable AHB3 peripheral clocks in low-power mode
1069:Drivers/STM32F4xx_HAL_Driver/Inc/stm32f4xx_ll_bus.h ****   * @rmtoll AHB3LPENR    FMCLPEN       LL_AHB3_GRP1_EnableClockLowPower\n
1070:Drivers/STM32F4xx_HAL_Driver/Inc/stm32f4xx_ll_bus.h ****   *         AHB3LPENR    FSMCLPEN      LL_AHB3_GRP1_EnableClockLowPower\n
1071:Drivers/STM32F4xx_HAL_Driver/Inc/stm32f4xx_ll_bus.h ****   *         AHB3LPENR    QSPILPEN      LL_AHB3_GRP1_EnableClockLowPower
1072:Drivers/STM32F4xx_HAL_Driver/Inc/stm32f4xx_ll_bus.h ****   * @param  Periphs This parameter can be a combination of the following values:
1073:Drivers/STM32F4xx_HAL_Driver/Inc/stm32f4xx_ll_bus.h ****   *         @arg @ref LL_AHB3_GRP1_PERIPH_FMC (*)
1074:Drivers/STM32F4xx_HAL_Driver/Inc/stm32f4xx_ll_bus.h ****   *         @arg @ref LL_AHB3_GRP1_PERIPH_FSMC (*)
1075:Drivers/STM32F4xx_HAL_Driver/Inc/stm32f4xx_ll_bus.h ****   *         @arg @ref LL_AHB3_GRP1_PERIPH_QSPI (*)
1076:Drivers/STM32F4xx_HAL_Driver/Inc/stm32f4xx_ll_bus.h ****   *
1077:Drivers/STM32F4xx_HAL_Driver/Inc/stm32f4xx_ll_bus.h ****   *         (*) value not defined in all devices.
1078:Drivers/STM32F4xx_HAL_Driver/Inc/stm32f4xx_ll_bus.h ****   * @retval None
1079:Drivers/STM32F4xx_HAL_Driver/Inc/stm32f4xx_ll_bus.h **** */
1080:Drivers/STM32F4xx_HAL_Driver/Inc/stm32f4xx_ll_bus.h **** __STATIC_INLINE void LL_AHB3_GRP1_EnableClockLowPower(uint32_t Periphs)
1081:Drivers/STM32F4xx_HAL_Driver/Inc/stm32f4xx_ll_bus.h **** {
1082:Drivers/STM32F4xx_HAL_Driver/Inc/stm32f4xx_ll_bus.h ****   __IO uint32_t tmpreg;
1083:Drivers/STM32F4xx_HAL_Driver/Inc/stm32f4xx_ll_bus.h ****   SET_BIT(RCC->AHB3LPENR, Periphs);
1084:Drivers/STM32F4xx_HAL_Driver/Inc/stm32f4xx_ll_bus.h ****   /* Delay after an RCC peripheral clock enabling */
1085:Drivers/STM32F4xx_HAL_Driver/Inc/stm32f4xx_ll_bus.h ****   tmpreg = READ_BIT(RCC->AHB3LPENR, Periphs);
1086:Drivers/STM32F4xx_HAL_Driver/Inc/stm32f4xx_ll_bus.h ****   (void)tmpreg;
1087:Drivers/STM32F4xx_HAL_Driver/Inc/stm32f4xx_ll_bus.h **** }
1088:Drivers/STM32F4xx_HAL_Driver/Inc/stm32f4xx_ll_bus.h **** 
1089:Drivers/STM32F4xx_HAL_Driver/Inc/stm32f4xx_ll_bus.h **** /**
1090:Drivers/STM32F4xx_HAL_Driver/Inc/stm32f4xx_ll_bus.h ****   * @brief  Disable AHB3 peripheral clocks in low-power mode
ARM GAS  F:\msys64\tmp\cclfnzNs.s 			page 23


1091:Drivers/STM32F4xx_HAL_Driver/Inc/stm32f4xx_ll_bus.h ****   * @rmtoll AHB3LPENR    FMCLPEN       LL_AHB3_GRP1_DisableClockLowPower\n
1092:Drivers/STM32F4xx_HAL_Driver/Inc/stm32f4xx_ll_bus.h ****   *         AHB3LPENR    FSMCLPEN      LL_AHB3_GRP1_DisableClockLowPower\n
1093:Drivers/STM32F4xx_HAL_Driver/Inc/stm32f4xx_ll_bus.h ****   *         AHB3LPENR    QSPILPEN      LL_AHB3_GRP1_DisableClockLowPower
1094:Drivers/STM32F4xx_HAL_Driver/Inc/stm32f4xx_ll_bus.h ****   * @param  Periphs This parameter can be a combination of the following values:
1095:Drivers/STM32F4xx_HAL_Driver/Inc/stm32f4xx_ll_bus.h ****   *         @arg @ref LL_AHB3_GRP1_PERIPH_FMC (*)
1096:Drivers/STM32F4xx_HAL_Driver/Inc/stm32f4xx_ll_bus.h ****   *         @arg @ref LL_AHB3_GRP1_PERIPH_FSMC (*)
1097:Drivers/STM32F4xx_HAL_Driver/Inc/stm32f4xx_ll_bus.h ****   *         @arg @ref LL_AHB3_GRP1_PERIPH_QSPI (*)
1098:Drivers/STM32F4xx_HAL_Driver/Inc/stm32f4xx_ll_bus.h ****   *
1099:Drivers/STM32F4xx_HAL_Driver/Inc/stm32f4xx_ll_bus.h ****   *         (*) value not defined in all devices.
1100:Drivers/STM32F4xx_HAL_Driver/Inc/stm32f4xx_ll_bus.h ****   * @retval None
1101:Drivers/STM32F4xx_HAL_Driver/Inc/stm32f4xx_ll_bus.h **** */
1102:Drivers/STM32F4xx_HAL_Driver/Inc/stm32f4xx_ll_bus.h **** __STATIC_INLINE void LL_AHB3_GRP1_DisableClockLowPower(uint32_t Periphs)
1103:Drivers/STM32F4xx_HAL_Driver/Inc/stm32f4xx_ll_bus.h **** {
1104:Drivers/STM32F4xx_HAL_Driver/Inc/stm32f4xx_ll_bus.h ****   CLEAR_BIT(RCC->AHB3LPENR, Periphs);
1105:Drivers/STM32F4xx_HAL_Driver/Inc/stm32f4xx_ll_bus.h **** }
1106:Drivers/STM32F4xx_HAL_Driver/Inc/stm32f4xx_ll_bus.h **** 
1107:Drivers/STM32F4xx_HAL_Driver/Inc/stm32f4xx_ll_bus.h **** /**
1108:Drivers/STM32F4xx_HAL_Driver/Inc/stm32f4xx_ll_bus.h ****   * @}
1109:Drivers/STM32F4xx_HAL_Driver/Inc/stm32f4xx_ll_bus.h ****   */
1110:Drivers/STM32F4xx_HAL_Driver/Inc/stm32f4xx_ll_bus.h **** #endif /* RCC_AHB3_SUPPORT */
1111:Drivers/STM32F4xx_HAL_Driver/Inc/stm32f4xx_ll_bus.h **** 
1112:Drivers/STM32F4xx_HAL_Driver/Inc/stm32f4xx_ll_bus.h **** /** @defgroup BUS_LL_EF_APB1 APB1
1113:Drivers/STM32F4xx_HAL_Driver/Inc/stm32f4xx_ll_bus.h ****   * @{
1114:Drivers/STM32F4xx_HAL_Driver/Inc/stm32f4xx_ll_bus.h ****   */
1115:Drivers/STM32F4xx_HAL_Driver/Inc/stm32f4xx_ll_bus.h **** 
1116:Drivers/STM32F4xx_HAL_Driver/Inc/stm32f4xx_ll_bus.h **** /**
1117:Drivers/STM32F4xx_HAL_Driver/Inc/stm32f4xx_ll_bus.h ****   * @brief  Enable APB1 peripherals clock.
1118:Drivers/STM32F4xx_HAL_Driver/Inc/stm32f4xx_ll_bus.h ****   * @rmtoll APB1ENR     TIM2EN        LL_APB1_GRP1_EnableClock\n
1119:Drivers/STM32F4xx_HAL_Driver/Inc/stm32f4xx_ll_bus.h ****   *         APB1ENR     TIM3EN        LL_APB1_GRP1_EnableClock\n
1120:Drivers/STM32F4xx_HAL_Driver/Inc/stm32f4xx_ll_bus.h ****   *         APB1ENR     TIM4EN        LL_APB1_GRP1_EnableClock\n
1121:Drivers/STM32F4xx_HAL_Driver/Inc/stm32f4xx_ll_bus.h ****   *         APB1ENR     TIM5EN        LL_APB1_GRP1_EnableClock\n
1122:Drivers/STM32F4xx_HAL_Driver/Inc/stm32f4xx_ll_bus.h ****   *         APB1ENR     TIM6EN        LL_APB1_GRP1_EnableClock\n
1123:Drivers/STM32F4xx_HAL_Driver/Inc/stm32f4xx_ll_bus.h ****   *         APB1ENR     TIM7EN        LL_APB1_GRP1_EnableClock\n
1124:Drivers/STM32F4xx_HAL_Driver/Inc/stm32f4xx_ll_bus.h ****   *         APB1ENR     TIM12EN       LL_APB1_GRP1_EnableClock\n
1125:Drivers/STM32F4xx_HAL_Driver/Inc/stm32f4xx_ll_bus.h ****   *         APB1ENR     TIM13EN       LL_APB1_GRP1_EnableClock\n
1126:Drivers/STM32F4xx_HAL_Driver/Inc/stm32f4xx_ll_bus.h ****   *         APB1ENR     TIM14EN       LL_APB1_GRP1_EnableClock\n
1127:Drivers/STM32F4xx_HAL_Driver/Inc/stm32f4xx_ll_bus.h ****   *         APB1ENR     LPTIM1EN      LL_APB1_GRP1_EnableClock\n
1128:Drivers/STM32F4xx_HAL_Driver/Inc/stm32f4xx_ll_bus.h ****   *         APB1ENR     WWDGEN        LL_APB1_GRP1_EnableClock\n
1129:Drivers/STM32F4xx_HAL_Driver/Inc/stm32f4xx_ll_bus.h ****   *         APB1ENR     SPI2EN        LL_APB1_GRP1_EnableClock\n
1130:Drivers/STM32F4xx_HAL_Driver/Inc/stm32f4xx_ll_bus.h ****   *         APB1ENR     SPI3EN        LL_APB1_GRP1_EnableClock\n
1131:Drivers/STM32F4xx_HAL_Driver/Inc/stm32f4xx_ll_bus.h ****   *         APB1ENR     SPDIFRXEN     LL_APB1_GRP1_EnableClock\n
1132:Drivers/STM32F4xx_HAL_Driver/Inc/stm32f4xx_ll_bus.h ****   *         APB1ENR     USART2EN      LL_APB1_GRP1_EnableClock\n
1133:Drivers/STM32F4xx_HAL_Driver/Inc/stm32f4xx_ll_bus.h ****   *         APB1ENR     USART3EN      LL_APB1_GRP1_EnableClock\n
1134:Drivers/STM32F4xx_HAL_Driver/Inc/stm32f4xx_ll_bus.h ****   *         APB1ENR     UART4EN       LL_APB1_GRP1_EnableClock\n
1135:Drivers/STM32F4xx_HAL_Driver/Inc/stm32f4xx_ll_bus.h ****   *         APB1ENR     UART5EN       LL_APB1_GRP1_EnableClock\n
1136:Drivers/STM32F4xx_HAL_Driver/Inc/stm32f4xx_ll_bus.h ****   *         APB1ENR     I2C1EN        LL_APB1_GRP1_EnableClock\n
1137:Drivers/STM32F4xx_HAL_Driver/Inc/stm32f4xx_ll_bus.h ****   *         APB1ENR     I2C2EN        LL_APB1_GRP1_EnableClock\n
1138:Drivers/STM32F4xx_HAL_Driver/Inc/stm32f4xx_ll_bus.h ****   *         APB1ENR     I2C3EN        LL_APB1_GRP1_EnableClock\n
1139:Drivers/STM32F4xx_HAL_Driver/Inc/stm32f4xx_ll_bus.h ****   *         APB1ENR     FMPI2C1EN     LL_APB1_GRP1_EnableClock\n
1140:Drivers/STM32F4xx_HAL_Driver/Inc/stm32f4xx_ll_bus.h ****   *         APB1ENR     CAN1EN        LL_APB1_GRP1_EnableClock\n
1141:Drivers/STM32F4xx_HAL_Driver/Inc/stm32f4xx_ll_bus.h ****   *         APB1ENR     CAN2EN        LL_APB1_GRP1_EnableClock\n
1142:Drivers/STM32F4xx_HAL_Driver/Inc/stm32f4xx_ll_bus.h ****   *         APB1ENR     CAN3EN        LL_APB1_GRP1_EnableClock\n
1143:Drivers/STM32F4xx_HAL_Driver/Inc/stm32f4xx_ll_bus.h ****   *         APB1ENR     CECEN         LL_APB1_GRP1_EnableClock\n
1144:Drivers/STM32F4xx_HAL_Driver/Inc/stm32f4xx_ll_bus.h ****   *         APB1ENR     PWREN         LL_APB1_GRP1_EnableClock\n
1145:Drivers/STM32F4xx_HAL_Driver/Inc/stm32f4xx_ll_bus.h ****   *         APB1ENR     DACEN         LL_APB1_GRP1_EnableClock\n
1146:Drivers/STM32F4xx_HAL_Driver/Inc/stm32f4xx_ll_bus.h ****   *         APB1ENR     UART7EN       LL_APB1_GRP1_EnableClock\n
1147:Drivers/STM32F4xx_HAL_Driver/Inc/stm32f4xx_ll_bus.h ****   *         APB1ENR     UART8EN       LL_APB1_GRP1_EnableClock\n
ARM GAS  F:\msys64\tmp\cclfnzNs.s 			page 24


1148:Drivers/STM32F4xx_HAL_Driver/Inc/stm32f4xx_ll_bus.h ****   *         APB1ENR     RTCAPBEN      LL_APB1_GRP1_EnableClock
1149:Drivers/STM32F4xx_HAL_Driver/Inc/stm32f4xx_ll_bus.h ****   * @param  Periphs This parameter can be a combination of the following values:
1150:Drivers/STM32F4xx_HAL_Driver/Inc/stm32f4xx_ll_bus.h ****   *         @arg @ref LL_APB1_GRP1_PERIPH_TIM2 (*)
1151:Drivers/STM32F4xx_HAL_Driver/Inc/stm32f4xx_ll_bus.h ****   *         @arg @ref LL_APB1_GRP1_PERIPH_TIM3 (*)
1152:Drivers/STM32F4xx_HAL_Driver/Inc/stm32f4xx_ll_bus.h ****   *         @arg @ref LL_APB1_GRP1_PERIPH_TIM4 (*)
1153:Drivers/STM32F4xx_HAL_Driver/Inc/stm32f4xx_ll_bus.h ****   *         @arg @ref LL_APB1_GRP1_PERIPH_TIM5
1154:Drivers/STM32F4xx_HAL_Driver/Inc/stm32f4xx_ll_bus.h ****   *         @arg @ref LL_APB1_GRP1_PERIPH_TIM6 (*)
1155:Drivers/STM32F4xx_HAL_Driver/Inc/stm32f4xx_ll_bus.h ****   *         @arg @ref LL_APB1_GRP1_PERIPH_TIM7 (*)
1156:Drivers/STM32F4xx_HAL_Driver/Inc/stm32f4xx_ll_bus.h ****   *         @arg @ref LL_APB1_GRP1_PERIPH_TIM12 (*)
1157:Drivers/STM32F4xx_HAL_Driver/Inc/stm32f4xx_ll_bus.h ****   *         @arg @ref LL_APB1_GRP1_PERIPH_TIM13 (*)
1158:Drivers/STM32F4xx_HAL_Driver/Inc/stm32f4xx_ll_bus.h ****   *         @arg @ref LL_APB1_GRP1_PERIPH_TIM14 (*)
1159:Drivers/STM32F4xx_HAL_Driver/Inc/stm32f4xx_ll_bus.h ****   *         @arg @ref LL_APB1_GRP1_PERIPH_LPTIM1 (*)
1160:Drivers/STM32F4xx_HAL_Driver/Inc/stm32f4xx_ll_bus.h ****   *         @arg @ref LL_APB1_GRP1_PERIPH_WWDG
1161:Drivers/STM32F4xx_HAL_Driver/Inc/stm32f4xx_ll_bus.h ****   *         @arg @ref LL_APB1_GRP1_PERIPH_SPI2 (*)
1162:Drivers/STM32F4xx_HAL_Driver/Inc/stm32f4xx_ll_bus.h ****   *         @arg @ref LL_APB1_GRP1_PERIPH_SPI3 (*)
1163:Drivers/STM32F4xx_HAL_Driver/Inc/stm32f4xx_ll_bus.h ****   *         @arg @ref LL_APB1_GRP1_PERIPH_SPDIFRX (*)
1164:Drivers/STM32F4xx_HAL_Driver/Inc/stm32f4xx_ll_bus.h ****   *         @arg @ref LL_APB1_GRP1_PERIPH_USART2
1165:Drivers/STM32F4xx_HAL_Driver/Inc/stm32f4xx_ll_bus.h ****   *         @arg @ref LL_APB1_GRP1_PERIPH_USART3 (*)
1166:Drivers/STM32F4xx_HAL_Driver/Inc/stm32f4xx_ll_bus.h ****   *         @arg @ref LL_APB1_GRP1_PERIPH_UART4 (*)
1167:Drivers/STM32F4xx_HAL_Driver/Inc/stm32f4xx_ll_bus.h ****   *         @arg @ref LL_APB1_GRP1_PERIPH_UART5 (*)
1168:Drivers/STM32F4xx_HAL_Driver/Inc/stm32f4xx_ll_bus.h ****   *         @arg @ref LL_APB1_GRP1_PERIPH_I2C1
1169:Drivers/STM32F4xx_HAL_Driver/Inc/stm32f4xx_ll_bus.h ****   *         @arg @ref LL_APB1_GRP1_PERIPH_I2C2
1170:Drivers/STM32F4xx_HAL_Driver/Inc/stm32f4xx_ll_bus.h ****   *         @arg @ref LL_APB1_GRP1_PERIPH_I2C3 (*)
1171:Drivers/STM32F4xx_HAL_Driver/Inc/stm32f4xx_ll_bus.h ****   *         @arg @ref LL_APB1_GRP1_PERIPH_FMPI2C1 (*)
1172:Drivers/STM32F4xx_HAL_Driver/Inc/stm32f4xx_ll_bus.h ****   *         @arg @ref LL_APB1_GRP1_PERIPH_CAN1 (*)
1173:Drivers/STM32F4xx_HAL_Driver/Inc/stm32f4xx_ll_bus.h ****   *         @arg @ref LL_APB1_GRP1_PERIPH_CAN2 (*)
1174:Drivers/STM32F4xx_HAL_Driver/Inc/stm32f4xx_ll_bus.h ****   *         @arg @ref LL_APB1_GRP1_PERIPH_CAN3 (*)
1175:Drivers/STM32F4xx_HAL_Driver/Inc/stm32f4xx_ll_bus.h ****   *         @arg @ref LL_APB1_GRP1_PERIPH_CEC  (*)
1176:Drivers/STM32F4xx_HAL_Driver/Inc/stm32f4xx_ll_bus.h ****   *         @arg @ref LL_APB1_GRP1_PERIPH_PWR
1177:Drivers/STM32F4xx_HAL_Driver/Inc/stm32f4xx_ll_bus.h ****   *         @arg @ref LL_APB1_GRP1_PERIPH_DAC1 (*)
1178:Drivers/STM32F4xx_HAL_Driver/Inc/stm32f4xx_ll_bus.h ****   *         @arg @ref LL_APB1_GRP1_PERIPH_UART7 (*)
1179:Drivers/STM32F4xx_HAL_Driver/Inc/stm32f4xx_ll_bus.h ****   *         @arg @ref LL_APB1_GRP1_PERIPH_UART8 (*)
1180:Drivers/STM32F4xx_HAL_Driver/Inc/stm32f4xx_ll_bus.h ****   *         @arg @ref LL_APB1_GRP1_PERIPH_RTCAPB (*)
1181:Drivers/STM32F4xx_HAL_Driver/Inc/stm32f4xx_ll_bus.h ****   *
1182:Drivers/STM32F4xx_HAL_Driver/Inc/stm32f4xx_ll_bus.h ****   *         (*) value not defined in all devices.
1183:Drivers/STM32F4xx_HAL_Driver/Inc/stm32f4xx_ll_bus.h ****   * @retval None
1184:Drivers/STM32F4xx_HAL_Driver/Inc/stm32f4xx_ll_bus.h **** */
1185:Drivers/STM32F4xx_HAL_Driver/Inc/stm32f4xx_ll_bus.h **** __STATIC_INLINE void LL_APB1_GRP1_EnableClock(uint32_t Periphs)
 113              		.loc 2 1185 22 view .LVU27
 114              	.LBB17:
1186:Drivers/STM32F4xx_HAL_Driver/Inc/stm32f4xx_ll_bus.h **** {
1187:Drivers/STM32F4xx_HAL_Driver/Inc/stm32f4xx_ll_bus.h ****   __IO uint32_t tmpreg;
 115              		.loc 2 1187 3 view .LVU28
1188:Drivers/STM32F4xx_HAL_Driver/Inc/stm32f4xx_ll_bus.h ****   SET_BIT(RCC->APB1ENR, Periphs);
 116              		.loc 2 1188 3 view .LVU29
 117 004e 2B6C     		ldr	r3, [r5, #64]
 118 0050 43F40013 		orr	r3, r3, #2097152
 119 0054 2B64     		str	r3, [r5, #64]
1189:Drivers/STM32F4xx_HAL_Driver/Inc/stm32f4xx_ll_bus.h ****   /* Delay after an RCC peripheral clock enabling */
1190:Drivers/STM32F4xx_HAL_Driver/Inc/stm32f4xx_ll_bus.h ****   tmpreg = READ_BIT(RCC->APB1ENR, Periphs);
 120              		.loc 2 1190 3 view .LVU30
 121              		.loc 2 1190 12 is_stmt 0 view .LVU31
 122 0056 2B6C     		ldr	r3, [r5, #64]
 123 0058 03F40013 		and	r3, r3, #2097152
 124              		.loc 2 1190 10 view .LVU32
 125 005c 0093     		str	r3, [sp]
1191:Drivers/STM32F4xx_HAL_Driver/Inc/stm32f4xx_ll_bus.h ****   (void)tmpreg;
ARM GAS  F:\msys64\tmp\cclfnzNs.s 			page 25


 126              		.loc 2 1191 3 is_stmt 1 view .LVU33
 127 005e 009B     		ldr	r3, [sp]
 128              	.LVL3:
 129              		.loc 2 1191 3 is_stmt 0 view .LVU34
 130              	.LBE17:
 131              	.LBE16:
  54:Core/Src/i2c.c **** 
  55:Core/Src/i2c.c ****   /* USER CODE BEGIN I2C1_Init 1 */
  56:Core/Src/i2c.c **** 
  57:Core/Src/i2c.c ****   /* USER CODE END I2C1_Init 1 */
  58:Core/Src/i2c.c **** 
  59:Core/Src/i2c.c ****   /** I2C Initialization
  60:Core/Src/i2c.c ****   */
  61:Core/Src/i2c.c ****   LL_I2C_DisableOwnAddress2(I2C1);
 132              		.loc 1 61 3 is_stmt 1 view .LVU35
 133              	.LBB18:
 134              	.LBI18:
 135              		.file 3 "Drivers/STM32F4xx_HAL_Driver/Inc/stm32f4xx_ll_i2c.h"
   1:Drivers/STM32F4xx_HAL_Driver/Inc/stm32f4xx_ll_i2c.h **** /**
   2:Drivers/STM32F4xx_HAL_Driver/Inc/stm32f4xx_ll_i2c.h ****   ******************************************************************************
   3:Drivers/STM32F4xx_HAL_Driver/Inc/stm32f4xx_ll_i2c.h ****   * @file    stm32f4xx_ll_i2c.h
   4:Drivers/STM32F4xx_HAL_Driver/Inc/stm32f4xx_ll_i2c.h ****   * @author  MCD Application Team
   5:Drivers/STM32F4xx_HAL_Driver/Inc/stm32f4xx_ll_i2c.h ****   * @brief   Header file of I2C LL module.
   6:Drivers/STM32F4xx_HAL_Driver/Inc/stm32f4xx_ll_i2c.h ****   ******************************************************************************
   7:Drivers/STM32F4xx_HAL_Driver/Inc/stm32f4xx_ll_i2c.h ****   * @attention
   8:Drivers/STM32F4xx_HAL_Driver/Inc/stm32f4xx_ll_i2c.h ****   *
   9:Drivers/STM32F4xx_HAL_Driver/Inc/stm32f4xx_ll_i2c.h ****   * Copyright (c) 2016 STMicroelectronics.
  10:Drivers/STM32F4xx_HAL_Driver/Inc/stm32f4xx_ll_i2c.h ****   * All rights reserved.
  11:Drivers/STM32F4xx_HAL_Driver/Inc/stm32f4xx_ll_i2c.h ****   *
  12:Drivers/STM32F4xx_HAL_Driver/Inc/stm32f4xx_ll_i2c.h ****   * This software is licensed under terms that can be found in the LICENSE file
  13:Drivers/STM32F4xx_HAL_Driver/Inc/stm32f4xx_ll_i2c.h ****   * in the root directory of this software component.
  14:Drivers/STM32F4xx_HAL_Driver/Inc/stm32f4xx_ll_i2c.h ****   * If no LICENSE file comes with this software, it is provided AS-IS.
  15:Drivers/STM32F4xx_HAL_Driver/Inc/stm32f4xx_ll_i2c.h ****   *
  16:Drivers/STM32F4xx_HAL_Driver/Inc/stm32f4xx_ll_i2c.h ****   ******************************************************************************
  17:Drivers/STM32F4xx_HAL_Driver/Inc/stm32f4xx_ll_i2c.h ****   */
  18:Drivers/STM32F4xx_HAL_Driver/Inc/stm32f4xx_ll_i2c.h **** 
  19:Drivers/STM32F4xx_HAL_Driver/Inc/stm32f4xx_ll_i2c.h **** /* Define to prevent recursive inclusion -------------------------------------*/
  20:Drivers/STM32F4xx_HAL_Driver/Inc/stm32f4xx_ll_i2c.h **** #ifndef __STM32F4xx_LL_I2C_H
  21:Drivers/STM32F4xx_HAL_Driver/Inc/stm32f4xx_ll_i2c.h **** #define __STM32F4xx_LL_I2C_H
  22:Drivers/STM32F4xx_HAL_Driver/Inc/stm32f4xx_ll_i2c.h **** 
  23:Drivers/STM32F4xx_HAL_Driver/Inc/stm32f4xx_ll_i2c.h **** #ifdef __cplusplus
  24:Drivers/STM32F4xx_HAL_Driver/Inc/stm32f4xx_ll_i2c.h **** extern "C" {
  25:Drivers/STM32F4xx_HAL_Driver/Inc/stm32f4xx_ll_i2c.h **** #endif
  26:Drivers/STM32F4xx_HAL_Driver/Inc/stm32f4xx_ll_i2c.h **** 
  27:Drivers/STM32F4xx_HAL_Driver/Inc/stm32f4xx_ll_i2c.h **** /* Includes ------------------------------------------------------------------*/
  28:Drivers/STM32F4xx_HAL_Driver/Inc/stm32f4xx_ll_i2c.h **** #include "stm32f4xx.h"
  29:Drivers/STM32F4xx_HAL_Driver/Inc/stm32f4xx_ll_i2c.h **** 
  30:Drivers/STM32F4xx_HAL_Driver/Inc/stm32f4xx_ll_i2c.h **** /** @addtogroup STM32F4xx_LL_Driver
  31:Drivers/STM32F4xx_HAL_Driver/Inc/stm32f4xx_ll_i2c.h ****   * @{
  32:Drivers/STM32F4xx_HAL_Driver/Inc/stm32f4xx_ll_i2c.h ****   */
  33:Drivers/STM32F4xx_HAL_Driver/Inc/stm32f4xx_ll_i2c.h **** 
  34:Drivers/STM32F4xx_HAL_Driver/Inc/stm32f4xx_ll_i2c.h **** #if defined (I2C1) || defined (I2C2) || defined (I2C3)
  35:Drivers/STM32F4xx_HAL_Driver/Inc/stm32f4xx_ll_i2c.h **** 
  36:Drivers/STM32F4xx_HAL_Driver/Inc/stm32f4xx_ll_i2c.h **** /** @defgroup I2C_LL I2C
  37:Drivers/STM32F4xx_HAL_Driver/Inc/stm32f4xx_ll_i2c.h ****   * @{
  38:Drivers/STM32F4xx_HAL_Driver/Inc/stm32f4xx_ll_i2c.h ****   */
  39:Drivers/STM32F4xx_HAL_Driver/Inc/stm32f4xx_ll_i2c.h **** 
ARM GAS  F:\msys64\tmp\cclfnzNs.s 			page 26


  40:Drivers/STM32F4xx_HAL_Driver/Inc/stm32f4xx_ll_i2c.h **** /* Private types -------------------------------------------------------------*/
  41:Drivers/STM32F4xx_HAL_Driver/Inc/stm32f4xx_ll_i2c.h **** /* Private variables ---------------------------------------------------------*/
  42:Drivers/STM32F4xx_HAL_Driver/Inc/stm32f4xx_ll_i2c.h **** 
  43:Drivers/STM32F4xx_HAL_Driver/Inc/stm32f4xx_ll_i2c.h **** /* Private constants ---------------------------------------------------------*/
  44:Drivers/STM32F4xx_HAL_Driver/Inc/stm32f4xx_ll_i2c.h **** /** @defgroup I2C_LL_Private_Constants I2C Private Constants
  45:Drivers/STM32F4xx_HAL_Driver/Inc/stm32f4xx_ll_i2c.h ****   * @{
  46:Drivers/STM32F4xx_HAL_Driver/Inc/stm32f4xx_ll_i2c.h ****   */
  47:Drivers/STM32F4xx_HAL_Driver/Inc/stm32f4xx_ll_i2c.h **** 
  48:Drivers/STM32F4xx_HAL_Driver/Inc/stm32f4xx_ll_i2c.h **** /* Defines used to perform compute and check in the macros */
  49:Drivers/STM32F4xx_HAL_Driver/Inc/stm32f4xx_ll_i2c.h **** #define LL_I2C_MAX_SPEED_STANDARD           100000U
  50:Drivers/STM32F4xx_HAL_Driver/Inc/stm32f4xx_ll_i2c.h **** #define LL_I2C_MAX_SPEED_FAST               400000U
  51:Drivers/STM32F4xx_HAL_Driver/Inc/stm32f4xx_ll_i2c.h **** /**
  52:Drivers/STM32F4xx_HAL_Driver/Inc/stm32f4xx_ll_i2c.h ****   * @}
  53:Drivers/STM32F4xx_HAL_Driver/Inc/stm32f4xx_ll_i2c.h ****   */
  54:Drivers/STM32F4xx_HAL_Driver/Inc/stm32f4xx_ll_i2c.h **** 
  55:Drivers/STM32F4xx_HAL_Driver/Inc/stm32f4xx_ll_i2c.h **** /* Private macros ------------------------------------------------------------*/
  56:Drivers/STM32F4xx_HAL_Driver/Inc/stm32f4xx_ll_i2c.h **** #if defined(USE_FULL_LL_DRIVER)
  57:Drivers/STM32F4xx_HAL_Driver/Inc/stm32f4xx_ll_i2c.h **** /** @defgroup I2C_LL_Private_Macros I2C Private Macros
  58:Drivers/STM32F4xx_HAL_Driver/Inc/stm32f4xx_ll_i2c.h ****   * @{
  59:Drivers/STM32F4xx_HAL_Driver/Inc/stm32f4xx_ll_i2c.h ****   */
  60:Drivers/STM32F4xx_HAL_Driver/Inc/stm32f4xx_ll_i2c.h **** /**
  61:Drivers/STM32F4xx_HAL_Driver/Inc/stm32f4xx_ll_i2c.h ****   * @}
  62:Drivers/STM32F4xx_HAL_Driver/Inc/stm32f4xx_ll_i2c.h ****   */
  63:Drivers/STM32F4xx_HAL_Driver/Inc/stm32f4xx_ll_i2c.h **** #endif /*USE_FULL_LL_DRIVER*/
  64:Drivers/STM32F4xx_HAL_Driver/Inc/stm32f4xx_ll_i2c.h **** 
  65:Drivers/STM32F4xx_HAL_Driver/Inc/stm32f4xx_ll_i2c.h **** /* Exported types ------------------------------------------------------------*/
  66:Drivers/STM32F4xx_HAL_Driver/Inc/stm32f4xx_ll_i2c.h **** #if defined(USE_FULL_LL_DRIVER)
  67:Drivers/STM32F4xx_HAL_Driver/Inc/stm32f4xx_ll_i2c.h **** /** @defgroup I2C_LL_ES_INIT I2C Exported Init structure
  68:Drivers/STM32F4xx_HAL_Driver/Inc/stm32f4xx_ll_i2c.h ****   * @{
  69:Drivers/STM32F4xx_HAL_Driver/Inc/stm32f4xx_ll_i2c.h ****   */
  70:Drivers/STM32F4xx_HAL_Driver/Inc/stm32f4xx_ll_i2c.h **** typedef struct
  71:Drivers/STM32F4xx_HAL_Driver/Inc/stm32f4xx_ll_i2c.h **** {
  72:Drivers/STM32F4xx_HAL_Driver/Inc/stm32f4xx_ll_i2c.h ****   uint32_t PeripheralMode;      /*!< Specifies the peripheral mode.
  73:Drivers/STM32F4xx_HAL_Driver/Inc/stm32f4xx_ll_i2c.h ****                                      This parameter can be a value of @ref I2C_LL_EC_PERIPHERAL_MOD
  74:Drivers/STM32F4xx_HAL_Driver/Inc/stm32f4xx_ll_i2c.h **** 
  75:Drivers/STM32F4xx_HAL_Driver/Inc/stm32f4xx_ll_i2c.h ****                                      This feature can be modified afterwards using unitary function
  76:Drivers/STM32F4xx_HAL_Driver/Inc/stm32f4xx_ll_i2c.h **** 
  77:Drivers/STM32F4xx_HAL_Driver/Inc/stm32f4xx_ll_i2c.h ****   uint32_t ClockSpeed;          /*!< Specifies the clock frequency.
  78:Drivers/STM32F4xx_HAL_Driver/Inc/stm32f4xx_ll_i2c.h ****                                      This parameter must be set to a value lower than 400kHz (in Hz
  79:Drivers/STM32F4xx_HAL_Driver/Inc/stm32f4xx_ll_i2c.h **** 
  80:Drivers/STM32F4xx_HAL_Driver/Inc/stm32f4xx_ll_i2c.h ****                                      This feature can be modified afterwards using unitary function
  81:Drivers/STM32F4xx_HAL_Driver/Inc/stm32f4xx_ll_i2c.h ****                                      or @ref LL_I2C_SetDutyCycle() or @ref LL_I2C_SetClockSpeedMode
  82:Drivers/STM32F4xx_HAL_Driver/Inc/stm32f4xx_ll_i2c.h **** 
  83:Drivers/STM32F4xx_HAL_Driver/Inc/stm32f4xx_ll_i2c.h ****   uint32_t DutyCycle;           /*!< Specifies the I2C fast mode duty cycle.
  84:Drivers/STM32F4xx_HAL_Driver/Inc/stm32f4xx_ll_i2c.h ****                                      This parameter can be a value of @ref I2C_LL_EC_DUTYCYCLE
  85:Drivers/STM32F4xx_HAL_Driver/Inc/stm32f4xx_ll_i2c.h **** 
  86:Drivers/STM32F4xx_HAL_Driver/Inc/stm32f4xx_ll_i2c.h ****                                      This feature can be modified afterwards using unitary function
  87:Drivers/STM32F4xx_HAL_Driver/Inc/stm32f4xx_ll_i2c.h **** 
  88:Drivers/STM32F4xx_HAL_Driver/Inc/stm32f4xx_ll_i2c.h **** #if  defined(I2C_FLTR_ANOFF)&&defined(I2C_FLTR_DNF)
  89:Drivers/STM32F4xx_HAL_Driver/Inc/stm32f4xx_ll_i2c.h ****   uint32_t AnalogFilter;        /*!< Enables or disables analog noise filter.
  90:Drivers/STM32F4xx_HAL_Driver/Inc/stm32f4xx_ll_i2c.h ****                                      This parameter can be a value of @ref I2C_LL_EC_ANALOGFILTER_S
  91:Drivers/STM32F4xx_HAL_Driver/Inc/stm32f4xx_ll_i2c.h **** 
  92:Drivers/STM32F4xx_HAL_Driver/Inc/stm32f4xx_ll_i2c.h ****                                      This feature can be modified afterwards using unitary function
  93:Drivers/STM32F4xx_HAL_Driver/Inc/stm32f4xx_ll_i2c.h **** 
  94:Drivers/STM32F4xx_HAL_Driver/Inc/stm32f4xx_ll_i2c.h ****   uint32_t DigitalFilter;       /*!< Configures the digital noise filter.
  95:Drivers/STM32F4xx_HAL_Driver/Inc/stm32f4xx_ll_i2c.h ****                                      This parameter can be a number between Min_Data = 0x00 and Max
  96:Drivers/STM32F4xx_HAL_Driver/Inc/stm32f4xx_ll_i2c.h **** 
ARM GAS  F:\msys64\tmp\cclfnzNs.s 			page 27


  97:Drivers/STM32F4xx_HAL_Driver/Inc/stm32f4xx_ll_i2c.h ****                                      This feature can be modified afterwards using unitary function
  98:Drivers/STM32F4xx_HAL_Driver/Inc/stm32f4xx_ll_i2c.h **** 
  99:Drivers/STM32F4xx_HAL_Driver/Inc/stm32f4xx_ll_i2c.h **** #endif
 100:Drivers/STM32F4xx_HAL_Driver/Inc/stm32f4xx_ll_i2c.h ****   uint32_t OwnAddress1;         /*!< Specifies the device own address 1.
 101:Drivers/STM32F4xx_HAL_Driver/Inc/stm32f4xx_ll_i2c.h ****                                      This parameter must be a value between Min_Data = 0x00 and Max
 102:Drivers/STM32F4xx_HAL_Driver/Inc/stm32f4xx_ll_i2c.h **** 
 103:Drivers/STM32F4xx_HAL_Driver/Inc/stm32f4xx_ll_i2c.h ****                                      This feature can be modified afterwards using unitary function
 104:Drivers/STM32F4xx_HAL_Driver/Inc/stm32f4xx_ll_i2c.h **** 
 105:Drivers/STM32F4xx_HAL_Driver/Inc/stm32f4xx_ll_i2c.h ****   uint32_t TypeAcknowledge;     /*!< Specifies the ACKnowledge or Non ACKnowledge condition after t
 106:Drivers/STM32F4xx_HAL_Driver/Inc/stm32f4xx_ll_i2c.h ****                                      This parameter can be a value of @ref I2C_LL_EC_I2C_ACKNOWLEDG
 107:Drivers/STM32F4xx_HAL_Driver/Inc/stm32f4xx_ll_i2c.h **** 
 108:Drivers/STM32F4xx_HAL_Driver/Inc/stm32f4xx_ll_i2c.h ****                                      This feature can be modified afterwards using unitary function
 109:Drivers/STM32F4xx_HAL_Driver/Inc/stm32f4xx_ll_i2c.h **** 
 110:Drivers/STM32F4xx_HAL_Driver/Inc/stm32f4xx_ll_i2c.h ****   uint32_t OwnAddrSize;         /*!< Specifies the device own address 1 size (7-bit or 10-bit).
 111:Drivers/STM32F4xx_HAL_Driver/Inc/stm32f4xx_ll_i2c.h ****                                      This parameter can be a value of @ref I2C_LL_EC_OWNADDRESS1
 112:Drivers/STM32F4xx_HAL_Driver/Inc/stm32f4xx_ll_i2c.h **** 
 113:Drivers/STM32F4xx_HAL_Driver/Inc/stm32f4xx_ll_i2c.h ****                                      This feature can be modified afterwards using unitary function
 114:Drivers/STM32F4xx_HAL_Driver/Inc/stm32f4xx_ll_i2c.h **** } LL_I2C_InitTypeDef;
 115:Drivers/STM32F4xx_HAL_Driver/Inc/stm32f4xx_ll_i2c.h **** /**
 116:Drivers/STM32F4xx_HAL_Driver/Inc/stm32f4xx_ll_i2c.h ****   * @}
 117:Drivers/STM32F4xx_HAL_Driver/Inc/stm32f4xx_ll_i2c.h ****   */
 118:Drivers/STM32F4xx_HAL_Driver/Inc/stm32f4xx_ll_i2c.h **** #endif /*USE_FULL_LL_DRIVER*/
 119:Drivers/STM32F4xx_HAL_Driver/Inc/stm32f4xx_ll_i2c.h **** 
 120:Drivers/STM32F4xx_HAL_Driver/Inc/stm32f4xx_ll_i2c.h **** /* Exported constants --------------------------------------------------------*/
 121:Drivers/STM32F4xx_HAL_Driver/Inc/stm32f4xx_ll_i2c.h **** /** @defgroup I2C_LL_Exported_Constants I2C Exported Constants
 122:Drivers/STM32F4xx_HAL_Driver/Inc/stm32f4xx_ll_i2c.h ****   * @{
 123:Drivers/STM32F4xx_HAL_Driver/Inc/stm32f4xx_ll_i2c.h ****   */
 124:Drivers/STM32F4xx_HAL_Driver/Inc/stm32f4xx_ll_i2c.h **** 
 125:Drivers/STM32F4xx_HAL_Driver/Inc/stm32f4xx_ll_i2c.h **** /** @defgroup I2C_LL_EC_GET_FLAG Get Flags Defines
 126:Drivers/STM32F4xx_HAL_Driver/Inc/stm32f4xx_ll_i2c.h ****   * @brief    Flags defines which can be used with LL_I2C_ReadReg function
 127:Drivers/STM32F4xx_HAL_Driver/Inc/stm32f4xx_ll_i2c.h ****   * @{
 128:Drivers/STM32F4xx_HAL_Driver/Inc/stm32f4xx_ll_i2c.h ****   */
 129:Drivers/STM32F4xx_HAL_Driver/Inc/stm32f4xx_ll_i2c.h **** #define LL_I2C_SR1_SB                       I2C_SR1_SB              /*!< Start Bit (master mode)   
 130:Drivers/STM32F4xx_HAL_Driver/Inc/stm32f4xx_ll_i2c.h **** #define LL_I2C_SR1_ADDR                     I2C_SR1_ADDR            /*!< Address sent (master mode)
 131:Drivers/STM32F4xx_HAL_Driver/Inc/stm32f4xx_ll_i2c.h ****                                                                          Address matched flag (slav
 132:Drivers/STM32F4xx_HAL_Driver/Inc/stm32f4xx_ll_i2c.h **** #define LL_I2C_SR1_BTF                      I2C_SR1_BTF             /*!< Byte Transfer Finished fla
 133:Drivers/STM32F4xx_HAL_Driver/Inc/stm32f4xx_ll_i2c.h **** #define LL_I2C_SR1_ADD10                    I2C_SR1_ADD10           /*!< 10-bit header sent (master
 134:Drivers/STM32F4xx_HAL_Driver/Inc/stm32f4xx_ll_i2c.h **** #define LL_I2C_SR1_STOPF                    I2C_SR1_STOPF           /*!< Stop detection flag (slave
 135:Drivers/STM32F4xx_HAL_Driver/Inc/stm32f4xx_ll_i2c.h **** #define LL_I2C_SR1_RXNE                     I2C_SR1_RXNE            /*!< Data register not empty (r
 136:Drivers/STM32F4xx_HAL_Driver/Inc/stm32f4xx_ll_i2c.h **** #define LL_I2C_SR1_TXE                      I2C_SR1_TXE             /*!< Data register empty (trans
 137:Drivers/STM32F4xx_HAL_Driver/Inc/stm32f4xx_ll_i2c.h **** #define LL_I2C_SR1_BERR                     I2C_SR1_BERR            /*!< Bus error                 
 138:Drivers/STM32F4xx_HAL_Driver/Inc/stm32f4xx_ll_i2c.h **** #define LL_I2C_SR1_ARLO                     I2C_SR1_ARLO            /*!< Arbitration lost          
 139:Drivers/STM32F4xx_HAL_Driver/Inc/stm32f4xx_ll_i2c.h **** #define LL_I2C_SR1_AF                       I2C_SR1_AF              /*!< Acknowledge failure flag  
 140:Drivers/STM32F4xx_HAL_Driver/Inc/stm32f4xx_ll_i2c.h **** #define LL_I2C_SR1_OVR                      I2C_SR1_OVR             /*!< Overrun/Underrun          
 141:Drivers/STM32F4xx_HAL_Driver/Inc/stm32f4xx_ll_i2c.h **** #define LL_I2C_SR1_PECERR                   I2C_ISR_PECERR          /*!< PEC Error in reception (SM
 142:Drivers/STM32F4xx_HAL_Driver/Inc/stm32f4xx_ll_i2c.h **** #define LL_I2C_SR1_TIMEOUT                  I2C_ISR_TIMEOUT         /*!< Timeout detection flag (SM
 143:Drivers/STM32F4xx_HAL_Driver/Inc/stm32f4xx_ll_i2c.h **** #define LL_I2C_SR1_SMALERT                  I2C_ISR_SMALERT         /*!< SMBus alert (SMBus mode)  
 144:Drivers/STM32F4xx_HAL_Driver/Inc/stm32f4xx_ll_i2c.h **** #define LL_I2C_SR2_MSL                      I2C_SR2_MSL             /*!< Master/Slave flag         
 145:Drivers/STM32F4xx_HAL_Driver/Inc/stm32f4xx_ll_i2c.h **** #define LL_I2C_SR2_BUSY                     I2C_SR2_BUSY            /*!< Bus busy flag             
 146:Drivers/STM32F4xx_HAL_Driver/Inc/stm32f4xx_ll_i2c.h **** #define LL_I2C_SR2_TRA                      I2C_SR2_TRA             /*!< Transmitter/receiver direc
 147:Drivers/STM32F4xx_HAL_Driver/Inc/stm32f4xx_ll_i2c.h **** #define LL_I2C_SR2_GENCALL                  I2C_SR2_GENCALL         /*!< General call address (Slav
 148:Drivers/STM32F4xx_HAL_Driver/Inc/stm32f4xx_ll_i2c.h **** #define LL_I2C_SR2_SMBDEFAULT               I2C_SR2_SMBDEFAULT      /*!< SMBus Device default addre
 149:Drivers/STM32F4xx_HAL_Driver/Inc/stm32f4xx_ll_i2c.h **** #define LL_I2C_SR2_SMBHOST                  I2C_SR2_SMBHOST         /*!< SMBus Host address (Slave 
 150:Drivers/STM32F4xx_HAL_Driver/Inc/stm32f4xx_ll_i2c.h **** #define LL_I2C_SR2_DUALF                    I2C_SR2_DUALF           /*!< Dual flag  (Slave mode)   
 151:Drivers/STM32F4xx_HAL_Driver/Inc/stm32f4xx_ll_i2c.h **** /**
 152:Drivers/STM32F4xx_HAL_Driver/Inc/stm32f4xx_ll_i2c.h ****   * @}
 153:Drivers/STM32F4xx_HAL_Driver/Inc/stm32f4xx_ll_i2c.h ****   */
ARM GAS  F:\msys64\tmp\cclfnzNs.s 			page 28


 154:Drivers/STM32F4xx_HAL_Driver/Inc/stm32f4xx_ll_i2c.h **** 
 155:Drivers/STM32F4xx_HAL_Driver/Inc/stm32f4xx_ll_i2c.h **** /** @defgroup I2C_LL_EC_IT IT Defines
 156:Drivers/STM32F4xx_HAL_Driver/Inc/stm32f4xx_ll_i2c.h ****   * @brief    IT defines which can be used with LL_I2C_ReadReg and  LL_I2C_WriteReg functions
 157:Drivers/STM32F4xx_HAL_Driver/Inc/stm32f4xx_ll_i2c.h ****   * @{
 158:Drivers/STM32F4xx_HAL_Driver/Inc/stm32f4xx_ll_i2c.h ****   */
 159:Drivers/STM32F4xx_HAL_Driver/Inc/stm32f4xx_ll_i2c.h **** #define LL_I2C_CR2_ITEVTEN                  I2C_CR2_ITEVTEN         /*!< Events interrupts enable *
 160:Drivers/STM32F4xx_HAL_Driver/Inc/stm32f4xx_ll_i2c.h **** #define LL_I2C_CR2_ITBUFEN                  I2C_CR2_ITBUFEN         /*!< Buffer interrupts enable *
 161:Drivers/STM32F4xx_HAL_Driver/Inc/stm32f4xx_ll_i2c.h **** #define LL_I2C_CR2_ITERREN                  I2C_CR2_ITERREN         /*!< Error interrupts enable  *
 162:Drivers/STM32F4xx_HAL_Driver/Inc/stm32f4xx_ll_i2c.h **** /**
 163:Drivers/STM32F4xx_HAL_Driver/Inc/stm32f4xx_ll_i2c.h ****   * @}
 164:Drivers/STM32F4xx_HAL_Driver/Inc/stm32f4xx_ll_i2c.h ****   */
 165:Drivers/STM32F4xx_HAL_Driver/Inc/stm32f4xx_ll_i2c.h **** 
 166:Drivers/STM32F4xx_HAL_Driver/Inc/stm32f4xx_ll_i2c.h **** #if defined(I2C_FLTR_ANOFF)
 167:Drivers/STM32F4xx_HAL_Driver/Inc/stm32f4xx_ll_i2c.h **** /** @defgroup I2C_LL_EC_ANALOGFILTER_SELECTION  Analog Filter Selection
 168:Drivers/STM32F4xx_HAL_Driver/Inc/stm32f4xx_ll_i2c.h ****   * @{
 169:Drivers/STM32F4xx_HAL_Driver/Inc/stm32f4xx_ll_i2c.h ****   */
 170:Drivers/STM32F4xx_HAL_Driver/Inc/stm32f4xx_ll_i2c.h **** #define LL_I2C_ANALOGFILTER_ENABLE          0x00000000U             /*!< Analog filter is enabled. 
 171:Drivers/STM32F4xx_HAL_Driver/Inc/stm32f4xx_ll_i2c.h **** #define LL_I2C_ANALOGFILTER_DISABLE         I2C_FLTR_ANOFF          /*!< Analog filter is disabled.
 172:Drivers/STM32F4xx_HAL_Driver/Inc/stm32f4xx_ll_i2c.h **** /**
 173:Drivers/STM32F4xx_HAL_Driver/Inc/stm32f4xx_ll_i2c.h ****   * @}
 174:Drivers/STM32F4xx_HAL_Driver/Inc/stm32f4xx_ll_i2c.h ****   */
 175:Drivers/STM32F4xx_HAL_Driver/Inc/stm32f4xx_ll_i2c.h **** 
 176:Drivers/STM32F4xx_HAL_Driver/Inc/stm32f4xx_ll_i2c.h **** #endif
 177:Drivers/STM32F4xx_HAL_Driver/Inc/stm32f4xx_ll_i2c.h **** /** @defgroup I2C_LL_EC_OWNADDRESS1 Own Address 1 Length
 178:Drivers/STM32F4xx_HAL_Driver/Inc/stm32f4xx_ll_i2c.h ****   * @{
 179:Drivers/STM32F4xx_HAL_Driver/Inc/stm32f4xx_ll_i2c.h ****   */
 180:Drivers/STM32F4xx_HAL_Driver/Inc/stm32f4xx_ll_i2c.h **** #define LL_I2C_OWNADDRESS1_7BIT             0x00004000U                                /*!< Own add
 181:Drivers/STM32F4xx_HAL_Driver/Inc/stm32f4xx_ll_i2c.h **** #define LL_I2C_OWNADDRESS1_10BIT            (uint32_t)(I2C_OAR1_ADDMODE | 0x00004000U) /*!< Own add
 182:Drivers/STM32F4xx_HAL_Driver/Inc/stm32f4xx_ll_i2c.h **** /**
 183:Drivers/STM32F4xx_HAL_Driver/Inc/stm32f4xx_ll_i2c.h ****   * @}
 184:Drivers/STM32F4xx_HAL_Driver/Inc/stm32f4xx_ll_i2c.h ****   */
 185:Drivers/STM32F4xx_HAL_Driver/Inc/stm32f4xx_ll_i2c.h **** 
 186:Drivers/STM32F4xx_HAL_Driver/Inc/stm32f4xx_ll_i2c.h **** /** @defgroup I2C_LL_EC_DUTYCYCLE Fast Mode Duty Cycle
 187:Drivers/STM32F4xx_HAL_Driver/Inc/stm32f4xx_ll_i2c.h ****   * @{
 188:Drivers/STM32F4xx_HAL_Driver/Inc/stm32f4xx_ll_i2c.h ****   */
 189:Drivers/STM32F4xx_HAL_Driver/Inc/stm32f4xx_ll_i2c.h **** #define LL_I2C_DUTYCYCLE_2                  0x00000000U             /*!< I2C fast mode Tlow/Thigh =
 190:Drivers/STM32F4xx_HAL_Driver/Inc/stm32f4xx_ll_i2c.h **** #define LL_I2C_DUTYCYCLE_16_9               I2C_CCR_DUTY            /*!< I2C fast mode Tlow/Thigh =
 191:Drivers/STM32F4xx_HAL_Driver/Inc/stm32f4xx_ll_i2c.h **** /**
 192:Drivers/STM32F4xx_HAL_Driver/Inc/stm32f4xx_ll_i2c.h ****   * @}
 193:Drivers/STM32F4xx_HAL_Driver/Inc/stm32f4xx_ll_i2c.h ****   */
 194:Drivers/STM32F4xx_HAL_Driver/Inc/stm32f4xx_ll_i2c.h **** 
 195:Drivers/STM32F4xx_HAL_Driver/Inc/stm32f4xx_ll_i2c.h **** /** @defgroup I2C_LL_EC_CLOCK_SPEED_MODE Master Clock Speed Mode
 196:Drivers/STM32F4xx_HAL_Driver/Inc/stm32f4xx_ll_i2c.h ****   * @{
 197:Drivers/STM32F4xx_HAL_Driver/Inc/stm32f4xx_ll_i2c.h ****   */
 198:Drivers/STM32F4xx_HAL_Driver/Inc/stm32f4xx_ll_i2c.h **** #define LL_I2C_CLOCK_SPEED_STANDARD_MODE    0x00000000U             /*!< Master clock speed range i
 199:Drivers/STM32F4xx_HAL_Driver/Inc/stm32f4xx_ll_i2c.h **** #define LL_I2C_CLOCK_SPEED_FAST_MODE        I2C_CCR_FS              /*!< Master clock speed range i
 200:Drivers/STM32F4xx_HAL_Driver/Inc/stm32f4xx_ll_i2c.h **** /**
 201:Drivers/STM32F4xx_HAL_Driver/Inc/stm32f4xx_ll_i2c.h ****   * @}
 202:Drivers/STM32F4xx_HAL_Driver/Inc/stm32f4xx_ll_i2c.h ****   */
 203:Drivers/STM32F4xx_HAL_Driver/Inc/stm32f4xx_ll_i2c.h **** 
 204:Drivers/STM32F4xx_HAL_Driver/Inc/stm32f4xx_ll_i2c.h **** /** @defgroup I2C_LL_EC_PERIPHERAL_MODE Peripheral Mode
 205:Drivers/STM32F4xx_HAL_Driver/Inc/stm32f4xx_ll_i2c.h ****   * @{
 206:Drivers/STM32F4xx_HAL_Driver/Inc/stm32f4xx_ll_i2c.h ****   */
 207:Drivers/STM32F4xx_HAL_Driver/Inc/stm32f4xx_ll_i2c.h **** #define LL_I2C_MODE_I2C                     0x00000000U                                            
 208:Drivers/STM32F4xx_HAL_Driver/Inc/stm32f4xx_ll_i2c.h **** #define LL_I2C_MODE_SMBUS_HOST              (uint32_t)(I2C_CR1_SMBUS | I2C_CR1_SMBTYPE | I2C_CR1_EN
 209:Drivers/STM32F4xx_HAL_Driver/Inc/stm32f4xx_ll_i2c.h **** #define LL_I2C_MODE_SMBUS_DEVICE            I2C_CR1_SMBUS                                          
 210:Drivers/STM32F4xx_HAL_Driver/Inc/stm32f4xx_ll_i2c.h **** #define LL_I2C_MODE_SMBUS_DEVICE_ARP        (uint32_t)(I2C_CR1_SMBUS | I2C_CR1_ENARP)              
ARM GAS  F:\msys64\tmp\cclfnzNs.s 			page 29


 211:Drivers/STM32F4xx_HAL_Driver/Inc/stm32f4xx_ll_i2c.h **** /**
 212:Drivers/STM32F4xx_HAL_Driver/Inc/stm32f4xx_ll_i2c.h ****   * @}
 213:Drivers/STM32F4xx_HAL_Driver/Inc/stm32f4xx_ll_i2c.h ****   */
 214:Drivers/STM32F4xx_HAL_Driver/Inc/stm32f4xx_ll_i2c.h **** 
 215:Drivers/STM32F4xx_HAL_Driver/Inc/stm32f4xx_ll_i2c.h **** /** @defgroup I2C_LL_EC_I2C_ACKNOWLEDGE Acknowledge Generation
 216:Drivers/STM32F4xx_HAL_Driver/Inc/stm32f4xx_ll_i2c.h ****   * @{
 217:Drivers/STM32F4xx_HAL_Driver/Inc/stm32f4xx_ll_i2c.h ****   */
 218:Drivers/STM32F4xx_HAL_Driver/Inc/stm32f4xx_ll_i2c.h **** #define LL_I2C_ACK                          I2C_CR1_ACK             /*!< ACK is sent after current 
 219:Drivers/STM32F4xx_HAL_Driver/Inc/stm32f4xx_ll_i2c.h **** #define LL_I2C_NACK                         0x00000000U             /*!< NACK is sent after current
 220:Drivers/STM32F4xx_HAL_Driver/Inc/stm32f4xx_ll_i2c.h **** /**
 221:Drivers/STM32F4xx_HAL_Driver/Inc/stm32f4xx_ll_i2c.h ****   * @}
 222:Drivers/STM32F4xx_HAL_Driver/Inc/stm32f4xx_ll_i2c.h ****   */
 223:Drivers/STM32F4xx_HAL_Driver/Inc/stm32f4xx_ll_i2c.h **** 
 224:Drivers/STM32F4xx_HAL_Driver/Inc/stm32f4xx_ll_i2c.h **** /** @defgroup I2C_LL_EC_DIRECTION Read Write Direction
 225:Drivers/STM32F4xx_HAL_Driver/Inc/stm32f4xx_ll_i2c.h ****   * @{
 226:Drivers/STM32F4xx_HAL_Driver/Inc/stm32f4xx_ll_i2c.h ****   */
 227:Drivers/STM32F4xx_HAL_Driver/Inc/stm32f4xx_ll_i2c.h **** #define LL_I2C_DIRECTION_WRITE              I2C_SR2_TRA             /*!< Bus is in write transfer *
 228:Drivers/STM32F4xx_HAL_Driver/Inc/stm32f4xx_ll_i2c.h **** #define LL_I2C_DIRECTION_READ               0x00000000U             /*!< Bus is in read transfer  *
 229:Drivers/STM32F4xx_HAL_Driver/Inc/stm32f4xx_ll_i2c.h **** /**
 230:Drivers/STM32F4xx_HAL_Driver/Inc/stm32f4xx_ll_i2c.h ****   * @}
 231:Drivers/STM32F4xx_HAL_Driver/Inc/stm32f4xx_ll_i2c.h ****   */
 232:Drivers/STM32F4xx_HAL_Driver/Inc/stm32f4xx_ll_i2c.h **** 
 233:Drivers/STM32F4xx_HAL_Driver/Inc/stm32f4xx_ll_i2c.h **** /**
 234:Drivers/STM32F4xx_HAL_Driver/Inc/stm32f4xx_ll_i2c.h ****   * @}
 235:Drivers/STM32F4xx_HAL_Driver/Inc/stm32f4xx_ll_i2c.h ****   */
 236:Drivers/STM32F4xx_HAL_Driver/Inc/stm32f4xx_ll_i2c.h **** 
 237:Drivers/STM32F4xx_HAL_Driver/Inc/stm32f4xx_ll_i2c.h **** /* Exported macro ------------------------------------------------------------*/
 238:Drivers/STM32F4xx_HAL_Driver/Inc/stm32f4xx_ll_i2c.h **** /** @defgroup I2C_LL_Exported_Macros I2C Exported Macros
 239:Drivers/STM32F4xx_HAL_Driver/Inc/stm32f4xx_ll_i2c.h ****   * @{
 240:Drivers/STM32F4xx_HAL_Driver/Inc/stm32f4xx_ll_i2c.h ****   */
 241:Drivers/STM32F4xx_HAL_Driver/Inc/stm32f4xx_ll_i2c.h **** 
 242:Drivers/STM32F4xx_HAL_Driver/Inc/stm32f4xx_ll_i2c.h **** /** @defgroup I2C_LL_EM_WRITE_READ Common Write and read registers Macros
 243:Drivers/STM32F4xx_HAL_Driver/Inc/stm32f4xx_ll_i2c.h ****   * @{
 244:Drivers/STM32F4xx_HAL_Driver/Inc/stm32f4xx_ll_i2c.h ****   */
 245:Drivers/STM32F4xx_HAL_Driver/Inc/stm32f4xx_ll_i2c.h **** 
 246:Drivers/STM32F4xx_HAL_Driver/Inc/stm32f4xx_ll_i2c.h **** /**
 247:Drivers/STM32F4xx_HAL_Driver/Inc/stm32f4xx_ll_i2c.h ****   * @brief  Write a value in I2C register
 248:Drivers/STM32F4xx_HAL_Driver/Inc/stm32f4xx_ll_i2c.h ****   * @param  __INSTANCE__ I2C Instance
 249:Drivers/STM32F4xx_HAL_Driver/Inc/stm32f4xx_ll_i2c.h ****   * @param  __REG__ Register to be written
 250:Drivers/STM32F4xx_HAL_Driver/Inc/stm32f4xx_ll_i2c.h ****   * @param  __VALUE__ Value to be written in the register
 251:Drivers/STM32F4xx_HAL_Driver/Inc/stm32f4xx_ll_i2c.h ****   * @retval None
 252:Drivers/STM32F4xx_HAL_Driver/Inc/stm32f4xx_ll_i2c.h ****   */
 253:Drivers/STM32F4xx_HAL_Driver/Inc/stm32f4xx_ll_i2c.h **** #define LL_I2C_WriteReg(__INSTANCE__, __REG__, __VALUE__) WRITE_REG(__INSTANCE__->__REG__, (__VALUE
 254:Drivers/STM32F4xx_HAL_Driver/Inc/stm32f4xx_ll_i2c.h **** 
 255:Drivers/STM32F4xx_HAL_Driver/Inc/stm32f4xx_ll_i2c.h **** /**
 256:Drivers/STM32F4xx_HAL_Driver/Inc/stm32f4xx_ll_i2c.h ****   * @brief  Read a value in I2C register
 257:Drivers/STM32F4xx_HAL_Driver/Inc/stm32f4xx_ll_i2c.h ****   * @param  __INSTANCE__ I2C Instance
 258:Drivers/STM32F4xx_HAL_Driver/Inc/stm32f4xx_ll_i2c.h ****   * @param  __REG__ Register to be read
 259:Drivers/STM32F4xx_HAL_Driver/Inc/stm32f4xx_ll_i2c.h ****   * @retval Register value
 260:Drivers/STM32F4xx_HAL_Driver/Inc/stm32f4xx_ll_i2c.h ****   */
 261:Drivers/STM32F4xx_HAL_Driver/Inc/stm32f4xx_ll_i2c.h **** #define LL_I2C_ReadReg(__INSTANCE__, __REG__) READ_REG(__INSTANCE__->__REG__)
 262:Drivers/STM32F4xx_HAL_Driver/Inc/stm32f4xx_ll_i2c.h **** /**
 263:Drivers/STM32F4xx_HAL_Driver/Inc/stm32f4xx_ll_i2c.h ****   * @}
 264:Drivers/STM32F4xx_HAL_Driver/Inc/stm32f4xx_ll_i2c.h ****   */
 265:Drivers/STM32F4xx_HAL_Driver/Inc/stm32f4xx_ll_i2c.h **** 
 266:Drivers/STM32F4xx_HAL_Driver/Inc/stm32f4xx_ll_i2c.h **** /** @defgroup I2C_LL_EM_Exported_Macros_Helper Exported Macros Helper
 267:Drivers/STM32F4xx_HAL_Driver/Inc/stm32f4xx_ll_i2c.h ****   * @{
ARM GAS  F:\msys64\tmp\cclfnzNs.s 			page 30


 268:Drivers/STM32F4xx_HAL_Driver/Inc/stm32f4xx_ll_i2c.h ****   */
 269:Drivers/STM32F4xx_HAL_Driver/Inc/stm32f4xx_ll_i2c.h **** 
 270:Drivers/STM32F4xx_HAL_Driver/Inc/stm32f4xx_ll_i2c.h **** /**
 271:Drivers/STM32F4xx_HAL_Driver/Inc/stm32f4xx_ll_i2c.h ****   * @brief  Convert Peripheral Clock Frequency in Mhz.
 272:Drivers/STM32F4xx_HAL_Driver/Inc/stm32f4xx_ll_i2c.h ****   * @param  __PCLK__ This parameter must be a value of peripheral clock (in Hz).
 273:Drivers/STM32F4xx_HAL_Driver/Inc/stm32f4xx_ll_i2c.h ****   * @retval Value of peripheral clock (in Mhz)
 274:Drivers/STM32F4xx_HAL_Driver/Inc/stm32f4xx_ll_i2c.h ****   */
 275:Drivers/STM32F4xx_HAL_Driver/Inc/stm32f4xx_ll_i2c.h **** #define __LL_I2C_FREQ_HZ_TO_MHZ(__PCLK__)                               (uint32_t)((__PCLK__)/10000
 276:Drivers/STM32F4xx_HAL_Driver/Inc/stm32f4xx_ll_i2c.h **** 
 277:Drivers/STM32F4xx_HAL_Driver/Inc/stm32f4xx_ll_i2c.h **** /**
 278:Drivers/STM32F4xx_HAL_Driver/Inc/stm32f4xx_ll_i2c.h ****   * @brief  Convert Peripheral Clock Frequency in Hz.
 279:Drivers/STM32F4xx_HAL_Driver/Inc/stm32f4xx_ll_i2c.h ****   * @param  __PCLK__ This parameter must be a value of peripheral clock (in Mhz).
 280:Drivers/STM32F4xx_HAL_Driver/Inc/stm32f4xx_ll_i2c.h ****   * @retval Value of peripheral clock (in Hz)
 281:Drivers/STM32F4xx_HAL_Driver/Inc/stm32f4xx_ll_i2c.h ****   */
 282:Drivers/STM32F4xx_HAL_Driver/Inc/stm32f4xx_ll_i2c.h **** #define __LL_I2C_FREQ_MHZ_TO_HZ(__PCLK__)                               (uint32_t)((__PCLK__)*10000
 283:Drivers/STM32F4xx_HAL_Driver/Inc/stm32f4xx_ll_i2c.h **** 
 284:Drivers/STM32F4xx_HAL_Driver/Inc/stm32f4xx_ll_i2c.h **** /**
 285:Drivers/STM32F4xx_HAL_Driver/Inc/stm32f4xx_ll_i2c.h ****   * @brief  Compute I2C Clock rising time.
 286:Drivers/STM32F4xx_HAL_Driver/Inc/stm32f4xx_ll_i2c.h ****   * @param  __FREQRANGE__ This parameter must be a value of peripheral clock (in Mhz).
 287:Drivers/STM32F4xx_HAL_Driver/Inc/stm32f4xx_ll_i2c.h ****   * @param  __SPEED__ This parameter must be a value lower than 400kHz (in Hz).
 288:Drivers/STM32F4xx_HAL_Driver/Inc/stm32f4xx_ll_i2c.h ****   * @retval Value between Min_Data=0x02 and Max_Data=0x3F
 289:Drivers/STM32F4xx_HAL_Driver/Inc/stm32f4xx_ll_i2c.h ****   */
 290:Drivers/STM32F4xx_HAL_Driver/Inc/stm32f4xx_ll_i2c.h **** #define __LL_I2C_RISE_TIME(__FREQRANGE__, __SPEED__)                    (uint32_t)(((__SPEED__) <= 
 291:Drivers/STM32F4xx_HAL_Driver/Inc/stm32f4xx_ll_i2c.h **** 
 292:Drivers/STM32F4xx_HAL_Driver/Inc/stm32f4xx_ll_i2c.h **** /**
 293:Drivers/STM32F4xx_HAL_Driver/Inc/stm32f4xx_ll_i2c.h ****   * @brief  Compute Speed clock range to a Clock Control Register (I2C_CCR_CCR) value.
 294:Drivers/STM32F4xx_HAL_Driver/Inc/stm32f4xx_ll_i2c.h ****   * @param  __PCLK__ This parameter must be a value of peripheral clock (in Hz).
 295:Drivers/STM32F4xx_HAL_Driver/Inc/stm32f4xx_ll_i2c.h ****   * @param  __SPEED__ This parameter must be a value lower than 400kHz (in Hz).
 296:Drivers/STM32F4xx_HAL_Driver/Inc/stm32f4xx_ll_i2c.h ****   * @param  __DUTYCYCLE__ This parameter can be one of the following values:
 297:Drivers/STM32F4xx_HAL_Driver/Inc/stm32f4xx_ll_i2c.h ****   *         @arg @ref LL_I2C_DUTYCYCLE_2
 298:Drivers/STM32F4xx_HAL_Driver/Inc/stm32f4xx_ll_i2c.h ****   *         @arg @ref LL_I2C_DUTYCYCLE_16_9
 299:Drivers/STM32F4xx_HAL_Driver/Inc/stm32f4xx_ll_i2c.h ****   * @retval Value between Min_Data=0x004 and Max_Data=0xFFF, except in FAST DUTY mode where Min_Dat
 300:Drivers/STM32F4xx_HAL_Driver/Inc/stm32f4xx_ll_i2c.h ****   */
 301:Drivers/STM32F4xx_HAL_Driver/Inc/stm32f4xx_ll_i2c.h **** #define __LL_I2C_SPEED_TO_CCR(__PCLK__, __SPEED__, __DUTYCYCLE__)       (uint32_t)(((__SPEED__) <= 
 302:Drivers/STM32F4xx_HAL_Driver/Inc/stm32f4xx_ll_i2c.h ****                                                                                   (__LL_I2C_SPEED_S
 303:Drivers/STM32F4xx_HAL_Driver/Inc/stm32f4xx_ll_i2c.h ****                                                                                   (__LL_I2C_SPEED_F
 304:Drivers/STM32F4xx_HAL_Driver/Inc/stm32f4xx_ll_i2c.h **** 
 305:Drivers/STM32F4xx_HAL_Driver/Inc/stm32f4xx_ll_i2c.h **** /**
 306:Drivers/STM32F4xx_HAL_Driver/Inc/stm32f4xx_ll_i2c.h ****   * @brief  Compute Speed Standard clock range to a Clock Control Register (I2C_CCR_CCR) value.
 307:Drivers/STM32F4xx_HAL_Driver/Inc/stm32f4xx_ll_i2c.h ****   * @param  __PCLK__ This parameter must be a value of peripheral clock (in Hz).
 308:Drivers/STM32F4xx_HAL_Driver/Inc/stm32f4xx_ll_i2c.h ****   * @param  __SPEED__ This parameter must be a value lower than 100kHz (in Hz).
 309:Drivers/STM32F4xx_HAL_Driver/Inc/stm32f4xx_ll_i2c.h ****   * @retval Value between Min_Data=0x004 and Max_Data=0xFFF.
 310:Drivers/STM32F4xx_HAL_Driver/Inc/stm32f4xx_ll_i2c.h ****   */
 311:Drivers/STM32F4xx_HAL_Driver/Inc/stm32f4xx_ll_i2c.h **** #define __LL_I2C_SPEED_STANDARD_TO_CCR(__PCLK__, __SPEED__)             (uint32_t)(((((__PCLK__)/((
 312:Drivers/STM32F4xx_HAL_Driver/Inc/stm32f4xx_ll_i2c.h **** 
 313:Drivers/STM32F4xx_HAL_Driver/Inc/stm32f4xx_ll_i2c.h **** /**
 314:Drivers/STM32F4xx_HAL_Driver/Inc/stm32f4xx_ll_i2c.h ****   * @brief  Compute Speed Fast clock range to a Clock Control Register (I2C_CCR_CCR) value.
 315:Drivers/STM32F4xx_HAL_Driver/Inc/stm32f4xx_ll_i2c.h ****   * @param  __PCLK__ This parameter must be a value of peripheral clock (in Hz).
 316:Drivers/STM32F4xx_HAL_Driver/Inc/stm32f4xx_ll_i2c.h ****   * @param  __SPEED__ This parameter must be a value between Min_Data=100Khz and Max_Data=400Khz (i
 317:Drivers/STM32F4xx_HAL_Driver/Inc/stm32f4xx_ll_i2c.h ****   * @param  __DUTYCYCLE__ This parameter can be one of the following values:
 318:Drivers/STM32F4xx_HAL_Driver/Inc/stm32f4xx_ll_i2c.h ****   *         @arg @ref LL_I2C_DUTYCYCLE_2
 319:Drivers/STM32F4xx_HAL_Driver/Inc/stm32f4xx_ll_i2c.h ****   *         @arg @ref LL_I2C_DUTYCYCLE_16_9
 320:Drivers/STM32F4xx_HAL_Driver/Inc/stm32f4xx_ll_i2c.h ****   * @retval Value between Min_Data=0x001 and Max_Data=0xFFF
 321:Drivers/STM32F4xx_HAL_Driver/Inc/stm32f4xx_ll_i2c.h ****   */
 322:Drivers/STM32F4xx_HAL_Driver/Inc/stm32f4xx_ll_i2c.h **** #define __LL_I2C_SPEED_FAST_TO_CCR(__PCLK__, __SPEED__, __DUTYCYCLE__)  (uint32_t)(((__DUTYCYCLE__)
 323:Drivers/STM32F4xx_HAL_Driver/Inc/stm32f4xx_ll_i2c.h ****                                                                             (((((__PCLK__) / ((__SP
 324:Drivers/STM32F4xx_HAL_Driver/Inc/stm32f4xx_ll_i2c.h ****                                                                             (((((__PCLK__) / ((__SP
ARM GAS  F:\msys64\tmp\cclfnzNs.s 			page 31


 325:Drivers/STM32F4xx_HAL_Driver/Inc/stm32f4xx_ll_i2c.h **** 
 326:Drivers/STM32F4xx_HAL_Driver/Inc/stm32f4xx_ll_i2c.h **** /**
 327:Drivers/STM32F4xx_HAL_Driver/Inc/stm32f4xx_ll_i2c.h ****   * @brief  Get the Least significant bits of a 10-Bits address.
 328:Drivers/STM32F4xx_HAL_Driver/Inc/stm32f4xx_ll_i2c.h ****   * @param  __ADDRESS__ This parameter must be a value of a 10-Bits slave address.
 329:Drivers/STM32F4xx_HAL_Driver/Inc/stm32f4xx_ll_i2c.h ****   * @retval Value between Min_Data=0x00 and Max_Data=0xFF
 330:Drivers/STM32F4xx_HAL_Driver/Inc/stm32f4xx_ll_i2c.h ****   */
 331:Drivers/STM32F4xx_HAL_Driver/Inc/stm32f4xx_ll_i2c.h **** #define __LL_I2C_10BIT_ADDRESS(__ADDRESS__)                             ((uint8_t)((uint16_t)((__AD
 332:Drivers/STM32F4xx_HAL_Driver/Inc/stm32f4xx_ll_i2c.h **** 
 333:Drivers/STM32F4xx_HAL_Driver/Inc/stm32f4xx_ll_i2c.h **** /**
 334:Drivers/STM32F4xx_HAL_Driver/Inc/stm32f4xx_ll_i2c.h ****   * @brief  Convert a 10-Bits address to a 10-Bits header with Write direction.
 335:Drivers/STM32F4xx_HAL_Driver/Inc/stm32f4xx_ll_i2c.h ****   * @param  __ADDRESS__ This parameter must be a value of a 10-Bits slave address.
 336:Drivers/STM32F4xx_HAL_Driver/Inc/stm32f4xx_ll_i2c.h ****   * @retval Value between Min_Data=0xF0 and Max_Data=0xF6
 337:Drivers/STM32F4xx_HAL_Driver/Inc/stm32f4xx_ll_i2c.h ****   */
 338:Drivers/STM32F4xx_HAL_Driver/Inc/stm32f4xx_ll_i2c.h **** #define __LL_I2C_10BIT_HEADER_WRITE(__ADDRESS__)                        ((uint8_t)((uint16_t)((uint
 339:Drivers/STM32F4xx_HAL_Driver/Inc/stm32f4xx_ll_i2c.h **** 
 340:Drivers/STM32F4xx_HAL_Driver/Inc/stm32f4xx_ll_i2c.h **** /**
 341:Drivers/STM32F4xx_HAL_Driver/Inc/stm32f4xx_ll_i2c.h ****   * @brief  Convert a 10-Bits address to a 10-Bits header with Read direction.
 342:Drivers/STM32F4xx_HAL_Driver/Inc/stm32f4xx_ll_i2c.h ****   * @param  __ADDRESS__ This parameter must be a value of a 10-Bits slave address.
 343:Drivers/STM32F4xx_HAL_Driver/Inc/stm32f4xx_ll_i2c.h ****   * @retval Value between Min_Data=0xF1 and Max_Data=0xF7
 344:Drivers/STM32F4xx_HAL_Driver/Inc/stm32f4xx_ll_i2c.h ****   */
 345:Drivers/STM32F4xx_HAL_Driver/Inc/stm32f4xx_ll_i2c.h **** #define __LL_I2C_10BIT_HEADER_READ(__ADDRESS__)                         ((uint8_t)((uint16_t)((uint
 346:Drivers/STM32F4xx_HAL_Driver/Inc/stm32f4xx_ll_i2c.h **** 
 347:Drivers/STM32F4xx_HAL_Driver/Inc/stm32f4xx_ll_i2c.h **** /**
 348:Drivers/STM32F4xx_HAL_Driver/Inc/stm32f4xx_ll_i2c.h ****   * @}
 349:Drivers/STM32F4xx_HAL_Driver/Inc/stm32f4xx_ll_i2c.h ****   */
 350:Drivers/STM32F4xx_HAL_Driver/Inc/stm32f4xx_ll_i2c.h **** 
 351:Drivers/STM32F4xx_HAL_Driver/Inc/stm32f4xx_ll_i2c.h **** /**
 352:Drivers/STM32F4xx_HAL_Driver/Inc/stm32f4xx_ll_i2c.h ****   * @}
 353:Drivers/STM32F4xx_HAL_Driver/Inc/stm32f4xx_ll_i2c.h ****   */
 354:Drivers/STM32F4xx_HAL_Driver/Inc/stm32f4xx_ll_i2c.h **** 
 355:Drivers/STM32F4xx_HAL_Driver/Inc/stm32f4xx_ll_i2c.h **** /* Exported functions --------------------------------------------------------*/
 356:Drivers/STM32F4xx_HAL_Driver/Inc/stm32f4xx_ll_i2c.h **** 
 357:Drivers/STM32F4xx_HAL_Driver/Inc/stm32f4xx_ll_i2c.h **** /** @defgroup I2C_LL_Exported_Functions I2C Exported Functions
 358:Drivers/STM32F4xx_HAL_Driver/Inc/stm32f4xx_ll_i2c.h ****   * @{
 359:Drivers/STM32F4xx_HAL_Driver/Inc/stm32f4xx_ll_i2c.h ****   */
 360:Drivers/STM32F4xx_HAL_Driver/Inc/stm32f4xx_ll_i2c.h **** 
 361:Drivers/STM32F4xx_HAL_Driver/Inc/stm32f4xx_ll_i2c.h **** /** @defgroup I2C_LL_EF_Configuration Configuration
 362:Drivers/STM32F4xx_HAL_Driver/Inc/stm32f4xx_ll_i2c.h ****   * @{
 363:Drivers/STM32F4xx_HAL_Driver/Inc/stm32f4xx_ll_i2c.h ****   */
 364:Drivers/STM32F4xx_HAL_Driver/Inc/stm32f4xx_ll_i2c.h **** 
 365:Drivers/STM32F4xx_HAL_Driver/Inc/stm32f4xx_ll_i2c.h **** /**
 366:Drivers/STM32F4xx_HAL_Driver/Inc/stm32f4xx_ll_i2c.h ****   * @brief  Enable I2C peripheral (PE = 1).
 367:Drivers/STM32F4xx_HAL_Driver/Inc/stm32f4xx_ll_i2c.h ****   * @rmtoll CR1          PE            LL_I2C_Enable
 368:Drivers/STM32F4xx_HAL_Driver/Inc/stm32f4xx_ll_i2c.h ****   * @param  I2Cx I2C Instance.
 369:Drivers/STM32F4xx_HAL_Driver/Inc/stm32f4xx_ll_i2c.h ****   * @retval None
 370:Drivers/STM32F4xx_HAL_Driver/Inc/stm32f4xx_ll_i2c.h ****   */
 371:Drivers/STM32F4xx_HAL_Driver/Inc/stm32f4xx_ll_i2c.h **** __STATIC_INLINE void LL_I2C_Enable(I2C_TypeDef *I2Cx)
 372:Drivers/STM32F4xx_HAL_Driver/Inc/stm32f4xx_ll_i2c.h **** {
 373:Drivers/STM32F4xx_HAL_Driver/Inc/stm32f4xx_ll_i2c.h ****   SET_BIT(I2Cx->CR1, I2C_CR1_PE);
 374:Drivers/STM32F4xx_HAL_Driver/Inc/stm32f4xx_ll_i2c.h **** }
 375:Drivers/STM32F4xx_HAL_Driver/Inc/stm32f4xx_ll_i2c.h **** 
 376:Drivers/STM32F4xx_HAL_Driver/Inc/stm32f4xx_ll_i2c.h **** /**
 377:Drivers/STM32F4xx_HAL_Driver/Inc/stm32f4xx_ll_i2c.h ****   * @brief  Disable I2C peripheral (PE = 0).
 378:Drivers/STM32F4xx_HAL_Driver/Inc/stm32f4xx_ll_i2c.h ****   * @rmtoll CR1          PE            LL_I2C_Disable
 379:Drivers/STM32F4xx_HAL_Driver/Inc/stm32f4xx_ll_i2c.h ****   * @param  I2Cx I2C Instance.
 380:Drivers/STM32F4xx_HAL_Driver/Inc/stm32f4xx_ll_i2c.h ****   * @retval None
 381:Drivers/STM32F4xx_HAL_Driver/Inc/stm32f4xx_ll_i2c.h ****   */
ARM GAS  F:\msys64\tmp\cclfnzNs.s 			page 32


 382:Drivers/STM32F4xx_HAL_Driver/Inc/stm32f4xx_ll_i2c.h **** __STATIC_INLINE void LL_I2C_Disable(I2C_TypeDef *I2Cx)
 383:Drivers/STM32F4xx_HAL_Driver/Inc/stm32f4xx_ll_i2c.h **** {
 384:Drivers/STM32F4xx_HAL_Driver/Inc/stm32f4xx_ll_i2c.h ****   CLEAR_BIT(I2Cx->CR1, I2C_CR1_PE);
 385:Drivers/STM32F4xx_HAL_Driver/Inc/stm32f4xx_ll_i2c.h **** }
 386:Drivers/STM32F4xx_HAL_Driver/Inc/stm32f4xx_ll_i2c.h **** 
 387:Drivers/STM32F4xx_HAL_Driver/Inc/stm32f4xx_ll_i2c.h **** /**
 388:Drivers/STM32F4xx_HAL_Driver/Inc/stm32f4xx_ll_i2c.h ****   * @brief  Check if the I2C peripheral is enabled or disabled.
 389:Drivers/STM32F4xx_HAL_Driver/Inc/stm32f4xx_ll_i2c.h ****   * @rmtoll CR1          PE            LL_I2C_IsEnabled
 390:Drivers/STM32F4xx_HAL_Driver/Inc/stm32f4xx_ll_i2c.h ****   * @param  I2Cx I2C Instance.
 391:Drivers/STM32F4xx_HAL_Driver/Inc/stm32f4xx_ll_i2c.h ****   * @retval State of bit (1 or 0).
 392:Drivers/STM32F4xx_HAL_Driver/Inc/stm32f4xx_ll_i2c.h ****   */
 393:Drivers/STM32F4xx_HAL_Driver/Inc/stm32f4xx_ll_i2c.h **** __STATIC_INLINE uint32_t LL_I2C_IsEnabled(I2C_TypeDef *I2Cx)
 394:Drivers/STM32F4xx_HAL_Driver/Inc/stm32f4xx_ll_i2c.h **** {
 395:Drivers/STM32F4xx_HAL_Driver/Inc/stm32f4xx_ll_i2c.h ****   return (READ_BIT(I2Cx->CR1, I2C_CR1_PE) == (I2C_CR1_PE));
 396:Drivers/STM32F4xx_HAL_Driver/Inc/stm32f4xx_ll_i2c.h **** }
 397:Drivers/STM32F4xx_HAL_Driver/Inc/stm32f4xx_ll_i2c.h **** 
 398:Drivers/STM32F4xx_HAL_Driver/Inc/stm32f4xx_ll_i2c.h **** #if  defined(I2C_FLTR_ANOFF)&&defined(I2C_FLTR_DNF)
 399:Drivers/STM32F4xx_HAL_Driver/Inc/stm32f4xx_ll_i2c.h **** /**
 400:Drivers/STM32F4xx_HAL_Driver/Inc/stm32f4xx_ll_i2c.h ****   * @brief  Configure Noise Filters (Analog and Digital).
 401:Drivers/STM32F4xx_HAL_Driver/Inc/stm32f4xx_ll_i2c.h ****   * @note   If the analog filter is also enabled, the digital filter is added to analog filter.
 402:Drivers/STM32F4xx_HAL_Driver/Inc/stm32f4xx_ll_i2c.h ****   *         The filters can only be programmed when the I2C is disabled (PE = 0).
 403:Drivers/STM32F4xx_HAL_Driver/Inc/stm32f4xx_ll_i2c.h ****   * @rmtoll FLTR         ANOFF         LL_I2C_ConfigFilters\n
 404:Drivers/STM32F4xx_HAL_Driver/Inc/stm32f4xx_ll_i2c.h ****   *         FLTR         DNF           LL_I2C_ConfigFilters
 405:Drivers/STM32F4xx_HAL_Driver/Inc/stm32f4xx_ll_i2c.h ****   * @param  I2Cx I2C Instance.
 406:Drivers/STM32F4xx_HAL_Driver/Inc/stm32f4xx_ll_i2c.h ****   * @param  AnalogFilter This parameter can be one of the following values:
 407:Drivers/STM32F4xx_HAL_Driver/Inc/stm32f4xx_ll_i2c.h ****   *         @arg @ref LL_I2C_ANALOGFILTER_ENABLE
 408:Drivers/STM32F4xx_HAL_Driver/Inc/stm32f4xx_ll_i2c.h ****   *         @arg @ref LL_I2C_ANALOGFILTER_DISABLE
 409:Drivers/STM32F4xx_HAL_Driver/Inc/stm32f4xx_ll_i2c.h ****   * @param  DigitalFilter This parameter must be a value between Min_Data=0x00 (Digital filter disa
 410:Drivers/STM32F4xx_HAL_Driver/Inc/stm32f4xx_ll_i2c.h ****   *               This parameter is used to configure the digital noise filter on SDA and SCL input
 411:Drivers/STM32F4xx_HAL_Driver/Inc/stm32f4xx_ll_i2c.h ****   * @retval None
 412:Drivers/STM32F4xx_HAL_Driver/Inc/stm32f4xx_ll_i2c.h ****   */
 413:Drivers/STM32F4xx_HAL_Driver/Inc/stm32f4xx_ll_i2c.h **** __STATIC_INLINE void LL_I2C_ConfigFilters(I2C_TypeDef *I2Cx, uint32_t AnalogFilter, uint32_t Digita
 414:Drivers/STM32F4xx_HAL_Driver/Inc/stm32f4xx_ll_i2c.h **** {
 415:Drivers/STM32F4xx_HAL_Driver/Inc/stm32f4xx_ll_i2c.h ****   MODIFY_REG(I2Cx->FLTR, I2C_FLTR_ANOFF | I2C_FLTR_DNF, AnalogFilter | DigitalFilter);
 416:Drivers/STM32F4xx_HAL_Driver/Inc/stm32f4xx_ll_i2c.h **** }
 417:Drivers/STM32F4xx_HAL_Driver/Inc/stm32f4xx_ll_i2c.h **** #endif
 418:Drivers/STM32F4xx_HAL_Driver/Inc/stm32f4xx_ll_i2c.h **** #if defined(I2C_FLTR_DNF)
 419:Drivers/STM32F4xx_HAL_Driver/Inc/stm32f4xx_ll_i2c.h **** 
 420:Drivers/STM32F4xx_HAL_Driver/Inc/stm32f4xx_ll_i2c.h **** /**
 421:Drivers/STM32F4xx_HAL_Driver/Inc/stm32f4xx_ll_i2c.h ****   * @brief  Configure Digital Noise Filter.
 422:Drivers/STM32F4xx_HAL_Driver/Inc/stm32f4xx_ll_i2c.h ****   * @note   If the analog filter is also enabled, the digital filter is added to analog filter.
 423:Drivers/STM32F4xx_HAL_Driver/Inc/stm32f4xx_ll_i2c.h ****   *         This filter can only be programmed when the I2C is disabled (PE = 0).
 424:Drivers/STM32F4xx_HAL_Driver/Inc/stm32f4xx_ll_i2c.h ****   * @rmtoll FLTR         DNF           LL_I2C_SetDigitalFilter
 425:Drivers/STM32F4xx_HAL_Driver/Inc/stm32f4xx_ll_i2c.h ****   * @param  I2Cx I2C Instance.
 426:Drivers/STM32F4xx_HAL_Driver/Inc/stm32f4xx_ll_i2c.h ****   * @param  DigitalFilter This parameter must be a value between Min_Data=0x00 (Digital filter disa
 427:Drivers/STM32F4xx_HAL_Driver/Inc/stm32f4xx_ll_i2c.h ****   *               This parameter is used to configure the digital noise filter on SDA and SCL input
 428:Drivers/STM32F4xx_HAL_Driver/Inc/stm32f4xx_ll_i2c.h ****   * @retval None
 429:Drivers/STM32F4xx_HAL_Driver/Inc/stm32f4xx_ll_i2c.h ****   */
 430:Drivers/STM32F4xx_HAL_Driver/Inc/stm32f4xx_ll_i2c.h **** __STATIC_INLINE void LL_I2C_SetDigitalFilter(I2C_TypeDef *I2Cx, uint32_t DigitalFilter)
 431:Drivers/STM32F4xx_HAL_Driver/Inc/stm32f4xx_ll_i2c.h **** {
 432:Drivers/STM32F4xx_HAL_Driver/Inc/stm32f4xx_ll_i2c.h ****   MODIFY_REG(I2Cx->FLTR, I2C_FLTR_DNF, DigitalFilter);
 433:Drivers/STM32F4xx_HAL_Driver/Inc/stm32f4xx_ll_i2c.h **** }
 434:Drivers/STM32F4xx_HAL_Driver/Inc/stm32f4xx_ll_i2c.h **** 
 435:Drivers/STM32F4xx_HAL_Driver/Inc/stm32f4xx_ll_i2c.h **** /**
 436:Drivers/STM32F4xx_HAL_Driver/Inc/stm32f4xx_ll_i2c.h ****   * @brief  Get the current Digital Noise Filter configuration.
 437:Drivers/STM32F4xx_HAL_Driver/Inc/stm32f4xx_ll_i2c.h ****   * @rmtoll FLTR         DNF           LL_I2C_GetDigitalFilter
 438:Drivers/STM32F4xx_HAL_Driver/Inc/stm32f4xx_ll_i2c.h ****   * @param  I2Cx I2C Instance.
ARM GAS  F:\msys64\tmp\cclfnzNs.s 			page 33


 439:Drivers/STM32F4xx_HAL_Driver/Inc/stm32f4xx_ll_i2c.h ****   * @retval Value between Min_Data=0x0 and Max_Data=0xF
 440:Drivers/STM32F4xx_HAL_Driver/Inc/stm32f4xx_ll_i2c.h ****   */
 441:Drivers/STM32F4xx_HAL_Driver/Inc/stm32f4xx_ll_i2c.h **** __STATIC_INLINE uint32_t LL_I2C_GetDigitalFilter(I2C_TypeDef *I2Cx)
 442:Drivers/STM32F4xx_HAL_Driver/Inc/stm32f4xx_ll_i2c.h **** {
 443:Drivers/STM32F4xx_HAL_Driver/Inc/stm32f4xx_ll_i2c.h ****   return (uint32_t)(READ_BIT(I2Cx->FLTR, I2C_FLTR_DNF));
 444:Drivers/STM32F4xx_HAL_Driver/Inc/stm32f4xx_ll_i2c.h **** }
 445:Drivers/STM32F4xx_HAL_Driver/Inc/stm32f4xx_ll_i2c.h **** #endif
 446:Drivers/STM32F4xx_HAL_Driver/Inc/stm32f4xx_ll_i2c.h **** #if defined(I2C_FLTR_ANOFF)
 447:Drivers/STM32F4xx_HAL_Driver/Inc/stm32f4xx_ll_i2c.h **** 
 448:Drivers/STM32F4xx_HAL_Driver/Inc/stm32f4xx_ll_i2c.h **** /**
 449:Drivers/STM32F4xx_HAL_Driver/Inc/stm32f4xx_ll_i2c.h ****   * @brief  Enable Analog Noise Filter.
 450:Drivers/STM32F4xx_HAL_Driver/Inc/stm32f4xx_ll_i2c.h ****   * @note   This filter can only be programmed when the I2C is disabled (PE = 0).
 451:Drivers/STM32F4xx_HAL_Driver/Inc/stm32f4xx_ll_i2c.h ****   * @rmtoll FLTR         ANOFF         LL_I2C_EnableAnalogFilter
 452:Drivers/STM32F4xx_HAL_Driver/Inc/stm32f4xx_ll_i2c.h ****   * @param  I2Cx I2C Instance.
 453:Drivers/STM32F4xx_HAL_Driver/Inc/stm32f4xx_ll_i2c.h ****   * @retval None
 454:Drivers/STM32F4xx_HAL_Driver/Inc/stm32f4xx_ll_i2c.h ****   */
 455:Drivers/STM32F4xx_HAL_Driver/Inc/stm32f4xx_ll_i2c.h **** __STATIC_INLINE void LL_I2C_EnableAnalogFilter(I2C_TypeDef *I2Cx)
 456:Drivers/STM32F4xx_HAL_Driver/Inc/stm32f4xx_ll_i2c.h **** {
 457:Drivers/STM32F4xx_HAL_Driver/Inc/stm32f4xx_ll_i2c.h ****   CLEAR_BIT(I2Cx->FLTR, I2C_FLTR_ANOFF);
 458:Drivers/STM32F4xx_HAL_Driver/Inc/stm32f4xx_ll_i2c.h **** }
 459:Drivers/STM32F4xx_HAL_Driver/Inc/stm32f4xx_ll_i2c.h **** 
 460:Drivers/STM32F4xx_HAL_Driver/Inc/stm32f4xx_ll_i2c.h **** /**
 461:Drivers/STM32F4xx_HAL_Driver/Inc/stm32f4xx_ll_i2c.h ****   * @brief  Disable Analog Noise Filter.
 462:Drivers/STM32F4xx_HAL_Driver/Inc/stm32f4xx_ll_i2c.h ****   * @note   This filter can only be programmed when the I2C is disabled (PE = 0).
 463:Drivers/STM32F4xx_HAL_Driver/Inc/stm32f4xx_ll_i2c.h ****   * @rmtoll FLTR         ANOFF         LL_I2C_DisableAnalogFilter
 464:Drivers/STM32F4xx_HAL_Driver/Inc/stm32f4xx_ll_i2c.h ****   * @param  I2Cx I2C Instance.
 465:Drivers/STM32F4xx_HAL_Driver/Inc/stm32f4xx_ll_i2c.h ****   * @retval None
 466:Drivers/STM32F4xx_HAL_Driver/Inc/stm32f4xx_ll_i2c.h ****   */
 467:Drivers/STM32F4xx_HAL_Driver/Inc/stm32f4xx_ll_i2c.h **** __STATIC_INLINE void LL_I2C_DisableAnalogFilter(I2C_TypeDef *I2Cx)
 468:Drivers/STM32F4xx_HAL_Driver/Inc/stm32f4xx_ll_i2c.h **** {
 469:Drivers/STM32F4xx_HAL_Driver/Inc/stm32f4xx_ll_i2c.h ****   SET_BIT(I2Cx->FLTR, I2C_FLTR_ANOFF);
 470:Drivers/STM32F4xx_HAL_Driver/Inc/stm32f4xx_ll_i2c.h **** }
 471:Drivers/STM32F4xx_HAL_Driver/Inc/stm32f4xx_ll_i2c.h **** 
 472:Drivers/STM32F4xx_HAL_Driver/Inc/stm32f4xx_ll_i2c.h **** /**
 473:Drivers/STM32F4xx_HAL_Driver/Inc/stm32f4xx_ll_i2c.h ****   * @brief  Check if Analog Noise Filter is enabled or disabled.
 474:Drivers/STM32F4xx_HAL_Driver/Inc/stm32f4xx_ll_i2c.h ****   * @rmtoll FLTR         ANOFF         LL_I2C_IsEnabledAnalogFilter
 475:Drivers/STM32F4xx_HAL_Driver/Inc/stm32f4xx_ll_i2c.h ****   * @param  I2Cx I2C Instance.
 476:Drivers/STM32F4xx_HAL_Driver/Inc/stm32f4xx_ll_i2c.h ****   * @retval State of bit (1 or 0).
 477:Drivers/STM32F4xx_HAL_Driver/Inc/stm32f4xx_ll_i2c.h ****   */
 478:Drivers/STM32F4xx_HAL_Driver/Inc/stm32f4xx_ll_i2c.h **** __STATIC_INLINE uint32_t LL_I2C_IsEnabledAnalogFilter(I2C_TypeDef *I2Cx)
 479:Drivers/STM32F4xx_HAL_Driver/Inc/stm32f4xx_ll_i2c.h **** {
 480:Drivers/STM32F4xx_HAL_Driver/Inc/stm32f4xx_ll_i2c.h ****   return (READ_BIT(I2Cx->FLTR, I2C_FLTR_ANOFF) == (I2C_FLTR_ANOFF));
 481:Drivers/STM32F4xx_HAL_Driver/Inc/stm32f4xx_ll_i2c.h **** }
 482:Drivers/STM32F4xx_HAL_Driver/Inc/stm32f4xx_ll_i2c.h **** #endif
 483:Drivers/STM32F4xx_HAL_Driver/Inc/stm32f4xx_ll_i2c.h **** 
 484:Drivers/STM32F4xx_HAL_Driver/Inc/stm32f4xx_ll_i2c.h **** /**
 485:Drivers/STM32F4xx_HAL_Driver/Inc/stm32f4xx_ll_i2c.h ****   * @brief  Enable DMA transmission requests.
 486:Drivers/STM32F4xx_HAL_Driver/Inc/stm32f4xx_ll_i2c.h ****   * @rmtoll CR2          DMAEN         LL_I2C_EnableDMAReq_TX
 487:Drivers/STM32F4xx_HAL_Driver/Inc/stm32f4xx_ll_i2c.h ****   * @param  I2Cx I2C Instance.
 488:Drivers/STM32F4xx_HAL_Driver/Inc/stm32f4xx_ll_i2c.h ****   * @retval None
 489:Drivers/STM32F4xx_HAL_Driver/Inc/stm32f4xx_ll_i2c.h ****   */
 490:Drivers/STM32F4xx_HAL_Driver/Inc/stm32f4xx_ll_i2c.h **** __STATIC_INLINE void LL_I2C_EnableDMAReq_TX(I2C_TypeDef *I2Cx)
 491:Drivers/STM32F4xx_HAL_Driver/Inc/stm32f4xx_ll_i2c.h **** {
 492:Drivers/STM32F4xx_HAL_Driver/Inc/stm32f4xx_ll_i2c.h ****   SET_BIT(I2Cx->CR2, I2C_CR2_DMAEN);
 493:Drivers/STM32F4xx_HAL_Driver/Inc/stm32f4xx_ll_i2c.h **** }
 494:Drivers/STM32F4xx_HAL_Driver/Inc/stm32f4xx_ll_i2c.h **** 
 495:Drivers/STM32F4xx_HAL_Driver/Inc/stm32f4xx_ll_i2c.h **** /**
ARM GAS  F:\msys64\tmp\cclfnzNs.s 			page 34


 496:Drivers/STM32F4xx_HAL_Driver/Inc/stm32f4xx_ll_i2c.h ****   * @brief  Disable DMA transmission requests.
 497:Drivers/STM32F4xx_HAL_Driver/Inc/stm32f4xx_ll_i2c.h ****   * @rmtoll CR2          DMAEN         LL_I2C_DisableDMAReq_TX
 498:Drivers/STM32F4xx_HAL_Driver/Inc/stm32f4xx_ll_i2c.h ****   * @param  I2Cx I2C Instance.
 499:Drivers/STM32F4xx_HAL_Driver/Inc/stm32f4xx_ll_i2c.h ****   * @retval None
 500:Drivers/STM32F4xx_HAL_Driver/Inc/stm32f4xx_ll_i2c.h ****   */
 501:Drivers/STM32F4xx_HAL_Driver/Inc/stm32f4xx_ll_i2c.h **** __STATIC_INLINE void LL_I2C_DisableDMAReq_TX(I2C_TypeDef *I2Cx)
 502:Drivers/STM32F4xx_HAL_Driver/Inc/stm32f4xx_ll_i2c.h **** {
 503:Drivers/STM32F4xx_HAL_Driver/Inc/stm32f4xx_ll_i2c.h ****   CLEAR_BIT(I2Cx->CR2, I2C_CR2_DMAEN);
 504:Drivers/STM32F4xx_HAL_Driver/Inc/stm32f4xx_ll_i2c.h **** }
 505:Drivers/STM32F4xx_HAL_Driver/Inc/stm32f4xx_ll_i2c.h **** 
 506:Drivers/STM32F4xx_HAL_Driver/Inc/stm32f4xx_ll_i2c.h **** /**
 507:Drivers/STM32F4xx_HAL_Driver/Inc/stm32f4xx_ll_i2c.h ****   * @brief  Check if DMA transmission requests are enabled or disabled.
 508:Drivers/STM32F4xx_HAL_Driver/Inc/stm32f4xx_ll_i2c.h ****   * @rmtoll CR2          DMAEN         LL_I2C_IsEnabledDMAReq_TX
 509:Drivers/STM32F4xx_HAL_Driver/Inc/stm32f4xx_ll_i2c.h ****   * @param  I2Cx I2C Instance.
 510:Drivers/STM32F4xx_HAL_Driver/Inc/stm32f4xx_ll_i2c.h ****   * @retval State of bit (1 or 0).
 511:Drivers/STM32F4xx_HAL_Driver/Inc/stm32f4xx_ll_i2c.h ****   */
 512:Drivers/STM32F4xx_HAL_Driver/Inc/stm32f4xx_ll_i2c.h **** __STATIC_INLINE uint32_t LL_I2C_IsEnabledDMAReq_TX(I2C_TypeDef *I2Cx)
 513:Drivers/STM32F4xx_HAL_Driver/Inc/stm32f4xx_ll_i2c.h **** {
 514:Drivers/STM32F4xx_HAL_Driver/Inc/stm32f4xx_ll_i2c.h ****   return (READ_BIT(I2Cx->CR2, I2C_CR2_DMAEN) == (I2C_CR2_DMAEN));
 515:Drivers/STM32F4xx_HAL_Driver/Inc/stm32f4xx_ll_i2c.h **** }
 516:Drivers/STM32F4xx_HAL_Driver/Inc/stm32f4xx_ll_i2c.h **** 
 517:Drivers/STM32F4xx_HAL_Driver/Inc/stm32f4xx_ll_i2c.h **** /**
 518:Drivers/STM32F4xx_HAL_Driver/Inc/stm32f4xx_ll_i2c.h ****   * @brief  Enable DMA reception requests.
 519:Drivers/STM32F4xx_HAL_Driver/Inc/stm32f4xx_ll_i2c.h ****   * @rmtoll CR2          DMAEN         LL_I2C_EnableDMAReq_RX
 520:Drivers/STM32F4xx_HAL_Driver/Inc/stm32f4xx_ll_i2c.h ****   * @param  I2Cx I2C Instance.
 521:Drivers/STM32F4xx_HAL_Driver/Inc/stm32f4xx_ll_i2c.h ****   * @retval None
 522:Drivers/STM32F4xx_HAL_Driver/Inc/stm32f4xx_ll_i2c.h ****   */
 523:Drivers/STM32F4xx_HAL_Driver/Inc/stm32f4xx_ll_i2c.h **** __STATIC_INLINE void LL_I2C_EnableDMAReq_RX(I2C_TypeDef *I2Cx)
 524:Drivers/STM32F4xx_HAL_Driver/Inc/stm32f4xx_ll_i2c.h **** {
 525:Drivers/STM32F4xx_HAL_Driver/Inc/stm32f4xx_ll_i2c.h ****   SET_BIT(I2Cx->CR2, I2C_CR2_DMAEN);
 526:Drivers/STM32F4xx_HAL_Driver/Inc/stm32f4xx_ll_i2c.h **** }
 527:Drivers/STM32F4xx_HAL_Driver/Inc/stm32f4xx_ll_i2c.h **** 
 528:Drivers/STM32F4xx_HAL_Driver/Inc/stm32f4xx_ll_i2c.h **** /**
 529:Drivers/STM32F4xx_HAL_Driver/Inc/stm32f4xx_ll_i2c.h ****   * @brief  Disable DMA reception requests.
 530:Drivers/STM32F4xx_HAL_Driver/Inc/stm32f4xx_ll_i2c.h ****   * @rmtoll CR2          DMAEN         LL_I2C_DisableDMAReq_RX
 531:Drivers/STM32F4xx_HAL_Driver/Inc/stm32f4xx_ll_i2c.h ****   * @param  I2Cx I2C Instance.
 532:Drivers/STM32F4xx_HAL_Driver/Inc/stm32f4xx_ll_i2c.h ****   * @retval None
 533:Drivers/STM32F4xx_HAL_Driver/Inc/stm32f4xx_ll_i2c.h ****   */
 534:Drivers/STM32F4xx_HAL_Driver/Inc/stm32f4xx_ll_i2c.h **** __STATIC_INLINE void LL_I2C_DisableDMAReq_RX(I2C_TypeDef *I2Cx)
 535:Drivers/STM32F4xx_HAL_Driver/Inc/stm32f4xx_ll_i2c.h **** {
 536:Drivers/STM32F4xx_HAL_Driver/Inc/stm32f4xx_ll_i2c.h ****   CLEAR_BIT(I2Cx->CR2, I2C_CR2_DMAEN);
 537:Drivers/STM32F4xx_HAL_Driver/Inc/stm32f4xx_ll_i2c.h **** }
 538:Drivers/STM32F4xx_HAL_Driver/Inc/stm32f4xx_ll_i2c.h **** 
 539:Drivers/STM32F4xx_HAL_Driver/Inc/stm32f4xx_ll_i2c.h **** /**
 540:Drivers/STM32F4xx_HAL_Driver/Inc/stm32f4xx_ll_i2c.h ****   * @brief  Check if DMA reception requests are enabled or disabled.
 541:Drivers/STM32F4xx_HAL_Driver/Inc/stm32f4xx_ll_i2c.h ****   * @rmtoll CR2          DMAEN         LL_I2C_IsEnabledDMAReq_RX
 542:Drivers/STM32F4xx_HAL_Driver/Inc/stm32f4xx_ll_i2c.h ****   * @param  I2Cx I2C Instance.
 543:Drivers/STM32F4xx_HAL_Driver/Inc/stm32f4xx_ll_i2c.h ****   * @retval State of bit (1 or 0).
 544:Drivers/STM32F4xx_HAL_Driver/Inc/stm32f4xx_ll_i2c.h ****   */
 545:Drivers/STM32F4xx_HAL_Driver/Inc/stm32f4xx_ll_i2c.h **** __STATIC_INLINE uint32_t LL_I2C_IsEnabledDMAReq_RX(I2C_TypeDef *I2Cx)
 546:Drivers/STM32F4xx_HAL_Driver/Inc/stm32f4xx_ll_i2c.h **** {
 547:Drivers/STM32F4xx_HAL_Driver/Inc/stm32f4xx_ll_i2c.h ****   return (READ_BIT(I2Cx->CR2, I2C_CR2_DMAEN) == (I2C_CR2_DMAEN));
 548:Drivers/STM32F4xx_HAL_Driver/Inc/stm32f4xx_ll_i2c.h **** }
 549:Drivers/STM32F4xx_HAL_Driver/Inc/stm32f4xx_ll_i2c.h **** 
 550:Drivers/STM32F4xx_HAL_Driver/Inc/stm32f4xx_ll_i2c.h **** /**
 551:Drivers/STM32F4xx_HAL_Driver/Inc/stm32f4xx_ll_i2c.h ****   * @brief  Get the data register address used for DMA transfer.
 552:Drivers/STM32F4xx_HAL_Driver/Inc/stm32f4xx_ll_i2c.h ****   * @rmtoll DR           DR            LL_I2C_DMA_GetRegAddr
ARM GAS  F:\msys64\tmp\cclfnzNs.s 			page 35


 553:Drivers/STM32F4xx_HAL_Driver/Inc/stm32f4xx_ll_i2c.h ****   * @param  I2Cx I2C Instance.
 554:Drivers/STM32F4xx_HAL_Driver/Inc/stm32f4xx_ll_i2c.h ****   * @retval Address of data register
 555:Drivers/STM32F4xx_HAL_Driver/Inc/stm32f4xx_ll_i2c.h ****   */
 556:Drivers/STM32F4xx_HAL_Driver/Inc/stm32f4xx_ll_i2c.h **** __STATIC_INLINE uint32_t LL_I2C_DMA_GetRegAddr(I2C_TypeDef *I2Cx)
 557:Drivers/STM32F4xx_HAL_Driver/Inc/stm32f4xx_ll_i2c.h **** {
 558:Drivers/STM32F4xx_HAL_Driver/Inc/stm32f4xx_ll_i2c.h ****   return (uint32_t) & (I2Cx->DR);
 559:Drivers/STM32F4xx_HAL_Driver/Inc/stm32f4xx_ll_i2c.h **** }
 560:Drivers/STM32F4xx_HAL_Driver/Inc/stm32f4xx_ll_i2c.h **** 
 561:Drivers/STM32F4xx_HAL_Driver/Inc/stm32f4xx_ll_i2c.h **** /**
 562:Drivers/STM32F4xx_HAL_Driver/Inc/stm32f4xx_ll_i2c.h ****   * @brief  Enable Clock stretching.
 563:Drivers/STM32F4xx_HAL_Driver/Inc/stm32f4xx_ll_i2c.h ****   * @note   This bit can only be programmed when the I2C is disabled (PE = 0).
 564:Drivers/STM32F4xx_HAL_Driver/Inc/stm32f4xx_ll_i2c.h ****   * @rmtoll CR1          NOSTRETCH     LL_I2C_EnableClockStretching
 565:Drivers/STM32F4xx_HAL_Driver/Inc/stm32f4xx_ll_i2c.h ****   * @param  I2Cx I2C Instance.
 566:Drivers/STM32F4xx_HAL_Driver/Inc/stm32f4xx_ll_i2c.h ****   * @retval None
 567:Drivers/STM32F4xx_HAL_Driver/Inc/stm32f4xx_ll_i2c.h ****   */
 568:Drivers/STM32F4xx_HAL_Driver/Inc/stm32f4xx_ll_i2c.h **** __STATIC_INLINE void LL_I2C_EnableClockStretching(I2C_TypeDef *I2Cx)
 569:Drivers/STM32F4xx_HAL_Driver/Inc/stm32f4xx_ll_i2c.h **** {
 570:Drivers/STM32F4xx_HAL_Driver/Inc/stm32f4xx_ll_i2c.h ****   CLEAR_BIT(I2Cx->CR1, I2C_CR1_NOSTRETCH);
 571:Drivers/STM32F4xx_HAL_Driver/Inc/stm32f4xx_ll_i2c.h **** }
 572:Drivers/STM32F4xx_HAL_Driver/Inc/stm32f4xx_ll_i2c.h **** 
 573:Drivers/STM32F4xx_HAL_Driver/Inc/stm32f4xx_ll_i2c.h **** /**
 574:Drivers/STM32F4xx_HAL_Driver/Inc/stm32f4xx_ll_i2c.h ****   * @brief  Disable Clock stretching.
 575:Drivers/STM32F4xx_HAL_Driver/Inc/stm32f4xx_ll_i2c.h ****   * @note   This bit can only be programmed when the I2C is disabled (PE = 0).
 576:Drivers/STM32F4xx_HAL_Driver/Inc/stm32f4xx_ll_i2c.h ****   * @rmtoll CR1          NOSTRETCH     LL_I2C_DisableClockStretching
 577:Drivers/STM32F4xx_HAL_Driver/Inc/stm32f4xx_ll_i2c.h ****   * @param  I2Cx I2C Instance.
 578:Drivers/STM32F4xx_HAL_Driver/Inc/stm32f4xx_ll_i2c.h ****   * @retval None
 579:Drivers/STM32F4xx_HAL_Driver/Inc/stm32f4xx_ll_i2c.h ****   */
 580:Drivers/STM32F4xx_HAL_Driver/Inc/stm32f4xx_ll_i2c.h **** __STATIC_INLINE void LL_I2C_DisableClockStretching(I2C_TypeDef *I2Cx)
 581:Drivers/STM32F4xx_HAL_Driver/Inc/stm32f4xx_ll_i2c.h **** {
 582:Drivers/STM32F4xx_HAL_Driver/Inc/stm32f4xx_ll_i2c.h ****   SET_BIT(I2Cx->CR1, I2C_CR1_NOSTRETCH);
 583:Drivers/STM32F4xx_HAL_Driver/Inc/stm32f4xx_ll_i2c.h **** }
 584:Drivers/STM32F4xx_HAL_Driver/Inc/stm32f4xx_ll_i2c.h **** 
 585:Drivers/STM32F4xx_HAL_Driver/Inc/stm32f4xx_ll_i2c.h **** /**
 586:Drivers/STM32F4xx_HAL_Driver/Inc/stm32f4xx_ll_i2c.h ****   * @brief  Check if Clock stretching is enabled or disabled.
 587:Drivers/STM32F4xx_HAL_Driver/Inc/stm32f4xx_ll_i2c.h ****   * @rmtoll CR1          NOSTRETCH     LL_I2C_IsEnabledClockStretching
 588:Drivers/STM32F4xx_HAL_Driver/Inc/stm32f4xx_ll_i2c.h ****   * @param  I2Cx I2C Instance.
 589:Drivers/STM32F4xx_HAL_Driver/Inc/stm32f4xx_ll_i2c.h ****   * @retval State of bit (1 or 0).
 590:Drivers/STM32F4xx_HAL_Driver/Inc/stm32f4xx_ll_i2c.h ****   */
 591:Drivers/STM32F4xx_HAL_Driver/Inc/stm32f4xx_ll_i2c.h **** __STATIC_INLINE uint32_t LL_I2C_IsEnabledClockStretching(I2C_TypeDef *I2Cx)
 592:Drivers/STM32F4xx_HAL_Driver/Inc/stm32f4xx_ll_i2c.h **** {
 593:Drivers/STM32F4xx_HAL_Driver/Inc/stm32f4xx_ll_i2c.h ****   return (READ_BIT(I2Cx->CR1, I2C_CR1_NOSTRETCH) != (I2C_CR1_NOSTRETCH));
 594:Drivers/STM32F4xx_HAL_Driver/Inc/stm32f4xx_ll_i2c.h **** }
 595:Drivers/STM32F4xx_HAL_Driver/Inc/stm32f4xx_ll_i2c.h **** 
 596:Drivers/STM32F4xx_HAL_Driver/Inc/stm32f4xx_ll_i2c.h **** /**
 597:Drivers/STM32F4xx_HAL_Driver/Inc/stm32f4xx_ll_i2c.h ****   * @brief  Enable General Call.
 598:Drivers/STM32F4xx_HAL_Driver/Inc/stm32f4xx_ll_i2c.h ****   * @note   When enabled the Address 0x00 is ACKed.
 599:Drivers/STM32F4xx_HAL_Driver/Inc/stm32f4xx_ll_i2c.h ****   * @rmtoll CR1          ENGC          LL_I2C_EnableGeneralCall
 600:Drivers/STM32F4xx_HAL_Driver/Inc/stm32f4xx_ll_i2c.h ****   * @param  I2Cx I2C Instance.
 601:Drivers/STM32F4xx_HAL_Driver/Inc/stm32f4xx_ll_i2c.h ****   * @retval None
 602:Drivers/STM32F4xx_HAL_Driver/Inc/stm32f4xx_ll_i2c.h ****   */
 603:Drivers/STM32F4xx_HAL_Driver/Inc/stm32f4xx_ll_i2c.h **** __STATIC_INLINE void LL_I2C_EnableGeneralCall(I2C_TypeDef *I2Cx)
 604:Drivers/STM32F4xx_HAL_Driver/Inc/stm32f4xx_ll_i2c.h **** {
 605:Drivers/STM32F4xx_HAL_Driver/Inc/stm32f4xx_ll_i2c.h ****   SET_BIT(I2Cx->CR1, I2C_CR1_ENGC);
 606:Drivers/STM32F4xx_HAL_Driver/Inc/stm32f4xx_ll_i2c.h **** }
 607:Drivers/STM32F4xx_HAL_Driver/Inc/stm32f4xx_ll_i2c.h **** 
 608:Drivers/STM32F4xx_HAL_Driver/Inc/stm32f4xx_ll_i2c.h **** /**
 609:Drivers/STM32F4xx_HAL_Driver/Inc/stm32f4xx_ll_i2c.h ****   * @brief  Disable General Call.
ARM GAS  F:\msys64\tmp\cclfnzNs.s 			page 36


 610:Drivers/STM32F4xx_HAL_Driver/Inc/stm32f4xx_ll_i2c.h ****   * @note   When disabled the Address 0x00 is NACKed.
 611:Drivers/STM32F4xx_HAL_Driver/Inc/stm32f4xx_ll_i2c.h ****   * @rmtoll CR1          ENGC          LL_I2C_DisableGeneralCall
 612:Drivers/STM32F4xx_HAL_Driver/Inc/stm32f4xx_ll_i2c.h ****   * @param  I2Cx I2C Instance.
 613:Drivers/STM32F4xx_HAL_Driver/Inc/stm32f4xx_ll_i2c.h ****   * @retval None
 614:Drivers/STM32F4xx_HAL_Driver/Inc/stm32f4xx_ll_i2c.h ****   */
 615:Drivers/STM32F4xx_HAL_Driver/Inc/stm32f4xx_ll_i2c.h **** __STATIC_INLINE void LL_I2C_DisableGeneralCall(I2C_TypeDef *I2Cx)
 616:Drivers/STM32F4xx_HAL_Driver/Inc/stm32f4xx_ll_i2c.h **** {
 617:Drivers/STM32F4xx_HAL_Driver/Inc/stm32f4xx_ll_i2c.h ****   CLEAR_BIT(I2Cx->CR1, I2C_CR1_ENGC);
 618:Drivers/STM32F4xx_HAL_Driver/Inc/stm32f4xx_ll_i2c.h **** }
 619:Drivers/STM32F4xx_HAL_Driver/Inc/stm32f4xx_ll_i2c.h **** 
 620:Drivers/STM32F4xx_HAL_Driver/Inc/stm32f4xx_ll_i2c.h **** /**
 621:Drivers/STM32F4xx_HAL_Driver/Inc/stm32f4xx_ll_i2c.h ****   * @brief  Check if General Call is enabled or disabled.
 622:Drivers/STM32F4xx_HAL_Driver/Inc/stm32f4xx_ll_i2c.h ****   * @rmtoll CR1          ENGC          LL_I2C_IsEnabledGeneralCall
 623:Drivers/STM32F4xx_HAL_Driver/Inc/stm32f4xx_ll_i2c.h ****   * @param  I2Cx I2C Instance.
 624:Drivers/STM32F4xx_HAL_Driver/Inc/stm32f4xx_ll_i2c.h ****   * @retval State of bit (1 or 0).
 625:Drivers/STM32F4xx_HAL_Driver/Inc/stm32f4xx_ll_i2c.h ****   */
 626:Drivers/STM32F4xx_HAL_Driver/Inc/stm32f4xx_ll_i2c.h **** __STATIC_INLINE uint32_t LL_I2C_IsEnabledGeneralCall(I2C_TypeDef *I2Cx)
 627:Drivers/STM32F4xx_HAL_Driver/Inc/stm32f4xx_ll_i2c.h **** {
 628:Drivers/STM32F4xx_HAL_Driver/Inc/stm32f4xx_ll_i2c.h ****   return (READ_BIT(I2Cx->CR1, I2C_CR1_ENGC) == (I2C_CR1_ENGC));
 629:Drivers/STM32F4xx_HAL_Driver/Inc/stm32f4xx_ll_i2c.h **** }
 630:Drivers/STM32F4xx_HAL_Driver/Inc/stm32f4xx_ll_i2c.h **** 
 631:Drivers/STM32F4xx_HAL_Driver/Inc/stm32f4xx_ll_i2c.h **** /**
 632:Drivers/STM32F4xx_HAL_Driver/Inc/stm32f4xx_ll_i2c.h ****   * @brief  Set the Own Address1.
 633:Drivers/STM32F4xx_HAL_Driver/Inc/stm32f4xx_ll_i2c.h ****   * @rmtoll OAR1         ADD0          LL_I2C_SetOwnAddress1\n
 634:Drivers/STM32F4xx_HAL_Driver/Inc/stm32f4xx_ll_i2c.h ****   *         OAR1         ADD1_7        LL_I2C_SetOwnAddress1\n
 635:Drivers/STM32F4xx_HAL_Driver/Inc/stm32f4xx_ll_i2c.h ****   *         OAR1         ADD8_9        LL_I2C_SetOwnAddress1\n
 636:Drivers/STM32F4xx_HAL_Driver/Inc/stm32f4xx_ll_i2c.h ****   *         OAR1         ADDMODE       LL_I2C_SetOwnAddress1
 637:Drivers/STM32F4xx_HAL_Driver/Inc/stm32f4xx_ll_i2c.h ****   * @param  I2Cx I2C Instance.
 638:Drivers/STM32F4xx_HAL_Driver/Inc/stm32f4xx_ll_i2c.h ****   * @param  OwnAddress1 This parameter must be a value between Min_Data=0 and Max_Data=0x3FF.
 639:Drivers/STM32F4xx_HAL_Driver/Inc/stm32f4xx_ll_i2c.h ****   * @param  OwnAddrSize This parameter can be one of the following values:
 640:Drivers/STM32F4xx_HAL_Driver/Inc/stm32f4xx_ll_i2c.h ****   *         @arg @ref LL_I2C_OWNADDRESS1_7BIT
 641:Drivers/STM32F4xx_HAL_Driver/Inc/stm32f4xx_ll_i2c.h ****   *         @arg @ref LL_I2C_OWNADDRESS1_10BIT
 642:Drivers/STM32F4xx_HAL_Driver/Inc/stm32f4xx_ll_i2c.h ****   * @retval None
 643:Drivers/STM32F4xx_HAL_Driver/Inc/stm32f4xx_ll_i2c.h ****   */
 644:Drivers/STM32F4xx_HAL_Driver/Inc/stm32f4xx_ll_i2c.h **** __STATIC_INLINE void LL_I2C_SetOwnAddress1(I2C_TypeDef *I2Cx, uint32_t OwnAddress1, uint32_t OwnAdd
 645:Drivers/STM32F4xx_HAL_Driver/Inc/stm32f4xx_ll_i2c.h **** {
 646:Drivers/STM32F4xx_HAL_Driver/Inc/stm32f4xx_ll_i2c.h ****   MODIFY_REG(I2Cx->OAR1, I2C_OAR1_ADD0 | I2C_OAR1_ADD1_7 | I2C_OAR1_ADD8_9 | I2C_OAR1_ADDMODE, OwnA
 647:Drivers/STM32F4xx_HAL_Driver/Inc/stm32f4xx_ll_i2c.h **** }
 648:Drivers/STM32F4xx_HAL_Driver/Inc/stm32f4xx_ll_i2c.h **** 
 649:Drivers/STM32F4xx_HAL_Driver/Inc/stm32f4xx_ll_i2c.h **** /**
 650:Drivers/STM32F4xx_HAL_Driver/Inc/stm32f4xx_ll_i2c.h ****   * @brief  Set the 7bits Own Address2.
 651:Drivers/STM32F4xx_HAL_Driver/Inc/stm32f4xx_ll_i2c.h ****   * @note   This action has no effect if own address2 is enabled.
 652:Drivers/STM32F4xx_HAL_Driver/Inc/stm32f4xx_ll_i2c.h ****   * @rmtoll OAR2         ADD2          LL_I2C_SetOwnAddress2
 653:Drivers/STM32F4xx_HAL_Driver/Inc/stm32f4xx_ll_i2c.h ****   * @param  I2Cx I2C Instance.
 654:Drivers/STM32F4xx_HAL_Driver/Inc/stm32f4xx_ll_i2c.h ****   * @param  OwnAddress2 This parameter must be a value between Min_Data=0 and Max_Data=0x7F.
 655:Drivers/STM32F4xx_HAL_Driver/Inc/stm32f4xx_ll_i2c.h ****   * @retval None
 656:Drivers/STM32F4xx_HAL_Driver/Inc/stm32f4xx_ll_i2c.h ****   */
 657:Drivers/STM32F4xx_HAL_Driver/Inc/stm32f4xx_ll_i2c.h **** __STATIC_INLINE void LL_I2C_SetOwnAddress2(I2C_TypeDef *I2Cx, uint32_t OwnAddress2)
 658:Drivers/STM32F4xx_HAL_Driver/Inc/stm32f4xx_ll_i2c.h **** {
 659:Drivers/STM32F4xx_HAL_Driver/Inc/stm32f4xx_ll_i2c.h ****   MODIFY_REG(I2Cx->OAR2, I2C_OAR2_ADD2, OwnAddress2);
 660:Drivers/STM32F4xx_HAL_Driver/Inc/stm32f4xx_ll_i2c.h **** }
 661:Drivers/STM32F4xx_HAL_Driver/Inc/stm32f4xx_ll_i2c.h **** 
 662:Drivers/STM32F4xx_HAL_Driver/Inc/stm32f4xx_ll_i2c.h **** /**
 663:Drivers/STM32F4xx_HAL_Driver/Inc/stm32f4xx_ll_i2c.h ****   * @brief  Enable acknowledge on Own Address2 match address.
 664:Drivers/STM32F4xx_HAL_Driver/Inc/stm32f4xx_ll_i2c.h ****   * @rmtoll OAR2         ENDUAL        LL_I2C_EnableOwnAddress2
 665:Drivers/STM32F4xx_HAL_Driver/Inc/stm32f4xx_ll_i2c.h ****   * @param  I2Cx I2C Instance.
 666:Drivers/STM32F4xx_HAL_Driver/Inc/stm32f4xx_ll_i2c.h ****   * @retval None
ARM GAS  F:\msys64\tmp\cclfnzNs.s 			page 37


 667:Drivers/STM32F4xx_HAL_Driver/Inc/stm32f4xx_ll_i2c.h ****   */
 668:Drivers/STM32F4xx_HAL_Driver/Inc/stm32f4xx_ll_i2c.h **** __STATIC_INLINE void LL_I2C_EnableOwnAddress2(I2C_TypeDef *I2Cx)
 669:Drivers/STM32F4xx_HAL_Driver/Inc/stm32f4xx_ll_i2c.h **** {
 670:Drivers/STM32F4xx_HAL_Driver/Inc/stm32f4xx_ll_i2c.h ****   SET_BIT(I2Cx->OAR2, I2C_OAR2_ENDUAL);
 671:Drivers/STM32F4xx_HAL_Driver/Inc/stm32f4xx_ll_i2c.h **** }
 672:Drivers/STM32F4xx_HAL_Driver/Inc/stm32f4xx_ll_i2c.h **** 
 673:Drivers/STM32F4xx_HAL_Driver/Inc/stm32f4xx_ll_i2c.h **** /**
 674:Drivers/STM32F4xx_HAL_Driver/Inc/stm32f4xx_ll_i2c.h ****   * @brief  Disable  acknowledge on Own Address2 match address.
 675:Drivers/STM32F4xx_HAL_Driver/Inc/stm32f4xx_ll_i2c.h ****   * @rmtoll OAR2         ENDUAL        LL_I2C_DisableOwnAddress2
 676:Drivers/STM32F4xx_HAL_Driver/Inc/stm32f4xx_ll_i2c.h ****   * @param  I2Cx I2C Instance.
 677:Drivers/STM32F4xx_HAL_Driver/Inc/stm32f4xx_ll_i2c.h ****   * @retval None
 678:Drivers/STM32F4xx_HAL_Driver/Inc/stm32f4xx_ll_i2c.h ****   */
 679:Drivers/STM32F4xx_HAL_Driver/Inc/stm32f4xx_ll_i2c.h **** __STATIC_INLINE void LL_I2C_DisableOwnAddress2(I2C_TypeDef *I2Cx)
 136              		.loc 3 679 22 view .LVU36
 137              	.LBB19:
 680:Drivers/STM32F4xx_HAL_Driver/Inc/stm32f4xx_ll_i2c.h **** {
 681:Drivers/STM32F4xx_HAL_Driver/Inc/stm32f4xx_ll_i2c.h ****   CLEAR_BIT(I2Cx->OAR2, I2C_OAR2_ENDUAL);
 138              		.loc 3 681 3 view .LVU37
 139 0060 A5F5F235 		sub	r5, r5, #123904
 140 0064 EB68     		ldr	r3, [r5, #12]
 141 0066 23F00103 		bic	r3, r3, #1
 142 006a EB60     		str	r3, [r5, #12]
 143              	.LVL4:
 144              		.loc 3 681 3 is_stmt 0 view .LVU38
 145              	.LBE19:
 146              	.LBE18:
  62:Core/Src/i2c.c ****   LL_I2C_DisableGeneralCall(I2C1);
 147              		.loc 1 62 3 is_stmt 1 view .LVU39
 148              	.LBB20:
 149              	.LBI20:
 615:Drivers/STM32F4xx_HAL_Driver/Inc/stm32f4xx_ll_i2c.h **** {
 150              		.loc 3 615 22 view .LVU40
 151              	.LBB21:
 617:Drivers/STM32F4xx_HAL_Driver/Inc/stm32f4xx_ll_i2c.h **** }
 152              		.loc 3 617 3 view .LVU41
 153 006c 2B68     		ldr	r3, [r5]
 154 006e 23F04003 		bic	r3, r3, #64
 155 0072 2B60     		str	r3, [r5]
 156              	.LVL5:
 617:Drivers/STM32F4xx_HAL_Driver/Inc/stm32f4xx_ll_i2c.h **** }
 157              		.loc 3 617 3 is_stmt 0 view .LVU42
 158              	.LBE21:
 159              	.LBE20:
  63:Core/Src/i2c.c ****   LL_I2C_EnableClockStretching(I2C1);
 160              		.loc 1 63 3 is_stmt 1 view .LVU43
 161              	.LBB22:
 162              	.LBI22:
 568:Drivers/STM32F4xx_HAL_Driver/Inc/stm32f4xx_ll_i2c.h **** {
 163              		.loc 3 568 22 view .LVU44
 164              	.LBB23:
 570:Drivers/STM32F4xx_HAL_Driver/Inc/stm32f4xx_ll_i2c.h **** }
 165              		.loc 3 570 3 view .LVU45
 166 0074 2B68     		ldr	r3, [r5]
 167 0076 23F08003 		bic	r3, r3, #128
 168 007a 2B60     		str	r3, [r5]
 169              	.LVL6:
 570:Drivers/STM32F4xx_HAL_Driver/Inc/stm32f4xx_ll_i2c.h **** }
ARM GAS  F:\msys64\tmp\cclfnzNs.s 			page 38


 170              		.loc 3 570 3 is_stmt 0 view .LVU46
 171              	.LBE23:
 172              	.LBE22:
  64:Core/Src/i2c.c ****   I2C_InitStruct.PeripheralMode = LL_I2C_MODE_I2C;
 173              		.loc 1 64 3 is_stmt 1 view .LVU47
 174              		.loc 1 64 33 is_stmt 0 view .LVU48
 175 007c 0894     		str	r4, [sp, #32]
  65:Core/Src/i2c.c ****   I2C_InitStruct.ClockSpeed = 100000;
 176              		.loc 1 65 3 is_stmt 1 view .LVU49
 177              		.loc 1 65 29 is_stmt 0 view .LVU50
 178 007e 0C4B     		ldr	r3, .L3+8
 179 0080 0993     		str	r3, [sp, #36]
  66:Core/Src/i2c.c ****   I2C_InitStruct.DutyCycle = LL_I2C_DUTYCYCLE_2;
 180              		.loc 1 66 3 is_stmt 1 view .LVU51
 181              		.loc 1 66 28 is_stmt 0 view .LVU52
 182 0082 0A94     		str	r4, [sp, #40]
  67:Core/Src/i2c.c ****   I2C_InitStruct.OwnAddress1 = 0;
 183              		.loc 1 67 3 is_stmt 1 view .LVU53
 184              		.loc 1 67 30 is_stmt 0 view .LVU54
 185 0084 0B94     		str	r4, [sp, #44]
  68:Core/Src/i2c.c ****   I2C_InitStruct.TypeAcknowledge = LL_I2C_ACK;
 186              		.loc 1 68 3 is_stmt 1 view .LVU55
 187              		.loc 1 68 34 is_stmt 0 view .LVU56
 188 0086 4FF48063 		mov	r3, #1024
 189 008a 0C93     		str	r3, [sp, #48]
  69:Core/Src/i2c.c ****   I2C_InitStruct.OwnAddrSize = LL_I2C_OWNADDRESS1_7BIT;
 190              		.loc 1 69 3 is_stmt 1 view .LVU57
 191              		.loc 1 69 30 is_stmt 0 view .LVU58
 192 008c 4FF48043 		mov	r3, #16384
 193 0090 0D93     		str	r3, [sp, #52]
  70:Core/Src/i2c.c ****   LL_I2C_Init(I2C1, &I2C_InitStruct);
 194              		.loc 1 70 3 is_stmt 1 view .LVU59
 195 0092 08A9     		add	r1, sp, #32
 196 0094 2846     		mov	r0, r5
 197 0096 FFF7FEFF 		bl	LL_I2C_Init
 198              	.LVL7:
  71:Core/Src/i2c.c ****   LL_I2C_SetOwnAddress2(I2C1, 0);
 199              		.loc 1 71 3 view .LVU60
 200              	.LBB24:
 201              	.LBI24:
 657:Drivers/STM32F4xx_HAL_Driver/Inc/stm32f4xx_ll_i2c.h **** {
 202              		.loc 3 657 22 view .LVU61
 203              	.LBB25:
 659:Drivers/STM32F4xx_HAL_Driver/Inc/stm32f4xx_ll_i2c.h **** }
 204              		.loc 3 659 3 view .LVU62
 205 009a EB68     		ldr	r3, [r5, #12]
 206 009c 23F0FE03 		bic	r3, r3, #254
 207 00a0 EB60     		str	r3, [r5, #12]
 208              	.LVL8:
 659:Drivers/STM32F4xx_HAL_Driver/Inc/stm32f4xx_ll_i2c.h **** }
 209              		.loc 3 659 3 is_stmt 0 view .LVU63
 210              	.LBE25:
 211              	.LBE24:
  72:Core/Src/i2c.c ****   /* USER CODE BEGIN I2C1_Init 2 */
  73:Core/Src/i2c.c **** 
  74:Core/Src/i2c.c ****   /* USER CODE END I2C1_Init 2 */
  75:Core/Src/i2c.c **** 
ARM GAS  F:\msys64\tmp\cclfnzNs.s 			page 39


  76:Core/Src/i2c.c **** }
 212              		.loc 1 76 1 view .LVU64
 213 00a2 0FB0     		add	sp, sp, #60
 214              	.LCFI2:
 215              		.cfi_def_cfa_offset 12
 216              		@ sp needed
 217 00a4 30BD     		pop	{r4, r5, pc}
 218              	.L4:
 219 00a6 00BF     		.align	2
 220              	.L3:
 221 00a8 00380240 		.word	1073887232
 222 00ac 00040240 		.word	1073873920
 223 00b0 A0860100 		.word	100000
 224              		.cfi_endproc
 225              	.LFE658:
 227              		.text
 228              	.Letext0:
 229              		.file 4 "f:\\stm32\\win-dev-tools\\gcc-arm-none-eabi\\arm-none-eabi\\include\\machine\\_default_ty
 230              		.file 5 "f:\\stm32\\win-dev-tools\\gcc-arm-none-eabi\\arm-none-eabi\\include\\sys\\_stdint.h"
 231              		.file 6 "Drivers/CMSIS/Device/ST/STM32F4xx/Include/stm32f407xx.h"
 232              		.file 7 "Drivers/STM32F4xx_HAL_Driver/Inc/stm32f4xx_ll_gpio.h"
 233              		.file 8 "Drivers/STM32F4xx_HAL_Driver/Inc/stm32f4xx_ll_dma.h"
ARM GAS  F:\msys64\tmp\cclfnzNs.s 			page 40

