ARM GAS  F:\msys64\tmp\ccTIrpu5.s 			page 1


   1              		.cpu cortex-m4
   2              		.arch armv7e-m
   3              		.fpu fpv4-sp-d16
   4              		.eabi_attribute 27, 1
   5              		.eabi_attribute 28, 1
   6              		.eabi_attribute 20, 1
   7              		.eabi_attribute 21, 1
   8              		.eabi_attribute 23, 3
   9              		.eabi_attribute 24, 1
  10              		.eabi_attribute 25, 1
  11              		.eabi_attribute 26, 1
  12              		.eabi_attribute 30, 1
  13              		.eabi_attribute 34, 1
  14              		.eabi_attribute 18, 4
  15              		.file	"Menu.c"
  16              		.text
  17              	.Ltext0:
  18              		.cfi_sections	.debug_frame
  19              		.section	.rodata.fun_a1.str1.4,"aMS",%progbits,1
  20              		.align	2
  21              	.LC0:
  22 0000 CAB5CAB1 		.ascii	"\312\265\312\261\274\340\262\342\000"
  22      BCE0B2E2 
  22      00
  23 0009 000000   		.align	2
  24              	.LC1:
  25 000c CAFDBEDD 		.ascii	"\312\375\276\335\307\372\317\337\000"
  25      C7FACFDF 
  25      00
  26 0015 000000   		.align	2
  27              	.LC2:
  28 0018 CEDECFDF 		.ascii	"\316\336\317\337\315\250\320\305\000"
  28      CDA8D0C5 
  28      00
  29 0021 000000   		.align	2
  30              	.LC3:
  31 0024 B2CECAFD 		.ascii	"\262\316\312\375\311\350\326\303\000"
  31      C9E8D6C3 
  31      00
  32              		.section	.text.fun_a1,"ax",%progbits
  33              		.align	1
  34              		.global	fun_a1
  35              		.syntax unified
  36              		.thumb
  37              		.thumb_func
  39              	fun_a1:
  40              	.LFB3:
  41              		.file 1 "API/Menu.c"
   1:API/Menu.c    **** #include "Menu.h"
   2:API/Menu.c    **** #include "GUI.h"
   3:API/Menu.c    **** #include <stdio.h>
   4:API/Menu.c    **** extern const GUI_FONT GUI_FontHZ_KaiTi_20;
   5:API/Menu.c    **** extern const GUI_FONT GUI_FontHZ_KaiTi_32;
   6:API/Menu.c    **** extern float g_tmp;
   7:API/Menu.c    **** KEY_TABLE table[30]=
   8:API/Menu.c    **** {
   9:API/Menu.c    **** 	//主界面
ARM GAS  F:\msys64\tmp\ccTIrpu5.s 			page 2


  10:API/Menu.c    ****     {0,0,0,1,(*fun_0)},
  11:API/Menu.c    **** 
  12:API/Menu.c    ****     //实时检测
  13:API/Menu.c    ****     {1,4,2, 5,(*fun_a1)},  
  14:API/Menu.c    ****     {2,1,3, 9,(*fun_b1)},
  15:API/Menu.c    ****     {3,2,4,13,(*fun_c1)},
  16:API/Menu.c    ****     {4,3,1, 0,(*fun_d1)}, //no actual function or content,just return the last
  17:API/Menu.c    **** 
  18:API/Menu.c    ****     //the index_2
  19:API/Menu.c    ****     {5,8,6,17,(*fun_a21)},                  
  20:API/Menu.c    ****     {6,5,7,18,(*fun_a22)},
  21:API/Menu.c    ****     {7,6,8,19,(*fun_a23)},                                          
  22:API/Menu.c    ****     {8,7,5, 1,(*fun_a24)},
  23:API/Menu.c    ****     
  24:API/Menu.c    ****     { 9,12,10,20,(*fun_b21)},                   
  25:API/Menu.c    ****     {10, 9,11,21,(*fun_b22)},
  26:API/Menu.c    ****     {11,10,12,22,(*fun_b23)},                                           
  27:API/Menu.c    ****     {12,11, 9, 2,(*fun_b24)},
  28:API/Menu.c    ****     
  29:API/Menu.c    ****     {13,16,14,23,(*fun_c21)},                   
  30:API/Menu.c    ****     {14,13,15,24,(*fun_c22)},                                   
  31:API/Menu.c    ****     {15,14,16,25,(*fun_c23)},                                   
  32:API/Menu.c    ****     {16,15,13, 3,(*fun_c24)},
  33:API/Menu.c    ****     
  34:API/Menu.c    ****     //the index_3
  35:API/Menu.c    ****     {17,17,17,5,(*fun_a31)},                                
  36:API/Menu.c    ****     {18,18,18,6,(*fun_a32)},                            
  37:API/Menu.c    ****     {19,19,19,7,(*fun_a33)},
  38:API/Menu.c    ****     
  39:API/Menu.c    ****     {20,20,20, 9,(*fun_b31)},                                   
  40:API/Menu.c    ****     {21,21,21,10,(*fun_b32)},                               
  41:API/Menu.c    ****     {22,22,22,11,(*fun_b33)},
  42:API/Menu.c    **** 
  43:API/Menu.c    ****     {23,23,23,13,(*fun_c31)},                               
  44:API/Menu.c    ****     {24,24,24,14,(*fun_c32)},                           
  45:API/Menu.c    ****     {25,25,25,15,(*fun_c33)},               
  46:API/Menu.c    **** };                                          
  47:API/Menu.c    ****         //                                               index_3_son1|2|3
  48:API/Menu.c    ****         //                                              |----[17]  //information for[5]            
  49:API/Menu.c    ****         //                                              |----[18]  //information for[6]
  50:API/Menu.c    ****         //                                              |----[19]  //information for[7]
  51:API/Menu.c    ****         //                                              |
  52:API/Menu.c    ****         //                            index_2_son1------> 
  53:API/Menu.c    ****         //                              [5]             index_3_son4|5|6
  54:API/Menu.c    ****         //                        |---> [6]             |----[20]
  55:API/Menu.c    ****         //                        |     [7]             |----[21]
  56:API/Menu.c    ****         //                        |     [8]             |----[22]
  57:API/Menu.c    ****         //              index_1   |   index_2_son2------>
  58:API/Menu.c    ****         // index_0        [1]     |     [9]             index_3_son7|8|9
  59:API/Menu.c    ****         //     |0|------->[2]-------->  [10]            |----[23]
  60:API/Menu.c    ****         //                [3]     |     [11]            |----[24]
  61:API/Menu.c    ****         //                [4]     |     [12]            |----[25]
  62:API/Menu.c    ****         //                        |   index_2_son3------>
  63:API/Menu.c    ****         //                        |     [13]
  64:API/Menu.c    ****         //                        |---> [14]
  65:API/Menu.c    ****         //                              [15]
  66:API/Menu.c    ****         //                              [16]
ARM GAS  F:\msys64\tmp\ccTIrpu5.s 			page 3


  67:API/Menu.c    **** 
  68:API/Menu.c    **** /*
  69:API/Menu.c    ****     ***** index_1 *****
  70:API/Menu.c    **** */
  71:API/Menu.c    **** void fun_a1()
  72:API/Menu.c    **** {
  42              		.loc 1 72 1 view -0
  43              		.cfi_startproc
  44              		@ args = 0, pretend = 0, frame = 0
  45              		@ frame_needed = 0, uses_anonymous_args = 0
  46 0000 30B5     		push	{r4, r5, lr}
  47              	.LCFI0:
  48              		.cfi_def_cfa_offset 12
  49              		.cfi_offset 4, -12
  50              		.cfi_offset 5, -8
  51              		.cfi_offset 14, -4
  52 0002 83B0     		sub	sp, sp, #12
  53              	.LCFI1:
  54              		.cfi_def_cfa_offset 24
  73:API/Menu.c    ****  	// GUI_SetBkColor(GUI_GRAY_D0);
  74:API/Menu.c    ****     GUI_SetColor(GUI_BROWN);
  55              		.loc 1 74 5 view .LVU1
  56 0004 2048     		ldr	r0, .L3
  57 0006 FFF7FEFF 		bl	GUI_SetColor
  58              	.LVL0:
  75:API/Menu.c    **** 	GUI_DrawRoundedFrame(8,62,108,120,4,6);
  59              		.loc 1 75 2 view .LVU2
  60 000a 0625     		movs	r5, #6
  61 000c 0195     		str	r5, [sp, #4]
  62 000e 0424     		movs	r4, #4
  63 0010 0094     		str	r4, [sp]
  64 0012 7823     		movs	r3, #120
  65 0014 6C22     		movs	r2, #108
  66 0016 3E21     		movs	r1, #62
  67 0018 0820     		movs	r0, #8
  68 001a FFF7FEFF 		bl	GUI_DrawRoundedFrame
  69              	.LVL1:
  76:API/Menu.c    **** 	GUI_DrawRoundedFrame(8,120,108,178,4,6);
  70              		.loc 1 76 2 view .LVU3
  71 001e 0195     		str	r5, [sp, #4]
  72 0020 0094     		str	r4, [sp]
  73 0022 B223     		movs	r3, #178
  74 0024 6C22     		movs	r2, #108
  75 0026 7821     		movs	r1, #120
  76 0028 0820     		movs	r0, #8
  77 002a FFF7FEFF 		bl	GUI_DrawRoundedFrame
  78              	.LVL2:
  77:API/Menu.c    **** 	GUI_DrawRoundedFrame(8,178,108,236,4,6);
  79              		.loc 1 77 2 view .LVU4
  80 002e 0195     		str	r5, [sp, #4]
  81 0030 0094     		str	r4, [sp]
  82 0032 EC23     		movs	r3, #236
  83 0034 6C22     		movs	r2, #108
  84 0036 B221     		movs	r1, #178
  85 0038 0820     		movs	r0, #8
  86 003a FFF7FEFF 		bl	GUI_DrawRoundedFrame
  87              	.LVL3:
ARM GAS  F:\msys64\tmp\ccTIrpu5.s 			page 4


  78:API/Menu.c    **** 	GUI_SetColor(GUI_RED);
  88              		.loc 1 78 2 view .LVU5
  89 003e 1348     		ldr	r0, .L3+4
  90 0040 FFF7FEFF 		bl	GUI_SetColor
  91              	.LVL4:
  79:API/Menu.c    **** 	GUI_DrawRoundedFrame(8,4,108,62,4,6);
  92              		.loc 1 79 2 view .LVU6
  93 0044 0195     		str	r5, [sp, #4]
  94 0046 0094     		str	r4, [sp]
  95 0048 3E23     		movs	r3, #62
  96 004a 6C22     		movs	r2, #108
  97 004c 2146     		mov	r1, r4
  98 004e 0820     		movs	r0, #8
  99 0050 FFF7FEFF 		bl	GUI_DrawRoundedFrame
 100              	.LVL5:
  80:API/Menu.c    **** 
  81:API/Menu.c    **** 	GUI_SetColor(GUI_BLACK);
 101              		.loc 1 81 2 view .LVU7
 102 0054 4FF07F40 		mov	r0, #-16777216
 103 0058 FFF7FEFF 		bl	GUI_SetColor
 104              	.LVL6:
  82:API/Menu.c    **** 	GUI_DispStringAt("实时监测",16,24);
 105              		.loc 1 82 2 view .LVU8
 106 005c 1822     		movs	r2, #24
 107 005e 1021     		movs	r1, #16
 108 0060 0B48     		ldr	r0, .L3+8
 109 0062 FFF7FEFF 		bl	GUI_DispStringAt
 110              	.LVL7:
  83:API/Menu.c    **** 	GUI_DispStringAt("数据曲线",16,82);
 111              		.loc 1 83 2 view .LVU9
 112 0066 5222     		movs	r2, #82
 113 0068 1021     		movs	r1, #16
 114 006a 0A48     		ldr	r0, .L3+12
 115 006c FFF7FEFF 		bl	GUI_DispStringAt
 116              	.LVL8:
  84:API/Menu.c    **** 	GUI_DispStringAt("无线通信",16,140);
 117              		.loc 1 84 2 view .LVU10
 118 0070 8C22     		movs	r2, #140
 119 0072 1021     		movs	r1, #16
 120 0074 0848     		ldr	r0, .L3+16
 121 0076 FFF7FEFF 		bl	GUI_DispStringAt
 122              	.LVL9:
  85:API/Menu.c    **** 	GUI_DispStringAt("参数设置",16,198);   
 123              		.loc 1 85 2 view .LVU11
 124 007a C622     		movs	r2, #198
 125 007c 1021     		movs	r1, #16
 126 007e 0748     		ldr	r0, .L3+20
 127 0080 FFF7FEFF 		bl	GUI_DispStringAt
 128              	.LVL10:
  86:API/Menu.c    **** }
 129              		.loc 1 86 1 is_stmt 0 view .LVU12
 130 0084 03B0     		add	sp, sp, #12
 131              	.LCFI2:
 132              		.cfi_def_cfa_offset 12
 133              		@ sp needed
 134 0086 30BD     		pop	{r4, r5, pc}
 135              	.L4:
ARM GAS  F:\msys64\tmp\ccTIrpu5.s 			page 5


 136              		.align	2
 137              	.L3:
 138 0088 2A2AA5FF 		.word	-5952982
 139 008c 0000FFFF 		.word	-65536
 140 0090 00000000 		.word	.LC0
 141 0094 0C000000 		.word	.LC1
 142 0098 18000000 		.word	.LC2
 143 009c 24000000 		.word	.LC3
 144              		.cfi_endproc
 145              	.LFE3:
 147              		.section	.rodata.fun_c1.str1.4,"aMS",%progbits,1
 148              		.align	2
 149              	.LC4:
 150 0000 53544D33 		.ascii	"STM32\000"
 150      3200
 151 0006 0000     		.align	2
 152              	.LC5:
 153 0008 4D756C74 		.ascii	"Multi Menu Test\000"
 153      69204D65 
 153      6E752054 
 153      65737400 
 154              		.align	2
 155              	.LC6:
 156 0018 00       		.ascii	"\000"
 157 0019 000000   		.align	2
 158              	.LC7:
 159 001c 456E7465 		.ascii	"Enter to Test\000"
 159      7220746F 
 159      20546573 
 159      7400
 160              		.section	.text.fun_c1,"ax",%progbits
 161              		.align	1
 162              		.global	fun_c1
 163              		.syntax unified
 164              		.thumb
 165              		.thumb_func
 167              	fun_c1:
 168              	.LFB5:
  87:API/Menu.c    **** void fun_b1()
  88:API/Menu.c    **** {
  89:API/Menu.c    **** 	GUI_SetColor(GUI_BLUE);
  90:API/Menu.c    **** 	GUI_DrawRoundedFrame(168,16,268,216,8,8);
  91:API/Menu.c    ****   	GUI_SetFont(&GUI_FontHZ_KaiTi_32);
  92:API/Menu.c    **** 	char buf[10];
  93:API/Menu.c    **** 	sprintf(buf,"%.0f℃", g_tmp);
  94:API/Menu.c    **** 	GUI_DispStringAt(buf, 20 , 0);
  95:API/Menu.c    ****     
  96:API/Menu.c    **** }
  97:API/Menu.c    **** void fun_c1()
  98:API/Menu.c    **** {
 169              		.loc 1 98 1 is_stmt 1 view -0
 170              		.cfi_startproc
 171              		@ args = 0, pretend = 0, frame = 0
 172              		@ frame_needed = 0, uses_anonymous_args = 0
 173 0000 08B5     		push	{r3, lr}
 174              	.LCFI3:
 175              		.cfi_def_cfa_offset 8
ARM GAS  F:\msys64\tmp\ccTIrpu5.s 			page 6


 176              		.cfi_offset 3, -8
 177              		.cfi_offset 14, -4
  99:API/Menu.c    **** 
 100:API/Menu.c    **** 	GUI_DispStringAt("STM32",0,16);
 178              		.loc 1 100 2 view .LVU14
 179 0002 1022     		movs	r2, #16
 180 0004 0021     		movs	r1, #0
 181 0006 0948     		ldr	r0, .L7
 182 0008 FFF7FEFF 		bl	GUI_DispStringAt
 183              	.LVL11:
 101:API/Menu.c    **** 	GUI_DispStringAt("Multi Menu Test",0,40);
 184              		.loc 1 101 2 view .LVU15
 185 000c 2822     		movs	r2, #40
 186 000e 0021     		movs	r1, #0
 187 0010 0748     		ldr	r0, .L7+4
 188 0012 FFF7FEFF 		bl	GUI_DispStringAt
 189              	.LVL12:
 102:API/Menu.c    **** 	GUI_DispStringAt("",0,64);
 190              		.loc 1 102 2 view .LVU16
 191 0016 4022     		movs	r2, #64
 192 0018 0021     		movs	r1, #0
 193 001a 0648     		ldr	r0, .L7+8
 194 001c FFF7FEFF 		bl	GUI_DispStringAt
 195              	.LVL13:
 103:API/Menu.c    **** 	GUI_DispStringAt("Enter to Test",0,88);		
 196              		.loc 1 103 2 view .LVU17
 197 0020 5822     		movs	r2, #88
 198 0022 0021     		movs	r1, #0
 199 0024 0448     		ldr	r0, .L7+12
 200 0026 FFF7FEFF 		bl	GUI_DispStringAt
 201              	.LVL14:
 104:API/Menu.c    ****     
 105:API/Menu.c    **** }
 202              		.loc 1 105 1 is_stmt 0 view .LVU18
 203 002a 08BD     		pop	{r3, pc}
 204              	.L8:
 205              		.align	2
 206              	.L7:
 207 002c 00000000 		.word	.LC4
 208 0030 08000000 		.word	.LC5
 209 0034 18000000 		.word	.LC6
 210 0038 1C000000 		.word	.LC7
 211              		.cfi_endproc
 212              	.LFE5:
 214              		.section	.text.fun_d1,"ax",%progbits
 215              		.align	1
 216              		.global	fun_d1
 217              		.syntax unified
 218              		.thumb
 219              		.thumb_func
 221              	fun_d1:
 222              	.LFB6:
 106:API/Menu.c    **** void fun_d1()
 107:API/Menu.c    **** {
 223              		.loc 1 107 1 is_stmt 1 view -0
 224              		.cfi_startproc
 225              		@ args = 0, pretend = 0, frame = 0
ARM GAS  F:\msys64\tmp\ccTIrpu5.s 			page 7


 226              		@ frame_needed = 0, uses_anonymous_args = 0
 227 0000 08B5     		push	{r3, lr}
 228              	.LCFI4:
 229              		.cfi_def_cfa_offset 8
 230              		.cfi_offset 3, -8
 231              		.cfi_offset 14, -4
 108:API/Menu.c    **** 	GUI_DispStringAt("STM32",0,16);
 232              		.loc 1 108 2 view .LVU20
 233 0002 1022     		movs	r2, #16
 234 0004 0021     		movs	r1, #0
 235 0006 0948     		ldr	r0, .L11
 236 0008 FFF7FEFF 		bl	GUI_DispStringAt
 237              	.LVL15:
 109:API/Menu.c    **** 	GUI_DispStringAt("Multi Menu Test",0,40);
 238              		.loc 1 109 2 view .LVU21
 239 000c 2822     		movs	r2, #40
 240 000e 0021     		movs	r1, #0
 241 0010 0748     		ldr	r0, .L11+4
 242 0012 FFF7FEFF 		bl	GUI_DispStringAt
 243              	.LVL16:
 110:API/Menu.c    **** 	GUI_DispStringAt("",0,64);
 244              		.loc 1 110 2 view .LVU22
 245 0016 4022     		movs	r2, #64
 246 0018 0021     		movs	r1, #0
 247 001a 0648     		ldr	r0, .L11+8
 248 001c FFF7FEFF 		bl	GUI_DispStringAt
 249              	.LVL17:
 111:API/Menu.c    **** 	GUI_DispStringAt("Enter to Test",0,88);	
 250              		.loc 1 111 2 view .LVU23
 251 0020 5822     		movs	r2, #88
 252 0022 0021     		movs	r1, #0
 253 0024 0448     		ldr	r0, .L11+12
 254 0026 FFF7FEFF 		bl	GUI_DispStringAt
 255              	.LVL18:
 112:API/Menu.c    **** }
 256              		.loc 1 112 1 is_stmt 0 view .LVU24
 257 002a 08BD     		pop	{r3, pc}
 258              	.L12:
 259              		.align	2
 260              	.L11:
 261 002c 00000000 		.word	.LC4
 262 0030 08000000 		.word	.LC5
 263 0034 18000000 		.word	.LC6
 264 0038 1C000000 		.word	.LC7
 265              		.cfi_endproc
 266              	.LFE6:
 268              		.section	.text.fun_a21,"ax",%progbits
 269              		.align	1
 270              		.global	fun_a21
 271              		.syntax unified
 272              		.thumb
 273              		.thumb_func
 275              	fun_a21:
 276              	.LFB7:
 113:API/Menu.c    **** 
 114:API/Menu.c    **** /*
 115:API/Menu.c    ****     ***** index_2 *****
ARM GAS  F:\msys64\tmp\ccTIrpu5.s 			page 8


 116:API/Menu.c    **** */
 117:API/Menu.c    **** 
 118:API/Menu.c    **** void fun_a21()     
 119:API/Menu.c    **** {	
 277              		.loc 1 119 1 is_stmt 1 view -0
 278              		.cfi_startproc
 279              		@ args = 0, pretend = 0, frame = 0
 280              		@ frame_needed = 0, uses_anonymous_args = 0
 281 0000 08B5     		push	{r3, lr}
 282              	.LCFI5:
 283              		.cfi_def_cfa_offset 8
 284              		.cfi_offset 3, -8
 285              		.cfi_offset 14, -4
 120:API/Menu.c    **** 	GUI_DispStringAt("STM32",0,16);
 286              		.loc 1 120 2 view .LVU26
 287 0002 1022     		movs	r2, #16
 288 0004 0021     		movs	r1, #0
 289 0006 0948     		ldr	r0, .L15
 290 0008 FFF7FEFF 		bl	GUI_DispStringAt
 291              	.LVL19:
 121:API/Menu.c    **** 	GUI_DispStringAt("Multi Menu Test",0,40);
 292              		.loc 1 121 2 view .LVU27
 293 000c 2822     		movs	r2, #40
 294 000e 0021     		movs	r1, #0
 295 0010 0748     		ldr	r0, .L15+4
 296 0012 FFF7FEFF 		bl	GUI_DispStringAt
 297              	.LVL20:
 122:API/Menu.c    **** 	GUI_DispStringAt("",0,64);
 298              		.loc 1 122 2 view .LVU28
 299 0016 4022     		movs	r2, #64
 300 0018 0021     		movs	r1, #0
 301 001a 0648     		ldr	r0, .L15+8
 302 001c FFF7FEFF 		bl	GUI_DispStringAt
 303              	.LVL21:
 123:API/Menu.c    **** 	GUI_DispStringAt("Enter to Test",0,88);																					
 304              		.loc 1 123 2 view .LVU29
 305 0020 5822     		movs	r2, #88
 306 0022 0021     		movs	r1, #0
 307 0024 0448     		ldr	r0, .L15+12
 308 0026 FFF7FEFF 		bl	GUI_DispStringAt
 309              	.LVL22:
 124:API/Menu.c    **** }
 310              		.loc 1 124 1 is_stmt 0 view .LVU30
 311 002a 08BD     		pop	{r3, pc}
 312              	.L16:
 313              		.align	2
 314              	.L15:
 315 002c 00000000 		.word	.LC4
 316 0030 08000000 		.word	.LC5
 317 0034 18000000 		.word	.LC6
 318 0038 1C000000 		.word	.LC7
 319              		.cfi_endproc
 320              	.LFE7:
 322              		.section	.text.fun_a22,"ax",%progbits
 323              		.align	1
 324              		.global	fun_a22
 325              		.syntax unified
ARM GAS  F:\msys64\tmp\ccTIrpu5.s 			page 9


 326              		.thumb
 327              		.thumb_func
 329              	fun_a22:
 330              	.LFB8:
 125:API/Menu.c    **** 
 126:API/Menu.c    **** void fun_a22()      
 127:API/Menu.c    **** {	
 331              		.loc 1 127 1 is_stmt 1 view -0
 332              		.cfi_startproc
 333              		@ args = 0, pretend = 0, frame = 0
 334              		@ frame_needed = 0, uses_anonymous_args = 0
 335 0000 08B5     		push	{r3, lr}
 336              	.LCFI6:
 337              		.cfi_def_cfa_offset 8
 338              		.cfi_offset 3, -8
 339              		.cfi_offset 14, -4
 128:API/Menu.c    **** 	GUI_DispStringAt("STM32",0,16);
 340              		.loc 1 128 2 view .LVU32
 341 0002 1022     		movs	r2, #16
 342 0004 0021     		movs	r1, #0
 343 0006 0948     		ldr	r0, .L19
 344 0008 FFF7FEFF 		bl	GUI_DispStringAt
 345              	.LVL23:
 129:API/Menu.c    **** 	GUI_DispStringAt("Multi Menu Test",0,40);
 346              		.loc 1 129 2 view .LVU33
 347 000c 2822     		movs	r2, #40
 348 000e 0021     		movs	r1, #0
 349 0010 0748     		ldr	r0, .L19+4
 350 0012 FFF7FEFF 		bl	GUI_DispStringAt
 351              	.LVL24:
 130:API/Menu.c    **** 	GUI_DispStringAt("",0,64);
 352              		.loc 1 130 2 view .LVU34
 353 0016 4022     		movs	r2, #64
 354 0018 0021     		movs	r1, #0
 355 001a 0648     		ldr	r0, .L19+8
 356 001c FFF7FEFF 		bl	GUI_DispStringAt
 357              	.LVL25:
 131:API/Menu.c    **** 	GUI_DispStringAt("Enter to Test",0,88);																							
 358              		.loc 1 131 2 view .LVU35
 359 0020 5822     		movs	r2, #88
 360 0022 0021     		movs	r1, #0
 361 0024 0448     		ldr	r0, .L19+12
 362 0026 FFF7FEFF 		bl	GUI_DispStringAt
 363              	.LVL26:
 132:API/Menu.c    **** }
 364              		.loc 1 132 1 is_stmt 0 view .LVU36
 365 002a 08BD     		pop	{r3, pc}
 366              	.L20:
 367              		.align	2
 368              	.L19:
 369 002c 00000000 		.word	.LC4
 370 0030 08000000 		.word	.LC5
 371 0034 18000000 		.word	.LC6
 372 0038 1C000000 		.word	.LC7
 373              		.cfi_endproc
 374              	.LFE8:
 376              		.section	.text.fun_a23,"ax",%progbits
ARM GAS  F:\msys64\tmp\ccTIrpu5.s 			page 10


 377              		.align	1
 378              		.global	fun_a23
 379              		.syntax unified
 380              		.thumb
 381              		.thumb_func
 383              	fun_a23:
 384              	.LFB9:
 133:API/Menu.c    **** 
 134:API/Menu.c    **** void fun_a23()    
 135:API/Menu.c    **** {	
 385              		.loc 1 135 1 is_stmt 1 view -0
 386              		.cfi_startproc
 387              		@ args = 0, pretend = 0, frame = 0
 388              		@ frame_needed = 0, uses_anonymous_args = 0
 389 0000 08B5     		push	{r3, lr}
 390              	.LCFI7:
 391              		.cfi_def_cfa_offset 8
 392              		.cfi_offset 3, -8
 393              		.cfi_offset 14, -4
 136:API/Menu.c    **** 	GUI_DispStringAt("STM32",0,16);
 394              		.loc 1 136 2 view .LVU38
 395 0002 1022     		movs	r2, #16
 396 0004 0021     		movs	r1, #0
 397 0006 0948     		ldr	r0, .L23
 398 0008 FFF7FEFF 		bl	GUI_DispStringAt
 399              	.LVL27:
 137:API/Menu.c    **** 	GUI_DispStringAt("Multi Menu Test",0,40);
 400              		.loc 1 137 2 view .LVU39
 401 000c 2822     		movs	r2, #40
 402 000e 0021     		movs	r1, #0
 403 0010 0748     		ldr	r0, .L23+4
 404 0012 FFF7FEFF 		bl	GUI_DispStringAt
 405              	.LVL28:
 138:API/Menu.c    **** 	GUI_DispStringAt("",0,64);
 406              		.loc 1 138 2 view .LVU40
 407 0016 4022     		movs	r2, #64
 408 0018 0021     		movs	r1, #0
 409 001a 0648     		ldr	r0, .L23+8
 410 001c FFF7FEFF 		bl	GUI_DispStringAt
 411              	.LVL29:
 139:API/Menu.c    **** 	GUI_DispStringAt("Enter to Test",0,88);																							
 412              		.loc 1 139 2 view .LVU41
 413 0020 5822     		movs	r2, #88
 414 0022 0021     		movs	r1, #0
 415 0024 0448     		ldr	r0, .L23+12
 416 0026 FFF7FEFF 		bl	GUI_DispStringAt
 417              	.LVL30:
 140:API/Menu.c    **** }
 418              		.loc 1 140 1 is_stmt 0 view .LVU42
 419 002a 08BD     		pop	{r3, pc}
 420              	.L24:
 421              		.align	2
 422              	.L23:
 423 002c 00000000 		.word	.LC4
 424 0030 08000000 		.word	.LC5
 425 0034 18000000 		.word	.LC6
 426 0038 1C000000 		.word	.LC7
ARM GAS  F:\msys64\tmp\ccTIrpu5.s 			page 11


 427              		.cfi_endproc
 428              	.LFE9:
 430              		.section	.text.fun_a24,"ax",%progbits
 431              		.align	1
 432              		.global	fun_a24
 433              		.syntax unified
 434              		.thumb
 435              		.thumb_func
 437              	fun_a24:
 438              	.LFB10:
 141:API/Menu.c    **** 
 142:API/Menu.c    **** void fun_a24()    
 143:API/Menu.c    **** {	
 439              		.loc 1 143 1 is_stmt 1 view -0
 440              		.cfi_startproc
 441              		@ args = 0, pretend = 0, frame = 0
 442              		@ frame_needed = 0, uses_anonymous_args = 0
 443 0000 08B5     		push	{r3, lr}
 444              	.LCFI8:
 445              		.cfi_def_cfa_offset 8
 446              		.cfi_offset 3, -8
 447              		.cfi_offset 14, -4
 144:API/Menu.c    **** 	GUI_DispStringAt("STM32",0,16);
 448              		.loc 1 144 2 view .LVU44
 449 0002 1022     		movs	r2, #16
 450 0004 0021     		movs	r1, #0
 451 0006 0948     		ldr	r0, .L27
 452 0008 FFF7FEFF 		bl	GUI_DispStringAt
 453              	.LVL31:
 145:API/Menu.c    **** 	GUI_DispStringAt("Multi Menu Test",0,40);
 454              		.loc 1 145 2 view .LVU45
 455 000c 2822     		movs	r2, #40
 456 000e 0021     		movs	r1, #0
 457 0010 0748     		ldr	r0, .L27+4
 458 0012 FFF7FEFF 		bl	GUI_DispStringAt
 459              	.LVL32:
 146:API/Menu.c    **** 	GUI_DispStringAt("",0,64);
 460              		.loc 1 146 2 view .LVU46
 461 0016 4022     		movs	r2, #64
 462 0018 0021     		movs	r1, #0
 463 001a 0648     		ldr	r0, .L27+8
 464 001c FFF7FEFF 		bl	GUI_DispStringAt
 465              	.LVL33:
 147:API/Menu.c    **** 	GUI_DispStringAt("Enter to Test",0,88);																							
 466              		.loc 1 147 2 view .LVU47
 467 0020 5822     		movs	r2, #88
 468 0022 0021     		movs	r1, #0
 469 0024 0448     		ldr	r0, .L27+12
 470 0026 FFF7FEFF 		bl	GUI_DispStringAt
 471              	.LVL34:
 148:API/Menu.c    **** }
 472              		.loc 1 148 1 is_stmt 0 view .LVU48
 473 002a 08BD     		pop	{r3, pc}
 474              	.L28:
 475              		.align	2
 476              	.L27:
 477 002c 00000000 		.word	.LC4
ARM GAS  F:\msys64\tmp\ccTIrpu5.s 			page 12


 478 0030 08000000 		.word	.LC5
 479 0034 18000000 		.word	.LC6
 480 0038 1C000000 		.word	.LC7
 481              		.cfi_endproc
 482              	.LFE10:
 484              		.section	.text.fun_b21,"ax",%progbits
 485              		.align	1
 486              		.global	fun_b21
 487              		.syntax unified
 488              		.thumb
 489              		.thumb_func
 491              	fun_b21:
 492              	.LFB11:
 149:API/Menu.c    **** 
 150:API/Menu.c    **** void fun_b21()    
 151:API/Menu.c    **** {	
 493              		.loc 1 151 1 is_stmt 1 view -0
 494              		.cfi_startproc
 495              		@ args = 0, pretend = 0, frame = 0
 496              		@ frame_needed = 0, uses_anonymous_args = 0
 497 0000 08B5     		push	{r3, lr}
 498              	.LCFI9:
 499              		.cfi_def_cfa_offset 8
 500              		.cfi_offset 3, -8
 501              		.cfi_offset 14, -4
 152:API/Menu.c    **** 	GUI_DispStringAt("STM32",0,16);
 502              		.loc 1 152 2 view .LVU50
 503 0002 1022     		movs	r2, #16
 504 0004 0021     		movs	r1, #0
 505 0006 0948     		ldr	r0, .L31
 506 0008 FFF7FEFF 		bl	GUI_DispStringAt
 507              	.LVL35:
 153:API/Menu.c    **** 	GUI_DispStringAt("Multi Menu Test",0,40);
 508              		.loc 1 153 2 view .LVU51
 509 000c 2822     		movs	r2, #40
 510 000e 0021     		movs	r1, #0
 511 0010 0748     		ldr	r0, .L31+4
 512 0012 FFF7FEFF 		bl	GUI_DispStringAt
 513              	.LVL36:
 154:API/Menu.c    **** 	GUI_DispStringAt("",0,64);
 514              		.loc 1 154 2 view .LVU52
 515 0016 4022     		movs	r2, #64
 516 0018 0021     		movs	r1, #0
 517 001a 0648     		ldr	r0, .L31+8
 518 001c FFF7FEFF 		bl	GUI_DispStringAt
 519              	.LVL37:
 155:API/Menu.c    **** 	GUI_DispStringAt("Enter to Test",0,88);																							
 520              		.loc 1 155 2 view .LVU53
 521 0020 5822     		movs	r2, #88
 522 0022 0021     		movs	r1, #0
 523 0024 0448     		ldr	r0, .L31+12
 524 0026 FFF7FEFF 		bl	GUI_DispStringAt
 525              	.LVL38:
 156:API/Menu.c    **** }
 526              		.loc 1 156 1 is_stmt 0 view .LVU54
 527 002a 08BD     		pop	{r3, pc}
 528              	.L32:
ARM GAS  F:\msys64\tmp\ccTIrpu5.s 			page 13


 529              		.align	2
 530              	.L31:
 531 002c 00000000 		.word	.LC4
 532 0030 08000000 		.word	.LC5
 533 0034 18000000 		.word	.LC6
 534 0038 1C000000 		.word	.LC7
 535              		.cfi_endproc
 536              	.LFE11:
 538              		.section	.text.fun_b22,"ax",%progbits
 539              		.align	1
 540              		.global	fun_b22
 541              		.syntax unified
 542              		.thumb
 543              		.thumb_func
 545              	fun_b22:
 546              	.LFB12:
 157:API/Menu.c    **** 
 158:API/Menu.c    **** void fun_b22()    
 159:API/Menu.c    **** {	
 547              		.loc 1 159 1 is_stmt 1 view -0
 548              		.cfi_startproc
 549              		@ args = 0, pretend = 0, frame = 0
 550              		@ frame_needed = 0, uses_anonymous_args = 0
 551 0000 08B5     		push	{r3, lr}
 552              	.LCFI10:
 553              		.cfi_def_cfa_offset 8
 554              		.cfi_offset 3, -8
 555              		.cfi_offset 14, -4
 160:API/Menu.c    **** 	GUI_DispStringAt("STM32",0,16);
 556              		.loc 1 160 2 view .LVU56
 557 0002 1022     		movs	r2, #16
 558 0004 0021     		movs	r1, #0
 559 0006 0948     		ldr	r0, .L35
 560 0008 FFF7FEFF 		bl	GUI_DispStringAt
 561              	.LVL39:
 161:API/Menu.c    **** 	GUI_DispStringAt("Multi Menu Test",0,40);
 562              		.loc 1 161 2 view .LVU57
 563 000c 2822     		movs	r2, #40
 564 000e 0021     		movs	r1, #0
 565 0010 0748     		ldr	r0, .L35+4
 566 0012 FFF7FEFF 		bl	GUI_DispStringAt
 567              	.LVL40:
 162:API/Menu.c    **** 	GUI_DispStringAt("",0,64);
 568              		.loc 1 162 2 view .LVU58
 569 0016 4022     		movs	r2, #64
 570 0018 0021     		movs	r1, #0
 571 001a 0648     		ldr	r0, .L35+8
 572 001c FFF7FEFF 		bl	GUI_DispStringAt
 573              	.LVL41:
 163:API/Menu.c    **** 	GUI_DispStringAt("Enter to Test",0,88);																								
 574              		.loc 1 163 2 view .LVU59
 575 0020 5822     		movs	r2, #88
 576 0022 0021     		movs	r1, #0
 577 0024 0448     		ldr	r0, .L35+12
 578 0026 FFF7FEFF 		bl	GUI_DispStringAt
 579              	.LVL42:
 164:API/Menu.c    **** }
ARM GAS  F:\msys64\tmp\ccTIrpu5.s 			page 14


 580              		.loc 1 164 1 is_stmt 0 view .LVU60
 581 002a 08BD     		pop	{r3, pc}
 582              	.L36:
 583              		.align	2
 584              	.L35:
 585 002c 00000000 		.word	.LC4
 586 0030 08000000 		.word	.LC5
 587 0034 18000000 		.word	.LC6
 588 0038 1C000000 		.word	.LC7
 589              		.cfi_endproc
 590              	.LFE12:
 592              		.section	.text.fun_b23,"ax",%progbits
 593              		.align	1
 594              		.global	fun_b23
 595              		.syntax unified
 596              		.thumb
 597              		.thumb_func
 599              	fun_b23:
 600              	.LFB13:
 165:API/Menu.c    **** 
 166:API/Menu.c    **** void fun_b23()    
 167:API/Menu.c    **** {	
 601              		.loc 1 167 1 is_stmt 1 view -0
 602              		.cfi_startproc
 603              		@ args = 0, pretend = 0, frame = 0
 604              		@ frame_needed = 0, uses_anonymous_args = 0
 605 0000 08B5     		push	{r3, lr}
 606              	.LCFI11:
 607              		.cfi_def_cfa_offset 8
 608              		.cfi_offset 3, -8
 609              		.cfi_offset 14, -4
 168:API/Menu.c    **** 	GUI_DispStringAt("STM32",0,16);
 610              		.loc 1 168 2 view .LVU62
 611 0002 1022     		movs	r2, #16
 612 0004 0021     		movs	r1, #0
 613 0006 0948     		ldr	r0, .L39
 614 0008 FFF7FEFF 		bl	GUI_DispStringAt
 615              	.LVL43:
 169:API/Menu.c    **** 	GUI_DispStringAt("Multi Menu Test",0,40);
 616              		.loc 1 169 2 view .LVU63
 617 000c 2822     		movs	r2, #40
 618 000e 0021     		movs	r1, #0
 619 0010 0748     		ldr	r0, .L39+4
 620 0012 FFF7FEFF 		bl	GUI_DispStringAt
 621              	.LVL44:
 170:API/Menu.c    **** 	GUI_DispStringAt("",0,64);
 622              		.loc 1 170 2 view .LVU64
 623 0016 4022     		movs	r2, #64
 624 0018 0021     		movs	r1, #0
 625 001a 0648     		ldr	r0, .L39+8
 626 001c FFF7FEFF 		bl	GUI_DispStringAt
 627              	.LVL45:
 171:API/Menu.c    **** 	GUI_DispStringAt("Enter to Test",0,88);																							
 628              		.loc 1 171 2 view .LVU65
 629 0020 5822     		movs	r2, #88
 630 0022 0021     		movs	r1, #0
 631 0024 0448     		ldr	r0, .L39+12
ARM GAS  F:\msys64\tmp\ccTIrpu5.s 			page 15


 632 0026 FFF7FEFF 		bl	GUI_DispStringAt
 633              	.LVL46:
 172:API/Menu.c    **** }
 634              		.loc 1 172 1 is_stmt 0 view .LVU66
 635 002a 08BD     		pop	{r3, pc}
 636              	.L40:
 637              		.align	2
 638              	.L39:
 639 002c 00000000 		.word	.LC4
 640 0030 08000000 		.word	.LC5
 641 0034 18000000 		.word	.LC6
 642 0038 1C000000 		.word	.LC7
 643              		.cfi_endproc
 644              	.LFE13:
 646              		.section	.text.fun_b24,"ax",%progbits
 647              		.align	1
 648              		.global	fun_b24
 649              		.syntax unified
 650              		.thumb
 651              		.thumb_func
 653              	fun_b24:
 654              	.LFB14:
 173:API/Menu.c    **** 
 174:API/Menu.c    **** void fun_b24()    
 175:API/Menu.c    **** {	
 655              		.loc 1 175 1 is_stmt 1 view -0
 656              		.cfi_startproc
 657              		@ args = 0, pretend = 0, frame = 0
 658              		@ frame_needed = 0, uses_anonymous_args = 0
 659 0000 08B5     		push	{r3, lr}
 660              	.LCFI12:
 661              		.cfi_def_cfa_offset 8
 662              		.cfi_offset 3, -8
 663              		.cfi_offset 14, -4
 176:API/Menu.c    **** 	GUI_DispStringAt("STM32",0,16);
 664              		.loc 1 176 2 view .LVU68
 665 0002 1022     		movs	r2, #16
 666 0004 0021     		movs	r1, #0
 667 0006 0948     		ldr	r0, .L43
 668 0008 FFF7FEFF 		bl	GUI_DispStringAt
 669              	.LVL47:
 177:API/Menu.c    **** 	GUI_DispStringAt("Multi Menu Test",0,40);
 670              		.loc 1 177 2 view .LVU69
 671 000c 2822     		movs	r2, #40
 672 000e 0021     		movs	r1, #0
 673 0010 0748     		ldr	r0, .L43+4
 674 0012 FFF7FEFF 		bl	GUI_DispStringAt
 675              	.LVL48:
 178:API/Menu.c    **** 	GUI_DispStringAt("",0,64);
 676              		.loc 1 178 2 view .LVU70
 677 0016 4022     		movs	r2, #64
 678 0018 0021     		movs	r1, #0
 679 001a 0648     		ldr	r0, .L43+8
 680 001c FFF7FEFF 		bl	GUI_DispStringAt
 681              	.LVL49:
 179:API/Menu.c    **** 	GUI_DispStringAt("Enter to Test",0,88);																				
 682              		.loc 1 179 2 view .LVU71
ARM GAS  F:\msys64\tmp\ccTIrpu5.s 			page 16


 683 0020 5822     		movs	r2, #88
 684 0022 0021     		movs	r1, #0
 685 0024 0448     		ldr	r0, .L43+12
 686 0026 FFF7FEFF 		bl	GUI_DispStringAt
 687              	.LVL50:
 180:API/Menu.c    **** }
 688              		.loc 1 180 1 is_stmt 0 view .LVU72
 689 002a 08BD     		pop	{r3, pc}
 690              	.L44:
 691              		.align	2
 692              	.L43:
 693 002c 00000000 		.word	.LC4
 694 0030 08000000 		.word	.LC5
 695 0034 18000000 		.word	.LC6
 696 0038 1C000000 		.word	.LC7
 697              		.cfi_endproc
 698              	.LFE14:
 700              		.section	.text.fun_c21,"ax",%progbits
 701              		.align	1
 702              		.global	fun_c21
 703              		.syntax unified
 704              		.thumb
 705              		.thumb_func
 707              	fun_c21:
 708              	.LFB15:
 181:API/Menu.c    **** 
 182:API/Menu.c    **** void fun_c21()    
 183:API/Menu.c    **** {	
 709              		.loc 1 183 1 is_stmt 1 view -0
 710              		.cfi_startproc
 711              		@ args = 0, pretend = 0, frame = 0
 712              		@ frame_needed = 0, uses_anonymous_args = 0
 713 0000 08B5     		push	{r3, lr}
 714              	.LCFI13:
 715              		.cfi_def_cfa_offset 8
 716              		.cfi_offset 3, -8
 717              		.cfi_offset 14, -4
 184:API/Menu.c    **** 	GUI_DispStringAt("STM32",0,16);
 718              		.loc 1 184 2 view .LVU74
 719 0002 1022     		movs	r2, #16
 720 0004 0021     		movs	r1, #0
 721 0006 0948     		ldr	r0, .L47
 722 0008 FFF7FEFF 		bl	GUI_DispStringAt
 723              	.LVL51:
 185:API/Menu.c    **** 	GUI_DispStringAt("Multi Menu Test",0,40);
 724              		.loc 1 185 2 view .LVU75
 725 000c 2822     		movs	r2, #40
 726 000e 0021     		movs	r1, #0
 727 0010 0748     		ldr	r0, .L47+4
 728 0012 FFF7FEFF 		bl	GUI_DispStringAt
 729              	.LVL52:
 186:API/Menu.c    **** 	GUI_DispStringAt("",0,64);
 730              		.loc 1 186 2 view .LVU76
 731 0016 4022     		movs	r2, #64
 732 0018 0021     		movs	r1, #0
 733 001a 0648     		ldr	r0, .L47+8
 734 001c FFF7FEFF 		bl	GUI_DispStringAt
ARM GAS  F:\msys64\tmp\ccTIrpu5.s 			page 17


 735              	.LVL53:
 187:API/Menu.c    **** 	GUI_DispStringAt("Enter to Test",0,88);																					
 736              		.loc 1 187 2 view .LVU77
 737 0020 5822     		movs	r2, #88
 738 0022 0021     		movs	r1, #0
 739 0024 0448     		ldr	r0, .L47+12
 740 0026 FFF7FEFF 		bl	GUI_DispStringAt
 741              	.LVL54:
 188:API/Menu.c    **** }
 742              		.loc 1 188 1 is_stmt 0 view .LVU78
 743 002a 08BD     		pop	{r3, pc}
 744              	.L48:
 745              		.align	2
 746              	.L47:
 747 002c 00000000 		.word	.LC4
 748 0030 08000000 		.word	.LC5
 749 0034 18000000 		.word	.LC6
 750 0038 1C000000 		.word	.LC7
 751              		.cfi_endproc
 752              	.LFE15:
 754              		.section	.text.fun_c22,"ax",%progbits
 755              		.align	1
 756              		.global	fun_c22
 757              		.syntax unified
 758              		.thumb
 759              		.thumb_func
 761              	fun_c22:
 762              	.LFB16:
 189:API/Menu.c    **** 
 190:API/Menu.c    **** void fun_c22()    
 191:API/Menu.c    **** {	
 763              		.loc 1 191 1 is_stmt 1 view -0
 764              		.cfi_startproc
 765              		@ args = 0, pretend = 0, frame = 0
 766              		@ frame_needed = 0, uses_anonymous_args = 0
 767 0000 08B5     		push	{r3, lr}
 768              	.LCFI14:
 769              		.cfi_def_cfa_offset 8
 770              		.cfi_offset 3, -8
 771              		.cfi_offset 14, -4
 192:API/Menu.c    **** 	GUI_DispStringAt("STM32",0,16);
 772              		.loc 1 192 2 view .LVU80
 773 0002 1022     		movs	r2, #16
 774 0004 0021     		movs	r1, #0
 775 0006 0948     		ldr	r0, .L51
 776 0008 FFF7FEFF 		bl	GUI_DispStringAt
 777              	.LVL55:
 193:API/Menu.c    **** 	GUI_DispStringAt("Multi Menu Test",0,40);
 778              		.loc 1 193 2 view .LVU81
 779 000c 2822     		movs	r2, #40
 780 000e 0021     		movs	r1, #0
 781 0010 0748     		ldr	r0, .L51+4
 782 0012 FFF7FEFF 		bl	GUI_DispStringAt
 783              	.LVL56:
 194:API/Menu.c    **** 	GUI_DispStringAt("",0,64);
 784              		.loc 1 194 2 view .LVU82
 785 0016 4022     		movs	r2, #64
ARM GAS  F:\msys64\tmp\ccTIrpu5.s 			page 18


 786 0018 0021     		movs	r1, #0
 787 001a 0648     		ldr	r0, .L51+8
 788 001c FFF7FEFF 		bl	GUI_DispStringAt
 789              	.LVL57:
 195:API/Menu.c    **** 	GUI_DispStringAt("Enter to Test",0,88);																							
 790              		.loc 1 195 2 view .LVU83
 791 0020 5822     		movs	r2, #88
 792 0022 0021     		movs	r1, #0
 793 0024 0448     		ldr	r0, .L51+12
 794 0026 FFF7FEFF 		bl	GUI_DispStringAt
 795              	.LVL58:
 196:API/Menu.c    **** }
 796              		.loc 1 196 1 is_stmt 0 view .LVU84
 797 002a 08BD     		pop	{r3, pc}
 798              	.L52:
 799              		.align	2
 800              	.L51:
 801 002c 00000000 		.word	.LC4
 802 0030 08000000 		.word	.LC5
 803 0034 18000000 		.word	.LC6
 804 0038 1C000000 		.word	.LC7
 805              		.cfi_endproc
 806              	.LFE16:
 808              		.section	.text.fun_c23,"ax",%progbits
 809              		.align	1
 810              		.global	fun_c23
 811              		.syntax unified
 812              		.thumb
 813              		.thumb_func
 815              	fun_c23:
 816              	.LFB17:
 197:API/Menu.c    **** 
 198:API/Menu.c    **** void fun_c23()    
 199:API/Menu.c    **** {	
 817              		.loc 1 199 1 is_stmt 1 view -0
 818              		.cfi_startproc
 819              		@ args = 0, pretend = 0, frame = 0
 820              		@ frame_needed = 0, uses_anonymous_args = 0
 821 0000 08B5     		push	{r3, lr}
 822              	.LCFI15:
 823              		.cfi_def_cfa_offset 8
 824              		.cfi_offset 3, -8
 825              		.cfi_offset 14, -4
 200:API/Menu.c    **** 	GUI_DispStringAt("STM32",0,16);
 826              		.loc 1 200 2 view .LVU86
 827 0002 1022     		movs	r2, #16
 828 0004 0021     		movs	r1, #0
 829 0006 0948     		ldr	r0, .L55
 830 0008 FFF7FEFF 		bl	GUI_DispStringAt
 831              	.LVL59:
 201:API/Menu.c    **** 	GUI_DispStringAt("Multi Menu Test",0,40);
 832              		.loc 1 201 2 view .LVU87
 833 000c 2822     		movs	r2, #40
 834 000e 0021     		movs	r1, #0
 835 0010 0748     		ldr	r0, .L55+4
 836 0012 FFF7FEFF 		bl	GUI_DispStringAt
 837              	.LVL60:
ARM GAS  F:\msys64\tmp\ccTIrpu5.s 			page 19


 202:API/Menu.c    **** 	GUI_DispStringAt("",0,64);
 838              		.loc 1 202 2 view .LVU88
 839 0016 4022     		movs	r2, #64
 840 0018 0021     		movs	r1, #0
 841 001a 0648     		ldr	r0, .L55+8
 842 001c FFF7FEFF 		bl	GUI_DispStringAt
 843              	.LVL61:
 203:API/Menu.c    **** 	GUI_DispStringAt("Enter to Test",0,88);																						
 844              		.loc 1 203 2 view .LVU89
 845 0020 5822     		movs	r2, #88
 846 0022 0021     		movs	r1, #0
 847 0024 0448     		ldr	r0, .L55+12
 848 0026 FFF7FEFF 		bl	GUI_DispStringAt
 849              	.LVL62:
 204:API/Menu.c    **** }
 850              		.loc 1 204 1 is_stmt 0 view .LVU90
 851 002a 08BD     		pop	{r3, pc}
 852              	.L56:
 853              		.align	2
 854              	.L55:
 855 002c 00000000 		.word	.LC4
 856 0030 08000000 		.word	.LC5
 857 0034 18000000 		.word	.LC6
 858 0038 1C000000 		.word	.LC7
 859              		.cfi_endproc
 860              	.LFE17:
 862              		.section	.text.fun_c24,"ax",%progbits
 863              		.align	1
 864              		.global	fun_c24
 865              		.syntax unified
 866              		.thumb
 867              		.thumb_func
 869              	fun_c24:
 870              	.LFB18:
 205:API/Menu.c    **** 
 206:API/Menu.c    **** void fun_c24()    
 207:API/Menu.c    **** {	
 871              		.loc 1 207 1 is_stmt 1 view -0
 872              		.cfi_startproc
 873              		@ args = 0, pretend = 0, frame = 0
 874              		@ frame_needed = 0, uses_anonymous_args = 0
 875 0000 08B5     		push	{r3, lr}
 876              	.LCFI16:
 877              		.cfi_def_cfa_offset 8
 878              		.cfi_offset 3, -8
 879              		.cfi_offset 14, -4
 208:API/Menu.c    **** 	GUI_DispStringAt("STM32",0,16);
 880              		.loc 1 208 2 view .LVU92
 881 0002 1022     		movs	r2, #16
 882 0004 0021     		movs	r1, #0
 883 0006 0948     		ldr	r0, .L59
 884 0008 FFF7FEFF 		bl	GUI_DispStringAt
 885              	.LVL63:
 209:API/Menu.c    **** 	GUI_DispStringAt("Multi Menu Test",0,40);
 886              		.loc 1 209 2 view .LVU93
 887 000c 2822     		movs	r2, #40
 888 000e 0021     		movs	r1, #0
ARM GAS  F:\msys64\tmp\ccTIrpu5.s 			page 20


 889 0010 0748     		ldr	r0, .L59+4
 890 0012 FFF7FEFF 		bl	GUI_DispStringAt
 891              	.LVL64:
 210:API/Menu.c    **** 	GUI_DispStringAt("",0,64);
 892              		.loc 1 210 2 view .LVU94
 893 0016 4022     		movs	r2, #64
 894 0018 0021     		movs	r1, #0
 895 001a 0648     		ldr	r0, .L59+8
 896 001c FFF7FEFF 		bl	GUI_DispStringAt
 897              	.LVL65:
 211:API/Menu.c    **** 	GUI_DispStringAt("Enter to Test",0,88);																				
 898              		.loc 1 211 2 view .LVU95
 899 0020 5822     		movs	r2, #88
 900 0022 0021     		movs	r1, #0
 901 0024 0448     		ldr	r0, .L59+12
 902 0026 FFF7FEFF 		bl	GUI_DispStringAt
 903              	.LVL66:
 212:API/Menu.c    **** }
 904              		.loc 1 212 1 is_stmt 0 view .LVU96
 905 002a 08BD     		pop	{r3, pc}
 906              	.L60:
 907              		.align	2
 908              	.L59:
 909 002c 00000000 		.word	.LC4
 910 0030 08000000 		.word	.LC5
 911 0034 18000000 		.word	.LC6
 912 0038 1C000000 		.word	.LC7
 913              		.cfi_endproc
 914              	.LFE18:
 916              		.section	.text.fun_a31,"ax",%progbits
 917              		.align	1
 918              		.global	fun_a31
 919              		.syntax unified
 920              		.thumb
 921              		.thumb_func
 923              	fun_a31:
 924              	.LFB19:
 213:API/Menu.c    **** 
 214:API/Menu.c    **** /*
 215:API/Menu.c    ****     ***** index_3 *****
 216:API/Menu.c    **** */
 217:API/Menu.c    **** 
 218:API/Menu.c    **** void fun_a31()    
 219:API/Menu.c    **** {	
 925              		.loc 1 219 1 is_stmt 1 view -0
 926              		.cfi_startproc
 927              		@ args = 0, pretend = 0, frame = 0
 928              		@ frame_needed = 0, uses_anonymous_args = 0
 929 0000 08B5     		push	{r3, lr}
 930              	.LCFI17:
 931              		.cfi_def_cfa_offset 8
 932              		.cfi_offset 3, -8
 933              		.cfi_offset 14, -4
 220:API/Menu.c    **** 	GUI_DispStringAt("STM32",0,16);
 934              		.loc 1 220 2 view .LVU98
 935 0002 1022     		movs	r2, #16
 936 0004 0021     		movs	r1, #0
ARM GAS  F:\msys64\tmp\ccTIrpu5.s 			page 21


 937 0006 0948     		ldr	r0, .L63
 938 0008 FFF7FEFF 		bl	GUI_DispStringAt
 939              	.LVL67:
 221:API/Menu.c    **** 	GUI_DispStringAt("Multi Menu Test",0,40);
 940              		.loc 1 221 2 view .LVU99
 941 000c 2822     		movs	r2, #40
 942 000e 0021     		movs	r1, #0
 943 0010 0748     		ldr	r0, .L63+4
 944 0012 FFF7FEFF 		bl	GUI_DispStringAt
 945              	.LVL68:
 222:API/Menu.c    **** 	GUI_DispStringAt("",0,64);
 946              		.loc 1 222 2 view .LVU100
 947 0016 4022     		movs	r2, #64
 948 0018 0021     		movs	r1, #0
 949 001a 0648     		ldr	r0, .L63+8
 950 001c FFF7FEFF 		bl	GUI_DispStringAt
 951              	.LVL69:
 223:API/Menu.c    **** 	GUI_DispStringAt("Enter to Test",0,88);																						
 952              		.loc 1 223 2 view .LVU101
 953 0020 5822     		movs	r2, #88
 954 0022 0021     		movs	r1, #0
 955 0024 0448     		ldr	r0, .L63+12
 956 0026 FFF7FEFF 		bl	GUI_DispStringAt
 957              	.LVL70:
 224:API/Menu.c    **** }
 958              		.loc 1 224 1 is_stmt 0 view .LVU102
 959 002a 08BD     		pop	{r3, pc}
 960              	.L64:
 961              		.align	2
 962              	.L63:
 963 002c 00000000 		.word	.LC4
 964 0030 08000000 		.word	.LC5
 965 0034 18000000 		.word	.LC6
 966 0038 1C000000 		.word	.LC7
 967              		.cfi_endproc
 968              	.LFE19:
 970              		.section	.text.fun_a32,"ax",%progbits
 971              		.align	1
 972              		.global	fun_a32
 973              		.syntax unified
 974              		.thumb
 975              		.thumb_func
 977              	fun_a32:
 978              	.LFB20:
 225:API/Menu.c    **** 
 226:API/Menu.c    **** void fun_a32()    
 227:API/Menu.c    **** {	
 979              		.loc 1 227 1 is_stmt 1 view -0
 980              		.cfi_startproc
 981              		@ args = 0, pretend = 0, frame = 0
 982              		@ frame_needed = 0, uses_anonymous_args = 0
 983 0000 08B5     		push	{r3, lr}
 984              	.LCFI18:
 985              		.cfi_def_cfa_offset 8
 986              		.cfi_offset 3, -8
 987              		.cfi_offset 14, -4
 228:API/Menu.c    **** 	GUI_DispStringAt("STM32",0,16);
ARM GAS  F:\msys64\tmp\ccTIrpu5.s 			page 22


 988              		.loc 1 228 2 view .LVU104
 989 0002 1022     		movs	r2, #16
 990 0004 0021     		movs	r1, #0
 991 0006 0948     		ldr	r0, .L67
 992 0008 FFF7FEFF 		bl	GUI_DispStringAt
 993              	.LVL71:
 229:API/Menu.c    **** 	GUI_DispStringAt("Multi Menu Test",0,40);
 994              		.loc 1 229 2 view .LVU105
 995 000c 2822     		movs	r2, #40
 996 000e 0021     		movs	r1, #0
 997 0010 0748     		ldr	r0, .L67+4
 998 0012 FFF7FEFF 		bl	GUI_DispStringAt
 999              	.LVL72:
 230:API/Menu.c    **** 	GUI_DispStringAt("",0,64);
 1000              		.loc 1 230 2 view .LVU106
 1001 0016 4022     		movs	r2, #64
 1002 0018 0021     		movs	r1, #0
 1003 001a 0648     		ldr	r0, .L67+8
 1004 001c FFF7FEFF 		bl	GUI_DispStringAt
 1005              	.LVL73:
 231:API/Menu.c    **** 	GUI_DispStringAt("Enter to Test",0,88);																					
 1006              		.loc 1 231 2 view .LVU107
 1007 0020 5822     		movs	r2, #88
 1008 0022 0021     		movs	r1, #0
 1009 0024 0448     		ldr	r0, .L67+12
 1010 0026 FFF7FEFF 		bl	GUI_DispStringAt
 1011              	.LVL74:
 232:API/Menu.c    **** }
 1012              		.loc 1 232 1 is_stmt 0 view .LVU108
 1013 002a 08BD     		pop	{r3, pc}
 1014              	.L68:
 1015              		.align	2
 1016              	.L67:
 1017 002c 00000000 		.word	.LC4
 1018 0030 08000000 		.word	.LC5
 1019 0034 18000000 		.word	.LC6
 1020 0038 1C000000 		.word	.LC7
 1021              		.cfi_endproc
 1022              	.LFE20:
 1024              		.section	.text.fun_a33,"ax",%progbits
 1025              		.align	1
 1026              		.global	fun_a33
 1027              		.syntax unified
 1028              		.thumb
 1029              		.thumb_func
 1031              	fun_a33:
 1032              	.LFB21:
 233:API/Menu.c    **** 
 234:API/Menu.c    **** void fun_a33()    
 235:API/Menu.c    **** {	
 1033              		.loc 1 235 1 is_stmt 1 view -0
 1034              		.cfi_startproc
 1035              		@ args = 0, pretend = 0, frame = 0
 1036              		@ frame_needed = 0, uses_anonymous_args = 0
 1037 0000 08B5     		push	{r3, lr}
 1038              	.LCFI19:
 1039              		.cfi_def_cfa_offset 8
ARM GAS  F:\msys64\tmp\ccTIrpu5.s 			page 23


 1040              		.cfi_offset 3, -8
 1041              		.cfi_offset 14, -4
 236:API/Menu.c    **** 	GUI_DispStringAt("STM32",0,16);
 1042              		.loc 1 236 2 view .LVU110
 1043 0002 1022     		movs	r2, #16
 1044 0004 0021     		movs	r1, #0
 1045 0006 0948     		ldr	r0, .L71
 1046 0008 FFF7FEFF 		bl	GUI_DispStringAt
 1047              	.LVL75:
 237:API/Menu.c    **** 	GUI_DispStringAt("Multi Menu Test",0,40);
 1048              		.loc 1 237 2 view .LVU111
 1049 000c 2822     		movs	r2, #40
 1050 000e 0021     		movs	r1, #0
 1051 0010 0748     		ldr	r0, .L71+4
 1052 0012 FFF7FEFF 		bl	GUI_DispStringAt
 1053              	.LVL76:
 238:API/Menu.c    **** 	GUI_DispStringAt("",0,64);
 1054              		.loc 1 238 2 view .LVU112
 1055 0016 4022     		movs	r2, #64
 1056 0018 0021     		movs	r1, #0
 1057 001a 0648     		ldr	r0, .L71+8
 1058 001c FFF7FEFF 		bl	GUI_DispStringAt
 1059              	.LVL77:
 239:API/Menu.c    **** 	GUI_DispStringAt("Enter to Test",0,88);																							
 1060              		.loc 1 239 2 view .LVU113
 1061 0020 5822     		movs	r2, #88
 1062 0022 0021     		movs	r1, #0
 1063 0024 0448     		ldr	r0, .L71+12
 1064 0026 FFF7FEFF 		bl	GUI_DispStringAt
 1065              	.LVL78:
 240:API/Menu.c    **** }
 1066              		.loc 1 240 1 is_stmt 0 view .LVU114
 1067 002a 08BD     		pop	{r3, pc}
 1068              	.L72:
 1069              		.align	2
 1070              	.L71:
 1071 002c 00000000 		.word	.LC4
 1072 0030 08000000 		.word	.LC5
 1073 0034 18000000 		.word	.LC6
 1074 0038 1C000000 		.word	.LC7
 1075              		.cfi_endproc
 1076              	.LFE21:
 1078              		.section	.text.fun_b31,"ax",%progbits
 1079              		.align	1
 1080              		.global	fun_b31
 1081              		.syntax unified
 1082              		.thumb
 1083              		.thumb_func
 1085              	fun_b31:
 1086              	.LFB22:
 241:API/Menu.c    **** 
 242:API/Menu.c    **** void fun_b31()    
 243:API/Menu.c    **** {	
 1087              		.loc 1 243 1 is_stmt 1 view -0
 1088              		.cfi_startproc
 1089              		@ args = 0, pretend = 0, frame = 0
 1090              		@ frame_needed = 0, uses_anonymous_args = 0
ARM GAS  F:\msys64\tmp\ccTIrpu5.s 			page 24


 1091 0000 08B5     		push	{r3, lr}
 1092              	.LCFI20:
 1093              		.cfi_def_cfa_offset 8
 1094              		.cfi_offset 3, -8
 1095              		.cfi_offset 14, -4
 244:API/Menu.c    **** 	GUI_DispStringAt("STM32",0,16);
 1096              		.loc 1 244 2 view .LVU116
 1097 0002 1022     		movs	r2, #16
 1098 0004 0021     		movs	r1, #0
 1099 0006 0948     		ldr	r0, .L75
 1100 0008 FFF7FEFF 		bl	GUI_DispStringAt
 1101              	.LVL79:
 245:API/Menu.c    **** 	GUI_DispStringAt("Multi Menu Test",0,40);
 1102              		.loc 1 245 2 view .LVU117
 1103 000c 2822     		movs	r2, #40
 1104 000e 0021     		movs	r1, #0
 1105 0010 0748     		ldr	r0, .L75+4
 1106 0012 FFF7FEFF 		bl	GUI_DispStringAt
 1107              	.LVL80:
 246:API/Menu.c    **** 	GUI_DispStringAt("",0,64);
 1108              		.loc 1 246 2 view .LVU118
 1109 0016 4022     		movs	r2, #64
 1110 0018 0021     		movs	r1, #0
 1111 001a 0648     		ldr	r0, .L75+8
 1112 001c FFF7FEFF 		bl	GUI_DispStringAt
 1113              	.LVL81:
 247:API/Menu.c    **** 	GUI_DispStringAt("Enter to Test",0,88);																							
 1114              		.loc 1 247 2 view .LVU119
 1115 0020 5822     		movs	r2, #88
 1116 0022 0021     		movs	r1, #0
 1117 0024 0448     		ldr	r0, .L75+12
 1118 0026 FFF7FEFF 		bl	GUI_DispStringAt
 1119              	.LVL82:
 248:API/Menu.c    **** }
 1120              		.loc 1 248 1 is_stmt 0 view .LVU120
 1121 002a 08BD     		pop	{r3, pc}
 1122              	.L76:
 1123              		.align	2
 1124              	.L75:
 1125 002c 00000000 		.word	.LC4
 1126 0030 08000000 		.word	.LC5
 1127 0034 18000000 		.word	.LC6
 1128 0038 1C000000 		.word	.LC7
 1129              		.cfi_endproc
 1130              	.LFE22:
 1132              		.section	.text.fun_b32,"ax",%progbits
 1133              		.align	1
 1134              		.global	fun_b32
 1135              		.syntax unified
 1136              		.thumb
 1137              		.thumb_func
 1139              	fun_b32:
 1140              	.LFB23:
 249:API/Menu.c    **** 
 250:API/Menu.c    **** void fun_b32()    
 251:API/Menu.c    **** {	
 1141              		.loc 1 251 1 is_stmt 1 view -0
ARM GAS  F:\msys64\tmp\ccTIrpu5.s 			page 25


 1142              		.cfi_startproc
 1143              		@ args = 0, pretend = 0, frame = 0
 1144              		@ frame_needed = 0, uses_anonymous_args = 0
 1145 0000 08B5     		push	{r3, lr}
 1146              	.LCFI21:
 1147              		.cfi_def_cfa_offset 8
 1148              		.cfi_offset 3, -8
 1149              		.cfi_offset 14, -4
 252:API/Menu.c    **** 	GUI_DispStringAt("STM32",0,16);
 1150              		.loc 1 252 2 view .LVU122
 1151 0002 1022     		movs	r2, #16
 1152 0004 0021     		movs	r1, #0
 1153 0006 0948     		ldr	r0, .L79
 1154 0008 FFF7FEFF 		bl	GUI_DispStringAt
 1155              	.LVL83:
 253:API/Menu.c    **** 	GUI_DispStringAt("Multi Menu Test",0,40);
 1156              		.loc 1 253 2 view .LVU123
 1157 000c 2822     		movs	r2, #40
 1158 000e 0021     		movs	r1, #0
 1159 0010 0748     		ldr	r0, .L79+4
 1160 0012 FFF7FEFF 		bl	GUI_DispStringAt
 1161              	.LVL84:
 254:API/Menu.c    **** 	GUI_DispStringAt("",0,64);
 1162              		.loc 1 254 2 view .LVU124
 1163 0016 4022     		movs	r2, #64
 1164 0018 0021     		movs	r1, #0
 1165 001a 0648     		ldr	r0, .L79+8
 1166 001c FFF7FEFF 		bl	GUI_DispStringAt
 1167              	.LVL85:
 255:API/Menu.c    **** 	GUI_DispStringAt("Enter to Test",0,88);																							
 1168              		.loc 1 255 2 view .LVU125
 1169 0020 5822     		movs	r2, #88
 1170 0022 0021     		movs	r1, #0
 1171 0024 0448     		ldr	r0, .L79+12
 1172 0026 FFF7FEFF 		bl	GUI_DispStringAt
 1173              	.LVL86:
 256:API/Menu.c    **** }
 1174              		.loc 1 256 1 is_stmt 0 view .LVU126
 1175 002a 08BD     		pop	{r3, pc}
 1176              	.L80:
 1177              		.align	2
 1178              	.L79:
 1179 002c 00000000 		.word	.LC4
 1180 0030 08000000 		.word	.LC5
 1181 0034 18000000 		.word	.LC6
 1182 0038 1C000000 		.word	.LC7
 1183              		.cfi_endproc
 1184              	.LFE23:
 1186              		.section	.text.fun_b33,"ax",%progbits
 1187              		.align	1
 1188              		.global	fun_b33
 1189              		.syntax unified
 1190              		.thumb
 1191              		.thumb_func
 1193              	fun_b33:
 1194              	.LFB24:
 257:API/Menu.c    **** 
ARM GAS  F:\msys64\tmp\ccTIrpu5.s 			page 26


 258:API/Menu.c    **** void fun_b33()    
 259:API/Menu.c    **** {	
 1195              		.loc 1 259 1 is_stmt 1 view -0
 1196              		.cfi_startproc
 1197              		@ args = 0, pretend = 0, frame = 0
 1198              		@ frame_needed = 0, uses_anonymous_args = 0
 1199 0000 08B5     		push	{r3, lr}
 1200              	.LCFI22:
 1201              		.cfi_def_cfa_offset 8
 1202              		.cfi_offset 3, -8
 1203              		.cfi_offset 14, -4
 260:API/Menu.c    **** 	GUI_DispStringAt("STM32",0,16);
 1204              		.loc 1 260 2 view .LVU128
 1205 0002 1022     		movs	r2, #16
 1206 0004 0021     		movs	r1, #0
 1207 0006 0948     		ldr	r0, .L83
 1208 0008 FFF7FEFF 		bl	GUI_DispStringAt
 1209              	.LVL87:
 261:API/Menu.c    **** 	GUI_DispStringAt("Multi Menu Test",0,40);
 1210              		.loc 1 261 2 view .LVU129
 1211 000c 2822     		movs	r2, #40
 1212 000e 0021     		movs	r1, #0
 1213 0010 0748     		ldr	r0, .L83+4
 1214 0012 FFF7FEFF 		bl	GUI_DispStringAt
 1215              	.LVL88:
 262:API/Menu.c    **** 	GUI_DispStringAt("",0,64);
 1216              		.loc 1 262 2 view .LVU130
 1217 0016 4022     		movs	r2, #64
 1218 0018 0021     		movs	r1, #0
 1219 001a 0648     		ldr	r0, .L83+8
 1220 001c FFF7FEFF 		bl	GUI_DispStringAt
 1221              	.LVL89:
 263:API/Menu.c    **** 	GUI_DispStringAt("Enter to Test",0,88);																								
 1222              		.loc 1 263 2 view .LVU131
 1223 0020 5822     		movs	r2, #88
 1224 0022 0021     		movs	r1, #0
 1225 0024 0448     		ldr	r0, .L83+12
 1226 0026 FFF7FEFF 		bl	GUI_DispStringAt
 1227              	.LVL90:
 264:API/Menu.c    **** }
 1228              		.loc 1 264 1 is_stmt 0 view .LVU132
 1229 002a 08BD     		pop	{r3, pc}
 1230              	.L84:
 1231              		.align	2
 1232              	.L83:
 1233 002c 00000000 		.word	.LC4
 1234 0030 08000000 		.word	.LC5
 1235 0034 18000000 		.word	.LC6
 1236 0038 1C000000 		.word	.LC7
 1237              		.cfi_endproc
 1238              	.LFE24:
 1240              		.section	.text.fun_c31,"ax",%progbits
 1241              		.align	1
 1242              		.global	fun_c31
 1243              		.syntax unified
 1244              		.thumb
 1245              		.thumb_func
ARM GAS  F:\msys64\tmp\ccTIrpu5.s 			page 27


 1247              	fun_c31:
 1248              	.LFB25:
 265:API/Menu.c    **** 
 266:API/Menu.c    **** void fun_c31()    
 267:API/Menu.c    **** {	
 1249              		.loc 1 267 1 is_stmt 1 view -0
 1250              		.cfi_startproc
 1251              		@ args = 0, pretend = 0, frame = 0
 1252              		@ frame_needed = 0, uses_anonymous_args = 0
 1253 0000 08B5     		push	{r3, lr}
 1254              	.LCFI23:
 1255              		.cfi_def_cfa_offset 8
 1256              		.cfi_offset 3, -8
 1257              		.cfi_offset 14, -4
 268:API/Menu.c    **** 	GUI_DispStringAt("STM32",0,16);
 1258              		.loc 1 268 2 view .LVU134
 1259 0002 1022     		movs	r2, #16
 1260 0004 0021     		movs	r1, #0
 1261 0006 0948     		ldr	r0, .L87
 1262 0008 FFF7FEFF 		bl	GUI_DispStringAt
 1263              	.LVL91:
 269:API/Menu.c    **** 	GUI_DispStringAt("Multi Menu Test",0,40);
 1264              		.loc 1 269 2 view .LVU135
 1265 000c 2822     		movs	r2, #40
 1266 000e 0021     		movs	r1, #0
 1267 0010 0748     		ldr	r0, .L87+4
 1268 0012 FFF7FEFF 		bl	GUI_DispStringAt
 1269              	.LVL92:
 270:API/Menu.c    **** 	GUI_DispStringAt("",0,64);
 1270              		.loc 1 270 2 view .LVU136
 1271 0016 4022     		movs	r2, #64
 1272 0018 0021     		movs	r1, #0
 1273 001a 0648     		ldr	r0, .L87+8
 1274 001c FFF7FEFF 		bl	GUI_DispStringAt
 1275              	.LVL93:
 271:API/Menu.c    **** 	GUI_DispStringAt("Enter to Test",0,88);																							
 1276              		.loc 1 271 2 view .LVU137
 1277 0020 5822     		movs	r2, #88
 1278 0022 0021     		movs	r1, #0
 1279 0024 0448     		ldr	r0, .L87+12
 1280 0026 FFF7FEFF 		bl	GUI_DispStringAt
 1281              	.LVL94:
 272:API/Menu.c    **** }
 1282              		.loc 1 272 1 is_stmt 0 view .LVU138
 1283 002a 08BD     		pop	{r3, pc}
 1284              	.L88:
 1285              		.align	2
 1286              	.L87:
 1287 002c 00000000 		.word	.LC4
 1288 0030 08000000 		.word	.LC5
 1289 0034 18000000 		.word	.LC6
 1290 0038 1C000000 		.word	.LC7
 1291              		.cfi_endproc
 1292              	.LFE25:
 1294              		.section	.text.fun_c32,"ax",%progbits
 1295              		.align	1
 1296              		.global	fun_c32
ARM GAS  F:\msys64\tmp\ccTIrpu5.s 			page 28


 1297              		.syntax unified
 1298              		.thumb
 1299              		.thumb_func
 1301              	fun_c32:
 1302              	.LFB26:
 273:API/Menu.c    **** 
 274:API/Menu.c    **** void fun_c32()    
 275:API/Menu.c    **** {	
 1303              		.loc 1 275 1 is_stmt 1 view -0
 1304              		.cfi_startproc
 1305              		@ args = 0, pretend = 0, frame = 0
 1306              		@ frame_needed = 0, uses_anonymous_args = 0
 1307 0000 08B5     		push	{r3, lr}
 1308              	.LCFI24:
 1309              		.cfi_def_cfa_offset 8
 1310              		.cfi_offset 3, -8
 1311              		.cfi_offset 14, -4
 276:API/Menu.c    **** 	GUI_DispStringAt("STM32",0,16);
 1312              		.loc 1 276 2 view .LVU140
 1313 0002 1022     		movs	r2, #16
 1314 0004 0021     		movs	r1, #0
 1315 0006 0948     		ldr	r0, .L91
 1316 0008 FFF7FEFF 		bl	GUI_DispStringAt
 1317              	.LVL95:
 277:API/Menu.c    **** 	GUI_DispStringAt("Multi Menu Test",0,40);
 1318              		.loc 1 277 2 view .LVU141
 1319 000c 2822     		movs	r2, #40
 1320 000e 0021     		movs	r1, #0
 1321 0010 0748     		ldr	r0, .L91+4
 1322 0012 FFF7FEFF 		bl	GUI_DispStringAt
 1323              	.LVL96:
 278:API/Menu.c    **** 	GUI_DispStringAt("",0,64);
 1324              		.loc 1 278 2 view .LVU142
 1325 0016 4022     		movs	r2, #64
 1326 0018 0021     		movs	r1, #0
 1327 001a 0648     		ldr	r0, .L91+8
 1328 001c FFF7FEFF 		bl	GUI_DispStringAt
 1329              	.LVL97:
 279:API/Menu.c    **** 	GUI_DispStringAt("Enter to Test",0,88);																						
 1330              		.loc 1 279 2 view .LVU143
 1331 0020 5822     		movs	r2, #88
 1332 0022 0021     		movs	r1, #0
 1333 0024 0448     		ldr	r0, .L91+12
 1334 0026 FFF7FEFF 		bl	GUI_DispStringAt
 1335              	.LVL98:
 280:API/Menu.c    **** }
 1336              		.loc 1 280 1 is_stmt 0 view .LVU144
 1337 002a 08BD     		pop	{r3, pc}
 1338              	.L92:
 1339              		.align	2
 1340              	.L91:
 1341 002c 00000000 		.word	.LC4
 1342 0030 08000000 		.word	.LC5
 1343 0034 18000000 		.word	.LC6
 1344 0038 1C000000 		.word	.LC7
 1345              		.cfi_endproc
 1346              	.LFE26:
ARM GAS  F:\msys64\tmp\ccTIrpu5.s 			page 29


 1348              		.section	.text.fun_c33,"ax",%progbits
 1349              		.align	1
 1350              		.global	fun_c33
 1351              		.syntax unified
 1352              		.thumb
 1353              		.thumb_func
 1355              	fun_c33:
 1356              	.LFB27:
 281:API/Menu.c    **** 
 282:API/Menu.c    **** void fun_c33()    
 283:API/Menu.c    **** {	
 1357              		.loc 1 283 1 is_stmt 1 view -0
 1358              		.cfi_startproc
 1359              		@ args = 0, pretend = 0, frame = 0
 1360              		@ frame_needed = 0, uses_anonymous_args = 0
 1361 0000 08B5     		push	{r3, lr}
 1362              	.LCFI25:
 1363              		.cfi_def_cfa_offset 8
 1364              		.cfi_offset 3, -8
 1365              		.cfi_offset 14, -4
 284:API/Menu.c    **** 	GUI_DispStringAt("STM32",0,16);
 1366              		.loc 1 284 2 view .LVU146
 1367 0002 1022     		movs	r2, #16
 1368 0004 0021     		movs	r1, #0
 1369 0006 0948     		ldr	r0, .L95
 1370 0008 FFF7FEFF 		bl	GUI_DispStringAt
 1371              	.LVL99:
 285:API/Menu.c    **** 	GUI_DispStringAt("Multi Menu Test",0,40);
 1372              		.loc 1 285 2 view .LVU147
 1373 000c 2822     		movs	r2, #40
 1374 000e 0021     		movs	r1, #0
 1375 0010 0748     		ldr	r0, .L95+4
 1376 0012 FFF7FEFF 		bl	GUI_DispStringAt
 1377              	.LVL100:
 286:API/Menu.c    **** 	GUI_DispStringAt("",0,64);
 1378              		.loc 1 286 2 view .LVU148
 1379 0016 4022     		movs	r2, #64
 1380 0018 0021     		movs	r1, #0
 1381 001a 0648     		ldr	r0, .L95+8
 1382 001c FFF7FEFF 		bl	GUI_DispStringAt
 1383              	.LVL101:
 287:API/Menu.c    **** 	GUI_DispStringAt("Enter to Test",0,88);																					
 1384              		.loc 1 287 2 view .LVU149
 1385 0020 5822     		movs	r2, #88
 1386 0022 0021     		movs	r1, #0
 1387 0024 0448     		ldr	r0, .L95+12
 1388 0026 FFF7FEFF 		bl	GUI_DispStringAt
 1389              	.LVL102:
 288:API/Menu.c    **** }
 1390              		.loc 1 288 1 is_stmt 0 view .LVU150
 1391 002a 08BD     		pop	{r3, pc}
 1392              	.L96:
 1393              		.align	2
 1394              	.L95:
 1395 002c 00000000 		.word	.LC4
 1396 0030 08000000 		.word	.LC5
 1397 0034 18000000 		.word	.LC6
ARM GAS  F:\msys64\tmp\ccTIrpu5.s 			page 30


 1398 0038 1C000000 		.word	.LC7
 1399              		.cfi_endproc
 1400              	.LFE27:
 1402              		.global	__aeabi_f2d
 1403              		.section	.rodata.fun_b1.str1.4,"aMS",%progbits,1
 1404              		.align	2
 1405              	.LC8:
 1406 0000 252E3066 		.ascii	"%.0f\241\346\000"
 1406      A1E600
 1407              		.section	.text.fun_b1,"ax",%progbits
 1408              		.align	1
 1409              		.global	fun_b1
 1410              		.syntax unified
 1411              		.thumb
 1412              		.thumb_func
 1414              	fun_b1:
 1415              	.LFB4:
  88:API/Menu.c    **** 	GUI_SetColor(GUI_BLUE);
 1416              		.loc 1 88 1 is_stmt 1 view -0
 1417              		.cfi_startproc
 1418              		@ args = 0, pretend = 0, frame = 16
 1419              		@ frame_needed = 0, uses_anonymous_args = 0
 1420 0000 00B5     		push	{lr}
 1421              	.LCFI26:
 1422              		.cfi_def_cfa_offset 4
 1423              		.cfi_offset 14, -4
 1424 0002 87B0     		sub	sp, sp, #28
 1425              	.LCFI27:
 1426              		.cfi_def_cfa_offset 32
  89:API/Menu.c    **** 	GUI_DrawRoundedFrame(168,16,268,216,8,8);
 1427              		.loc 1 89 2 view .LVU152
 1428 0004 1048     		ldr	r0, .L99
 1429 0006 FFF7FEFF 		bl	GUI_SetColor
 1430              	.LVL103:
  90:API/Menu.c    ****   	GUI_SetFont(&GUI_FontHZ_KaiTi_32);
 1431              		.loc 1 90 2 view .LVU153
 1432 000a 0823     		movs	r3, #8
 1433 000c 0193     		str	r3, [sp, #4]
 1434 000e 0093     		str	r3, [sp]
 1435 0010 D823     		movs	r3, #216
 1436 0012 4FF48672 		mov	r2, #268
 1437 0016 1021     		movs	r1, #16
 1438 0018 A820     		movs	r0, #168
 1439 001a FFF7FEFF 		bl	GUI_DrawRoundedFrame
 1440              	.LVL104:
  91:API/Menu.c    **** 	char buf[10];
 1441              		.loc 1 91 4 view .LVU154
 1442 001e 0B48     		ldr	r0, .L99+4
 1443 0020 FFF7FEFF 		bl	GUI_SetFont
 1444              	.LVL105:
  92:API/Menu.c    **** 	sprintf(buf,"%.0f℃", g_tmp);
 1445              		.loc 1 92 2 view .LVU155
  93:API/Menu.c    **** 	GUI_DispStringAt(buf, 20 , 0);
 1446              		.loc 1 93 2 view .LVU156
 1447 0024 0A4B     		ldr	r3, .L99+8
 1448 0026 1868     		ldr	r0, [r3]	@ float
 1449 0028 FFF7FEFF 		bl	__aeabi_f2d
ARM GAS  F:\msys64\tmp\ccTIrpu5.s 			page 31


 1450              	.LVL106:
 1451 002c 0246     		mov	r2, r0
 1452 002e 0B46     		mov	r3, r1
 1453 0030 0849     		ldr	r1, .L99+12
 1454 0032 03A8     		add	r0, sp, #12
 1455 0034 FFF7FEFF 		bl	sprintf
 1456              	.LVL107:
  94:API/Menu.c    ****     
 1457              		.loc 1 94 2 view .LVU157
 1458 0038 0022     		movs	r2, #0
 1459 003a 1421     		movs	r1, #20
 1460 003c 03A8     		add	r0, sp, #12
 1461 003e FFF7FEFF 		bl	GUI_DispStringAt
 1462              	.LVL108:
  96:API/Menu.c    **** void fun_c1()
 1463              		.loc 1 96 1 is_stmt 0 view .LVU158
 1464 0042 07B0     		add	sp, sp, #28
 1465              	.LCFI28:
 1466              		.cfi_def_cfa_offset 4
 1467              		@ sp needed
 1468 0044 5DF804FB 		ldr	pc, [sp], #4
 1469              	.L100:
 1470              		.align	2
 1471              	.L99:
 1472 0048 FF0000FF 		.word	-16776961
 1473 004c 00000000 		.word	GUI_FontHZ_KaiTi_32
 1474 0050 00000000 		.word	g_tmp
 1475 0054 00000000 		.word	.LC8
 1476              		.cfi_endproc
 1477              	.LFE4:
 1479              		.section	.text.fun_0,"ax",%progbits
 1480              		.align	1
 1481              		.global	fun_0
 1482              		.syntax unified
 1483              		.thumb
 1484              		.thumb_func
 1486              	fun_0:
 1487              	.LFB28:
 289:API/Menu.c    **** 
 290:API/Menu.c    **** /*
 291:API/Menu.c    ****     ***** index_0 *****
 292:API/Menu.c    **** */
 293:API/Menu.c    **** 
 294:API/Menu.c    **** void fun_0()
 295:API/Menu.c    **** {
 1488              		.loc 1 295 1 is_stmt 1 view -0
 1489              		.cfi_startproc
 1490              		@ args = 0, pretend = 0, frame = 0
 1491              		@ frame_needed = 0, uses_anonymous_args = 0
 1492 0000 30B5     		push	{r4, r5, lr}
 1493              	.LCFI29:
 1494              		.cfi_def_cfa_offset 12
 1495              		.cfi_offset 4, -12
 1496              		.cfi_offset 5, -8
 1497              		.cfi_offset 14, -4
 1498 0002 83B0     		sub	sp, sp, #12
 1499              	.LCFI30:
ARM GAS  F:\msys64\tmp\ccTIrpu5.s 			page 32


 1500              		.cfi_def_cfa_offset 24
 296:API/Menu.c    **** 	GUI_SetBkColor(GUI_GRAY_D0);
 1501              		.loc 1 296 2 view .LVU160
 1502 0004 2748     		ldr	r0, .L103
 1503 0006 FFF7FEFF 		bl	GUI_SetBkColor
 1504              	.LVL109:
 297:API/Menu.c    **** 	GUI_ClearRect(0, 0, LCD_GetXSize(), LCD_GetYSize());
 1505              		.loc 1 297 2 view .LVU161
 1506 000a FFF7FEFF 		bl	LCD_GetXSize
 1507              	.LVL110:
 1508 000e 0446     		mov	r4, r0
 1509 0010 FFF7FEFF 		bl	LCD_GetYSize
 1510              	.LVL111:
 1511 0014 0346     		mov	r3, r0
 1512 0016 2246     		mov	r2, r4
 1513 0018 0021     		movs	r1, #0
 1514 001a 0846     		mov	r0, r1
 1515 001c FFF7FEFF 		bl	GUI_ClearRect
 1516              	.LVL112:
 298:API/Menu.c    ****     GUI_SetColor(GUI_BROWN);
 1517              		.loc 1 298 5 view .LVU162
 1518 0020 2148     		ldr	r0, .L103+4
 1519 0022 FFF7FEFF 		bl	GUI_SetColor
 1520              	.LVL113:
 299:API/Menu.c    ****     GUI_SetFont(&GUI_FontHZ_KaiTi_20);
 1521              		.loc 1 299 5 view .LVU163
 1522 0026 2148     		ldr	r0, .L103+8
 1523 0028 FFF7FEFF 		bl	GUI_SetFont
 1524              	.LVL114:
 300:API/Menu.c    **** 	GUI_DrawRoundedFrame(8,4,108,62,4,6);
 1525              		.loc 1 300 2 view .LVU164
 1526 002c 0625     		movs	r5, #6
 1527 002e 0195     		str	r5, [sp, #4]
 1528 0030 0424     		movs	r4, #4
 1529 0032 0094     		str	r4, [sp]
 1530 0034 3E23     		movs	r3, #62
 1531 0036 6C22     		movs	r2, #108
 1532 0038 2146     		mov	r1, r4
 1533 003a 0820     		movs	r0, #8
 1534 003c FFF7FEFF 		bl	GUI_DrawRoundedFrame
 1535              	.LVL115:
 301:API/Menu.c    **** 	GUI_DrawRoundedFrame(8,62,108,120,4,6);
 1536              		.loc 1 301 2 view .LVU165
 1537 0040 0195     		str	r5, [sp, #4]
 1538 0042 0094     		str	r4, [sp]
 1539 0044 7823     		movs	r3, #120
 1540 0046 6C22     		movs	r2, #108
 1541 0048 3E21     		movs	r1, #62
 1542 004a 0820     		movs	r0, #8
 1543 004c FFF7FEFF 		bl	GUI_DrawRoundedFrame
 1544              	.LVL116:
 302:API/Menu.c    **** 	GUI_DrawRoundedFrame(8,120,108,178,4,6);
 1545              		.loc 1 302 2 view .LVU166
 1546 0050 0195     		str	r5, [sp, #4]
 1547 0052 0094     		str	r4, [sp]
 1548 0054 B223     		movs	r3, #178
 1549 0056 6C22     		movs	r2, #108
ARM GAS  F:\msys64\tmp\ccTIrpu5.s 			page 33


 1550 0058 7821     		movs	r1, #120
 1551 005a 0820     		movs	r0, #8
 1552 005c FFF7FEFF 		bl	GUI_DrawRoundedFrame
 1553              	.LVL117:
 303:API/Menu.c    **** 	GUI_DrawRoundedFrame(8,178,108,236,4,6);
 1554              		.loc 1 303 2 view .LVU167
 1555 0060 0195     		str	r5, [sp, #4]
 1556 0062 0094     		str	r4, [sp]
 1557 0064 EC23     		movs	r3, #236
 1558 0066 6C22     		movs	r2, #108
 1559 0068 B221     		movs	r1, #178
 1560 006a 0820     		movs	r0, #8
 1561 006c FFF7FEFF 		bl	GUI_DrawRoundedFrame
 1562              	.LVL118:
 304:API/Menu.c    **** 
 305:API/Menu.c    **** 	GUI_SetColor(GUI_BLACK);
 1563              		.loc 1 305 2 view .LVU168
 1564 0070 4FF07F40 		mov	r0, #-16777216
 1565 0074 FFF7FEFF 		bl	GUI_SetColor
 1566              	.LVL119:
 306:API/Menu.c    **** 	GUI_DispStringAt("实时监测",16,24);
 1567              		.loc 1 306 2 view .LVU169
 1568 0078 1822     		movs	r2, #24
 1569 007a 1021     		movs	r1, #16
 1570 007c 0C48     		ldr	r0, .L103+12
 1571 007e FFF7FEFF 		bl	GUI_DispStringAt
 1572              	.LVL120:
 307:API/Menu.c    **** 	GUI_DispStringAt("数据曲线",16,82);
 1573              		.loc 1 307 2 view .LVU170
 1574 0082 5222     		movs	r2, #82
 1575 0084 1021     		movs	r1, #16
 1576 0086 0B48     		ldr	r0, .L103+16
 1577 0088 FFF7FEFF 		bl	GUI_DispStringAt
 1578              	.LVL121:
 308:API/Menu.c    **** 	GUI_DispStringAt("无线通信",16,140);
 1579              		.loc 1 308 2 view .LVU171
 1580 008c 8C22     		movs	r2, #140
 1581 008e 1021     		movs	r1, #16
 1582 0090 0948     		ldr	r0, .L103+20
 1583 0092 FFF7FEFF 		bl	GUI_DispStringAt
 1584              	.LVL122:
 309:API/Menu.c    **** 	GUI_DispStringAt("参数设置",16,198);
 1585              		.loc 1 309 2 view .LVU172
 1586 0096 C622     		movs	r2, #198
 1587 0098 1021     		movs	r1, #16
 1588 009a 0848     		ldr	r0, .L103+24
 1589 009c FFF7FEFF 		bl	GUI_DispStringAt
 1590              	.LVL123:
 310:API/Menu.c    **** }
 1591              		.loc 1 310 1 is_stmt 0 view .LVU173
 1592 00a0 03B0     		add	sp, sp, #12
 1593              	.LCFI31:
 1594              		.cfi_def_cfa_offset 12
 1595              		@ sp needed
 1596 00a2 30BD     		pop	{r4, r5, pc}
 1597              	.L104:
 1598              		.align	2
ARM GAS  F:\msys64\tmp\ccTIrpu5.s 			page 34


 1599              	.L103:
 1600 00a4 D0D0D0FF 		.word	-3092272
 1601 00a8 2A2AA5FF 		.word	-5952982
 1602 00ac 00000000 		.word	GUI_FontHZ_KaiTi_20
 1603 00b0 00000000 		.word	.LC0
 1604 00b4 0C000000 		.word	.LC1
 1605 00b8 18000000 		.word	.LC2
 1606 00bc 24000000 		.word	.LC3
 1607              		.cfi_endproc
 1608              	.LFE28:
 1610              		.global	table
 1611              		.section	.data.table,"aw"
 1612              		.align	2
 1615              	table:
 1616 0000 00       		.byte	0
 1617 0001 00       		.byte	0
 1618 0002 00       		.byte	0
 1619 0003 01       		.byte	1
 1620 0004 00000000 		.word	fun_0
 1621 0008 01       		.byte	1
 1622 0009 04       		.byte	4
 1623 000a 02       		.byte	2
 1624 000b 05       		.byte	5
 1625 000c 00000000 		.word	fun_a1
 1626 0010 02       		.byte	2
 1627 0011 01       		.byte	1
 1628 0012 03       		.byte	3
 1629 0013 09       		.byte	9
 1630 0014 00000000 		.word	fun_b1
 1631 0018 03       		.byte	3
 1632 0019 02       		.byte	2
 1633 001a 04       		.byte	4
 1634 001b 0D       		.byte	13
 1635 001c 00000000 		.word	fun_c1
 1636 0020 04       		.byte	4
 1637 0021 03       		.byte	3
 1638 0022 01       		.byte	1
 1639 0023 00       		.byte	0
 1640 0024 00000000 		.word	fun_d1
 1641 0028 05       		.byte	5
 1642 0029 08       		.byte	8
 1643 002a 06       		.byte	6
 1644 002b 11       		.byte	17
 1645 002c 00000000 		.word	fun_a21
 1646 0030 06       		.byte	6
 1647 0031 05       		.byte	5
 1648 0032 07       		.byte	7
 1649 0033 12       		.byte	18
 1650 0034 00000000 		.word	fun_a22
 1651 0038 07       		.byte	7
 1652 0039 06       		.byte	6
 1653 003a 08       		.byte	8
 1654 003b 13       		.byte	19
 1655 003c 00000000 		.word	fun_a23
 1656 0040 08       		.byte	8
 1657 0041 07       		.byte	7
 1658 0042 05       		.byte	5
ARM GAS  F:\msys64\tmp\ccTIrpu5.s 			page 35


 1659 0043 01       		.byte	1
 1660 0044 00000000 		.word	fun_a24
 1661 0048 09       		.byte	9
 1662 0049 0C       		.byte	12
 1663 004a 0A       		.byte	10
 1664 004b 14       		.byte	20
 1665 004c 00000000 		.word	fun_b21
 1666 0050 0A       		.byte	10
 1667 0051 09       		.byte	9
 1668 0052 0B       		.byte	11
 1669 0053 15       		.byte	21
 1670 0054 00000000 		.word	fun_b22
 1671 0058 0B       		.byte	11
 1672 0059 0A       		.byte	10
 1673 005a 0C       		.byte	12
 1674 005b 16       		.byte	22
 1675 005c 00000000 		.word	fun_b23
 1676 0060 0C       		.byte	12
 1677 0061 0B       		.byte	11
 1678 0062 09       		.byte	9
 1679 0063 02       		.byte	2
 1680 0064 00000000 		.word	fun_b24
 1681 0068 0D       		.byte	13
 1682 0069 10       		.byte	16
 1683 006a 0E       		.byte	14
 1684 006b 17       		.byte	23
 1685 006c 00000000 		.word	fun_c21
 1686 0070 0E       		.byte	14
 1687 0071 0D       		.byte	13
 1688 0072 0F       		.byte	15
 1689 0073 18       		.byte	24
 1690 0074 00000000 		.word	fun_c22
 1691 0078 0F       		.byte	15
 1692 0079 0E       		.byte	14
 1693 007a 10       		.byte	16
 1694 007b 19       		.byte	25
 1695 007c 00000000 		.word	fun_c23
 1696 0080 10       		.byte	16
 1697 0081 0F       		.byte	15
 1698 0082 0D       		.byte	13
 1699 0083 03       		.byte	3
 1700 0084 00000000 		.word	fun_c24
 1701 0088 11       		.byte	17
 1702 0089 11       		.byte	17
 1703 008a 11       		.byte	17
 1704 008b 05       		.byte	5
 1705 008c 00000000 		.word	fun_a31
 1706 0090 12       		.byte	18
 1707 0091 12       		.byte	18
 1708 0092 12       		.byte	18
 1709 0093 06       		.byte	6
 1710 0094 00000000 		.word	fun_a32
 1711 0098 13       		.byte	19
 1712 0099 13       		.byte	19
 1713 009a 13       		.byte	19
 1714 009b 07       		.byte	7
 1715 009c 00000000 		.word	fun_a33
ARM GAS  F:\msys64\tmp\ccTIrpu5.s 			page 36


 1716 00a0 14       		.byte	20
 1717 00a1 14       		.byte	20
 1718 00a2 14       		.byte	20
 1719 00a3 09       		.byte	9
 1720 00a4 00000000 		.word	fun_b31
 1721 00a8 15       		.byte	21
 1722 00a9 15       		.byte	21
 1723 00aa 15       		.byte	21
 1724 00ab 0A       		.byte	10
 1725 00ac 00000000 		.word	fun_b32
 1726 00b0 16       		.byte	22
 1727 00b1 16       		.byte	22
 1728 00b2 16       		.byte	22
 1729 00b3 0B       		.byte	11
 1730 00b4 00000000 		.word	fun_b33
 1731 00b8 17       		.byte	23
 1732 00b9 17       		.byte	23
 1733 00ba 17       		.byte	23
 1734 00bb 0D       		.byte	13
 1735 00bc 00000000 		.word	fun_c31
 1736 00c0 18       		.byte	24
 1737 00c1 18       		.byte	24
 1738 00c2 18       		.byte	24
 1739 00c3 0E       		.byte	14
 1740 00c4 00000000 		.word	fun_c32
 1741 00c8 19       		.byte	25
 1742 00c9 19       		.byte	25
 1743 00ca 19       		.byte	25
 1744 00cb 0F       		.byte	15
 1745 00cc 00000000 		.word	fun_c33
 1746 00d0 00000000 		.space	32
 1746      00000000 
 1746      00000000 
 1746      00000000 
 1746      00000000 
 1747              		.text
 1748              	.Letext0:
 1749              		.file 2 "Drivers/STemWin/inc/GUI_Type.h"
 1750              		.file 3 "API/Menu.h"
 1751              		.file 4 "Drivers/STemWin/inc/GUI.h"
 1752              		.file 5 "Drivers/STemWin/inc/LCD.h"
 1753              		.file 6 "f:\\stm32\\win-dev-tools\\gcc-arm-none-eabi\\arm-none-eabi\\include\\stdio.h"
ARM GAS  F:\msys64\tmp\ccTIrpu5.s 			page 37

